
obj/coremark/main.elf:     file format elf32-loongarch
obj/coremark/main.elf


Disassembly of section .text:

1c000000 <_ftext>:
_ftext():
1c000000:	157f5f19 	lu12i.w	$r25,-263432(0xbfaf8)
1c000004:	03bff339 	ori	$r25,$r25,0xffc
1c000008:	29800320 	st.w	$r0,$r25,0
1c00000c:	157f5ff9 	lu12i.w	$r25,-263425(0xbfaff)
1c000010:	03bcc339 	ori	$r25,$r25,0xf30
1c000014:	29800320 	st.w	$r0,$r25,0
1c000018:	157f5f19 	lu12i.w	$r25,-263432(0xbfaf8)
1c00001c:	03bff339 	ori	$r25,$r25,0xffc
1c000020:	29800320 	st.w	$r0,$r25,0
1c000024:	157f5f19 	lu12i.w	$r25,-263432(0xbfaf8)
1c000028:	03bff339 	ori	$r25,$r25,0xffc
1c00002c:	29800320 	st.w	$r0,$r25,0
1c000030:	157f5ff9 	lu12i.w	$r25,-263425(0xbfaff)
1c000034:	03bd0339 	ori	$r25,$r25,0xf40
1c000038:	29800320 	st.w	$r0,$r25,0
1c00003c:	157f5f19 	lu12i.w	$r25,-263432(0xbfaf8)
1c000040:	03bff339 	ori	$r25,$r25,0xffc
1c000044:	29800320 	st.w	$r0,$r25,0
1c000048:	04060020 	csrwr	$r0,0x180
1c00004c:	04060420 	csrwr	$r0,0x181
1c000050:	0380640c 	ori	$r12,$r0,0x19
1c000054:	0406002c 	csrwr	$r12,0x180
1c000058:	1540000c 	lu12i.w	$r12,-393216(0xa0000)
1c00005c:	0380258c 	ori	$r12,$r12,0x9
1c000060:	0406042c 	csrwr	$r12,0x181
1c000064:	0380400c 	ori	$r12,$r0,0x10
1c000068:	0380600d 	ori	$r13,$r0,0x18
1c00006c:	040001ac 	csrxchg	$r12,$r13,0x0
1c000070:	1438000c 	lu12i.w	$r12,114688(0x1c000)
1c000074:	038e018c 	ori	$r12,$r12,0x380
1c000078:	0400302c 	csrwr	$r12,0xc
1c00007c:	1c000123 	pcaddu12i	$r3,9(0x9)
1c000080:	288f0063 	ld.w	$r3,$r3,960(0x3c0)
1c000084:	50030800 	b	776(0x308) # 1c00038c <run_test>
	...

1c000100 <test_finish>:
test_finish():
1c000100:	0280058c 	addi.w	$r12,$r12,1(0x1)
1c000104:	157f5fee 	lu12i.w	$r14,-263425(0xbfaff)
1c000108:	03bc41ce 	ori	$r14,$r14,0xf10
1c00010c:	298001c0 	st.w	$r0,$r14,0
1c000110:	157f5fec 	lu12i.w	$r12,-263425(0xbfaff)
1c000114:	0381818c 	ori	$r12,$r12,0x60
1c000118:	2880018c 	ld.w	$r12,$r12,0
1c00011c:	0342018c 	andi	$r12,$r12,0x80
1c000120:	5800180c 	beq	$r0,$r12,24(0x18) # 1c000138 <test_finish+0x38>
1c000124:	03400000 	andi	$r0,$r0,0x0
1c000128:	157f5f0c 	lu12i.w	$r12,-263432(0xbfaf8)
1c00012c:	2880018d 	ld.w	$r13,$r12,0
1c000130:	50001400 	b	20(0x14) # 1c000144 <test_finish+0x44>
1c000134:	03400000 	andi	$r0,$r0,0x0
1c000138:	157f5f0c 	lu12i.w	$r12,-263432(0xbfaf8)
1c00013c:	0380418c 	ori	$r12,$r12,0x10
1c000140:	2880018d 	ld.w	$r13,$r12,0
1c000144:	157f5fec 	lu12i.w	$r12,-263425(0xbfaff)
1c000148:	0381418c 	ori	$r12,$r12,0x50
1c00014c:	2980018d 	st.w	$r13,$r12,0
1c000150:	53ffc3ff 	b	-64(0xfffffc0) # 1c000110 <test_finish+0x10>
1c000154:	03400000 	andi	$r0,$r0,0x0
1c000158:	1500000c 	lu12i.w	$r12,-524288(0x80000)
1c00015c:	028005ad 	addi.w	$r13,$r13,1(0x1)
1c000160:	0015018e 	move	$r14,$r12
1c000164:	00104a2f 	add.w	$r15,$r17,$r18
1c000168:	28800190 	ld.w	$r16,$r12,0
	...
1c000380:	0280058c 	addi.w	$r12,$r12,1(0x1)
1c000384:	53ffffff 	b	-4(0xffffffc) # 1c000380 <test_finish+0x280>
1c000388:	03400000 	andi	$r0,$r0,0x0

1c00038c <run_test>:
run_test():
1c00038c:	54001400 	bl	20(0x14) # 1c0003a0 <shell3>
1c000390:	03400000 	andi	$r0,$r0,0x0

1c000394 <go_finish>:
go_finish():
1c000394:	53fd6fff 	b	-660(0xffffd6c) # 1c000100 <test_finish>
	...

1c0003a0 <shell3>:
shell3():
1c0003a0:	02bf8063 	addi.w	$r3,$r3,-32(0xfe0)
1c0003a4:	29807061 	st.w	$r1,$r3,28(0x1c)
1c0003a8:	157f5fcc 	lu12i.w	$r12,-263426(0xbfafe)
1c0003ac:	29804079 	st.w	$r25,$r3,16(0x10)
1c0003b0:	2980307a 	st.w	$r26,$r3,12(0xc)
1c0003b4:	29806077 	st.w	$r23,$r3,24(0x18)
1c0003b8:	29805078 	st.w	$r24,$r3,20(0x14)
1c0003bc:	29800180 	st.w	$r0,$r12,0
1c0003c0:	1c000124 	pcaddu12i	$r4,9(0x9)
1c0003c4:	02a15084 	addi.w	$r4,$r4,-1964(0x854)
1c0003c8:	5483c400 	bl	33732(0x83c4) # 1c00878c <puts>
1c0003cc:	54874400 	bl	34628(0x8744) # 1c008b10 <get_count>
1c0003d0:	00150099 	move	$r25,$r4
1c0003d4:	54875c00 	bl	34652(0x875c) # 1c008b30 <get_count_my>
1c0003d8:	0015009a 	move	$r26,$r4
1c0003dc:	157f5fe4 	lu12i.w	$r4,-263425(0xbfaff)
1c0003e0:	03bc8085 	ori	$r5,$r4,0xf20
1c0003e4:	288000a6 	ld.w	$r6,$r5,0
1c0003e8:	5c0110c0 	bne	$r6,$r0,272(0x110) # 1c0004f8 <shell3+0x158>
1c0003ec:	02802817 	addi.w	$r23,$r0,10(0xa)
1c0003f0:	00150018 	move	$r24,$r0
1c0003f4:	029f400a 	addi.w	$r10,$r0,2000(0x7d0)
1c0003f8:	02800409 	addi.w	$r9,$r0,1(0x1)
1c0003fc:	02801c08 	addi.w	$r8,$r0,7(0x7)
1c000400:	02800407 	addi.w	$r7,$r0,1(0x1)
1c000404:	02819806 	addi.w	$r6,$r0,102(0x66)
1c000408:	00150005 	move	$r5,$r0
1c00040c:	00150004 	move	$r4,$r0
1c000410:	5401d000 	bl	464(0x1d0) # 1c0005e0 <core_mark>
1c000414:	02bffef7 	addi.w	$r23,$r23,-1(0xfff)
1c000418:	00101318 	add.w	$r24,$r24,$r4
1c00041c:	5fffdae0 	bne	$r23,$r0,-40(0x3ffd8) # 1c0003f4 <shell3+0x54>
1c000420:	54871000 	bl	34576(0x8710) # 1c008b30 <get_count_my>
1c000424:	00150097 	move	$r23,$r4
1c000428:	5486e800 	bl	34536(0x86e8) # 1c008b10 <get_count>
1c00042c:	00116499 	sub.w	$r25,$r4,$r25
1c000430:	00116afa 	sub.w	$r26,$r23,$r26
1c000434:	58008f00 	beq	$r24,$r0,140(0x8c) # 1c0004c0 <shell3+0x120>
1c000438:	1c000124 	pcaddu12i	$r4,9(0x9)
1c00043c:	02a01084 	addi.w	$r4,$r4,-2044(0x804)
1c000440:	54834c00 	bl	33612(0x834c) # 1c00878c <puts>
1c000444:	157f5fe7 	lu12i.w	$r7,-263425(0xbfaff)
1c000448:	038100ee 	ori	$r14,$r7,0x40
1c00044c:	0280040f 	addi.w	$r15,$r0,1(0x1)
1c000450:	298001cf 	st.w	$r15,$r14,0
1c000454:	0380c0ed 	ori	$r13,$r7,0x30
1c000458:	02800809 	addi.w	$r9,$r0,2(0x2)
1c00045c:	038080e8 	ori	$r8,$r7,0x20
1c000460:	298001a9 	st.w	$r9,$r13,0
1c000464:	29800100 	st.w	$r0,$r8,0
1c000468:	157f5fe1 	lu12i.w	$r1,-263425(0xbfaff)
1c00046c:	0381402c 	ori	$r12,$r1,0x50
1c000470:	2980019a 	st.w	$r26,$r12,0
1c000474:	157f5f04 	lu12i.w	$r4,-263432(0xbfaf8)
1c000478:	2980009a 	st.w	$r26,$r4,0
1c00047c:	03804085 	ori	$r5,$r4,0x10
1c000480:	298000b9 	st.w	$r25,$r5,0
1c000484:	1c000104 	pcaddu12i	$r4,8(0x8)
1c000488:	029f3084 	addi.w	$r4,$r4,1996(0x7cc)
1c00048c:	00150325 	move	$r5,$r25
1c000490:	54801000 	bl	32784(0x8010) # 1c0084a0 <printf>
1c000494:	28807061 	ld.w	$r1,$r3,28(0x1c)
1c000498:	28806077 	ld.w	$r23,$r3,24(0x18)
1c00049c:	28805078 	ld.w	$r24,$r3,20(0x14)
1c0004a0:	28804079 	ld.w	$r25,$r3,16(0x10)
1c0004a4:	00150345 	move	$r5,$r26
1c0004a8:	2880307a 	ld.w	$r26,$r3,12(0xc)
1c0004ac:	1c000104 	pcaddu12i	$r4,8(0x8)
1c0004b0:	029f4084 	addi.w	$r4,$r4,2000(0x7d0)
1c0004b4:	02808063 	addi.w	$r3,$r3,32(0x20)
1c0004b8:	507fe800 	b	32744(0x7fe8) # 1c0084a0 <printf>
1c0004bc:	03400000 	andi	$r0,$r0,0x0
1c0004c0:	1c000104 	pcaddu12i	$r4,8(0x8)
1c0004c4:	029db084 	addi.w	$r4,$r4,1900(0x76c)
1c0004c8:	5482c400 	bl	33476(0x82c4) # 1c00878c <puts>
1c0004cc:	157f5fea 	lu12i.w	$r10,-263425(0xbfaff)
1c0004d0:	0280040b 	addi.w	$r11,$r0,1(0x1)
1c0004d4:	03810150 	ori	$r16,$r10,0x40
1c0004d8:	2980020b 	st.w	$r11,$r16,0
1c0004dc:	0380c151 	ori	$r17,$r10,0x30
1c0004e0:	140001f3 	lu12i.w	$r19,15(0xf)
1c0004e4:	03808152 	ori	$r18,$r10,0x20
1c0004e8:	2980022b 	st.w	$r11,$r17,0
1c0004ec:	03bffe74 	ori	$r20,$r19,0xfff
1c0004f0:	29800254 	st.w	$r20,$r18,0
1c0004f4:	53ff77ff 	b	-140(0xfffff74) # 1c000468 <shell3+0xc8>
1c0004f8:	029f400a 	addi.w	$r10,$r0,2000(0x7d0)
1c0004fc:	02800409 	addi.w	$r9,$r0,1(0x1)
1c000500:	02801c08 	addi.w	$r8,$r0,7(0x7)
1c000504:	02800407 	addi.w	$r7,$r0,1(0x1)
1c000508:	02819806 	addi.w	$r6,$r0,102(0x66)
1c00050c:	00150005 	move	$r5,$r0
1c000510:	00150004 	move	$r4,$r0
1c000514:	5400cc00 	bl	204(0xcc) # 1c0005e0 <core_mark>
1c000518:	00150098 	move	$r24,$r4
1c00051c:	54861400 	bl	34324(0x8614) # 1c008b30 <get_count_my>
1c000520:	00150097 	move	$r23,$r4
1c000524:	5485ec00 	bl	34284(0x85ec) # 1c008b10 <get_count>
1c000528:	00116499 	sub.w	$r25,$r4,$r25
1c00052c:	00116afa 	sub.w	$r26,$r23,$r26
1c000530:	5fff0b00 	bne	$r24,$r0,-248(0x3ff08) # 1c000438 <shell3+0x98>
1c000534:	53ff8fff 	b	-116(0xfffff8c) # 1c0004c0 <shell3+0x120>
1c000538:	03400000 	andi	$r0,$r0,0x0
1c00053c:	03400000 	andi	$r0,$r0,0x0

1c000540 <iterate>:
iterate():
1c000540:	02bfc063 	addi.w	$r3,$r3,-16(0xff0)
1c000544:	29800079 	st.w	$r25,$r3,0
1c000548:	28807099 	ld.w	$r25,$r4,28(0x1c)
1c00054c:	29803061 	st.w	$r1,$r3,12(0xc)
1c000550:	29802077 	st.w	$r23,$r3,8(0x8)
1c000554:	29801078 	st.w	$r24,$r3,4(0x4)
1c000558:	2980e080 	st.w	$r0,$r4,56(0x38)
1c00055c:	2980f080 	st.w	$r0,$r4,60(0x3c)
1c000560:	58004b20 	beq	$r25,$r0,72(0x48) # 1c0005a8 <iterate+0x68>
1c000564:	00150097 	move	$r23,$r4
1c000568:	00150018 	move	$r24,$r0
1c00056c:	02800405 	addi.w	$r5,$r0,1(0x1)
1c000570:	001502e4 	move	$r4,$r23
1c000574:	5469fc00 	bl	27132(0x69fc) # 1c006f70 <core_bench_list>
1c000578:	2a40e2e5 	ld.hu	$r5,$r23,56(0x38)
1c00057c:	544a8400 	bl	19076(0x4a84) # 1c005000 <crcu16>
1c000580:	2940e2e4 	st.h	$r4,$r23,56(0x38)
1c000584:	02bffc05 	addi.w	$r5,$r0,-1(0xfff)
1c000588:	001502e4 	move	$r4,$r23
1c00058c:	5469e400 	bl	27108(0x69e4) # 1c006f70 <core_bench_list>
1c000590:	2a40e2e5 	ld.hu	$r5,$r23,56(0x38)
1c000594:	544a6c00 	bl	19052(0x4a6c) # 1c005000 <crcu16>
1c000598:	2940e2e4 	st.h	$r4,$r23,56(0x38)
1c00059c:	58002b00 	beq	$r24,$r0,40(0x28) # 1c0005c4 <iterate+0x84>
1c0005a0:	02800718 	addi.w	$r24,$r24,1(0x1)
1c0005a4:	5fffcb38 	bne	$r25,$r24,-56(0x3ffc8) # 1c00056c <iterate+0x2c>
1c0005a8:	28803061 	ld.w	$r1,$r3,12(0xc)
1c0005ac:	28802077 	ld.w	$r23,$r3,8(0x8)
1c0005b0:	28801078 	ld.w	$r24,$r3,4(0x4)
1c0005b4:	28800079 	ld.w	$r25,$r3,0
1c0005b8:	00150004 	move	$r4,$r0
1c0005bc:	02804063 	addi.w	$r3,$r3,16(0x10)
1c0005c0:	4c000020 	jirl	$r0,$r1,0
1c0005c4:	2940eae4 	st.h	$r4,$r23,58(0x3a)
1c0005c8:	0280040c 	addi.w	$r12,$r0,1(0x1)
1c0005cc:	5bffdf2c 	beq	$r25,$r12,-36(0x3ffdc) # 1c0005a8 <iterate+0x68>
1c0005d0:	02800418 	addi.w	$r24,$r0,1(0x1)
1c0005d4:	53ff9bff 	b	-104(0xfffff98) # 1c00056c <iterate+0x2c>
1c0005d8:	03400000 	andi	$r0,$r0,0x0
1c0005dc:	03400000 	andi	$r0,$r0,0x0

1c0005e0 <core_mark>:
core_mark():
1c0005e0:	02a04063 	addi.w	$r3,$r3,-2032(0x810)
1c0005e4:	299f9077 	st.w	$r23,$r3,2020(0x7e4)
1c0005e8:	299f8078 	st.w	$r24,$r3,2016(0x7e0)
1c0005ec:	299f7079 	st.w	$r25,$r3,2012(0x7dc)
1c0005f0:	299fb061 	st.w	$r1,$r3,2028(0x7ec)
1c0005f4:	299fa076 	st.w	$r22,$r3,2024(0x7e8)
1c0005f8:	299f607a 	st.w	$r26,$r3,2008(0x7d8)
1c0005fc:	299f507b 	st.w	$r27,$r3,2004(0x7d4)
1c000600:	299f407c 	st.w	$r28,$r3,2000(0x7d0)
1c000604:	299f307d 	st.w	$r29,$r3,1996(0x7cc)
1c000608:	299f207e 	st.w	$r30,$r3,1992(0x7c8)
1c00060c:	299f107f 	st.w	$r31,$r3,1988(0x7c4)
1c000610:	00150117 	move	$r23,$r8
1c000614:	02be4063 	addi.w	$r3,$r3,-112(0xf90)
1c000618:	001500e8 	move	$r8,$r7
1c00061c:	29801064 	st.w	$r4,$r3,4(0x4)
1c000620:	001500b9 	move	$r25,$r5
1c000624:	29802066 	st.w	$r6,$r3,8(0x8)
1c000628:	001500f8 	move	$r24,$r7
1c00062c:	0015014b 	move	$r11,$r10
1c000630:	001500c7 	move	$r7,$r6
1c000634:	0015012a 	move	$r10,$r9
1c000638:	001500a6 	move	$r6,$r5
1c00063c:	001502e9 	move	$r9,$r23
1c000640:	00150085 	move	$r5,$r4
1c000644:	1c000104 	pcaddu12i	$r4,8(0x8)
1c000648:	02999084 	addi.w	$r4,$r4,1636(0x664)
1c00064c:	547e5400 	bl	32340(0x7e54) # 1c0084a0 <printf>
1c000650:	03a0800e 	ori	$r14,$r0,0x820
1c000654:	0280406f 	addi.w	$r15,$r3,16(0x10)
1c000658:	28401066 	ld.h	$r6,$r3,4(0x4)
1c00065c:	2840206c 	ld.h	$r12,$r3,8(0x8)
1c000660:	15ffffed 	lu12i.w	$r13,-1(0xfffff)
1c000664:	00103dc4 	add.w	$r4,$r14,$r15
1c000668:	0010348e 	add.w	$r14,$r4,$r13
1c00066c:	03a02007 	ori	$r7,$r0,0x808
1c000670:	001038e8 	add.w	$r8,$r7,$r14
1c000674:	2980106e 	st.w	$r14,$r3,4(0x4)
1c000678:	295fb1c6 	st.h	$r6,$r14,2028(0x7ec)
1c00067c:	295fb9d9 	st.h	$r25,$r14,2030(0x7ee)
1c000680:	295fc1cc 	st.h	$r12,$r14,2032(0x7f0)
1c000684:	29800118 	st.w	$r24,$r8,0
1c000688:	580c52e0 	beq	$r23,$r0,3152(0xc50) # 1c0012d8 <core_mark+0xcf8>
1c00068c:	03a03001 	ori	$r1,$r0,0x80c
1c000690:	03a08013 	ori	$r19,$r0,0x820
1c000694:	0280407b 	addi.w	$r27,$r3,16(0x10)
1c000698:	00103829 	add.w	$r9,$r1,$r14
1c00069c:	15fffff2 	lu12i.w	$r18,-1(0xfffff)
1c0006a0:	00106e7c 	add.w	$r28,$r19,$r27
1c0006a4:	00104b9d 	add.w	$r29,$r28,$r18
1c0006a8:	29800137 	st.w	$r23,$r9,0
1c0006ac:	289fb3be 	ld.w	$r30,$r29,2028(0x7ec)
1c0006b0:	034006fa 	andi	$r26,$r23,0x1
1c0006b4:	2980107d 	st.w	$r29,$r3,4(0x4)
1c0006b8:	00150354 	move	$r20,$r26
1c0006bc:	5801fbc0 	beq	$r30,$r0,504(0x1f8) # 1c0008b4 <core_mark+0x2d4>
1c0006c0:	0280041f 	addi.w	$r31,$r0,1(0x1)
1c0006c4:	5c002bdf 	bne	$r30,$r31,40(0x28) # 1c0006ec <core_mark+0x10c>
1c0006c8:	5c002580 	bne	$r12,$r0,36(0x24) # 1c0006ec <core_mark+0x10c>
1c0006cc:	2880106c 	ld.w	$r12,$r3,4(0x4)
1c0006d0:	14682a66 	lu12i.w	$r6,213331(0x34153)
1c0006d4:	039054d9 	ori	$r25,$r6,0x415
1c0006d8:	02819818 	addi.w	$r24,$r0,102(0x66)
1c0006dc:	1400006d 	lu12i.w	$r13,3(0x3)
1c0006e0:	29807079 	st.w	$r25,$r3,28(0x1c)
1c0006e4:	295fc198 	st.h	$r24,$r12,2032(0x7f0)
1c0006e8:	039055a6 	ori	$r6,$r13,0x415
1c0006ec:	03400ae5 	andi	$r5,$r23,0x2
1c0006f0:	0281806e 	addi.w	$r14,$r3,96(0x60)
1c0006f4:	00129408 	sltu	$r8,$r0,$r5
1c0006f8:	2980906e 	st.w	$r14,$r3,36(0x24)
1c0006fc:	29417060 	st.h	$r0,$r3,92(0x5c)
1c000700:	034012e1 	andi	$r1,$r23,0x4
1c000704:	00102349 	add.w	$r9,$r26,$r8
1c000708:	58001020 	beq	$r1,$r0,16(0x10) # 1c000718 <core_mark+0x138>
1c00070c:	0280052a 	addi.w	$r10,$r9,1(0x1)
1c000710:	2980106a 	st.w	$r10,$r3,4(0x4)
1c000714:	2a401069 	ld.hu	$r9,$r3,4(0x4)
1c000718:	03a08010 	ori	$r16,$r0,0x820
1c00071c:	02804071 	addi.w	$r17,$r3,16(0x10)
1c000720:	15ffffeb 	lu12i.w	$r11,-1(0xfffff)
1c000724:	00104612 	add.w	$r18,$r16,$r17
1c000728:	00102e53 	add.w	$r19,$r18,$r11
1c00072c:	29801073 	st.w	$r19,$r3,4(0x4)
1c000730:	2880107c 	ld.w	$r28,$r3,4(0x4)
1c000734:	03a0101d 	ori	$r29,$r0,0x804
1c000738:	029f401b 	addi.w	$r27,$r0,2000(0x7d0)
1c00073c:	001073be 	add.w	$r30,$r29,$r28
1c000740:	00212764 	div.wu	$r4,$r27,$r9
1c000744:	5c000920 	bne	$r9,$r0,8(0x8) # 1c00074c <core_mark+0x16c>
1c000748:	002a0007 	break	0x7
1c00074c:	298003c4 	st.w	$r4,$r30,0
1c000750:	0015000c 	move	$r12,$r0
1c000754:	5c0c2f40 	bne	$r26,$r0,3116(0xc2c) # 1c001380 <core_mark+0xda0>
1c000758:	5c0c38a0 	bne	$r5,$r0,3128(0xc38) # 1c001390 <core_mark+0xdb0>
1c00075c:	5c0c5420 	bne	$r1,$r0,3156(0xc54) # 1c0013b0 <core_mark+0xdd0>
1c000760:	58004680 	beq	$r20,$r0,68(0x44) # 1c0007a4 <core_mark+0x1c4>
1c000764:	03a08017 	ori	$r23,$r0,0x820
1c000768:	02804065 	addi.w	$r5,$r3,16(0x10)
1c00076c:	001016e1 	add.w	$r1,$r23,$r5
1c000770:	15fffff4 	lu12i.w	$r20,-1(0xfffff)
1c000774:	00105029 	add.w	$r9,$r1,$r20
1c000778:	289fe125 	ld.w	$r5,$r9,2040(0x7f8)
1c00077c:	29801069 	st.w	$r9,$r3,4(0x4)
1c000780:	5472b000 	bl	29360(0x72b0) # 1c007a30 <core_list_init>
1c000784:	28801066 	ld.w	$r6,$r3,4(0x4)
1c000788:	03a0300a 	ori	$r10,$r0,0x80c
1c00078c:	03a04010 	ori	$r16,$r0,0x810
1c000790:	0010194b 	add.w	$r11,$r10,$r6
1c000794:	28800177 	ld.w	$r23,$r11,0
1c000798:	00101a11 	add.w	$r17,$r16,$r6
1c00079c:	29800224 	st.w	$r4,$r17,0
1c0007a0:	03400ae5 	andi	$r5,$r23,0x2
1c0007a4:	5c0a6ca0 	bne	$r5,$r0,2668(0xa6c) # 1c001210 <core_mark+0xc30>
1c0007a8:	034012e7 	andi	$r7,$r23,0x4
1c0007ac:	58003ce0 	beq	$r7,$r0,60(0x3c) # 1c0007e8 <core_mark+0x208>
1c0007b0:	03a08014 	ori	$r20,$r0,0x820
1c0007b4:	0280406e 	addi.w	$r14,$r3,16(0x10)
1c0007b8:	15ffffe8 	lu12i.w	$r8,-1(0xfffff)
1c0007bc:	00103a97 	add.w	$r23,$r20,$r14
1c0007c0:	001022ed 	add.w	$r13,$r23,$r8
1c0007c4:	03a00009 	ori	$r9,$r0,0x800
1c0007c8:	03a0100a 	ori	$r10,$r0,0x804
1c0007cc:	00103526 	add.w	$r6,$r9,$r13
1c0007d0:	0010354b 	add.w	$r11,$r10,$r13
1c0007d4:	285fb1a5 	ld.h	$r5,$r13,2028(0x7ec)
1c0007d8:	288000c6 	ld.w	$r6,$r6,0
1c0007dc:	28800164 	ld.w	$r4,$r11,0
1c0007e0:	2980106d 	st.w	$r13,$r3,4(0x4)
1c0007e4:	545e5c00 	bl	24156(0x5e5c) # 1c006640 <core_init_state>
1c0007e8:	03a08010 	ori	$r16,$r0,0x820
1c0007ec:	02804071 	addi.w	$r17,$r3,16(0x10)
1c0007f0:	15ffffe5 	lu12i.w	$r5,-1(0xfffff)
1c0007f4:	00104604 	add.w	$r4,$r16,$r17
1c0007f8:	0010149c 	add.w	$r28,$r4,$r5
1c0007fc:	03a02012 	ori	$r18,$r0,0x808
1c000800:	00107253 	add.w	$r19,$r18,$r28
1c000804:	2880027b 	ld.w	$r27,$r19,0
1c000808:	5c011760 	bne	$r27,$r0,276(0x114) # 1c00091c <core_mark+0x33c>
1c00080c:	03a0801a 	ori	$r26,$r0,0x820
1c000810:	0280407f 	addi.w	$r31,$r3,16(0x10)
1c000814:	039fb0bd 	ori	$r29,$r5,0x7ec
1c000818:	00107f59 	add.w	$r25,$r26,$r31
1c00081c:	0280041b 	addi.w	$r27,$r0,1(0x1)
1c000820:	0280281e 	addi.w	$r30,$r0,10(0xa)
1c000824:	00107738 	add.w	$r24,$r25,$r29
1c000828:	001c7b6c 	mul.w	$r12,$r27,$r30
1c00082c:	03a0200f 	ori	$r15,$r0,0x808
1c000830:	001071e7 	add.w	$r7,$r15,$r28
1c000834:	0015001a 	move	$r26,$r0
1c000838:	298000ec 	st.w	$r12,$r7,0
1c00083c:	547bb400 	bl	31668(0x7bb4) # 1c0083f0 <start_time>
1c000840:	03a02008 	ori	$r8,$r0,0x808
1c000844:	00107114 	add.w	$r20,$r8,$r28
1c000848:	2880029b 	ld.w	$r27,$r20,0
1c00084c:	29815060 	st.w	$r0,$r3,84(0x54)
1c000850:	29816060 	st.w	$r0,$r3,88(0x58)
1c000854:	58004360 	beq	$r27,$r0,64(0x40) # 1c000894 <core_mark+0x2b4>
1c000858:	02800405 	addi.w	$r5,$r0,1(0x1)
1c00085c:	00150304 	move	$r4,$r24
1c000860:	54671000 	bl	26384(0x6710) # 1c006f70 <core_bench_list>
1c000864:	2a415065 	ld.hu	$r5,$r3,84(0x54)
1c000868:	54479800 	bl	18328(0x4798) # 1c005000 <crcu16>
1c00086c:	29415064 	st.h	$r4,$r3,84(0x54)
1c000870:	02bffc05 	addi.w	$r5,$r0,-1(0xfff)
1c000874:	00150304 	move	$r4,$r24
1c000878:	5466f800 	bl	26360(0x66f8) # 1c006f70 <core_bench_list>
1c00087c:	2a415065 	ld.hu	$r5,$r3,84(0x54)
1c000880:	54478000 	bl	18304(0x4780) # 1c005000 <crcu16>
1c000884:	29415064 	st.h	$r4,$r3,84(0x54)
1c000888:	580aab40 	beq	$r26,$r0,2728(0xaa8) # 1c001330 <core_mark+0xd50>
1c00088c:	0280075a 	addi.w	$r26,$r26,1(0x1)
1c000890:	5fffcb7a 	bne	$r27,$r26,-56(0x3ffc8) # 1c000858 <core_mark+0x278>
1c000894:	547b6c00 	bl	31596(0x7b6c) # 1c008400 <stop_time>
1c000898:	547b7800 	bl	31608(0x7b78) # 1c008410 <get_time>
1c00089c:	547bc400 	bl	31684(0x7bc4) # 1c008460 <time_in_secs>
1c0008a0:	5c003080 	bne	$r4,$r0,48(0x30) # 1c0008d0 <core_mark+0x2f0>
1c0008a4:	03a02017 	ori	$r23,$r0,0x808
1c0008a8:	001072ff 	add.w	$r31,$r23,$r28
1c0008ac:	288003fb 	ld.w	$r27,$r31,0
1c0008b0:	53ff7bff 	b	-136(0xfffff78) # 1c000828 <core_mark+0x248>
1c0008b4:	5ffe3980 	bne	$r12,$r0,-456(0x3fe38) # 1c0006ec <core_mark+0x10c>
1c0008b8:	28801064 	ld.w	$r4,$r3,4(0x4)
1c0008bc:	0281980f 	addi.w	$r15,$r0,102(0x66)
1c0008c0:	29807060 	st.w	$r0,$r3,28(0x1c)
1c0008c4:	295fc08f 	st.h	$r15,$r4,2032(0x7f0)
1c0008c8:	00150006 	move	$r6,$r0
1c0008cc:	53fe23ff 	b	-480(0xffffe20) # 1c0006ec <core_mark+0x10c>
1c0008d0:	03a0800d 	ori	$r13,$r0,0x820
1c0008d4:	02804061 	addi.w	$r1,$r3,16(0x10)
1c0008d8:	15fffff7 	lu12i.w	$r23,-1(0xfffff)
1c0008dc:	001005a9 	add.w	$r9,$r13,$r1
1c0008e0:	00105d2d 	add.w	$r13,$r9,$r23
1c0008e4:	03a0200a 	ori	$r10,$r0,0x808
1c0008e8:	0010354b 	add.w	$r11,$r10,$r13
1c0008ec:	28800165 	ld.w	$r5,$r11,0
1c0008f0:	02802810 	addi.w	$r16,$r0,10(0xa)
1c0008f4:	00211211 	div.wu	$r17,$r16,$r4
1c0008f8:	5c000880 	bne	$r4,$r0,8(0x8) # 1c000900 <core_mark+0x320>
1c0008fc:	002a0007 	break	0x7
1c000900:	02800624 	addi.w	$r4,$r17,1(0x1)
1c000904:	001c149c 	mul.w	$r28,$r4,$r5
1c000908:	2980106d 	st.w	$r13,$r3,4(0x4)
1c00090c:	28801072 	ld.w	$r18,$r3,4(0x4)
1c000910:	03a02013 	ori	$r19,$r0,0x808
1c000914:	00104a7d 	add.w	$r29,$r19,$r18
1c000918:	298003bc 	st.w	$r28,$r29,0
1c00091c:	1c000137 	pcaddu12i	$r23,9(0x9)
1c000920:	28ac92f7 	ld.w	$r23,$r23,-1244(0xb24)
1c000924:	1c000104 	pcaddu12i	$r4,8(0x8)
1c000928:	028ec084 	addi.w	$r4,$r4,944(0x3b0)
1c00092c:	0280041e 	addi.w	$r30,$r0,1(0x1)
1c000930:	298002fe 	st.w	$r30,$r23,0
1c000934:	547e5800 	bl	32344(0x7e58) # 1c00878c <puts>
1c000938:	54828800 	bl	33416(0x8288) # 1c008bc0 <get_ns>
1c00093c:	2880e07a 	ld.w	$r26,$r3,56(0x38)
1c000940:	15fffff9 	lu12i.w	$r25,-1(0xfffff)
1c000944:	03a0800c 	ori	$r12,$r0,0x820
1c000948:	02804067 	addi.w	$r7,$r3,16(0x10)
1c00094c:	039fb32f 	ori	$r15,$r25,0x7ec
1c000950:	00101d88 	add.w	$r8,$r12,$r7
1c000954:	29815060 	st.w	$r0,$r3,84(0x54)
1c000958:	29816060 	st.w	$r0,$r3,88(0x58)
1c00095c:	0015009f 	move	$r31,$r4
1c000960:	00150019 	move	$r25,$r0
1c000964:	00103d1b 	add.w	$r27,$r8,$r15
1c000968:	58004340 	beq	$r26,$r0,64(0x40) # 1c0009a8 <core_mark+0x3c8>
1c00096c:	02800405 	addi.w	$r5,$r0,1(0x1)
1c000970:	00150364 	move	$r4,$r27
1c000974:	5465fc00 	bl	26108(0x65fc) # 1c006f70 <core_bench_list>
1c000978:	2a415065 	ld.hu	$r5,$r3,84(0x54)
1c00097c:	54468400 	bl	18052(0x4684) # 1c005000 <crcu16>
1c000980:	29415064 	st.h	$r4,$r3,84(0x54)
1c000984:	02bffc05 	addi.w	$r5,$r0,-1(0xfff)
1c000988:	00150364 	move	$r4,$r27
1c00098c:	5465e400 	bl	26084(0x65e4) # 1c006f70 <core_bench_list>
1c000990:	2a415065 	ld.hu	$r5,$r3,84(0x54)
1c000994:	54466c00 	bl	18028(0x466c) # 1c005000 <crcu16>
1c000998:	29415064 	st.h	$r4,$r3,84(0x54)
1c00099c:	5808cf20 	beq	$r25,$r0,2252(0x8cc) # 1c001268 <core_mark+0xc88>
1c0009a0:	02800739 	addi.w	$r25,$r25,1(0x1)
1c0009a4:	5fffcb59 	bne	$r26,$r25,-56(0x3ffc8) # 1c00096c <core_mark+0x38c>
1c0009a8:	54821800 	bl	33304(0x8218) # 1c008bc0 <get_ns>
1c0009ac:	00117c9b 	sub.w	$r27,$r4,$r31
1c0009b0:	1c000104 	pcaddu12i	$r4,8(0x8)
1c0009b4:	028cc084 	addi.w	$r4,$r4,816(0x330)
1c0009b8:	547dd400 	bl	32212(0x7dd4) # 1c00878c <puts>
1c0009bc:	03a08009 	ori	$r9,$r0,0x820
1c0009c0:	0280406e 	addi.w	$r14,$r3,16(0x10)
1c0009c4:	15fffff4 	lu12i.w	$r20,-1(0xfffff)
1c0009c8:	0010392d 	add.w	$r13,$r9,$r14
1c0009cc:	001051a6 	add.w	$r6,$r13,$r20
1c0009d0:	285fb0c4 	ld.h	$r4,$r6,2028(0x7ec)
1c0009d4:	00150005 	move	$r5,$r0
1c0009d8:	29801066 	st.w	$r6,$r3,4(0x4)
1c0009dc:	544de400 	bl	19940(0x4de4) # 1c0057c0 <crc16>
1c0009e0:	2880106a 	ld.w	$r10,$r3,4(0x4)
1c0009e4:	00150085 	move	$r5,$r4
1c0009e8:	285fb944 	ld.h	$r4,$r10,2030(0x7ee)
1c0009ec:	544dd400 	bl	19924(0x4dd4) # 1c0057c0 <crc16>
1c0009f0:	2880106b 	ld.w	$r11,$r3,4(0x4)
1c0009f4:	00150085 	move	$r5,$r4
1c0009f8:	285fc164 	ld.h	$r4,$r11,2032(0x7f0)
1c0009fc:	544dc400 	bl	19908(0x4dc4) # 1c0057c0 <crc16>
1c000a00:	28801065 	ld.w	$r5,$r3,4(0x4)
1c000a04:	03a01010 	ori	$r16,$r0,0x804
1c000a08:	00101611 	add.w	$r17,$r16,$r5
1c000a0c:	2880023c 	ld.w	$r28,$r17,0
1c000a10:	00150085 	move	$r5,$r4
1c000a14:	2980107c 	st.w	$r28,$r3,4(0x4)
1c000a18:	28401064 	ld.h	$r4,$r3,4(0x4)
1c000a1c:	544da400 	bl	19876(0x4da4) # 1c0057c0 <crc16>
1c000a20:	0015009a 	move	$r26,$r4
1c000a24:	140000e4 	lu12i.w	$r4,7(0x7)
1c000a28:	03ac1492 	ori	$r18,$r4,0xb05
1c000a2c:	5809ab52 	beq	$r26,$r18,2472(0x9a8) # 1c0013d4 <core_mark+0xdf4>
1c000a30:	6c079a5a 	bgeu	$r18,$r26,1944(0x798) # 1c0011c8 <core_mark+0xbe8>
1c000a34:	1400011e 	lu12i.w	$r30,8(0x8)
1c000a38:	03a80bc1 	ori	$r1,$r30,0xa02
1c000a3c:	5809c741 	beq	$r26,$r1,2500(0x9c4) # 1c001400 <core_mark+0xe20>
1c000a40:	140001d8 	lu12i.w	$r24,14(0xe)
1c000a44:	03a7d70c 	ori	$r12,$r24,0x9f5
1c000a48:	5c086f4c 	bne	$r26,$r12,2156(0x86c) # 1c0012b4 <core_mark+0xcd4>
1c000a4c:	1c000104 	pcaddu12i	$r4,8(0x8)
1c000a50:	028cc084 	addi.w	$r4,$r4,816(0x330)
1c000a54:	547d3800 	bl	32056(0x7d38) # 1c00878c <puts>
1c000a58:	14000027 	lu12i.w	$r7,1(0x1)
1c000a5c:	03bf5cfd 	ori	$r29,$r7,0xfd7
1c000a60:	2980307d 	st.w	$r29,$r3,12(0xc)
1c000a64:	03b8ebd9 	ori	$r25,$r30,0xe3a
1c000a68:	039c5318 	ori	$r24,$r24,0x714
1c000a6c:	288002f1 	ld.w	$r17,$r23,0
1c000a70:	0015001c 	move	$r28,$r0
1c000a74:	00150016 	move	$r22,$r0
1c000a78:	5809e620 	beq	$r17,$r0,2532(0x9e4) # 1c00145c <core_mark+0xe7c>
1c000a7c:	0280407e 	addi.w	$r30,$r3,16(0x10)
1c000a80:	03a08013 	ori	$r19,$r0,0x820
1c000a84:	00107a61 	add.w	$r1,$r19,$r30
1c000a88:	15fffff2 	lu12i.w	$r18,-1(0xfffff)
1c000a8c:	0010483f 	add.w	$r31,$r1,$r18
1c000a90:	2980107f 	st.w	$r31,$r3,4(0x4)
1c000a94:	1400003e 	lu12i.w	$r30,1(0x1)
1c000a98:	0281101f 	addi.w	$r31,$r0,68(0x44)
1c000a9c:	50004000 	b	64(0x40) # 1c000adc <core_mark+0x4fc>
1c000aa0:	001c7ec7 	mul.w	$r7,$r22,$r31
1c000aa4:	2880106c 	ld.w	$r12,$r3,4(0x4)
1c000aa8:	00101d88 	add.w	$r8,$r12,$r7
1c000aac:	001023d4 	add.w	$r20,$r30,$r8
1c000ab0:	2a60b290 	ld.hu	$r16,$r20,-2004(0x82c)
1c000ab4:	0010721c 	add.w	$r28,$r16,$r28
1c000ab8:	2980207c 	st.w	$r28,$r3,8(0x8)
1c000abc:	028006d6 	addi.w	$r22,$r22,1(0x1)
1c000ac0:	2a402064 	ld.hu	$r4,$r3,8(0x8)
1c000ac4:	29802076 	st.w	$r22,$r3,8(0x8)
1c000ac8:	2a402076 	ld.hu	$r22,$r3,8(0x8)
1c000acc:	288002f1 	ld.w	$r17,$r23,0
1c000ad0:	29802064 	st.w	$r4,$r3,8(0x8)
1c000ad4:	2840207c 	ld.h	$r28,$r3,8(0x8)
1c000ad8:	6c00f2d1 	bgeu	$r22,$r17,240(0xf0) # 1c000bc8 <core_mark+0x5e8>
1c000adc:	001c7ecf 	mul.w	$r15,$r22,$r31
1c000ae0:	2880106c 	ld.w	$r12,$r3,4(0x4)
1c000ae4:	00103d87 	add.w	$r7,$r12,$r15
1c000ae8:	00101fc8 	add.w	$r8,$r30,$r7
1c000aec:	28a03114 	ld.w	$r20,$r8,-2036(0x80c)
1c000af0:	2960b100 	st.h	$r0,$r8,-2004(0x82c)
1c000af4:	03400689 	andi	$r9,$r20,0x1
1c000af8:	58003520 	beq	$r9,$r0,52(0x34) # 1c000b2c <core_mark+0x54c>
1c000afc:	2a609906 	ld.hu	$r6,$r8,-2010(0x826)
1c000b00:	29802068 	st.w	$r8,$r3,8(0x8)
1c000b04:	580028d8 	beq	$r6,$r24,40(0x28) # 1c000b2c <core_mark+0x54c>
1c000b08:	00150307 	move	$r7,$r24
1c000b0c:	001502c5 	move	$r5,$r22
1c000b10:	1c000104 	pcaddu12i	$r4,8(0x8)
1c000b14:	028b1084 	addi.w	$r4,$r4,708(0x2c4)
1c000b18:	54798800 	bl	31112(0x7988) # 1c0084a0 <printf>
1c000b1c:	2880206d 	ld.w	$r13,$r3,8(0x8)
1c000b20:	2a60b1ae 	ld.hu	$r14,$r13,-2004(0x82c)
1c000b24:	028005c6 	addi.w	$r6,$r14,1(0x1)
1c000b28:	2960b1a6 	st.h	$r6,$r13,-2004(0x82c)
1c000b2c:	001c7eca 	mul.w	$r10,$r22,$r31
1c000b30:	2880106b 	ld.w	$r11,$r3,4(0x4)
1c000b34:	00102965 	add.w	$r5,$r11,$r10
1c000b38:	001017d0 	add.w	$r16,$r30,$r5
1c000b3c:	28a03213 	ld.w	$r19,$r16,-2036(0x80c)
1c000b40:	03400a71 	andi	$r17,$r19,0x2
1c000b44:	58003a20 	beq	$r17,$r0,56(0x38) # 1c000b7c <core_mark+0x59c>
1c000b48:	2a60a206 	ld.hu	$r6,$r16,-2008(0x828)
1c000b4c:	29802070 	st.w	$r16,$r3,8(0x8)
1c000b50:	58002cdd 	beq	$r6,$r29,44(0x2c) # 1c000b7c <core_mark+0x59c>
1c000b54:	28803067 	ld.w	$r7,$r3,12(0xc)
1c000b58:	001502c5 	move	$r5,$r22
1c000b5c:	1c000104 	pcaddu12i	$r4,8(0x8)
1c000b60:	028aa084 	addi.w	$r4,$r4,680(0x2a8)
1c000b64:	54793c00 	bl	31036(0x793c) # 1c0084a0 <printf>
1c000b68:	28802064 	ld.w	$r4,$r3,8(0x8)
1c000b6c:	2a60b092 	ld.hu	$r18,$r4,-2004(0x82c)
1c000b70:	28a03093 	ld.w	$r19,$r4,-2036(0x80c)
1c000b74:	0280064f 	addi.w	$r15,$r18,1(0x1)
1c000b78:	2960b08f 	st.h	$r15,$r4,-2004(0x82c)
1c000b7c:	03401261 	andi	$r1,$r19,0x4
1c000b80:	5bff2020 	beq	$r1,$r0,-224(0x3ff20) # 1c000aa0 <core_mark+0x4c0>
1c000b84:	001c7ec9 	mul.w	$r9,$r22,$r31
1c000b88:	2880106d 	ld.w	$r13,$r3,4(0x4)
1c000b8c:	001025ae 	add.w	$r14,$r13,$r9
1c000b90:	00103bca 	add.w	$r10,$r30,$r14
1c000b94:	2a60a946 	ld.hu	$r6,$r10,-2006(0x82a)
1c000b98:	5c06e8d9 	bne	$r6,$r25,1768(0x6e8) # 1c001280 <core_mark+0xca0>
1c000b9c:	2a60b150 	ld.hu	$r16,$r10,-2004(0x82c)
1c000ba0:	028006d6 	addi.w	$r22,$r22,1(0x1)
1c000ba4:	288002f1 	ld.w	$r17,$r23,0
1c000ba8:	0010721c 	add.w	$r28,$r16,$r28
1c000bac:	2980207c 	st.w	$r28,$r3,8(0x8)
1c000bb0:	2a402064 	ld.hu	$r4,$r3,8(0x8)
1c000bb4:	29802076 	st.w	$r22,$r3,8(0x8)
1c000bb8:	2a402076 	ld.hu	$r22,$r3,8(0x8)
1c000bbc:	29802064 	st.w	$r4,$r3,8(0x8)
1c000bc0:	2840207c 	ld.h	$r28,$r3,8(0x8)
1c000bc4:	6bff1ad1 	bltu	$r22,$r17,-232(0x3ff18) # 1c000adc <core_mark+0x4fc>
1c000bc8:	03a08018 	ori	$r24,$r0,0x820
1c000bcc:	0280407f 	addi.w	$r31,$r3,16(0x10)
1c000bd0:	15fffffd 	lu12i.w	$r29,-1(0xfffff)
1c000bd4:	29802064 	st.w	$r4,$r3,8(0x8)
1c000bd8:	00107f1e 	add.w	$r30,$r24,$r31
1c000bdc:	544e8400 	bl	20100(0x4e84) # 1c005a60 <check_data_types>
1c000be0:	001077d2 	add.w	$r18,$r30,$r29
1c000be4:	28802073 	ld.w	$r19,$r3,8(0x8)
1c000be8:	03a01007 	ori	$r7,$r0,0x804
1c000bec:	001048ec 	add.w	$r12,$r7,$r18
1c000bf0:	28800185 	ld.w	$r5,$r12,0
1c000bf4:	0010126f 	add.w	$r15,$r19,$r4
1c000bf8:	2980206f 	st.w	$r15,$r3,8(0x8)
1c000bfc:	1c000104 	pcaddu12i	$r4,8(0x8)
1c000c00:	0289b084 	addi.w	$r4,$r4,620(0x26c)
1c000c04:	29801072 	st.w	$r18,$r3,4(0x4)
1c000c08:	28402079 	ld.h	$r25,$r3,8(0x8)
1c000c0c:	54789400 	bl	30868(0x7894) # 1c0084a0 <printf>
1c000c10:	00150365 	move	$r5,$r27
1c000c14:	1c000104 	pcaddu12i	$r4,8(0x8)
1c000c18:	0289b084 	addi.w	$r4,$r4,620(0x26c)
1c000c1c:	54788400 	bl	30852(0x7884) # 1c0084a0 <printf>
1c000c20:	28801074 	ld.w	$r20,$r3,4(0x4)
1c000c24:	03a02009 	ori	$r9,$r0,0x808
1c000c28:	288002e8 	ld.w	$r8,$r23,0
1c000c2c:	0010512d 	add.w	$r13,$r9,$r20
1c000c30:	288001ae 	ld.w	$r14,$r13,0
1c000c34:	14773586 	lu12i.w	$r6,244140(0x3b9ac)
1c000c38:	03a800cb 	ori	$r11,$r6,0xa00
1c000c3c:	001c21ca 	mul.w	$r10,$r14,$r8
1c000c40:	1c000104 	pcaddu12i	$r4,8(0x8)
1c000c44:	02894084 	addi.w	$r4,$r4,592(0x250)
1c000c48:	0015001c 	move	$r28,$r0
1c000c4c:	001c2d45 	mul.w	$r5,$r10,$r11
1c000c50:	00216cb0 	div.wu	$r16,$r5,$r27
1c000c54:	5c000b60 	bne	$r27,$r0,8(0x8) # 1c000c5c <core_mark+0x67c>
1c000c58:	002a0007 	break	0x7
1c000c5c:	00150205 	move	$r5,$r16
1c000c60:	54784000 	bl	30784(0x7840) # 1c0084a0 <printf>
1c000c64:	1c000104 	pcaddu12i	$r4,8(0x8)
1c000c68:	02891084 	addi.w	$r4,$r4,580(0x244)
1c000c6c:	547b2000 	bl	31520(0x7b20) # 1c00878c <puts>
1c000c70:	1c000104 	pcaddu12i	$r4,8(0x8)
1c000c74:	028a5084 	addi.w	$r4,$r4,660(0x294)
1c000c78:	547b1400 	bl	31508(0x7b14) # 1c00878c <puts>
1c000c7c:	00150366 	move	$r6,$r27
1c000c80:	2880107b 	ld.w	$r27,$r3,4(0x4)
1c000c84:	03a02011 	ori	$r17,$r0,0x808
1c000c88:	1c000104 	pcaddu12i	$r4,8(0x8)
1c000c8c:	028aa084 	addi.w	$r4,$r4,680(0x2a8)
1c000c90:	00106e3d 	add.w	$r29,$r17,$r27
1c000c94:	288003a5 	ld.w	$r5,$r29,0
1c000c98:	54780800 	bl	30728(0x7808) # 1c0084a0 <printf>
1c000c9c:	00150385 	move	$r5,$r28
1c000ca0:	1c000104 	pcaddu12i	$r4,8(0x8)
1c000ca4:	028af084 	addi.w	$r4,$r4,700(0x2bc)
1c000ca8:	5477f800 	bl	30712(0x77f8) # 1c0084a0 <printf>
1c000cac:	00150384 	move	$r4,$r28
1c000cb0:	5477b000 	bl	30640(0x77b0) # 1c008460 <time_in_secs>
1c000cb4:	00150085 	move	$r5,$r4
1c000cb8:	1c000104 	pcaddu12i	$r4,8(0x8)
1c000cbc:	028af084 	addi.w	$r4,$r4,700(0x2bc)
1c000cc0:	5477e000 	bl	30688(0x77e0) # 1c0084a0 <printf>
1c000cc4:	00150384 	move	$r4,$r28
1c000cc8:	54779800 	bl	30616(0x7798) # 1c008460 <time_in_secs>
1c000ccc:	5c067880 	bne	$r4,$r0,1656(0x678) # 1c001344 <core_mark+0xd64>
1c000cd0:	02804067 	addi.w	$r7,$r3,16(0x10)
1c000cd4:	03a08004 	ori	$r4,$r0,0x820
1c000cd8:	00101c8c 	add.w	$r12,$r4,$r7
1c000cdc:	15ffffef 	lu12i.w	$r15,-1(0xfffff)
1c000ce0:	00103d9b 	add.w	$r27,$r12,$r15
1c000ce4:	03a02008 	ori	$r8,$r0,0x808
1c000ce8:	00106d14 	add.w	$r20,$r8,$r27
1c000cec:	288002f3 	ld.w	$r19,$r23,0
1c000cf0:	28800289 	ld.w	$r9,$r20,0
1c000cf4:	1c000104 	pcaddu12i	$r4,8(0x8)
1c000cf8:	028ac084 	addi.w	$r4,$r4,688(0x2b0)
1c000cfc:	001c4d25 	mul.w	$r5,$r9,$r19
1c000d00:	5477a000 	bl	30624(0x77a0) # 1c0084a0 <printf>
1c000d04:	1c000105 	pcaddu12i	$r5,8(0x8)
1c000d08:	028ae0a5 	addi.w	$r5,$r5,696(0x2b8)
1c000d0c:	1c000104 	pcaddu12i	$r4,8(0x8)
1c000d10:	028af084 	addi.w	$r4,$r4,700(0x2bc)
1c000d14:	54778c00 	bl	30604(0x778c) # 1c0084a0 <printf>
1c000d18:	1c000105 	pcaddu12i	$r5,8(0x8)
1c000d1c:	028b20a5 	addi.w	$r5,$r5,712(0x2c8)
1c000d20:	1c000104 	pcaddu12i	$r4,8(0x8)
1c000d24:	028b1084 	addi.w	$r4,$r4,708(0x2c4)
1c000d28:	54777800 	bl	30584(0x7778) # 1c0084a0 <printf>
1c000d2c:	1c000105 	pcaddu12i	$r5,8(0x8)
1c000d30:	028b40a5 	addi.w	$r5,$r5,720(0x2d0)
1c000d34:	1c000104 	pcaddu12i	$r4,8(0x8)
1c000d38:	028c6084 	addi.w	$r4,$r4,792(0x318)
1c000d3c:	54776400 	bl	30564(0x7764) # 1c0084a0 <printf>
1c000d40:	00150345 	move	$r5,$r26
1c000d44:	1c000104 	pcaddu12i	$r4,8(0x8)
1c000d48:	028c8084 	addi.w	$r4,$r4,800(0x320)
1c000d4c:	54775400 	bl	30548(0x7754) # 1c0084a0 <printf>
1c000d50:	03a0301a 	ori	$r26,$r0,0x80c
1c000d54:	00106f4d 	add.w	$r13,$r26,$r27
1c000d58:	288001b2 	ld.w	$r18,$r13,0
1c000d5c:	0340064e 	andi	$r14,$r18,0x1
1c000d60:	580561c0 	beq	$r14,$r0,1376(0x560) # 1c0012c0 <core_mark+0xce0>
1c000d64:	288002ea 	ld.w	$r10,$r23,0
1c000d68:	00150018 	move	$r24,$r0
1c000d6c:	58040540 	beq	$r10,$r0,1028(0x404) # 1c001170 <core_mark+0xb90>
1c000d70:	0015037f 	move	$r31,$r27
1c000d74:	0281101d 	addi.w	$r29,$r0,68(0x44)
1c000d78:	1400003e 	lu12i.w	$r30,1(0x1)
1c000d7c:	1c00011c 	pcaddu12i	$r28,8(0x8)
1c000d80:	028c139c 	addi.w	$r28,$r28,772(0x304)
1c000d84:	001c7706 	mul.w	$r6,$r24,$r29
1c000d88:	00150305 	move	$r5,$r24
1c000d8c:	00150384 	move	$r4,$r28
1c000d90:	00101beb 	add.w	$r11,$r31,$r6
1c000d94:	00102fd0 	add.w	$r16,$r30,$r11
1c000d98:	2a609a06 	ld.hu	$r6,$r16,-2010(0x826)
1c000d9c:	54770400 	bl	30468(0x7704) # 1c0084a0 <printf>
1c000da0:	02800705 	addi.w	$r5,$r24,1(0x1)
1c000da4:	29801065 	st.w	$r5,$r3,4(0x4)
1c000da8:	2a401078 	ld.hu	$r24,$r3,4(0x4)
1c000dac:	288002ea 	ld.w	$r10,$r23,0
1c000db0:	00150384 	move	$r4,$r28
1c000db4:	00150305 	move	$r5,$r24
1c000db8:	6c008f0a 	bgeu	$r24,$r10,140(0x8c) # 1c000e44 <core_mark+0x864>
1c000dbc:	001c7711 	mul.w	$r17,$r24,$r29
1c000dc0:	001047e1 	add.w	$r1,$r31,$r17
1c000dc4:	001007d2 	add.w	$r18,$r30,$r1
1c000dc8:	2a609a46 	ld.hu	$r6,$r18,-2010(0x826)
1c000dcc:	5476d400 	bl	30420(0x76d4) # 1c0084a0 <printf>
1c000dd0:	02800713 	addi.w	$r19,$r24,1(0x1)
1c000dd4:	29801073 	st.w	$r19,$r3,4(0x4)
1c000dd8:	2a40107b 	ld.hu	$r27,$r3,4(0x4)
1c000ddc:	288002ea 	ld.w	$r10,$r23,0
1c000de0:	00150384 	move	$r4,$r28
1c000de4:	00150365 	move	$r5,$r27
1c000de8:	6c005f6a 	bgeu	$r27,$r10,92(0x5c) # 1c000e44 <core_mark+0x864>
1c000dec:	001c776f 	mul.w	$r15,$r27,$r29
1c000df0:	00103fe7 	add.w	$r7,$r31,$r15
1c000df4:	00101fcc 	add.w	$r12,$r30,$r7
1c000df8:	2a609986 	ld.hu	$r6,$r12,-2010(0x826)
1c000dfc:	5476a400 	bl	30372(0x76a4) # 1c0084a0 <printf>
1c000e00:	02800768 	addi.w	$r8,$r27,1(0x1)
1c000e04:	29801068 	st.w	$r8,$r3,4(0x4)
1c000e08:	2a40107a 	ld.hu	$r26,$r3,4(0x4)
1c000e0c:	288002ea 	ld.w	$r10,$r23,0
1c000e10:	00150384 	move	$r4,$r28
1c000e14:	00150345 	move	$r5,$r26
1c000e18:	6c002f4a 	bgeu	$r26,$r10,44(0x2c) # 1c000e44 <core_mark+0x864>
1c000e1c:	001c7754 	mul.w	$r20,$r26,$r29
1c000e20:	001053e9 	add.w	$r9,$r31,$r20
1c000e24:	001027cd 	add.w	$r13,$r30,$r9
1c000e28:	2a6099a6 	ld.hu	$r6,$r13,-2010(0x826)
1c000e2c:	54767400 	bl	30324(0x7674) # 1c0084a0 <printf>
1c000e30:	02800744 	addi.w	$r4,$r26,1(0x1)
1c000e34:	29801064 	st.w	$r4,$r3,4(0x4)
1c000e38:	2a401078 	ld.hu	$r24,$r3,4(0x4)
1c000e3c:	288002ea 	ld.w	$r10,$r23,0
1c000e40:	6bff470a 	bltu	$r24,$r10,-188(0x3ff44) # 1c000d84 <core_mark+0x7a4>
1c000e44:	03a0300e 	ori	$r14,$r0,0x80c
1c000e48:	00107ddf 	add.w	$r31,$r14,$r31
1c000e4c:	288003f2 	ld.w	$r18,$r31,0
1c000e50:	03400a5d 	andi	$r29,$r18,0x2
1c000e54:	580117a0 	beq	$r29,$r0,276(0x114) # 1c000f68 <core_mark+0x988>
1c000e58:	58031940 	beq	$r10,$r0,792(0x318) # 1c001170 <core_mark+0xb90>
1c000e5c:	03a0801c 	ori	$r28,$r0,0x820
1c000e60:	02804066 	addi.w	$r6,$r3,16(0x10)
1c000e64:	15fffffe 	lu12i.w	$r30,-1(0xfffff)
1c000e68:	00101b8b 	add.w	$r11,$r28,$r6
1c000e6c:	00107970 	add.w	$r16,$r11,$r30
1c000e70:	00150018 	move	$r24,$r0
1c000e74:	29801070 	st.w	$r16,$r3,4(0x4)
1c000e78:	0281101f 	addi.w	$r31,$r0,68(0x44)
1c000e7c:	1400003b 	lu12i.w	$r27,1(0x1)
1c000e80:	1c00011a 	pcaddu12i	$r26,8(0x8)
1c000e84:	0288735a 	addi.w	$r26,$r26,540(0x21c)
1c000e88:	001c7f11 	mul.w	$r17,$r24,$r31
1c000e8c:	28801061 	ld.w	$r1,$r3,4(0x4)
1c000e90:	00150305 	move	$r5,$r24
1c000e94:	00150344 	move	$r4,$r26
1c000e98:	00104432 	add.w	$r18,$r1,$r17
1c000e9c:	00104b73 	add.w	$r19,$r27,$r18
1c000ea0:	2a60a266 	ld.hu	$r6,$r19,-2008(0x828)
1c000ea4:	5475fc00 	bl	30204(0x75fc) # 1c0084a0 <printf>
1c000ea8:	02800705 	addi.w	$r5,$r24,1(0x1)
1c000eac:	29802065 	st.w	$r5,$r3,8(0x8)
1c000eb0:	2a402078 	ld.hu	$r24,$r3,8(0x8)
1c000eb4:	288002ea 	ld.w	$r10,$r23,0
1c000eb8:	00150344 	move	$r4,$r26
1c000ebc:	00150305 	move	$r5,$r24
1c000ec0:	6c009b0a 	bgeu	$r24,$r10,152(0x98) # 1c000f58 <core_mark+0x978>
1c000ec4:	001c7f0f 	mul.w	$r15,$r24,$r31
1c000ec8:	28801067 	ld.w	$r7,$r3,4(0x4)
1c000ecc:	00103cec 	add.w	$r12,$r7,$r15
1c000ed0:	00103368 	add.w	$r8,$r27,$r12
1c000ed4:	2a60a106 	ld.hu	$r6,$r8,-2008(0x828)
1c000ed8:	5475c800 	bl	30152(0x75c8) # 1c0084a0 <printf>
1c000edc:	02800714 	addi.w	$r20,$r24,1(0x1)
1c000ee0:	29802074 	st.w	$r20,$r3,8(0x8)
1c000ee4:	2a40207d 	ld.hu	$r29,$r3,8(0x8)
1c000ee8:	288002ea 	ld.w	$r10,$r23,0
1c000eec:	00150344 	move	$r4,$r26
1c000ef0:	001503a5 	move	$r5,$r29
1c000ef4:	6c0067aa 	bgeu	$r29,$r10,100(0x64) # 1c000f58 <core_mark+0x978>
1c000ef8:	001c7fa9 	mul.w	$r9,$r29,$r31
1c000efc:	2880106d 	ld.w	$r13,$r3,4(0x4)
1c000f00:	028007be 	addi.w	$r30,$r29,1(0x1)
1c000f04:	001025aa 	add.w	$r10,$r13,$r9
1c000f08:	00102b6e 	add.w	$r14,$r27,$r10
1c000f0c:	2a60a1c6 	ld.hu	$r6,$r14,-2008(0x828)
1c000f10:	54759000 	bl	30096(0x7590) # 1c0084a0 <printf>
1c000f14:	2980207e 	st.w	$r30,$r3,8(0x8)
1c000f18:	2a40207c 	ld.hu	$r28,$r3,8(0x8)
1c000f1c:	288002ea 	ld.w	$r10,$r23,0
1c000f20:	00150344 	move	$r4,$r26
1c000f24:	00150385 	move	$r5,$r28
1c000f28:	6c00338a 	bgeu	$r28,$r10,48(0x30) # 1c000f58 <core_mark+0x978>
1c000f2c:	001c7f86 	mul.w	$r6,$r28,$r31
1c000f30:	2880106b 	ld.w	$r11,$r3,4(0x4)
1c000f34:	00101970 	add.w	$r16,$r11,$r6
1c000f38:	00104371 	add.w	$r17,$r27,$r16
1c000f3c:	2a60a226 	ld.hu	$r6,$r17,-2008(0x828)
1c000f40:	54756000 	bl	30048(0x7560) # 1c0084a0 <printf>
1c000f44:	02800784 	addi.w	$r4,$r28,1(0x1)
1c000f48:	29802064 	st.w	$r4,$r3,8(0x8)
1c000f4c:	2a402078 	ld.hu	$r24,$r3,8(0x8)
1c000f50:	288002ea 	ld.w	$r10,$r23,0
1c000f54:	6bff370a 	bltu	$r24,$r10,-204(0x3ff34) # 1c000e88 <core_mark+0x8a8>
1c000f58:	2880107f 	ld.w	$r31,$r3,4(0x4)
1c000f5c:	03a0301b 	ori	$r27,$r0,0x80c
1c000f60:	00107f7a 	add.w	$r26,$r27,$r31
1c000f64:	28800352 	ld.w	$r18,$r26,0
1c000f68:	03401241 	andi	$r1,$r18,0x4
1c000f6c:	58010420 	beq	$r1,$r0,260(0x104) # 1c001070 <core_mark+0xa90>
1c000f70:	0015001f 	move	$r31,$r0
1c000f74:	5801fd40 	beq	$r10,$r0,508(0x1fc) # 1c001170 <core_mark+0xb90>
1c000f78:	03a08005 	ori	$r5,$r0,0x820
1c000f7c:	0280406f 	addi.w	$r15,$r3,16(0x10)
1c000f80:	15fffff3 	lu12i.w	$r19,-1(0xfffff)
1c000f84:	00103ca7 	add.w	$r7,$r5,$r15
1c000f88:	00104cec 	add.w	$r12,$r7,$r19
1c000f8c:	2980106c 	st.w	$r12,$r3,4(0x4)
1c000f90:	0281101d 	addi.w	$r29,$r0,68(0x44)
1c000f94:	1400003e 	lu12i.w	$r30,1(0x1)
1c000f98:	1c00011c 	pcaddu12i	$r28,8(0x8)
1c000f9c:	0284839c 	addi.w	$r28,$r28,288(0x120)
1c000fa0:	001c77e8 	mul.w	$r8,$r31,$r29
1c000fa4:	28801074 	ld.w	$r20,$r3,4(0x4)
1c000fa8:	001503e5 	move	$r5,$r31
1c000fac:	00150384 	move	$r4,$r28
1c000fb0:	00102289 	add.w	$r9,$r20,$r8
1c000fb4:	001027cd 	add.w	$r13,$r30,$r9
1c000fb8:	2a60a9a6 	ld.hu	$r6,$r13,-2006(0x82a)
1c000fbc:	5474e400 	bl	29924(0x74e4) # 1c0084a0 <printf>
1c000fc0:	028007ea 	addi.w	$r10,$r31,1(0x1)
1c000fc4:	2980206a 	st.w	$r10,$r3,8(0x8)
1c000fc8:	2a402078 	ld.hu	$r24,$r3,8(0x8)
1c000fcc:	288002ea 	ld.w	$r10,$r23,0
1c000fd0:	00150384 	move	$r4,$r28
1c000fd4:	00150305 	move	$r5,$r24
1c000fd8:	6c009b0a 	bgeu	$r24,$r10,152(0x98) # 1c001070 <core_mark+0xa90>
1c000fdc:	001c770e 	mul.w	$r14,$r24,$r29
1c000fe0:	28801066 	ld.w	$r6,$r3,4(0x4)
1c000fe4:	001038cb 	add.w	$r11,$r6,$r14
1c000fe8:	00102fd0 	add.w	$r16,$r30,$r11
1c000fec:	2a60aa06 	ld.hu	$r6,$r16,-2006(0x82a)
1c000ff0:	5474b000 	bl	29872(0x74b0) # 1c0084a0 <printf>
1c000ff4:	02800711 	addi.w	$r17,$r24,1(0x1)
1c000ff8:	29802071 	st.w	$r17,$r3,8(0x8)
1c000ffc:	2a40207f 	ld.hu	$r31,$r3,8(0x8)
1c001000:	288002ea 	ld.w	$r10,$r23,0
1c001004:	00150384 	move	$r4,$r28
1c001008:	001503e5 	move	$r5,$r31
1c00100c:	6c0067ea 	bgeu	$r31,$r10,100(0x64) # 1c001070 <core_mark+0xa90>
1c001010:	001c77fb 	mul.w	$r27,$r31,$r29
1c001014:	2880107a 	ld.w	$r26,$r3,4(0x4)
1c001018:	00106f52 	add.w	$r18,$r26,$r27
1c00101c:	00104bc1 	add.w	$r1,$r30,$r18
1c001020:	2a60a826 	ld.hu	$r6,$r1,-2006(0x82a)
1c001024:	54747c00 	bl	29820(0x747c) # 1c0084a0 <printf>
1c001028:	028007f3 	addi.w	$r19,$r31,1(0x1)
1c00102c:	29802073 	st.w	$r19,$r3,8(0x8)
1c001030:	2a402078 	ld.hu	$r24,$r3,8(0x8)
1c001034:	288002ea 	ld.w	$r10,$r23,0
1c001038:	00150384 	move	$r4,$r28
1c00103c:	00150305 	move	$r5,$r24
1c001040:	6c00330a 	bgeu	$r24,$r10,48(0x30) # 1c001070 <core_mark+0xa90>
1c001044:	001c770f 	mul.w	$r15,$r24,$r29
1c001048:	28801067 	ld.w	$r7,$r3,4(0x4)
1c00104c:	00103cec 	add.w	$r12,$r7,$r15
1c001050:	001033c8 	add.w	$r8,$r30,$r12
1c001054:	2a60a906 	ld.hu	$r6,$r8,-2006(0x82a)
1c001058:	54744800 	bl	29768(0x7448) # 1c0084a0 <printf>
1c00105c:	02800704 	addi.w	$r4,$r24,1(0x1)
1c001060:	29802064 	st.w	$r4,$r3,8(0x8)
1c001064:	2a40207f 	ld.hu	$r31,$r3,8(0x8)
1c001068:	288002ea 	ld.w	$r10,$r23,0
1c00106c:	6bff37ea 	bltu	$r31,$r10,-204(0x3ff34) # 1c000fa0 <core_mark+0x9c0>
1c001070:	58010140 	beq	$r10,$r0,256(0x100) # 1c001170 <core_mark+0xb90>
1c001074:	03a0801d 	ori	$r29,$r0,0x820
1c001078:	0280407e 	addi.w	$r30,$r3,16(0x10)
1c00107c:	15ffffe5 	lu12i.w	$r5,-1(0xfffff)
1c001080:	00107bbc 	add.w	$r28,$r29,$r30
1c001084:	00101794 	add.w	$r20,$r28,$r5
1c001088:	00150018 	move	$r24,$r0
1c00108c:	29801074 	st.w	$r20,$r3,4(0x4)
1c001090:	0281101f 	addi.w	$r31,$r0,68(0x44)
1c001094:	1400003b 	lu12i.w	$r27,1(0x1)
1c001098:	1c00011a 	pcaddu12i	$r26,8(0x8)
1c00109c:	0280f35a 	addi.w	$r26,$r26,60(0x3c)
1c0010a0:	001c7f09 	mul.w	$r9,$r24,$r31
1c0010a4:	2880106d 	ld.w	$r13,$r3,4(0x4)
1c0010a8:	00150305 	move	$r5,$r24
1c0010ac:	00150344 	move	$r4,$r26
1c0010b0:	001025aa 	add.w	$r10,$r13,$r9
1c0010b4:	00102b6e 	add.w	$r14,$r27,$r10
1c0010b8:	2a6091c6 	ld.hu	$r6,$r14,-2012(0x824)
1c0010bc:	5473e400 	bl	29668(0x73e4) # 1c0084a0 <printf>
1c0010c0:	02800706 	addi.w	$r6,$r24,1(0x1)
1c0010c4:	29802066 	st.w	$r6,$r3,8(0x8)
1c0010c8:	2a402078 	ld.hu	$r24,$r3,8(0x8)
1c0010cc:	288002eb 	ld.w	$r11,$r23,0
1c0010d0:	00150344 	move	$r4,$r26
1c0010d4:	00150305 	move	$r5,$r24
1c0010d8:	6c009b0b 	bgeu	$r24,$r11,152(0x98) # 1c001170 <core_mark+0xb90>
1c0010dc:	001c7f10 	mul.w	$r16,$r24,$r31
1c0010e0:	28801071 	ld.w	$r17,$r3,4(0x4)
1c0010e4:	00104232 	add.w	$r18,$r17,$r16
1c0010e8:	00104b61 	add.w	$r1,$r27,$r18
1c0010ec:	2a609026 	ld.hu	$r6,$r1,-2012(0x824)
1c0010f0:	5473b000 	bl	29616(0x73b0) # 1c0084a0 <printf>
1c0010f4:	02800713 	addi.w	$r19,$r24,1(0x1)
1c0010f8:	29802073 	st.w	$r19,$r3,8(0x8)
1c0010fc:	2a40207d 	ld.hu	$r29,$r3,8(0x8)
1c001100:	288002ef 	ld.w	$r15,$r23,0
1c001104:	00150344 	move	$r4,$r26
1c001108:	001503a5 	move	$r5,$r29
1c00110c:	6c0067af 	bgeu	$r29,$r15,100(0x64) # 1c001170 <core_mark+0xb90>
1c001110:	001c7fa7 	mul.w	$r7,$r29,$r31
1c001114:	2880106c 	ld.w	$r12,$r3,4(0x4)
1c001118:	00101d88 	add.w	$r8,$r12,$r7
1c00111c:	0010237e 	add.w	$r30,$r27,$r8
1c001120:	2a6093c6 	ld.hu	$r6,$r30,-2012(0x824)
1c001124:	54737c00 	bl	29564(0x737c) # 1c0084a0 <printf>
1c001128:	028007a5 	addi.w	$r5,$r29,1(0x1)
1c00112c:	29802065 	st.w	$r5,$r3,8(0x8)
1c001130:	2a40207c 	ld.hu	$r28,$r3,8(0x8)
1c001134:	288002f4 	ld.w	$r20,$r23,0
1c001138:	00150344 	move	$r4,$r26
1c00113c:	00150385 	move	$r5,$r28
1c001140:	6c003394 	bgeu	$r28,$r20,48(0x30) # 1c001170 <core_mark+0xb90>
1c001144:	001c7f89 	mul.w	$r9,$r28,$r31
1c001148:	2880106d 	ld.w	$r13,$r3,4(0x4)
1c00114c:	001025aa 	add.w	$r10,$r13,$r9
1c001150:	00102b6e 	add.w	$r14,$r27,$r10
1c001154:	2a6091c6 	ld.hu	$r6,$r14,-2012(0x824)
1c001158:	54734800 	bl	29512(0x7348) # 1c0084a0 <printf>
1c00115c:	02800784 	addi.w	$r4,$r28,1(0x1)
1c001160:	29802064 	st.w	$r4,$r3,8(0x8)
1c001164:	2a402078 	ld.hu	$r24,$r3,8(0x8)
1c001168:	288002e6 	ld.w	$r6,$r23,0
1c00116c:	6bff3706 	bltu	$r24,$r6,-204(0x3ff34) # 1c0010a0 <core_mark+0xac0>
1c001170:	58025720 	beq	$r25,$r0,596(0x254) # 1c0013c4 <core_mark+0xde4>
1c001174:	6401ac19 	bge	$r0,$r25,428(0x1ac) # 1c001320 <core_mark+0xd40>
1c001178:	1c000104 	pcaddu12i	$r4,8(0x8)
1c00117c:	02bf1084 	addi.w	$r4,$r4,-60(0xfc4)
1c001180:	54760c00 	bl	30220(0x760c) # 1c00878c <puts>
1c001184:	02817864 	addi.w	$r4,$r3,94(0x5e)
1c001188:	54730800 	bl	29448(0x7308) # 1c008490 <portable_fini>
1c00118c:	0281c063 	addi.w	$r3,$r3,112(0x70)
1c001190:	289fb061 	ld.w	$r1,$r3,2028(0x7ec)
1c001194:	00150324 	move	$r4,$r25
1c001198:	289fa076 	ld.w	$r22,$r3,2024(0x7e8)
1c00119c:	289f9077 	ld.w	$r23,$r3,2020(0x7e4)
1c0011a0:	289f8078 	ld.w	$r24,$r3,2016(0x7e0)
1c0011a4:	289f7079 	ld.w	$r25,$r3,2012(0x7dc)
1c0011a8:	289f607a 	ld.w	$r26,$r3,2008(0x7d8)
1c0011ac:	289f507b 	ld.w	$r27,$r3,2004(0x7d4)
1c0011b0:	289f407c 	ld.w	$r28,$r3,2000(0x7d0)
1c0011b4:	289f307d 	ld.w	$r29,$r3,1996(0x7cc)
1c0011b8:	289f207e 	ld.w	$r30,$r3,1992(0x7c8)
1c0011bc:	289f107f 	ld.w	$r31,$r3,1988(0x7c4)
1c0011c0:	029fc063 	addi.w	$r3,$r3,2032(0x7f0)
1c0011c4:	4c000020 	jirl	$r0,$r1,0
1c0011c8:	14000028 	lu12i.w	$r8,1(0x1)
1c0011cc:	03a3c914 	ori	$r20,$r8,0x8f2
1c0011d0:	58026354 	beq	$r26,$r20,608(0x260) # 1c001430 <core_mark+0xe50>
1c0011d4:	14000086 	lu12i.w	$r6,4(0x4)
1c0011d8:	03babcca 	ori	$r10,$r6,0xeaf
1c0011dc:	5c00db4a 	bne	$r26,$r10,216(0xd8) # 1c0012b4 <core_mark+0xcd4>
1c0011e0:	1c000104 	pcaddu12i	$r4,8(0x8)
1c0011e4:	02adb084 	addi.w	$r4,$r4,-1172(0xb6c)
1c0011e8:	5475a400 	bl	30116(0x75a4) # 1c00878c <puts>
1c0011ec:	140000ab 	lu12i.w	$r11,5(0x5)
1c0011f0:	0398217d 	ori	$r29,$r11,0x608
1c0011f4:	140001c5 	lu12i.w	$r5,14(0xe)
1c0011f8:	140000d0 	lu12i.w	$r16,6(0x6)
1c0011fc:	2980307d 	st.w	$r29,$r3,12(0xc)
1c001200:	039690b9 	ori	$r25,$r5,0x5a4
1c001204:	03a9e618 	ori	$r24,$r16,0xa79
1c001208:	53f867ff 	b	-1948(0xffff864) # 1c000a6c <core_mark+0x48c>
1c00120c:	03400000 	andi	$r0,$r0,0x0
1c001210:	03a08012 	ori	$r18,$r0,0x820
1c001214:	02804073 	addi.w	$r19,$r3,16(0x10)
1c001218:	15ffffe4 	lu12i.w	$r4,-1(0xfffff)
1c00121c:	00104e5b 	add.w	$r27,$r18,$r19
1c001220:	0010137c 	add.w	$r28,$r27,$r4
1c001224:	2980107c 	st.w	$r28,$r3,4(0x4)
1c001228:	2880107e 	ld.w	$r30,$r3,4(0x4)
1c00122c:	285fbb9d 	ld.h	$r29,$r28,2030(0x7ee)
1c001230:	03a01019 	ori	$r25,$r0,0x804
1c001234:	285fb3da 	ld.h	$r26,$r30,2028(0x7ec)
1c001238:	00107b38 	add.w	$r24,$r25,$r30
1c00123c:	289ff3c5 	ld.w	$r5,$r30,2044(0x7fc)
1c001240:	28800304 	ld.w	$r4,$r24,0
1c001244:	0040c3bf 	slli.w	$r31,$r29,0x10
1c001248:	02811067 	addi.w	$r7,$r3,68(0x44)
1c00124c:	00156be6 	or	$r6,$r31,$r26
1c001250:	5428e000 	bl	10464(0x28e0) # 1c003b30 <core_init_matrix>
1c001254:	2880106d 	ld.w	$r13,$r3,4(0x4)
1c001258:	03a0300c 	ori	$r12,$r0,0x80c
1c00125c:	0010358f 	add.w	$r15,$r12,$r13
1c001260:	288001f7 	ld.w	$r23,$r15,0
1c001264:	53f547ff 	b	-2748(0xffff544) # 1c0007a8 <core_mark+0x1c8>
1c001268:	29415864 	st.h	$r4,$r3,86(0x56)
1c00126c:	02800418 	addi.w	$r24,$r0,1(0x1)
1c001270:	5bf73b58 	beq	$r26,$r24,-2248(0x3f738) # 1c0009a8 <core_mark+0x3c8>
1c001274:	02800419 	addi.w	$r25,$r0,1(0x1)
1c001278:	53f6f7ff 	b	-2316(0xffff6f4) # 1c00096c <core_mark+0x38c>
1c00127c:	03400000 	andi	$r0,$r0,0x0
1c001280:	001502c5 	move	$r5,$r22
1c001284:	00150327 	move	$r7,$r25
1c001288:	1c000104 	pcaddu12i	$r4,8(0x8)
1c00128c:	02aec084 	addi.w	$r4,$r4,-1104(0xbb0)
1c001290:	2980206a 	st.w	$r10,$r3,8(0x8)
1c001294:	54720c00 	bl	29196(0x720c) # 1c0084a0 <printf>
1c001298:	28802066 	ld.w	$r6,$r3,8(0x8)
1c00129c:	2a60b0cb 	ld.hu	$r11,$r6,-2004(0x82c)
1c0012a0:	02800565 	addi.w	$r5,$r11,1(0x1)
1c0012a4:	29802065 	st.w	$r5,$r3,8(0x8)
1c0012a8:	2a402070 	ld.hu	$r16,$r3,8(0x8)
1c0012ac:	2960b0d0 	st.h	$r16,$r6,-2004(0x82c)
1c0012b0:	53f807ff 	b	-2044(0xffff804) # 1c000ab4 <core_mark+0x4d4>
1c0012b4:	140001f9 	lu12i.w	$r25,15(0xf)
1c0012b8:	03bfff24 	ori	$r4,$r25,0xfff
1c0012bc:	53f90fff 	b	-1780(0xffff90c) # 1c000bc8 <core_mark+0x5e8>
1c0012c0:	03400a5d 	andi	$r29,$r18,0x2
1c0012c4:	288002ea 	ld.w	$r10,$r23,0
1c0012c8:	5ffb93a0 	bne	$r29,$r0,-1136(0x3fb90) # 1c000e58 <core_mark+0x878>
1c0012cc:	03401241 	andi	$r1,$r18,0x4
1c0012d0:	5ffca020 	bne	$r1,$r0,-864(0x3fca0) # 1c000f70 <core_mark+0x990>
1c0012d4:	53fd9fff 	b	-612(0xffffd9c) # 1c001070 <core_mark+0xa90>
1c0012d8:	2880106b 	ld.w	$r11,$r3,4(0x4)
1c0012dc:	03a03010 	ori	$r16,$r0,0x80c
1c0012e0:	03a08013 	ori	$r19,$r0,0x820
1c0012e4:	0280407b 	addi.w	$r27,$r3,16(0x10)
1c0012e8:	02801c0a 	addi.w	$r10,$r0,7(0x7)
1c0012ec:	00102e11 	add.w	$r17,$r16,$r11
1c0012f0:	15fffff2 	lu12i.w	$r18,-1(0xfffff)
1c0012f4:	00106e7c 	add.w	$r28,$r19,$r27
1c0012f8:	00104b9d 	add.w	$r29,$r28,$r18
1c0012fc:	2980022a 	st.w	$r10,$r17,0
1c001300:	289fb3be 	ld.w	$r30,$r29,2028(0x7ec)
1c001304:	2980107d 	st.w	$r29,$r3,4(0x4)
1c001308:	02800414 	addi.w	$r20,$r0,1(0x1)
1c00130c:	02801c17 	addi.w	$r23,$r0,7(0x7)
1c001310:	0280041a 	addi.w	$r26,$r0,1(0x1)
1c001314:	5ff3afc0 	bne	$r30,$r0,-3156(0x3f3ac) # 1c0006c0 <core_mark+0xe0>
1c001318:	53f59fff 	b	-2660(0xffff59c) # 1c0008b4 <core_mark+0x2d4>
1c00131c:	03400000 	andi	$r0,$r0,0x0
1c001320:	1c000104 	pcaddu12i	$r4,8(0x8)
1c001324:	02b8b084 	addi.w	$r4,$r4,-468(0xe2c)
1c001328:	54746400 	bl	29796(0x7464) # 1c00878c <puts>
1c00132c:	53fe5bff 	b	-424(0xffffe58) # 1c001184 <core_mark+0xba4>
1c001330:	29415864 	st.h	$r4,$r3,86(0x56)
1c001334:	0280040e 	addi.w	$r14,$r0,1(0x1)
1c001338:	5bf55f6e 	beq	$r27,$r14,-2724(0x3f55c) # 1c000894 <core_mark+0x2b4>
1c00133c:	0280041a 	addi.w	$r26,$r0,1(0x1)
1c001340:	53f51bff 	b	-2792(0xffff518) # 1c000858 <core_mark+0x278>
1c001344:	28801078 	ld.w	$r24,$r3,4(0x4)
1c001348:	03a0201f 	ori	$r31,$r0,0x808
1c00134c:	288002e1 	ld.w	$r1,$r23,0
1c001350:	001063fe 	add.w	$r30,$r31,$r24
1c001354:	288003d2 	ld.w	$r18,$r30,0
1c001358:	00150004 	move	$r4,$r0
1c00135c:	001c065c 	mul.w	$r28,$r18,$r1
1c001360:	54710000 	bl	28928(0x7100) # 1c008460 <time_in_secs>
1c001364:	00211385 	div.wu	$r5,$r28,$r4
1c001368:	5c000880 	bne	$r4,$r0,8(0x8) # 1c001370 <core_mark+0xd90>
1c00136c:	002a0007 	break	0x7
1c001370:	1c000104 	pcaddu12i	$r4,8(0x8)
1c001374:	02b07084 	addi.w	$r4,$r4,-996(0xc1c)
1c001378:	54712800 	bl	28968(0x7128) # 1c0084a0 <printf>
1c00137c:	53f957ff 	b	-1708(0xffff954) # 1c000cd0 <core_mark+0x6f0>
1c001380:	0281807f 	addi.w	$r31,$r3,96(0x60)
1c001384:	299fe39f 	st.w	$r31,$r28,2040(0x7f8)
1c001388:	0280040c 	addi.w	$r12,$r0,1(0x1)
1c00138c:	5bf3d0a0 	beq	$r5,$r0,-3120(0x3f3d0) # 1c00075c <core_mark+0x17c>
1c001390:	001c1199 	mul.w	$r25,$r12,$r4
1c001394:	0281806d 	addi.w	$r13,$r3,96(0x60)
1c001398:	02800598 	addi.w	$r24,$r12,1(0x1)
1c00139c:	29801078 	st.w	$r24,$r3,4(0x4)
1c0013a0:	2a40106c 	ld.hu	$r12,$r3,4(0x4)
1c0013a4:	001065af 	add.w	$r15,$r13,$r25
1c0013a8:	2980b06f 	st.w	$r15,$r3,44(0x2c)
1c0013ac:	5bf3b420 	beq	$r1,$r0,-3148(0x3f3b4) # 1c000760 <core_mark+0x180>
1c0013b0:	001c1187 	mul.w	$r7,$r12,$r4
1c0013b4:	02818068 	addi.w	$r8,$r3,96(0x60)
1c0013b8:	00101d0e 	add.w	$r14,$r8,$r7
1c0013bc:	2980c06e 	st.w	$r14,$r3,48(0x30)
1c0013c0:	53f3a3ff 	b	-3168(0xffff3a0) # 1c000760 <core_mark+0x180>
1c0013c4:	1c000104 	pcaddu12i	$r4,8(0x8)
1c0013c8:	02b4b084 	addi.w	$r4,$r4,-724(0xd2c)
1c0013cc:	5473c000 	bl	29632(0x73c0) # 1c00878c <puts>
1c0013d0:	53fdb7ff 	b	-588(0xffffdb4) # 1c001184 <core_mark+0xba4>
1c0013d4:	1c000104 	pcaddu12i	$r4,8(0x8)
1c0013d8:	02a53084 	addi.w	$r4,$r4,-1716(0x94c)
1c0013dc:	5473b000 	bl	29616(0x73b0) # 1c00878c <puts>
1c0013e0:	14000033 	lu12i.w	$r19,1(0x1)
1c0013e4:	14000076 	lu12i.w	$r22,3(0x3)
1c0013e8:	0386667d 	ori	$r29,$r19,0x199
1c0013ec:	2980307d 	st.w	$r29,$r3,12(0xc)
1c0013f0:	03a6fed9 	ori	$r25,$r22,0x9bf
1c0013f4:	038d02d8 	ori	$r24,$r22,0x340
1c0013f8:	53f677ff 	b	-2444(0xffff674) # 1c000a6c <core_mark+0x48c>
1c0013fc:	03400000 	andi	$r0,$r0,0x0
1c001400:	1c000104 	pcaddu12i	$r4,8(0x8)
1c001404:	02a3d084 	addi.w	$r4,$r4,-1804(0x8f4)
1c001408:	54738400 	bl	29572(0x7384) # 1c00878c <puts>
1c00140c:	1400017f 	lu12i.w	$r31,11(0xb)
1c001410:	03b94bfd 	ori	$r29,$r31,0xe52
1c001414:	140000b9 	lu12i.w	$r25,5(0x5)
1c001418:	140001af 	lu12i.w	$r15,13(0xd)
1c00141c:	2980307d 	st.w	$r29,$r3,12(0xc)
1c001420:	03b91f39 	ori	$r25,$r25,0xe47
1c001424:	0392c1f8 	ori	$r24,$r15,0x4b0
1c001428:	53f647ff 	b	-2492(0xffff644) # 1c000a6c <core_mark+0x48c>
1c00142c:	03400000 	andi	$r0,$r0,0x0
1c001430:	1c000104 	pcaddu12i	$r4,8(0x8)
1c001434:	02a5e084 	addi.w	$r4,$r4,-1672(0x978)
1c001438:	54735400 	bl	29524(0x7354) # 1c00878c <puts>
1c00143c:	14000109 	lu12i.w	$r9,8(0x8)
1c001440:	029d1c0e 	addi.w	$r14,$r0,1863(0x747)
1c001444:	140001cd 	lu12i.w	$r13,14(0xe)
1c001448:	03b61139 	ori	$r25,$r9,0xd84
1c00144c:	2980306e 	st.w	$r14,$r3,12(0xc)
1c001450:	029d1c1d 	addi.w	$r29,$r0,1863(0x747)
1c001454:	038f05b8 	ori	$r24,$r13,0x3c1
1c001458:	53f617ff 	b	-2540(0xffff614) # 1c000a6c <core_mark+0x48c>
1c00145c:	00150004 	move	$r4,$r0
1c001460:	53f76bff 	b	-2200(0xffff768) # 1c000bc8 <core_mark+0x5e8>
1c001464:	03400000 	andi	$r0,$r0,0x0
1c001468:	03400000 	andi	$r0,$r0,0x0
1c00146c:	03400000 	andi	$r0,$r0,0x0

1c001470 <core_bench_matrix>:
core_bench_matrix():
1c001470:	02bec063 	addi.w	$r3,$r3,-80(0xfb0)
1c001474:	29812076 	st.w	$r22,$r3,72(0x48)
1c001478:	28800096 	ld.w	$r22,$r4,0
1c00147c:	29810078 	st.w	$r24,$r3,64(0x40)
1c001480:	2980f079 	st.w	$r25,$r3,60(0x3c)
1c001484:	2980e07a 	st.w	$r26,$r3,56(0x38)
1c001488:	2980b07d 	st.w	$r29,$r3,44(0x2c)
1c00148c:	15fffff8 	lu12i.w	$r24,-1(0xfffff)
1c001490:	29813061 	st.w	$r1,$r3,76(0x4c)
1c001494:	29811077 	st.w	$r23,$r3,68(0x44)
1c001498:	2980d07b 	st.w	$r27,$r3,52(0x34)
1c00149c:	2980c07c 	st.w	$r28,$r3,48(0x30)
1c0014a0:	2980a07e 	st.w	$r30,$r3,40(0x28)
1c0014a4:	2980907f 	st.w	$r31,$r3,36(0x24)
1c0014a8:	29804066 	st.w	$r6,$r3,16(0x10)
1c0014ac:	28803099 	ld.w	$r25,$r4,12(0xc)
1c0014b0:	2880109a 	ld.w	$r26,$r4,4(0x4)
1c0014b4:	2880209d 	ld.w	$r29,$r4,8(0x8)
1c0014b8:	001560b8 	or	$r24,$r5,$r24
1c0014bc:	581276c0 	beq	$r22,$r0,4724(0x1274) # 1c002730 <core_bench_matrix+0x12c0>
1c0014c0:	29803065 	st.w	$r5,$r3,12(0xc)
1c0014c4:	2a40307f 	ld.hu	$r31,$r3,12(0xc)
1c0014c8:	004086de 	slli.w	$r30,$r22,0x1
1c0014cc:	0015035c 	move	$r28,$r26
1c0014d0:	0015034e 	move	$r14,$r26
1c0014d4:	00150011 	move	$r17,$r0
1c0014d8:	02bffbcc 	addi.w	$r12,$r30,-2(0xffe)
1c0014dc:	00448581 	srli.w	$r1,$r12,0x1
1c0014e0:	02800424 	addi.w	$r4,$r1,1(0x1)
1c0014e4:	03401c86 	andi	$r6,$r4,0x7
1c0014e8:	00103bcd 	add.w	$r13,$r30,$r14
1c0014ec:	5800a8c0 	beq	$r6,$r0,168(0xa8) # 1c001594 <core_bench_matrix+0x124>
1c0014f0:	0280040f 	addi.w	$r15,$r0,1(0x1)
1c0014f4:	58008ccf 	beq	$r6,$r15,140(0x8c) # 1c001580 <core_bench_matrix+0x110>
1c0014f8:	02800807 	addi.w	$r7,$r0,2(0x2)
1c0014fc:	580074c7 	beq	$r6,$r7,116(0x74) # 1c001570 <core_bench_matrix+0x100>
1c001500:	02800c08 	addi.w	$r8,$r0,3(0x3)
1c001504:	58005cc8 	beq	$r6,$r8,92(0x5c) # 1c001560 <core_bench_matrix+0xf0>
1c001508:	02801009 	addi.w	$r9,$r0,4(0x4)
1c00150c:	580044c9 	beq	$r6,$r9,68(0x44) # 1c001550 <core_bench_matrix+0xe0>
1c001510:	0280140a 	addi.w	$r10,$r0,5(0x5)
1c001514:	58002cca 	beq	$r6,$r10,44(0x2c) # 1c001540 <core_bench_matrix+0xd0>
1c001518:	0280180b 	addi.w	$r11,$r0,6(0x6)
1c00151c:	580014cb 	beq	$r6,$r11,20(0x14) # 1c001530 <core_bench_matrix+0xc0>
1c001520:	2a4001d0 	ld.hu	$r16,$r14,0
1c001524:	028009ce 	addi.w	$r14,$r14,2(0x2)
1c001528:	001043f2 	add.w	$r18,$r31,$r16
1c00152c:	297ff9d2 	st.h	$r18,$r14,-2(0xffe)
1c001530:	2a4001d3 	ld.hu	$r19,$r14,0
1c001534:	028009ce 	addi.w	$r14,$r14,2(0x2)
1c001538:	00104ff4 	add.w	$r20,$r31,$r19
1c00153c:	297ff9d4 	st.h	$r20,$r14,-2(0xffe)
1c001540:	2a4001d7 	ld.hu	$r23,$r14,0
1c001544:	028009ce 	addi.w	$r14,$r14,2(0x2)
1c001548:	00105ffb 	add.w	$r27,$r31,$r23
1c00154c:	297ff9db 	st.h	$r27,$r14,-2(0xffe)
1c001550:	2a4001cc 	ld.hu	$r12,$r14,0
1c001554:	028009ce 	addi.w	$r14,$r14,2(0x2)
1c001558:	001033e1 	add.w	$r1,$r31,$r12
1c00155c:	297ff9c1 	st.h	$r1,$r14,-2(0xffe)
1c001560:	2a4001c4 	ld.hu	$r4,$r14,0
1c001564:	028009ce 	addi.w	$r14,$r14,2(0x2)
1c001568:	001013e6 	add.w	$r6,$r31,$r4
1c00156c:	297ff9c6 	st.h	$r6,$r14,-2(0xffe)
1c001570:	2a4001cf 	ld.hu	$r15,$r14,0
1c001574:	028009ce 	addi.w	$r14,$r14,2(0x2)
1c001578:	00103fe7 	add.w	$r7,$r31,$r15
1c00157c:	297ff9c7 	st.h	$r7,$r14,-2(0xffe)
1c001580:	2a4001c8 	ld.hu	$r8,$r14,0
1c001584:	028009ce 	addi.w	$r14,$r14,2(0x2)
1c001588:	001023e9 	add.w	$r9,$r31,$r8
1c00158c:	297ff9c9 	st.h	$r9,$r14,-2(0xffe)
1c001590:	58006dcd 	beq	$r14,$r13,108(0x6c) # 1c0015fc <core_bench_matrix+0x18c>
1c001594:	2a4001ca 	ld.hu	$r10,$r14,0
1c001598:	2a4009cb 	ld.hu	$r11,$r14,2(0x2)
1c00159c:	2a4011d4 	ld.hu	$r20,$r14,4(0x4)
1c0015a0:	2a4019d3 	ld.hu	$r19,$r14,6(0x6)
1c0015a4:	2a4021d2 	ld.hu	$r18,$r14,8(0x8)
1c0015a8:	2a4029d0 	ld.hu	$r16,$r14,10(0xa)
1c0015ac:	2a4031d7 	ld.hu	$r23,$r14,12(0xc)
1c0015b0:	2a4039db 	ld.hu	$r27,$r14,14(0xe)
1c0015b4:	00102be1 	add.w	$r1,$r31,$r10
1c0015b8:	00102fe4 	add.w	$r4,$r31,$r11
1c0015bc:	001053e6 	add.w	$r6,$r31,$r20
1c0015c0:	00104fe7 	add.w	$r7,$r31,$r19
1c0015c4:	00104be8 	add.w	$r8,$r31,$r18
1c0015c8:	001043e9 	add.w	$r9,$r31,$r16
1c0015cc:	00105fef 	add.w	$r15,$r31,$r23
1c0015d0:	00106fec 	add.w	$r12,$r31,$r27
1c0015d4:	294001c1 	st.h	$r1,$r14,0
1c0015d8:	294009c4 	st.h	$r4,$r14,2(0x2)
1c0015dc:	294011c6 	st.h	$r6,$r14,4(0x4)
1c0015e0:	294019c7 	st.h	$r7,$r14,6(0x6)
1c0015e4:	294021c8 	st.h	$r8,$r14,8(0x8)
1c0015e8:	294029c9 	st.h	$r9,$r14,10(0xa)
1c0015ec:	294031cf 	st.h	$r15,$r14,12(0xc)
1c0015f0:	294039cc 	st.h	$r12,$r14,14(0xe)
1c0015f4:	028041ce 	addi.w	$r14,$r14,16(0x10)
1c0015f8:	5fff9dcd 	bne	$r14,$r13,-100(0x3ff9c) # 1c001594 <core_bench_matrix+0x124>
1c0015fc:	02800637 	addi.w	$r23,$r17,1(0x1)
1c001600:	580012d7 	beq	$r22,$r23,16(0x10) # 1c001610 <core_bench_matrix+0x1a0>
1c001604:	001502f1 	move	$r17,$r23
1c001608:	53fed3ff 	b	-304(0xffffed0) # 1c0014d8 <core_bench_matrix+0x68>
1c00160c:	03400000 	andi	$r0,$r0,0x0
1c001610:	00408adb 	slli.w	$r27,$r22,0x2
1c001614:	29807079 	st.w	$r25,$r3,28(0x1c)
1c001618:	00150332 	move	$r18,$r25
1c00161c:	0015034e 	move	$r14,$r26
1c001620:	00150014 	move	$r20,$r0
1c001624:	02bffbcd 	addi.w	$r13,$r30,-2(0xffe)
1c001628:	004485aa 	srli.w	$r10,$r13,0x1
1c00162c:	0280054b 	addi.w	$r11,$r10,1(0x1)
1c001630:	03401d73 	andi	$r19,$r11,0x7
1c001634:	0015024c 	move	$r12,$r18
1c001638:	00103bc1 	add.w	$r1,$r30,$r14
1c00163c:	5800c660 	beq	$r19,$r0,196(0xc4) # 1c001700 <core_bench_matrix+0x290>
1c001640:	02800410 	addi.w	$r16,$r0,1(0x1)
1c001644:	5800a670 	beq	$r19,$r16,164(0xa4) # 1c0016e8 <core_bench_matrix+0x278>
1c001648:	02800804 	addi.w	$r4,$r0,2(0x2)
1c00164c:	58008a64 	beq	$r19,$r4,136(0x88) # 1c0016d4 <core_bench_matrix+0x264>
1c001650:	02800c06 	addi.w	$r6,$r0,3(0x3)
1c001654:	58006e66 	beq	$r19,$r6,108(0x6c) # 1c0016c0 <core_bench_matrix+0x250>
1c001658:	02801007 	addi.w	$r7,$r0,4(0x4)
1c00165c:	58005267 	beq	$r19,$r7,80(0x50) # 1c0016ac <core_bench_matrix+0x23c>
1c001660:	02801408 	addi.w	$r8,$r0,5(0x5)
1c001664:	58003668 	beq	$r19,$r8,52(0x34) # 1c001698 <core_bench_matrix+0x228>
1c001668:	02801809 	addi.w	$r9,$r0,6(0x6)
1c00166c:	58001a69 	beq	$r19,$r9,24(0x18) # 1c001684 <core_bench_matrix+0x214>
1c001670:	284001cf 	ld.h	$r15,$r14,0
1c001674:	0280124c 	addi.w	$r12,$r18,4(0x4)
1c001678:	028009ce 	addi.w	$r14,$r14,2(0x2)
1c00167c:	001c15ed 	mul.w	$r13,$r15,$r5
1c001680:	2980024d 	st.w	$r13,$r18,0
1c001684:	284001ca 	ld.h	$r10,$r14,0
1c001688:	0280118c 	addi.w	$r12,$r12,4(0x4)
1c00168c:	028009ce 	addi.w	$r14,$r14,2(0x2)
1c001690:	001c154b 	mul.w	$r11,$r10,$r5
1c001694:	29bff18b 	st.w	$r11,$r12,-4(0xffc)
1c001698:	284001d3 	ld.h	$r19,$r14,0
1c00169c:	0280118c 	addi.w	$r12,$r12,4(0x4)
1c0016a0:	028009ce 	addi.w	$r14,$r14,2(0x2)
1c0016a4:	001c1670 	mul.w	$r16,$r19,$r5
1c0016a8:	29bff190 	st.w	$r16,$r12,-4(0xffc)
1c0016ac:	284001c4 	ld.h	$r4,$r14,0
1c0016b0:	0280118c 	addi.w	$r12,$r12,4(0x4)
1c0016b4:	028009ce 	addi.w	$r14,$r14,2(0x2)
1c0016b8:	001c1486 	mul.w	$r6,$r4,$r5
1c0016bc:	29bff186 	st.w	$r6,$r12,-4(0xffc)
1c0016c0:	284001c7 	ld.h	$r7,$r14,0
1c0016c4:	0280118c 	addi.w	$r12,$r12,4(0x4)
1c0016c8:	028009ce 	addi.w	$r14,$r14,2(0x2)
1c0016cc:	001c14e8 	mul.w	$r8,$r7,$r5
1c0016d0:	29bff188 	st.w	$r8,$r12,-4(0xffc)
1c0016d4:	284001c9 	ld.h	$r9,$r14,0
1c0016d8:	0280118c 	addi.w	$r12,$r12,4(0x4)
1c0016dc:	028009ce 	addi.w	$r14,$r14,2(0x2)
1c0016e0:	001c152f 	mul.w	$r15,$r9,$r5
1c0016e4:	29bff18f 	st.w	$r15,$r12,-4(0xffc)
1c0016e8:	284001cd 	ld.h	$r13,$r14,0
1c0016ec:	0280118c 	addi.w	$r12,$r12,4(0x4)
1c0016f0:	028009ce 	addi.w	$r14,$r14,2(0x2)
1c0016f4:	001c15aa 	mul.w	$r10,$r13,$r5
1c0016f8:	29bff18a 	st.w	$r10,$r12,-4(0xffc)
1c0016fc:	5800702e 	beq	$r1,$r14,112(0x70) # 1c00176c <core_bench_matrix+0x2fc>
1c001700:	284001cb 	ld.h	$r11,$r14,0
1c001704:	284009c8 	ld.h	$r8,$r14,2(0x2)
1c001708:	284011c7 	ld.h	$r7,$r14,4(0x4)
1c00170c:	284019c6 	ld.h	$r6,$r14,6(0x6)
1c001710:	284021c4 	ld.h	$r4,$r14,8(0x8)
1c001714:	284029d3 	ld.h	$r19,$r14,10(0xa)
1c001718:	001c1569 	mul.w	$r9,$r11,$r5
1c00171c:	284031d0 	ld.h	$r16,$r14,12(0xc)
1c001720:	284039cf 	ld.h	$r15,$r14,14(0xe)
1c001724:	0280818c 	addi.w	$r12,$r12,32(0x20)
1c001728:	028041ce 	addi.w	$r14,$r14,16(0x10)
1c00172c:	001c150d 	mul.w	$r13,$r8,$r5
1c001730:	29bf8189 	st.w	$r9,$r12,-32(0xfe0)
1c001734:	001c14ea 	mul.w	$r10,$r7,$r5
1c001738:	29bf918d 	st.w	$r13,$r12,-28(0xfe4)
1c00173c:	001c14cb 	mul.w	$r11,$r6,$r5
1c001740:	29bfa18a 	st.w	$r10,$r12,-24(0xfe8)
1c001744:	001c1488 	mul.w	$r8,$r4,$r5
1c001748:	29bfb18b 	st.w	$r11,$r12,-20(0xfec)
1c00174c:	001c1667 	mul.w	$r7,$r19,$r5
1c001750:	29bfc188 	st.w	$r8,$r12,-16(0xff0)
1c001754:	001c1606 	mul.w	$r6,$r16,$r5
1c001758:	29bfd187 	st.w	$r7,$r12,-12(0xff4)
1c00175c:	001c15e9 	mul.w	$r9,$r15,$r5
1c001760:	29bfe186 	st.w	$r6,$r12,-8(0xff8)
1c001764:	29bff189 	st.w	$r9,$r12,-4(0xffc)
1c001768:	5fff982e 	bne	$r1,$r14,-104(0x3ff98) # 1c001700 <core_bench_matrix+0x290>
1c00176c:	0280068c 	addi.w	$r12,$r20,1(0x1)
1c001770:	00106e52 	add.w	$r18,$r18,$r27
1c001774:	0015002e 	move	$r14,$r1
1c001778:	58000e34 	beq	$r17,$r20,12(0xc) # 1c001784 <core_bench_matrix+0x314>
1c00177c:	00150194 	move	$r20,$r12
1c001780:	53fea7ff 	b	-348(0xffffea4) # 1c001624 <core_bench_matrix+0x1b4>
1c001784:	02bff005 	addi.w	$r5,$r0,-4(0xffc)
1c001788:	02bfe001 	addi.w	$r1,$r0,-8(0xff8)
1c00178c:	001c16f4 	mul.w	$r20,$r23,$r5
1c001790:	00106f2f 	add.w	$r15,$r25,$r27
1c001794:	001501f0 	move	$r16,$r15
1c001798:	00150004 	move	$r4,$r0
1c00179c:	00150009 	move	$r9,$r0
1c0017a0:	00150006 	move	$r6,$r0
1c0017a4:	00150012 	move	$r18,$r0
1c0017a8:	001c06f3 	mul.w	$r19,$r23,$r1
1c0017ac:	0010520a 	add.w	$r10,$r16,$r20
1c0017b0:	00112a0e 	sub.w	$r14,$r16,$r10
1c0017b4:	02bff1cd 	addi.w	$r13,$r14,-4(0xffc)
1c0017b8:	004489ab 	srli.w	$r11,$r13,0x2
1c0017bc:	02800568 	addi.w	$r8,$r11,1(0x1)
1c0017c0:	03400d07 	andi	$r7,$r8,0x3
1c0017c4:	0015014d 	move	$r13,$r10
1c0017c8:	580104e0 	beq	$r7,$r0,260(0x104) # 1c0018cc <core_bench_matrix+0x45c>
1c0017cc:	0280040c 	addi.w	$r12,$r0,1(0x1)
1c0017d0:	580064ec 	beq	$r7,$r12,100(0x64) # 1c001834 <core_bench_matrix+0x3c4>
1c0017d4:	02800805 	addi.w	$r5,$r0,2(0x2)
1c0017d8:	580030e5 	beq	$r7,$r5,48(0x30) # 1c001808 <core_bench_matrix+0x398>
1c0017dc:	28800141 	ld.w	$r1,$r10,0
1c0017e0:	29803064 	st.w	$r4,$r3,12(0xc)
1c0017e4:	2a403064 	ld.hu	$r4,$r3,12(0xc)
1c0017e8:	001004c6 	add.w	$r6,$r6,$r1
1c0017ec:	6401c706 	bge	$r24,$r6,452(0x1c4) # 1c0019b0 <core_bench_matrix+0x540>
1c0017f0:	02802886 	addi.w	$r6,$r4,10(0xa)
1c0017f4:	29803066 	st.w	$r6,$r3,12(0xc)
1c0017f8:	28403064 	ld.h	$r4,$r3,12(0xc)
1c0017fc:	00150006 	move	$r6,$r0
1c001800:	0280114d 	addi.w	$r13,$r10,4(0x4)
1c001804:	00150029 	move	$r9,$r1
1c001808:	288001ab 	ld.w	$r11,$r13,0
1c00180c:	29803064 	st.w	$r4,$r3,12(0xc)
1c001810:	2a403068 	ld.hu	$r8,$r3,12(0xc)
1c001814:	00102cc6 	add.w	$r6,$r6,$r11
1c001818:	64018306 	bge	$r24,$r6,384(0x180) # 1c001998 <core_bench_matrix+0x528>
1c00181c:	02802905 	addi.w	$r5,$r8,10(0xa)
1c001820:	29803065 	st.w	$r5,$r3,12(0xc)
1c001824:	28403064 	ld.h	$r4,$r3,12(0xc)
1c001828:	00150006 	move	$r6,$r0
1c00182c:	028011ad 	addi.w	$r13,$r13,4(0x4)
1c001830:	00150169 	move	$r9,$r11
1c001834:	288001ab 	ld.w	$r11,$r13,0
1c001838:	29803064 	st.w	$r4,$r3,12(0xc)
1c00183c:	2a403061 	ld.hu	$r1,$r3,12(0xc)
1c001840:	00102cc6 	add.w	$r6,$r6,$r11
1c001844:	64018306 	bge	$r24,$r6,384(0x180) # 1c0019c4 <core_bench_matrix+0x554>
1c001848:	02802826 	addi.w	$r6,$r1,10(0xa)
1c00184c:	29803066 	st.w	$r6,$r3,12(0xc)
1c001850:	28403064 	ld.h	$r4,$r3,12(0xc)
1c001854:	00150006 	move	$r6,$r0
1c001858:	028011ad 	addi.w	$r13,$r13,4(0x4)
1c00185c:	00150169 	move	$r9,$r11
1c001860:	5c006db0 	bne	$r13,$r16,108(0x6c) # 1c0018cc <core_bench_matrix+0x45c>
1c001864:	50010800 	b	264(0x108) # 1c00196c <core_bench_matrix+0x4fc>
1c001868:	02802887 	addi.w	$r7,$r4,10(0xa)
1c00186c:	29803067 	st.w	$r7,$r3,12(0xc)
1c001870:	28403068 	ld.h	$r8,$r3,12(0xc)
1c001874:	288011ac 	ld.w	$r12,$r13,4(0x4)
1c001878:	00150006 	move	$r6,$r0
1c00187c:	29803068 	st.w	$r8,$r3,12(0xc)
1c001880:	001030c1 	add.w	$r1,$r6,$r12
1c001884:	2a403065 	ld.hu	$r5,$r3,12(0xc)
1c001888:	6400a701 	bge	$r24,$r1,164(0xa4) # 1c00192c <core_bench_matrix+0x4bc>
1c00188c:	028028ae 	addi.w	$r14,$r5,10(0xa)
1c001890:	2980306e 	st.w	$r14,$r3,12(0xc)
1c001894:	28403066 	ld.h	$r6,$r3,12(0xc)
1c001898:	288021ab 	ld.w	$r11,$r13,8(0x8)
1c00189c:	00150001 	move	$r1,$r0
1c0018a0:	29803066 	st.w	$r6,$r3,12(0xc)
1c0018a4:	00102c26 	add.w	$r6,$r1,$r11
1c0018a8:	2a403068 	ld.hu	$r8,$r3,12(0xc)
1c0018ac:	6400a706 	bge	$r24,$r6,164(0xa4) # 1c001950 <core_bench_matrix+0x4e0>
1c0018b0:	02802905 	addi.w	$r5,$r8,10(0xa)
1c0018b4:	29803065 	st.w	$r5,$r3,12(0xc)
1c0018b8:	028031ad 	addi.w	$r13,$r13,12(0xc)
1c0018bc:	28403064 	ld.h	$r4,$r3,12(0xc)
1c0018c0:	00150006 	move	$r6,$r0
1c0018c4:	00150169 	move	$r9,$r11
1c0018c8:	5800a5b0 	beq	$r13,$r16,164(0xa4) # 1c00196c <core_bench_matrix+0x4fc>
1c0018cc:	288001ae 	ld.w	$r14,$r13,0
1c0018d0:	29803064 	st.w	$r4,$r3,12(0xc)
1c0018d4:	2a40306b 	ld.hu	$r11,$r3,12(0xc)
1c0018d8:	001038c1 	add.w	$r1,$r6,$r14
1c0018dc:	6000ab01 	blt	$r24,$r1,168(0xa8) # 1c001984 <core_bench_matrix+0x514>
1c0018e0:	00123928 	slt	$r8,$r9,$r14
1c0018e4:	00102167 	add.w	$r7,$r11,$r8
1c0018e8:	29803067 	st.w	$r7,$r3,12(0xc)
1c0018ec:	28403065 	ld.h	$r5,$r3,12(0xc)
1c0018f0:	288011a9 	ld.w	$r9,$r13,4(0x4)
1c0018f4:	29803065 	st.w	$r5,$r3,12(0xc)
1c0018f8:	028011ad 	addi.w	$r13,$r13,4(0x4)
1c0018fc:	00102426 	add.w	$r6,$r1,$r9
1c001900:	2a403064 	ld.hu	$r4,$r3,12(0xc)
1c001904:	63ff6706 	blt	$r24,$r6,-156(0x3ff64) # 1c001868 <core_bench_matrix+0x3f8>
1c001908:	001225ce 	slt	$r14,$r14,$r9
1c00190c:	0010388b 	add.w	$r11,$r4,$r14
1c001910:	2980306b 	st.w	$r11,$r3,12(0xc)
1c001914:	28403068 	ld.h	$r8,$r3,12(0xc)
1c001918:	288011ac 	ld.w	$r12,$r13,4(0x4)
1c00191c:	29803068 	st.w	$r8,$r3,12(0xc)
1c001920:	001030c1 	add.w	$r1,$r6,$r12
1c001924:	2a403065 	ld.hu	$r5,$r3,12(0xc)
1c001928:	63ff6701 	blt	$r24,$r1,-156(0x3ff64) # 1c00188c <core_bench_matrix+0x41c>
1c00192c:	00123129 	slt	$r9,$r9,$r12
1c001930:	001024a4 	add.w	$r4,$r5,$r9
1c001934:	29803064 	st.w	$r4,$r3,12(0xc)
1c001938:	28403066 	ld.h	$r6,$r3,12(0xc)
1c00193c:	288021ab 	ld.w	$r11,$r13,8(0x8)
1c001940:	29803066 	st.w	$r6,$r3,12(0xc)
1c001944:	00102c26 	add.w	$r6,$r1,$r11
1c001948:	2a403068 	ld.hu	$r8,$r3,12(0xc)
1c00194c:	63ff6706 	blt	$r24,$r6,-156(0x3ff64) # 1c0018b0 <core_bench_matrix+0x440>
1c001950:	00122d87 	slt	$r7,$r12,$r11
1c001954:	00101d0c 	add.w	$r12,$r8,$r7
1c001958:	2980306c 	st.w	$r12,$r3,12(0xc)
1c00195c:	028031ad 	addi.w	$r13,$r13,12(0xc)
1c001960:	28403064 	ld.h	$r4,$r3,12(0xc)
1c001964:	00150169 	move	$r9,$r11
1c001968:	5fff65b0 	bne	$r13,$r16,-156(0x3ff64) # 1c0018cc <core_bench_matrix+0x45c>
1c00196c:	02800641 	addi.w	$r1,$r18,1(0x1)
1c001970:	00114d50 	sub.w	$r16,$r10,$r19
1c001974:	00150169 	move	$r9,$r11
1c001978:	58006232 	beq	$r17,$r18,96(0x60) # 1c0019d8 <core_bench_matrix+0x568>
1c00197c:	00150032 	move	$r18,$r1
1c001980:	53fe2fff 	b	-468(0xffffe2c) # 1c0017ac <core_bench_matrix+0x33c>
1c001984:	0280296c 	addi.w	$r12,$r11,10(0xa)
1c001988:	2980306c 	st.w	$r12,$r3,12(0xc)
1c00198c:	28403065 	ld.h	$r5,$r3,12(0xc)
1c001990:	00150001 	move	$r1,$r0
1c001994:	53ff5fff 	b	-164(0xfffff5c) # 1c0018f0 <core_bench_matrix+0x480>
1c001998:	00122d27 	slt	$r7,$r9,$r11
1c00199c:	00101d0c 	add.w	$r12,$r8,$r7
1c0019a0:	2980306c 	st.w	$r12,$r3,12(0xc)
1c0019a4:	28403064 	ld.h	$r4,$r3,12(0xc)
1c0019a8:	53fe87ff 	b	-380(0xffffe84) # 1c00182c <core_bench_matrix+0x3bc>
1c0019ac:	03400000 	andi	$r0,$r0,0x0
1c0019b0:	00120529 	slt	$r9,$r9,$r1
1c0019b4:	0010248e 	add.w	$r14,$r4,$r9
1c0019b8:	2980306e 	st.w	$r14,$r3,12(0xc)
1c0019bc:	28403064 	ld.h	$r4,$r3,12(0xc)
1c0019c0:	53fe43ff 	b	-448(0xffffe40) # 1c001800 <core_bench_matrix+0x390>
1c0019c4:	00122d24 	slt	$r4,$r9,$r11
1c0019c8:	00101029 	add.w	$r9,$r1,$r4
1c0019cc:	29803069 	st.w	$r9,$r3,12(0xc)
1c0019d0:	28403064 	ld.h	$r4,$r3,12(0xc)
1c0019d4:	53fe87ff 	b	-380(0xffffe84) # 1c001858 <core_bench_matrix+0x3e8>
1c0019d8:	00150005 	move	$r5,$r0
1c0019dc:	2980506f 	st.w	$r15,$r3,20(0x14)
1c0019e0:	543de000 	bl	15840(0x3de0) # 1c0057c0 <crc16>
1c0019e4:	29803064 	st.w	$r4,$r3,12(0xc)
1c0019e8:	00150366 	move	$r6,$r27
1c0019ec:	00150005 	move	$r5,$r0
1c0019f0:	00150324 	move	$r4,$r25
1c0019f4:	54701800 	bl	28696(0x7018) # 1c008a0c <memset>
1c0019f8:	2880306b 	ld.w	$r11,$r3,12(0xc)
1c0019fc:	2880506c 	ld.w	$r12,$r3,20(0x14)
1c001a00:	0015034e 	move	$r14,$r26
1c001a04:	0015032a 	move	$r10,$r25
1c001a08:	02bffbc4 	addi.w	$r4,$r30,-2(0xffe)
1c001a0c:	00448488 	srli.w	$r8,$r4,0x1
1c001a10:	02800506 	addi.w	$r6,$r8,1(0x1)
1c001a14:	03400cc7 	andi	$r7,$r6,0x3
1c001a18:	001503ad 	move	$r13,$r29
1c001a1c:	00150010 	move	$r16,$r0
1c001a20:	00103bc9 	add.w	$r9,$r30,$r14
1c001a24:	58005ce0 	beq	$r7,$r0,92(0x5c) # 1c001a80 <core_bench_matrix+0x610>
1c001a28:	02800405 	addi.w	$r5,$r0,1(0x1)
1c001a2c:	580038e5 	beq	$r7,$r5,56(0x38) # 1c001a64 <core_bench_matrix+0x5f4>
1c001a30:	0280080f 	addi.w	$r15,$r0,2(0x2)
1c001a34:	580018ef 	beq	$r7,$r15,24(0x18) # 1c001a4c <core_bench_matrix+0x5dc>
1c001a38:	284001d1 	ld.h	$r17,$r14,0
1c001a3c:	284003b3 	ld.h	$r19,$r29,0
1c001a40:	028009ce 	addi.w	$r14,$r14,2(0x2)
1c001a44:	02800bad 	addi.w	$r13,$r29,2(0x2)
1c001a48:	001c4e30 	mul.w	$r16,$r17,$r19
1c001a4c:	284001c1 	ld.h	$r1,$r14,0
1c001a50:	284001b4 	ld.h	$r20,$r13,0
1c001a54:	028009ce 	addi.w	$r14,$r14,2(0x2)
1c001a58:	028009ad 	addi.w	$r13,$r13,2(0x2)
1c001a5c:	001c5032 	mul.w	$r18,$r1,$r20
1c001a60:	00104a10 	add.w	$r16,$r16,$r18
1c001a64:	284001c4 	ld.h	$r4,$r14,0
1c001a68:	284001a8 	ld.h	$r8,$r13,0
1c001a6c:	028009ce 	addi.w	$r14,$r14,2(0x2)
1c001a70:	028009ad 	addi.w	$r13,$r13,2(0x2)
1c001a74:	001c2086 	mul.w	$r6,$r4,$r8
1c001a78:	00101a10 	add.w	$r16,$r16,$r6
1c001a7c:	5800512e 	beq	$r9,$r14,80(0x50) # 1c001acc <core_bench_matrix+0x65c>
1c001a80:	284001c7 	ld.h	$r7,$r14,0
1c001a84:	284001af 	ld.h	$r15,$r13,0
1c001a88:	284009c5 	ld.h	$r5,$r14,2(0x2)
1c001a8c:	284009b3 	ld.h	$r19,$r13,2(0x2)
1c001a90:	284011c1 	ld.h	$r1,$r14,4(0x4)
1c001a94:	001c3cf1 	mul.w	$r17,$r7,$r15
1c001a98:	284011b2 	ld.h	$r18,$r13,4(0x4)
1c001a9c:	284019d4 	ld.h	$r20,$r14,6(0x6)
1c001aa0:	284019a8 	ld.h	$r8,$r13,6(0x6)
1c001aa4:	028021ce 	addi.w	$r14,$r14,8(0x8)
1c001aa8:	028021ad 	addi.w	$r13,$r13,8(0x8)
1c001aac:	001c4ca6 	mul.w	$r6,$r5,$r19
1c001ab0:	00104610 	add.w	$r16,$r16,$r17
1c001ab4:	001c4824 	mul.w	$r4,$r1,$r18
1c001ab8:	00101a07 	add.w	$r7,$r16,$r6
1c001abc:	001c228f 	mul.w	$r15,$r20,$r8
1c001ac0:	001010e5 	add.w	$r5,$r7,$r4
1c001ac4:	00103cb0 	add.w	$r16,$r5,$r15
1c001ac8:	5fffb92e 	bne	$r9,$r14,-72(0x3ffb8) # 1c001a80 <core_bench_matrix+0x610>
1c001acc:	29800150 	st.w	$r16,$r10,0
1c001ad0:	0280114a 	addi.w	$r10,$r10,4(0x4)
1c001ad4:	0015012e 	move	$r14,$r9
1c001ad8:	5fff314c 	bne	$r10,$r12,-208(0x3ff30) # 1c001a08 <core_bench_matrix+0x598>
1c001adc:	0015032f 	move	$r15,$r25
1c001ae0:	00150004 	move	$r4,$r0
1c001ae4:	00150014 	move	$r20,$r0
1c001ae8:	00150012 	move	$r18,$r0
1c001aec:	00150010 	move	$r16,$r0
1c001af0:	288001f1 	ld.w	$r17,$r15,0
1c001af4:	02bffeea 	addi.w	$r10,$r23,-1(0xfff)
1c001af8:	29803064 	st.w	$r4,$r3,12(0xc)
1c001afc:	00104652 	add.w	$r18,$r18,$r17
1c001b00:	03400d4c 	andi	$r12,$r10,0x3
1c001b04:	2a403069 	ld.hu	$r9,$r3,12(0xc)
1c001b08:	640bb312 	bge	$r24,$r18,2992(0xbb0) # 1c0026b8 <core_bench_matrix+0x1248>
1c001b0c:	02802933 	addi.w	$r19,$r9,10(0xa)
1c001b10:	29803073 	st.w	$r19,$r3,12(0xc)
1c001b14:	28403064 	ld.h	$r4,$r3,12(0xc)
1c001b18:	00150012 	move	$r18,$r0
1c001b1c:	0280040e 	addi.w	$r14,$r0,1(0x1)
1c001b20:	028011ed 	addi.w	$r13,$r15,4(0x4)
1c001b24:	00150229 	move	$r9,$r17
1c001b28:	6c00a1d7 	bgeu	$r14,$r23,160(0xa0) # 1c001bc8 <core_bench_matrix+0x758>
1c001b2c:	5807e980 	beq	$r12,$r0,2024(0x7e8) # 1c002314 <core_bench_matrix+0xea4>
1c001b30:	5800698e 	beq	$r12,$r14,104(0x68) # 1c001b98 <core_bench_matrix+0x728>
1c001b34:	02800801 	addi.w	$r1,$r0,2(0x2)
1c001b38:	58003181 	beq	$r12,$r1,48(0x30) # 1c001b68 <core_bench_matrix+0x6f8>
1c001b3c:	288001a9 	ld.w	$r9,$r13,0
1c001b40:	29803064 	st.w	$r4,$r3,12(0xc)
1c001b44:	2a403074 	ld.hu	$r20,$r3,12(0xc)
1c001b48:	00102652 	add.w	$r18,$r18,$r9
1c001b4c:	640bc712 	bge	$r24,$r18,3012(0xbc4) # 1c002710 <core_bench_matrix+0x12a0>
1c001b50:	02802a92 	addi.w	$r18,$r20,10(0xa)
1c001b54:	29803072 	st.w	$r18,$r3,12(0xc)
1c001b58:	28403064 	ld.h	$r4,$r3,12(0xc)
1c001b5c:	00150012 	move	$r18,$r0
1c001b60:	028005ce 	addi.w	$r14,$r14,1(0x1)
1c001b64:	028011ad 	addi.w	$r13,$r13,4(0x4)
1c001b68:	288001a6 	ld.w	$r6,$r13,0
1c001b6c:	29803064 	st.w	$r4,$r3,12(0xc)
1c001b70:	2a403064 	ld.hu	$r4,$r3,12(0xc)
1c001b74:	00101a52 	add.w	$r18,$r18,$r6
1c001b78:	640b2f12 	bge	$r24,$r18,2860(0xb2c) # 1c0026a4 <core_bench_matrix+0x1234>
1c001b7c:	0280288a 	addi.w	$r10,$r4,10(0xa)
1c001b80:	2980306a 	st.w	$r10,$r3,12(0xc)
1c001b84:	28403064 	ld.h	$r4,$r3,12(0xc)
1c001b88:	00150012 	move	$r18,$r0
1c001b8c:	028005ce 	addi.w	$r14,$r14,1(0x1)
1c001b90:	028011ad 	addi.w	$r13,$r13,4(0x4)
1c001b94:	001500c9 	move	$r9,$r6
1c001b98:	288001b1 	ld.w	$r17,$r13,0
1c001b9c:	29803064 	st.w	$r4,$r3,12(0xc)
1c001ba0:	2a40306c 	ld.hu	$r12,$r3,12(0xc)
1c001ba4:	00104652 	add.w	$r18,$r18,$r17
1c001ba8:	640ad312 	bge	$r24,$r18,2768(0xad0) # 1c002678 <core_bench_matrix+0x1208>
1c001bac:	02802994 	addi.w	$r20,$r12,10(0xa)
1c001bb0:	29803074 	st.w	$r20,$r3,12(0xc)
1c001bb4:	28403064 	ld.h	$r4,$r3,12(0xc)
1c001bb8:	00150012 	move	$r18,$r0
1c001bbc:	028005ce 	addi.w	$r14,$r14,1(0x1)
1c001bc0:	028011ad 	addi.w	$r13,$r13,4(0x4)
1c001bc4:	680751d7 	bltu	$r14,$r23,1872(0x750) # 1c002314 <core_bench_matrix+0xea4>
1c001bc8:	02800610 	addi.w	$r16,$r16,1(0x1)
1c001bcc:	00106def 	add.w	$r15,$r15,$r27
1c001bd0:	00150234 	move	$r20,$r17
1c001bd4:	6bff1e17 	bltu	$r16,$r23,-228(0x3ff1c) # 1c001af0 <core_bench_matrix+0x680>
1c001bd8:	00150165 	move	$r5,$r11
1c001bdc:	543be400 	bl	15332(0x3be4) # 1c0057c0 <crc16>
1c001be0:	0280100b 	addi.w	$r11,$r0,4(0x4)
1c001be4:	29806064 	st.w	$r4,$r3,24(0x18)
1c001be8:	2980306b 	st.w	$r11,$r3,12(0xc)
1c001bec:	5c0b3ac0 	bne	$r22,$r0,2872(0xb38) # 1c002724 <core_bench_matrix+0x12b4>
1c001bf0:	00150008 	move	$r8,$r0
1c001bf4:	29805078 	st.w	$r24,$r3,20(0x14)
1c001bf8:	00150356 	move	$r22,$r26
1c001bfc:	00150378 	move	$r24,$r27
1c001c00:	00150324 	move	$r4,$r25
1c001c04:	0015011b 	move	$r27,$r8
1c001c08:	28803066 	ld.w	$r6,$r3,12(0xc)
1c001c0c:	00150005 	move	$r5,$r0
1c001c10:	546dfc00 	bl	28156(0x6dfc) # 1c008a0c <memset>
1c001c14:	0015008a 	move	$r10,$r4
1c001c18:	001503b1 	move	$r17,$r29
1c001c1c:	00150094 	move	$r20,$r4
1c001c20:	00150013 	move	$r19,$r0
1c001c24:	284002c6 	ld.h	$r6,$r22,0
1c001c28:	28400227 	ld.h	$r7,$r17,0
1c001c2c:	02bffee5 	addi.w	$r5,$r23,-1(0xfff)
1c001c30:	02800410 	addi.w	$r16,$r0,1(0x1)
1c001c34:	03400ca9 	andi	$r9,$r5,0x3
1c001c38:	001c1ccc 	mul.w	$r12,$r6,$r7
1c001c3c:	02800acf 	addi.w	$r15,$r22,2(0x2)
1c001c40:	00107a2e 	add.w	$r14,$r17,$r30
1c001c44:	6c00ca17 	bgeu	$r16,$r23,200(0xc8) # 1c001d0c <core_bench_matrix+0x89c>
1c001c48:	58006920 	beq	$r9,$r0,104(0x68) # 1c001cb0 <core_bench_matrix+0x840>
1c001c4c:	58004530 	beq	$r9,$r16,68(0x44) # 1c001c90 <core_bench_matrix+0x820>
1c001c50:	02800812 	addi.w	$r18,$r0,2(0x2)
1c001c54:	58002132 	beq	$r9,$r18,32(0x20) # 1c001c74 <core_bench_matrix+0x804>
1c001c58:	284001e1 	ld.h	$r1,$r15,0
1c001c5c:	284001cd 	ld.h	$r13,$r14,0
1c001c60:	02800810 	addi.w	$r16,$r0,2(0x2)
1c001c64:	028012cf 	addi.w	$r15,$r22,4(0x4)
1c001c68:	001079ce 	add.w	$r14,$r14,$r30
1c001c6c:	001c342b 	mul.w	$r11,$r1,$r13
1c001c70:	00102d8c 	add.w	$r12,$r12,$r11
1c001c74:	284001e4 	ld.h	$r4,$r15,0
1c001c78:	284001c8 	ld.h	$r8,$r14,0
1c001c7c:	02800610 	addi.w	$r16,$r16,1(0x1)
1c001c80:	028009ef 	addi.w	$r15,$r15,2(0x2)
1c001c84:	001c2086 	mul.w	$r6,$r4,$r8
1c001c88:	001079ce 	add.w	$r14,$r14,$r30
1c001c8c:	0010198c 	add.w	$r12,$r12,$r6
1c001c90:	284001e7 	ld.h	$r7,$r15,0
1c001c94:	284001c5 	ld.h	$r5,$r14,0
1c001c98:	02800610 	addi.w	$r16,$r16,1(0x1)
1c001c9c:	028009ef 	addi.w	$r15,$r15,2(0x2)
1c001ca0:	001c14e9 	mul.w	$r9,$r7,$r5
1c001ca4:	001079ce 	add.w	$r14,$r14,$r30
1c001ca8:	0010258c 	add.w	$r12,$r12,$r9
1c001cac:	6c006217 	bgeu	$r16,$r23,96(0x60) # 1c001d0c <core_bench_matrix+0x89c>
1c001cb0:	001079c1 	add.w	$r1,$r14,$r30
1c001cb4:	284001ed 	ld.h	$r13,$r15,0
1c001cb8:	284001cb 	ld.h	$r11,$r14,0
1c001cbc:	00107832 	add.w	$r18,$r1,$r30
1c001cc0:	284009e4 	ld.h	$r4,$r15,2(0x2)
1c001cc4:	28400026 	ld.h	$r6,$r1,0
1c001cc8:	001c2da9 	mul.w	$r9,$r13,$r11
1c001ccc:	00107a4e 	add.w	$r14,$r18,$r30
1c001cd0:	284011e5 	ld.h	$r5,$r15,4(0x4)
1c001cd4:	28400248 	ld.h	$r8,$r18,0
1c001cd8:	284019e1 	ld.h	$r1,$r15,6(0x6)
1c001cdc:	284001c7 	ld.h	$r7,$r14,0
1c001ce0:	02801210 	addi.w	$r16,$r16,4(0x4)
1c001ce4:	028021ef 	addi.w	$r15,$r15,8(0x8)
1c001ce8:	001079ce 	add.w	$r14,$r14,$r30
1c001cec:	001c188d 	mul.w	$r13,$r4,$r6
1c001cf0:	0010258c 	add.w	$r12,$r12,$r9
1c001cf4:	001c20ab 	mul.w	$r11,$r5,$r8
1c001cf8:	00103584 	add.w	$r4,$r12,$r13
1c001cfc:	001c1c32 	mul.w	$r18,$r1,$r7
1c001d00:	00102c86 	add.w	$r6,$r4,$r11
1c001d04:	001048cc 	add.w	$r12,$r6,$r18
1c001d08:	6bffaa17 	bltu	$r16,$r23,-88(0x3ffa8) # 1c001cb0 <core_bench_matrix+0x840>
1c001d0c:	2980028c 	st.w	$r12,$r20,0
1c001d10:	02800673 	addi.w	$r19,$r19,1(0x1)
1c001d14:	02801294 	addi.w	$r20,$r20,4(0x4)
1c001d18:	02800a31 	addi.w	$r17,$r17,2(0x2)
1c001d1c:	6bff0a77 	bltu	$r19,$r23,-248(0x3ff08) # 1c001c24 <core_bench_matrix+0x7b4>
1c001d20:	0280077b 	addi.w	$r27,$r27,1(0x1)
1c001d24:	00106144 	add.w	$r4,$r10,$r24
1c001d28:	00107ad6 	add.w	$r22,$r22,$r30
1c001d2c:	6bfedf77 	bltu	$r27,$r23,-292(0x3fedc) # 1c001c08 <core_bench_matrix+0x798>
1c001d30:	0015031b 	move	$r27,$r24
1c001d34:	28805078 	ld.w	$r24,$r3,20(0x14)
1c001d38:	0015032f 	move	$r15,$r25
1c001d3c:	00150004 	move	$r4,$r0
1c001d40:	0015000d 	move	$r13,$r0
1c001d44:	00150012 	move	$r18,$r0
1c001d48:	00150010 	move	$r16,$r0
1c001d4c:	288001e6 	ld.w	$r6,$r15,0
1c001d50:	02bffef6 	addi.w	$r22,$r23,-1(0xfff)
1c001d54:	29805064 	st.w	$r4,$r3,20(0x14)
1c001d58:	00101a52 	add.w	$r18,$r18,$r6
1c001d5c:	03400eca 	andi	$r10,$r22,0x3
1c001d60:	2a405071 	ld.hu	$r17,$r3,20(0x14)
1c001d64:	64090312 	bge	$r24,$r18,2304(0x900) # 1c002664 <core_bench_matrix+0x11f4>
1c001d68:	02802a29 	addi.w	$r9,$r17,10(0xa)
1c001d6c:	29805069 	st.w	$r9,$r3,20(0x14)
1c001d70:	28405064 	ld.h	$r4,$r3,20(0x14)
1c001d74:	00150012 	move	$r18,$r0
1c001d78:	0280040e 	addi.w	$r14,$r0,1(0x1)
1c001d7c:	028011ec 	addi.w	$r12,$r15,4(0x4)
1c001d80:	001500d1 	move	$r17,$r6
1c001d84:	6c00a1d7 	bgeu	$r14,$r23,160(0xa0) # 1c001e24 <core_bench_matrix+0x9b4>
1c001d88:	5806b940 	beq	$r10,$r0,1720(0x6b8) # 1c002440 <core_bench_matrix+0xfd0>
1c001d8c:	5800694e 	beq	$r10,$r14,104(0x68) # 1c001df4 <core_bench_matrix+0x984>
1c001d90:	02800805 	addi.w	$r5,$r0,2(0x2)
1c001d94:	58003145 	beq	$r10,$r5,48(0x30) # 1c001dc4 <core_bench_matrix+0x954>
1c001d98:	28800191 	ld.w	$r17,$r12,0
1c001d9c:	29805064 	st.w	$r4,$r3,20(0x14)
1c001da0:	2a405068 	ld.hu	$r8,$r3,20(0x14)
1c001da4:	00104652 	add.w	$r18,$r18,$r17
1c001da8:	64093f12 	bge	$r24,$r18,2364(0x93c) # 1c0026e4 <core_bench_matrix+0x1274>
1c001dac:	0280290d 	addi.w	$r13,$r8,10(0xa)
1c001db0:	2980506d 	st.w	$r13,$r3,20(0x14)
1c001db4:	28405064 	ld.h	$r4,$r3,20(0x14)
1c001db8:	00150012 	move	$r18,$r0
1c001dbc:	028005ce 	addi.w	$r14,$r14,1(0x1)
1c001dc0:	0280118c 	addi.w	$r12,$r12,4(0x4)
1c001dc4:	2880018b 	ld.w	$r11,$r12,0
1c001dc8:	29805064 	st.w	$r4,$r3,20(0x14)
1c001dcc:	2a405064 	ld.hu	$r4,$r3,20(0x14)
1c001dd0:	00102e52 	add.w	$r18,$r18,$r11
1c001dd4:	6408ff12 	bge	$r24,$r18,2300(0x8fc) # 1c0026d0 <core_bench_matrix+0x1260>
1c001dd8:	02802892 	addi.w	$r18,$r4,10(0xa)
1c001ddc:	29805072 	st.w	$r18,$r3,20(0x14)
1c001de0:	28405064 	ld.h	$r4,$r3,20(0x14)
1c001de4:	00150012 	move	$r18,$r0
1c001de8:	028005ce 	addi.w	$r14,$r14,1(0x1)
1c001dec:	0280118c 	addi.w	$r12,$r12,4(0x4)
1c001df0:	00150171 	move	$r17,$r11
1c001df4:	28800186 	ld.w	$r6,$r12,0
1c001df8:	29805064 	st.w	$r4,$r3,20(0x14)
1c001dfc:	2a40506a 	ld.hu	$r10,$r3,20(0x14)
1c001e00:	00101a52 	add.w	$r18,$r18,$r6
1c001e04:	64082312 	bge	$r24,$r18,2080(0x820) # 1c002624 <core_bench_matrix+0x11b4>
1c001e08:	02802949 	addi.w	$r9,$r10,10(0xa)
1c001e0c:	29805069 	st.w	$r9,$r3,20(0x14)
1c001e10:	28405064 	ld.h	$r4,$r3,20(0x14)
1c001e14:	00150012 	move	$r18,$r0
1c001e18:	028005ce 	addi.w	$r14,$r14,1(0x1)
1c001e1c:	0280118c 	addi.w	$r12,$r12,4(0x4)
1c001e20:	680621d7 	bltu	$r14,$r23,1568(0x620) # 1c002440 <core_bench_matrix+0xfd0>
1c001e24:	02800610 	addi.w	$r16,$r16,1(0x1)
1c001e28:	00106def 	add.w	$r15,$r15,$r27
1c001e2c:	001500cd 	move	$r13,$r6
1c001e30:	6bff1e17 	bltu	$r16,$r23,-228(0x3ff1c) # 1c001d4c <core_bench_matrix+0x8dc>
1c001e34:	28806065 	ld.w	$r5,$r3,24(0x18)
1c001e38:	00150016 	move	$r22,$r0
1c001e3c:	54398400 	bl	14724(0x3984) # 1c0057c0 <crc16>
1c001e40:	29805064 	st.w	$r4,$r3,20(0x14)
1c001e44:	28803066 	ld.w	$r6,$r3,12(0xc)
1c001e48:	00150005 	move	$r5,$r0
1c001e4c:	00150324 	move	$r4,$r25
1c001e50:	546bbc00 	bl	27580(0x6bbc) # 1c008a0c <memset>
1c001e54:	001503ab 	move	$r11,$r29
1c001e58:	00150333 	move	$r19,$r25
1c001e5c:	00150012 	move	$r18,$r0
1c001e60:	28400349 	ld.h	$r9,$r26,0
1c001e64:	28400165 	ld.h	$r5,$r11,0
1c001e68:	02bffef4 	addi.w	$r20,$r23,-1(0xfff)
1c001e6c:	0280040f 	addi.w	$r15,$r0,1(0x1)
1c001e70:	001c1528 	mul.w	$r8,$r9,$r5
1c001e74:	03400e81 	andi	$r1,$r20,0x3
1c001e78:	02800b4d 	addi.w	$r13,$r26,2(0x2)
1c001e7c:	0010796c 	add.w	$r12,$r11,$r30
1c001e80:	00488907 	srai.w	$r7,$r8,0x2
1c001e84:	00489506 	srai.w	$r6,$r8,0x5
1c001e88:	03403ce4 	andi	$r4,$r7,0xf
1c001e8c:	0341fcd1 	andi	$r17,$r6,0x7f
1c001e90:	001c448e 	mul.w	$r14,$r4,$r17
1c001e94:	6c0155f7 	bgeu	$r15,$r23,340(0x154) # 1c001fe8 <core_bench_matrix+0xb78>
1c001e98:	5800a420 	beq	$r1,$r0,164(0xa4) # 1c001f3c <core_bench_matrix+0xacc>
1c001e9c:	58006c2f 	beq	$r1,$r15,108(0x6c) # 1c001f08 <core_bench_matrix+0xa98>
1c001ea0:	0280080a 	addi.w	$r10,$r0,2(0x2)
1c001ea4:	5800342a 	beq	$r1,$r10,52(0x34) # 1c001ed8 <core_bench_matrix+0xa68>
1c001ea8:	284001b0 	ld.h	$r16,$r13,0
1c001eac:	28400189 	ld.h	$r9,$r12,0
1c001eb0:	0280080f 	addi.w	$r15,$r0,2(0x2)
1c001eb4:	0280134d 	addi.w	$r13,$r26,4(0x4)
1c001eb8:	0010798c 	add.w	$r12,$r12,$r30
1c001ebc:	001c2605 	mul.w	$r5,$r16,$r9
1c001ec0:	004888b4 	srai.w	$r20,$r5,0x2
1c001ec4:	004894a8 	srai.w	$r8,$r5,0x5
1c001ec8:	03403e81 	andi	$r1,$r20,0xf
1c001ecc:	0341fd07 	andi	$r7,$r8,0x7f
1c001ed0:	001c1c26 	mul.w	$r6,$r1,$r7
1c001ed4:	001019ce 	add.w	$r14,$r14,$r6
1c001ed8:	284001a4 	ld.h	$r4,$r13,0
1c001edc:	28400191 	ld.h	$r17,$r12,0
1c001ee0:	028005ef 	addi.w	$r15,$r15,1(0x1)
1c001ee4:	028009ad 	addi.w	$r13,$r13,2(0x2)
1c001ee8:	001c448a 	mul.w	$r10,$r4,$r17
1c001eec:	0010798c 	add.w	$r12,$r12,$r30
1c001ef0:	00488949 	srai.w	$r9,$r10,0x2
1c001ef4:	00489550 	srai.w	$r16,$r10,0x5
1c001ef8:	03403d25 	andi	$r5,$r9,0xf
1c001efc:	0341fe14 	andi	$r20,$r16,0x7f
1c001f00:	001c50a8 	mul.w	$r8,$r5,$r20
1c001f04:	001021ce 	add.w	$r14,$r14,$r8
1c001f08:	284001a1 	ld.h	$r1,$r13,0
1c001f0c:	28400187 	ld.h	$r7,$r12,0
1c001f10:	028005ef 	addi.w	$r15,$r15,1(0x1)
1c001f14:	028009ad 	addi.w	$r13,$r13,2(0x2)
1c001f18:	001c1c26 	mul.w	$r6,$r1,$r7
1c001f1c:	0010798c 	add.w	$r12,$r12,$r30
1c001f20:	004888c4 	srai.w	$r4,$r6,0x2
1c001f24:	004894d1 	srai.w	$r17,$r6,0x5
1c001f28:	03403c8a 	andi	$r10,$r4,0xf
1c001f2c:	0341fe29 	andi	$r9,$r17,0x7f
1c001f30:	001c2550 	mul.w	$r16,$r10,$r9
1c001f34:	001041ce 	add.w	$r14,$r14,$r16
1c001f38:	6c00b1f7 	bgeu	$r15,$r23,176(0xb0) # 1c001fe8 <core_bench_matrix+0xb78>
1c001f3c:	00107994 	add.w	$r20,$r12,$r30
1c001f40:	284001a5 	ld.h	$r5,$r13,0
1c001f44:	28400181 	ld.h	$r1,$r12,0
1c001f48:	284009a8 	ld.h	$r8,$r13,2(0x2)
1c001f4c:	00107a87 	add.w	$r7,$r20,$r30
1c001f50:	28400284 	ld.h	$r4,$r20,0
1c001f54:	001c04b1 	mul.w	$r17,$r5,$r1
1c001f58:	284011aa 	ld.h	$r10,$r13,4(0x4)
1c001f5c:	001078ec 	add.w	$r12,$r7,$r30
1c001f60:	284000f4 	ld.h	$r20,$r7,0
1c001f64:	28400186 	ld.h	$r6,$r12,0
1c001f68:	284019a9 	ld.h	$r9,$r13,6(0x6)
1c001f6c:	028011ef 	addi.w	$r15,$r15,4(0x4)
1c001f70:	028021ad 	addi.w	$r13,$r13,8(0x8)
1c001f74:	0010798c 	add.w	$r12,$r12,$r30
1c001f78:	001c1101 	mul.w	$r1,$r8,$r4
1c001f7c:	00488a30 	srai.w	$r16,$r17,0x2
1c001f80:	00489625 	srai.w	$r5,$r17,0x5
1c001f84:	0341fcb1 	andi	$r17,$r5,0x7f
1c001f88:	03403e08 	andi	$r8,$r16,0xf
1c001f8c:	001c5154 	mul.w	$r20,$r10,$r20
1c001f90:	00489424 	srai.w	$r4,$r1,0x5
1c001f94:	00488827 	srai.w	$r7,$r1,0x2
1c001f98:	03403ce1 	andi	$r1,$r7,0xf
1c001f9c:	0341fc87 	andi	$r7,$r4,0x7f
1c001fa0:	001c1929 	mul.w	$r9,$r9,$r6
1c001fa4:	00488a8a 	srai.w	$r10,$r20,0x2
1c001fa8:	00489686 	srai.w	$r6,$r20,0x5
1c001fac:	03403d4a 	andi	$r10,$r10,0xf
1c001fb0:	0341fcd4 	andi	$r20,$r6,0x7f
1c001fb4:	001c4510 	mul.w	$r16,$r8,$r17
1c001fb8:	00489525 	srai.w	$r5,$r9,0x5
1c001fbc:	00488928 	srai.w	$r8,$r9,0x2
1c001fc0:	03403d11 	andi	$r17,$r8,0xf
1c001fc4:	0341fca9 	andi	$r9,$r5,0x7f
1c001fc8:	001c1c24 	mul.w	$r4,$r1,$r7
1c001fcc:	001041ce 	add.w	$r14,$r14,$r16
1c001fd0:	001c5141 	mul.w	$r1,$r10,$r20
1c001fd4:	001011c7 	add.w	$r7,$r14,$r4
1c001fd8:	001c2626 	mul.w	$r6,$r17,$r9
1c001fdc:	001004ea 	add.w	$r10,$r7,$r1
1c001fe0:	0010194e 	add.w	$r14,$r10,$r6
1c001fe4:	6bff59f7 	bltu	$r15,$r23,-168(0x3ff58) # 1c001f3c <core_bench_matrix+0xacc>
1c001fe8:	2980026e 	st.w	$r14,$r19,0
1c001fec:	02800652 	addi.w	$r18,$r18,1(0x1)
1c001ff0:	02801273 	addi.w	$r19,$r19,4(0x4)
1c001ff4:	0280096b 	addi.w	$r11,$r11,2(0x2)
1c001ff8:	6bfe6a57 	bltu	$r18,$r23,-408(0x3fe68) # 1c001e60 <core_bench_matrix+0x9f0>
1c001ffc:	028006d6 	addi.w	$r22,$r22,1(0x1)
1c002000:	00106f39 	add.w	$r25,$r25,$r27
1c002004:	00107b5a 	add.w	$r26,$r26,$r30
1c002008:	6bfe3ed7 	bltu	$r22,$r23,-452(0x3fe3c) # 1c001e44 <core_bench_matrix+0x9d4>
1c00200c:	2880706c 	ld.w	$r12,$r3,28(0x1c)
1c002010:	00150004 	move	$r4,$r0
1c002014:	00150011 	move	$r17,$r0
1c002018:	0015000f 	move	$r15,$r0
1c00201c:	0015000e 	move	$r14,$r0
1c002020:	28800185 	ld.w	$r5,$r12,0
1c002024:	02bffef9 	addi.w	$r25,$r23,-1(0xfff)
1c002028:	29803064 	st.w	$r4,$r3,12(0xc)
1c00202c:	001015ef 	add.w	$r15,$r15,$r5
1c002030:	03400f3a 	andi	$r26,$r25,0x3
1c002034:	2a40307d 	ld.hu	$r29,$r3,12(0xc)
1c002038:	6406030f 	bge	$r24,$r15,1536(0x600) # 1c002638 <core_bench_matrix+0x11c8>
1c00203c:	02802bb3 	addi.w	$r19,$r29,10(0xa)
1c002040:	29803073 	st.w	$r19,$r3,12(0xc)
1c002044:	28403064 	ld.h	$r4,$r3,12(0xc)
1c002048:	0015000f 	move	$r15,$r0
1c00204c:	02800410 	addi.w	$r16,$r0,1(0x1)
1c002050:	0280118d 	addi.w	$r13,$r12,4(0x4)
1c002054:	001500a6 	move	$r6,$r5
1c002058:	6c00a217 	bgeu	$r16,$r23,160(0xa0) # 1c0020f8 <core_bench_matrix+0xc88>
1c00205c:	58051740 	beq	$r26,$r0,1300(0x514) # 1c002570 <core_bench_matrix+0x1100>
1c002060:	58006b50 	beq	$r26,$r16,104(0x68) # 1c0020c8 <core_bench_matrix+0xc58>
1c002064:	02800814 	addi.w	$r20,$r0,2(0x2)
1c002068:	58003354 	beq	$r26,$r20,48(0x30) # 1c002098 <core_bench_matrix+0xc28>
1c00206c:	288001a6 	ld.w	$r6,$r13,0
1c002070:	29803064 	st.w	$r4,$r3,12(0xc)
1c002074:	2a403068 	ld.hu	$r8,$r3,12(0xc)
1c002078:	001019ef 	add.w	$r15,$r15,$r6
1c00207c:	64067f0f 	bge	$r24,$r15,1660(0x67c) # 1c0026f8 <core_bench_matrix+0x1288>
1c002080:	0280290f 	addi.w	$r15,$r8,10(0xa)
1c002084:	2980306f 	st.w	$r15,$r3,12(0xc)
1c002088:	28403064 	ld.h	$r4,$r3,12(0xc)
1c00208c:	0015000f 	move	$r15,$r0
1c002090:	02800610 	addi.w	$r16,$r16,1(0x1)
1c002094:	028011ad 	addi.w	$r13,$r13,4(0x4)
1c002098:	288001a9 	ld.w	$r9,$r13,0
1c00209c:	29803064 	st.w	$r4,$r3,12(0xc)
1c0020a0:	2a403064 	ld.hu	$r4,$r3,12(0xc)
1c0020a4:	001025ef 	add.w	$r15,$r15,$r9
1c0020a8:	64056b0f 	bge	$r24,$r15,1384(0x568) # 1c002610 <core_bench_matrix+0x11a0>
1c0020ac:	02802887 	addi.w	$r7,$r4,10(0xa)
1c0020b0:	29803067 	st.w	$r7,$r3,12(0xc)
1c0020b4:	28403064 	ld.h	$r4,$r3,12(0xc)
1c0020b8:	0015000f 	move	$r15,$r0
1c0020bc:	02800610 	addi.w	$r16,$r16,1(0x1)
1c0020c0:	028011ad 	addi.w	$r13,$r13,4(0x4)
1c0020c4:	00150126 	move	$r6,$r9
1c0020c8:	288001a5 	ld.w	$r5,$r13,0
1c0020cc:	29803064 	st.w	$r4,$r3,12(0xc)
1c0020d0:	2a40306a 	ld.hu	$r10,$r3,12(0xc)
1c0020d4:	001015ef 	add.w	$r15,$r15,$r5
1c0020d8:	64057b0f 	bge	$r24,$r15,1400(0x578) # 1c002650 <core_bench_matrix+0x11e0>
1c0020dc:	0280295d 	addi.w	$r29,$r10,10(0xa)
1c0020e0:	2980307d 	st.w	$r29,$r3,12(0xc)
1c0020e4:	28403064 	ld.h	$r4,$r3,12(0xc)
1c0020e8:	0015000f 	move	$r15,$r0
1c0020ec:	02800610 	addi.w	$r16,$r16,1(0x1)
1c0020f0:	028011ad 	addi.w	$r13,$r13,4(0x4)
1c0020f4:	68047e17 	bltu	$r16,$r23,1148(0x47c) # 1c002570 <core_bench_matrix+0x1100>
1c0020f8:	028005ce 	addi.w	$r14,$r14,1(0x1)
1c0020fc:	00106d8c 	add.w	$r12,$r12,$r27
1c002100:	001500b1 	move	$r17,$r5
1c002104:	6bff1dd7 	bltu	$r14,$r23,-228(0x3ff1c) # 1c002020 <core_bench_matrix+0xbb0>
1c002108:	28805065 	ld.w	$r5,$r3,20(0x14)
1c00210c:	00150018 	move	$r24,$r0
1c002110:	5436b000 	bl	14000(0x36b0) # 1c0057c0 <crc16>
1c002114:	29803064 	st.w	$r4,$r3,12(0xc)
1c002118:	2a40039b 	ld.hu	$r27,$r28,0
1c00211c:	02bffee4 	addi.w	$r4,$r23,-1(0xfff)
1c002120:	0280040d 	addi.w	$r13,$r0,1(0x1)
1c002124:	00117f72 	sub.w	$r18,$r27,$r31
1c002128:	29400392 	st.h	$r18,$r28,0
1c00212c:	03401c81 	andi	$r1,$r4,0x7
1c002130:	02800b8c 	addi.w	$r12,$r28,2(0x2)
1c002134:	6c0131b7 	bgeu	$r13,$r23,304(0x130) # 1c002264 <core_bench_matrix+0xdf4>
1c002138:	5800c020 	beq	$r1,$r0,192(0xc0) # 1c0021f8 <core_bench_matrix+0xd88>
1c00213c:	5800a42d 	beq	$r1,$r13,164(0xa4) # 1c0021e0 <core_bench_matrix+0xd70>
1c002140:	02800807 	addi.w	$r7,$r0,2(0x2)
1c002144:	58008827 	beq	$r1,$r7,136(0x88) # 1c0021cc <core_bench_matrix+0xd5c>
1c002148:	02800c06 	addi.w	$r6,$r0,3(0x3)
1c00214c:	58006c26 	beq	$r1,$r6,108(0x6c) # 1c0021b8 <core_bench_matrix+0xd48>
1c002150:	0280100a 	addi.w	$r10,$r0,4(0x4)
1c002154:	5800502a 	beq	$r1,$r10,80(0x50) # 1c0021a4 <core_bench_matrix+0xd34>
1c002158:	02801419 	addi.w	$r25,$r0,5(0x5)
1c00215c:	58003439 	beq	$r1,$r25,52(0x34) # 1c002190 <core_bench_matrix+0xd20>
1c002160:	0280181a 	addi.w	$r26,$r0,6(0x6)
1c002164:	5800183a 	beq	$r1,$r26,24(0x18) # 1c00217c <core_bench_matrix+0xd0c>
1c002168:	2a40019d 	ld.hu	$r29,$r12,0
1c00216c:	0280080d 	addi.w	$r13,$r0,2(0x2)
1c002170:	00117fb6 	sub.w	$r22,$r29,$r31
1c002174:	29400196 	st.h	$r22,$r12,0
1c002178:	0280138c 	addi.w	$r12,$r28,4(0x4)
1c00217c:	2a40018b 	ld.hu	$r11,$r12,0
1c002180:	028005ad 	addi.w	$r13,$r13,1(0x1)
1c002184:	0280098c 	addi.w	$r12,$r12,2(0x2)
1c002188:	00117d73 	sub.w	$r19,$r11,$r31
1c00218c:	297ff993 	st.h	$r19,$r12,-2(0xffe)
1c002190:	2a400185 	ld.hu	$r5,$r12,0
1c002194:	028005ad 	addi.w	$r13,$r13,1(0x1)
1c002198:	0280098c 	addi.w	$r12,$r12,2(0x2)
1c00219c:	00117cb4 	sub.w	$r20,$r5,$r31
1c0021a0:	297ff994 	st.h	$r20,$r12,-2(0xffe)
1c0021a4:	2a40018f 	ld.hu	$r15,$r12,0
1c0021a8:	028005ad 	addi.w	$r13,$r13,1(0x1)
1c0021ac:	0280098c 	addi.w	$r12,$r12,2(0x2)
1c0021b0:	00117de8 	sub.w	$r8,$r15,$r31
1c0021b4:	297ff988 	st.h	$r8,$r12,-2(0xffe)
1c0021b8:	2a400189 	ld.hu	$r9,$r12,0
1c0021bc:	028005ad 	addi.w	$r13,$r13,1(0x1)
1c0021c0:	0280098c 	addi.w	$r12,$r12,2(0x2)
1c0021c4:	00117d30 	sub.w	$r16,$r9,$r31
1c0021c8:	297ff990 	st.h	$r16,$r12,-2(0xffe)
1c0021cc:	2a40018e 	ld.hu	$r14,$r12,0
1c0021d0:	028005ad 	addi.w	$r13,$r13,1(0x1)
1c0021d4:	0280098c 	addi.w	$r12,$r12,2(0x2)
1c0021d8:	00117dd1 	sub.w	$r17,$r14,$r31
1c0021dc:	297ff991 	st.h	$r17,$r12,-2(0xffe)
1c0021e0:	2a40019b 	ld.hu	$r27,$r12,0
1c0021e4:	0280098c 	addi.w	$r12,$r12,2(0x2)
1c0021e8:	028005ad 	addi.w	$r13,$r13,1(0x1)
1c0021ec:	00117f64 	sub.w	$r4,$r27,$r31
1c0021f0:	297ff984 	st.h	$r4,$r12,-2(0xffe)
1c0021f4:	6c0071b7 	bgeu	$r13,$r23,112(0x70) # 1c002264 <core_bench_matrix+0xdf4>
1c0021f8:	2a400181 	ld.hu	$r1,$r12,0
1c0021fc:	2a400987 	ld.hu	$r7,$r12,2(0x2)
1c002200:	2a401186 	ld.hu	$r6,$r12,4(0x4)
1c002204:	2a40198a 	ld.hu	$r10,$r12,6(0x6)
1c002208:	2a402192 	ld.hu	$r18,$r12,8(0x8)
1c00220c:	2a402999 	ld.hu	$r25,$r12,10(0xa)
1c002210:	2a40319a 	ld.hu	$r26,$r12,12(0xc)
1c002214:	2a40399d 	ld.hu	$r29,$r12,14(0xe)
1c002218:	00117c36 	sub.w	$r22,$r1,$r31
1c00221c:	00117ceb 	sub.w	$r11,$r7,$r31
1c002220:	00117cc5 	sub.w	$r5,$r6,$r31
1c002224:	00117d53 	sub.w	$r19,$r10,$r31
1c002228:	00117e54 	sub.w	$r20,$r18,$r31
1c00222c:	00117f28 	sub.w	$r8,$r25,$r31
1c002230:	00117f4f 	sub.w	$r15,$r26,$r31
1c002234:	00117fa9 	sub.w	$r9,$r29,$r31
1c002238:	29400196 	st.h	$r22,$r12,0
1c00223c:	2940098b 	st.h	$r11,$r12,2(0x2)
1c002240:	29401185 	st.h	$r5,$r12,4(0x4)
1c002244:	29401993 	st.h	$r19,$r12,6(0x6)
1c002248:	29402194 	st.h	$r20,$r12,8(0x8)
1c00224c:	29402988 	st.h	$r8,$r12,10(0xa)
1c002250:	2940318f 	st.h	$r15,$r12,12(0xc)
1c002254:	29403989 	st.h	$r9,$r12,14(0xe)
1c002258:	028021ad 	addi.w	$r13,$r13,8(0x8)
1c00225c:	0280418c 	addi.w	$r12,$r12,16(0x10)
1c002260:	6bff99b7 	bltu	$r13,$r23,-104(0x3ff98) # 1c0021f8 <core_bench_matrix+0xd88>
1c002264:	02800718 	addi.w	$r24,$r24,1(0x1)
1c002268:	00107b9c 	add.w	$r28,$r28,$r30
1c00226c:	6bfeaf17 	bltu	$r24,$r23,-340(0x3feac) # 1c002118 <core_bench_matrix+0xca8>
1c002270:	28812076 	ld.w	$r22,$r3,72(0x48)
1c002274:	28403064 	ld.h	$r4,$r3,12(0xc)
1c002278:	28804065 	ld.w	$r5,$r3,16(0x10)
1c00227c:	28813061 	ld.w	$r1,$r3,76(0x4c)
1c002280:	28811077 	ld.w	$r23,$r3,68(0x44)
1c002284:	28810078 	ld.w	$r24,$r3,64(0x40)
1c002288:	2880f079 	ld.w	$r25,$r3,60(0x3c)
1c00228c:	2880e07a 	ld.w	$r26,$r3,56(0x38)
1c002290:	2880d07b 	ld.w	$r27,$r3,52(0x34)
1c002294:	2880c07c 	ld.w	$r28,$r3,48(0x30)
1c002298:	2880b07d 	ld.w	$r29,$r3,44(0x2c)
1c00229c:	2880a07e 	ld.w	$r30,$r3,40(0x28)
1c0022a0:	2880907f 	ld.w	$r31,$r3,36(0x24)
1c0022a4:	02814063 	addi.w	$r3,$r3,80(0x50)
1c0022a8:	50351800 	b	13592(0x3518) # 1c0057c0 <crc16>
1c0022ac:	03400000 	andi	$r0,$r0,0x0
1c0022b0:	02802988 	addi.w	$r8,$r12,10(0xa)
1c0022b4:	29803068 	st.w	$r8,$r3,12(0xc)
1c0022b8:	28403074 	ld.h	$r20,$r3,12(0xc)
1c0022bc:	288011a6 	ld.w	$r6,$r13,4(0x4)
1c0022c0:	00150009 	move	$r9,$r0
1c0022c4:	29803074 	st.w	$r20,$r3,12(0xc)
1c0022c8:	00101932 	add.w	$r18,$r9,$r6
1c0022cc:	2a403064 	ld.hu	$r4,$r3,12(0xc)
1c0022d0:	6400ab12 	bge	$r24,$r18,168(0xa8) # 1c002378 <core_bench_matrix+0xf08>
1c0022d4:	0280288a 	addi.w	$r10,$r4,10(0xa)
1c0022d8:	2980306a 	st.w	$r10,$r3,12(0xc)
1c0022dc:	28403065 	ld.h	$r5,$r3,12(0xc)
1c0022e0:	288021b1 	ld.w	$r17,$r13,8(0x8)
1c0022e4:	00150012 	move	$r18,$r0
1c0022e8:	29803065 	st.w	$r5,$r3,12(0xc)
1c0022ec:	00104652 	add.w	$r18,$r18,$r17
1c0022f0:	2a403069 	ld.hu	$r9,$r3,12(0xc)
1c0022f4:	6400ab12 	bge	$r24,$r18,168(0xa8) # 1c00239c <core_bench_matrix+0xf2c>
1c0022f8:	02802921 	addi.w	$r1,$r9,10(0xa)
1c0022fc:	29803061 	st.w	$r1,$r3,12(0xc)
1c002300:	28403064 	ld.h	$r4,$r3,12(0xc)
1c002304:	00150012 	move	$r18,$r0
1c002308:	02800dce 	addi.w	$r14,$r14,3(0x3)
1c00230c:	028031ad 	addi.w	$r13,$r13,12(0xc)
1c002310:	6ff8b9d7 	bgeu	$r14,$r23,-1864(0x3f8b8) # 1c001bc8 <core_bench_matrix+0x758>
1c002314:	288001a8 	ld.w	$r8,$r13,0
1c002318:	29803064 	st.w	$r4,$r3,12(0xc)
1c00231c:	2a403066 	ld.hu	$r6,$r3,12(0xc)
1c002320:	00102245 	add.w	$r5,$r18,$r8
1c002324:	60036f05 	blt	$r24,$r5,876(0x36c) # 1c002690 <core_bench_matrix+0x1220>
1c002328:	00122231 	slt	$r17,$r17,$r8
1c00232c:	001044c4 	add.w	$r4,$r6,$r17
1c002330:	29803064 	st.w	$r4,$r3,12(0xc)
1c002334:	28403067 	ld.h	$r7,$r3,12(0xc)
1c002338:	288011aa 	ld.w	$r10,$r13,4(0x4)
1c00233c:	29803067 	st.w	$r7,$r3,12(0xc)
1c002340:	028005ce 	addi.w	$r14,$r14,1(0x1)
1c002344:	001028a9 	add.w	$r9,$r5,$r10
1c002348:	028011ad 	addi.w	$r13,$r13,4(0x4)
1c00234c:	2a40306c 	ld.hu	$r12,$r3,12(0xc)
1c002350:	63ff6309 	blt	$r24,$r9,-160(0x3ff60) # 1c0022b0 <core_bench_matrix+0xe40>
1c002354:	00122913 	slt	$r19,$r8,$r10
1c002358:	00104d81 	add.w	$r1,$r12,$r19
1c00235c:	29803061 	st.w	$r1,$r3,12(0xc)
1c002360:	28403074 	ld.h	$r20,$r3,12(0xc)
1c002364:	288011a6 	ld.w	$r6,$r13,4(0x4)
1c002368:	29803074 	st.w	$r20,$r3,12(0xc)
1c00236c:	00101932 	add.w	$r18,$r9,$r6
1c002370:	2a403064 	ld.hu	$r4,$r3,12(0xc)
1c002374:	63ff6312 	blt	$r24,$r18,-160(0x3ff60) # 1c0022d4 <core_bench_matrix+0xe64>
1c002378:	00121951 	slt	$r17,$r10,$r6
1c00237c:	00104487 	add.w	$r7,$r4,$r17
1c002380:	29803067 	st.w	$r7,$r3,12(0xc)
1c002384:	28403065 	ld.h	$r5,$r3,12(0xc)
1c002388:	288021b1 	ld.w	$r17,$r13,8(0x8)
1c00238c:	29803065 	st.w	$r5,$r3,12(0xc)
1c002390:	00104652 	add.w	$r18,$r18,$r17
1c002394:	2a403069 	ld.hu	$r9,$r3,12(0xc)
1c002398:	63ff6312 	blt	$r24,$r18,-160(0x3ff60) # 1c0022f8 <core_bench_matrix+0xe88>
1c00239c:	001244cc 	slt	$r12,$r6,$r17
1c0023a0:	00103133 	add.w	$r19,$r9,$r12
1c0023a4:	29803073 	st.w	$r19,$r3,12(0xc)
1c0023a8:	28403064 	ld.h	$r4,$r3,12(0xc)
1c0023ac:	53ff5fff 	b	-164(0xfffff5c) # 1c002308 <core_bench_matrix+0xe98>
1c0023b0:	001214c1 	slt	$r1,$r6,$r5
1c0023b4:	00100507 	add.w	$r7,$r8,$r1
1c0023b8:	29805067 	st.w	$r7,$r3,20(0x14)
1c0023bc:	28801186 	ld.w	$r6,$r12,4(0x4)
1c0023c0:	2840506b 	ld.h	$r11,$r3,20(0x14)
1c0023c4:	028005ce 	addi.w	$r14,$r14,1(0x1)
1c0023c8:	00101896 	add.w	$r22,$r4,$r6
1c0023cc:	2980506b 	st.w	$r11,$r3,20(0x14)
1c0023d0:	0280118c 	addi.w	$r12,$r12,4(0x4)
1c0023d4:	2a405072 	ld.hu	$r18,$r3,20(0x14)
1c0023d8:	6400ab16 	bge	$r24,$r22,168(0xa8) # 1c002480 <core_bench_matrix+0x1010>
1c0023dc:	02802a53 	addi.w	$r19,$r18,10(0xa)
1c0023e0:	29805073 	st.w	$r19,$r3,20(0x14)
1c0023e4:	28405074 	ld.h	$r20,$r3,20(0x14)
1c0023e8:	28801189 	ld.w	$r9,$r12,4(0x4)
1c0023ec:	00150016 	move	$r22,$r0
1c0023f0:	29805074 	st.w	$r20,$r3,20(0x14)
1c0023f4:	001026c8 	add.w	$r8,$r22,$r9
1c0023f8:	2a405065 	ld.hu	$r5,$r3,20(0x14)
1c0023fc:	6400ab08 	bge	$r24,$r8,168(0xa8) # 1c0024a4 <core_bench_matrix+0x1034>
1c002400:	028028ad 	addi.w	$r13,$r5,10(0xa)
1c002404:	2980506d 	st.w	$r13,$r3,20(0x14)
1c002408:	2840506b 	ld.h	$r11,$r3,20(0x14)
1c00240c:	28802186 	ld.w	$r6,$r12,8(0x8)
1c002410:	00150008 	move	$r8,$r0
1c002414:	2980506b 	st.w	$r11,$r3,20(0x14)
1c002418:	00101912 	add.w	$r18,$r8,$r6
1c00241c:	2a405064 	ld.hu	$r4,$r3,20(0x14)
1c002420:	6400ab12 	bge	$r24,$r18,168(0xa8) # 1c0024c8 <core_bench_matrix+0x1058>
1c002424:	0280288a 	addi.w	$r10,$r4,10(0xa)
1c002428:	2980506a 	st.w	$r10,$r3,20(0x14)
1c00242c:	28405064 	ld.h	$r4,$r3,20(0x14)
1c002430:	00150012 	move	$r18,$r0
1c002434:	02800dce 	addi.w	$r14,$r14,3(0x3)
1c002438:	0280318c 	addi.w	$r12,$r12,12(0xc)
1c00243c:	6ff9e9d7 	bgeu	$r14,$r23,-1560(0x3f9e8) # 1c001e24 <core_bench_matrix+0x9b4>
1c002440:	28800185 	ld.w	$r5,$r12,0
1c002444:	29805064 	st.w	$r4,$r3,20(0x14)
1c002448:	2a405068 	ld.hu	$r8,$r3,20(0x14)
1c00244c:	00101644 	add.w	$r4,$r18,$r5
1c002450:	67ff6304 	bge	$r24,$r4,-160(0x3ff60) # 1c0023b0 <core_bench_matrix+0xf40>
1c002454:	0280290d 	addi.w	$r13,$r8,10(0xa)
1c002458:	2980506d 	st.w	$r13,$r3,20(0x14)
1c00245c:	28801186 	ld.w	$r6,$r12,4(0x4)
1c002460:	2840506b 	ld.h	$r11,$r3,20(0x14)
1c002464:	00150004 	move	$r4,$r0
1c002468:	00101896 	add.w	$r22,$r4,$r6
1c00246c:	2980506b 	st.w	$r11,$r3,20(0x14)
1c002470:	028005ce 	addi.w	$r14,$r14,1(0x1)
1c002474:	0280118c 	addi.w	$r12,$r12,4(0x4)
1c002478:	2a405072 	ld.hu	$r18,$r3,20(0x14)
1c00247c:	63ff6316 	blt	$r24,$r22,-160(0x3ff60) # 1c0023dc <core_bench_matrix+0xf6c>
1c002480:	001218b1 	slt	$r17,$r5,$r6
1c002484:	0010464a 	add.w	$r10,$r18,$r17
1c002488:	2980506a 	st.w	$r10,$r3,20(0x14)
1c00248c:	28405074 	ld.h	$r20,$r3,20(0x14)
1c002490:	28801189 	ld.w	$r9,$r12,4(0x4)
1c002494:	29805074 	st.w	$r20,$r3,20(0x14)
1c002498:	001026c8 	add.w	$r8,$r22,$r9
1c00249c:	2a405065 	ld.hu	$r5,$r3,20(0x14)
1c0024a0:	63ff6308 	blt	$r24,$r8,-160(0x3ff60) # 1c002400 <core_bench_matrix+0xf90>
1c0024a4:	001224c1 	slt	$r1,$r6,$r9
1c0024a8:	001004a7 	add.w	$r7,$r5,$r1
1c0024ac:	29805067 	st.w	$r7,$r3,20(0x14)
1c0024b0:	2840506b 	ld.h	$r11,$r3,20(0x14)
1c0024b4:	28802186 	ld.w	$r6,$r12,8(0x8)
1c0024b8:	2980506b 	st.w	$r11,$r3,20(0x14)
1c0024bc:	00101912 	add.w	$r18,$r8,$r6
1c0024c0:	2a405064 	ld.hu	$r4,$r3,20(0x14)
1c0024c4:	63ff6312 	blt	$r24,$r18,-160(0x3ff60) # 1c002424 <core_bench_matrix+0xfb4>
1c0024c8:	00121936 	slt	$r22,$r9,$r6
1c0024cc:	00105891 	add.w	$r17,$r4,$r22
1c0024d0:	29805071 	st.w	$r17,$r3,20(0x14)
1c0024d4:	28405064 	ld.h	$r4,$r3,20(0x14)
1c0024d8:	53ff5fff 	b	-164(0xfffff5c) # 1c002434 <core_bench_matrix+0xfc4>
1c0024dc:	03400000 	andi	$r0,$r0,0x0
1c0024e0:	001258b3 	slt	$r19,$r5,$r22
1c0024e4:	00104d74 	add.w	$r20,$r11,$r19
1c0024e8:	29803074 	st.w	$r20,$r3,12(0xc)
1c0024ec:	288011b1 	ld.w	$r17,$r13,4(0x4)
1c0024f0:	28403065 	ld.h	$r5,$r3,12(0xc)
1c0024f4:	02800610 	addi.w	$r16,$r16,1(0x1)
1c0024f8:	001045e9 	add.w	$r9,$r15,$r17
1c0024fc:	29803065 	st.w	$r5,$r3,12(0xc)
1c002500:	028011ad 	addi.w	$r13,$r13,4(0x4)
1c002504:	2a403064 	ld.hu	$r4,$r3,12(0xc)
1c002508:	6400ab09 	bge	$r24,$r9,168(0xa8) # 1c0025b0 <core_bench_matrix+0x1140>
1c00250c:	02802886 	addi.w	$r6,$r4,10(0xa)
1c002510:	29803066 	st.w	$r6,$r3,12(0xc)
1c002514:	28403067 	ld.h	$r7,$r3,12(0xc)
1c002518:	288011aa 	ld.w	$r10,$r13,4(0x4)
1c00251c:	00150009 	move	$r9,$r0
1c002520:	29803067 	st.w	$r7,$r3,12(0xc)
1c002524:	0010293a 	add.w	$r26,$r9,$r10
1c002528:	2a403079 	ld.hu	$r25,$r3,12(0xc)
1c00252c:	6400ab1a 	bge	$r24,$r26,168(0xa8) # 1c0025d4 <core_bench_matrix+0x1164>
1c002530:	02802b33 	addi.w	$r19,$r25,10(0xa)
1c002534:	29803073 	st.w	$r19,$r3,12(0xc)
1c002538:	2840306b 	ld.h	$r11,$r3,12(0xc)
1c00253c:	288021a5 	ld.w	$r5,$r13,8(0x8)
1c002540:	0015001a 	move	$r26,$r0
1c002544:	2980306b 	st.w	$r11,$r3,12(0xc)
1c002548:	0010174f 	add.w	$r15,$r26,$r5
1c00254c:	2a403074 	ld.hu	$r20,$r3,12(0xc)
1c002550:	6400ab0f 	bge	$r24,$r15,168(0xa8) # 1c0025f8 <core_bench_matrix+0x1188>
1c002554:	02802a89 	addi.w	$r9,$r20,10(0xa)
1c002558:	29803069 	st.w	$r9,$r3,12(0xc)
1c00255c:	28403064 	ld.h	$r4,$r3,12(0xc)
1c002560:	0015000f 	move	$r15,$r0
1c002564:	02800e10 	addi.w	$r16,$r16,3(0x3)
1c002568:	028031ad 	addi.w	$r13,$r13,12(0xc)
1c00256c:	6ffb8e17 	bgeu	$r16,$r23,-1140(0x3fb8c) # 1c0020f8 <core_bench_matrix+0xc88>
1c002570:	288001b6 	ld.w	$r22,$r13,0
1c002574:	29803064 	st.w	$r4,$r3,12(0xc)
1c002578:	2a40306b 	ld.hu	$r11,$r3,12(0xc)
1c00257c:	001059ef 	add.w	$r15,$r15,$r22
1c002580:	67ff630f 	bge	$r24,$r15,-160(0x3ff60) # 1c0024e0 <core_bench_matrix+0x1070>
1c002584:	02802968 	addi.w	$r8,$r11,10(0xa)
1c002588:	29803068 	st.w	$r8,$r3,12(0xc)
1c00258c:	288011b1 	ld.w	$r17,$r13,4(0x4)
1c002590:	28403065 	ld.h	$r5,$r3,12(0xc)
1c002594:	0015000f 	move	$r15,$r0
1c002598:	001045e9 	add.w	$r9,$r15,$r17
1c00259c:	29803065 	st.w	$r5,$r3,12(0xc)
1c0025a0:	02800610 	addi.w	$r16,$r16,1(0x1)
1c0025a4:	028011ad 	addi.w	$r13,$r13,4(0x4)
1c0025a8:	2a403064 	ld.hu	$r4,$r3,12(0xc)
1c0025ac:	63ff6309 	blt	$r24,$r9,-160(0x3ff60) # 1c00250c <core_bench_matrix+0x109c>
1c0025b0:	001246d2 	slt	$r18,$r22,$r17
1c0025b4:	00104881 	add.w	$r1,$r4,$r18
1c0025b8:	29803061 	st.w	$r1,$r3,12(0xc)
1c0025bc:	28403067 	ld.h	$r7,$r3,12(0xc)
1c0025c0:	288011aa 	ld.w	$r10,$r13,4(0x4)
1c0025c4:	29803067 	st.w	$r7,$r3,12(0xc)
1c0025c8:	0010293a 	add.w	$r26,$r9,$r10
1c0025cc:	2a403079 	ld.hu	$r25,$r3,12(0xc)
1c0025d0:	63ff631a 	blt	$r24,$r26,-160(0x3ff60) # 1c002530 <core_bench_matrix+0x10c0>
1c0025d4:	00122a3d 	slt	$r29,$r17,$r10
1c0025d8:	00107736 	add.w	$r22,$r25,$r29
1c0025dc:	29803076 	st.w	$r22,$r3,12(0xc)
1c0025e0:	2840306b 	ld.h	$r11,$r3,12(0xc)
1c0025e4:	288021a5 	ld.w	$r5,$r13,8(0x8)
1c0025e8:	2980306b 	st.w	$r11,$r3,12(0xc)
1c0025ec:	0010174f 	add.w	$r15,$r26,$r5
1c0025f0:	2a403074 	ld.hu	$r20,$r3,12(0xc)
1c0025f4:	63ff630f 	blt	$r24,$r15,-160(0x3ff60) # 1c002554 <core_bench_matrix+0x10e4>
1c0025f8:	00121548 	slt	$r8,$r10,$r5
1c0025fc:	00102291 	add.w	$r17,$r20,$r8
1c002600:	29803071 	st.w	$r17,$r3,12(0xc)
1c002604:	28403064 	ld.h	$r4,$r3,12(0xc)
1c002608:	53ff5fff 	b	-164(0xfffff5c) # 1c002564 <core_bench_matrix+0x10f4>
1c00260c:	03400000 	andi	$r0,$r0,0x0
1c002610:	001224d2 	slt	$r18,$r6,$r9
1c002614:	00104881 	add.w	$r1,$r4,$r18
1c002618:	29803061 	st.w	$r1,$r3,12(0xc)
1c00261c:	28403064 	ld.h	$r4,$r3,12(0xc)
1c002620:	53fa9fff 	b	-1380(0xffffa9c) # 1c0020bc <core_bench_matrix+0xc4c>
1c002624:	00121a34 	slt	$r20,$r17,$r6
1c002628:	00105153 	add.w	$r19,$r10,$r20
1c00262c:	29805073 	st.w	$r19,$r3,20(0x14)
1c002630:	28405064 	ld.h	$r4,$r3,20(0x14)
1c002634:	53f7e7ff 	b	-2076(0xffff7e4) # 1c001e18 <core_bench_matrix+0x9a8>
1c002638:	00121636 	slt	$r22,$r17,$r5
1c00263c:	00105bab 	add.w	$r11,$r29,$r22
1c002640:	2980306b 	st.w	$r11,$r3,12(0xc)
1c002644:	28403064 	ld.h	$r4,$r3,12(0xc)
1c002648:	53fa07ff 	b	-1532(0xffffa04) # 1c00204c <core_bench_matrix+0xbdc>
1c00264c:	03400000 	andi	$r0,$r0,0x0
1c002650:	001214d9 	slt	$r25,$r6,$r5
1c002654:	0010655a 	add.w	$r26,$r10,$r25
1c002658:	2980307a 	st.w	$r26,$r3,12(0xc)
1c00265c:	28403064 	ld.h	$r4,$r3,12(0xc)
1c002660:	53fa8fff 	b	-1396(0xffffa8c) # 1c0020ec <core_bench_matrix+0xc7c>
1c002664:	001219b4 	slt	$r20,$r13,$r6
1c002668:	00105233 	add.w	$r19,$r17,$r20
1c00266c:	29805073 	st.w	$r19,$r3,20(0x14)
1c002670:	28405064 	ld.h	$r4,$r3,20(0x14)
1c002674:	53f707ff 	b	-2300(0xffff704) # 1c001d78 <core_bench_matrix+0x908>
1c002678:	00124533 	slt	$r19,$r9,$r17
1c00267c:	00104d81 	add.w	$r1,$r12,$r19
1c002680:	29803061 	st.w	$r1,$r3,12(0xc)
1c002684:	28403064 	ld.h	$r4,$r3,12(0xc)
1c002688:	53f537ff 	b	-2764(0xffff534) # 1c001bbc <core_bench_matrix+0x74c>
1c00268c:	03400000 	andi	$r0,$r0,0x0
1c002690:	028028d2 	addi.w	$r18,$r6,10(0xa)
1c002694:	29803072 	st.w	$r18,$r3,12(0xc)
1c002698:	28403067 	ld.h	$r7,$r3,12(0xc)
1c00269c:	00150005 	move	$r5,$r0
1c0026a0:	53fc9bff 	b	-872(0xffffc98) # 1c002338 <core_bench_matrix+0xec8>
1c0026a4:	00121927 	slt	$r7,$r9,$r6
1c0026a8:	00101c85 	add.w	$r5,$r4,$r7
1c0026ac:	29803065 	st.w	$r5,$r3,12(0xc)
1c0026b0:	28403064 	ld.h	$r4,$r3,12(0xc)
1c0026b4:	53f4dbff 	b	-2856(0xffff4d8) # 1c001b8c <core_bench_matrix+0x71c>
1c0026b8:	0012468e 	slt	$r14,$r20,$r17
1c0026bc:	0010392d 	add.w	$r13,$r9,$r14
1c0026c0:	2980306d 	st.w	$r13,$r3,12(0xc)
1c0026c4:	28403064 	ld.h	$r4,$r3,12(0xc)
1c0026c8:	53f457ff 	b	-2988(0xffff454) # 1c001b1c <core_bench_matrix+0x6ac>
1c0026cc:	03400000 	andi	$r0,$r0,0x0
1c0026d0:	00122e26 	slt	$r6,$r17,$r11
1c0026d4:	00101896 	add.w	$r22,$r4,$r6
1c0026d8:	29805076 	st.w	$r22,$r3,20(0x14)
1c0026dc:	28405064 	ld.h	$r4,$r3,20(0x14)
1c0026e0:	53f70bff 	b	-2296(0xffff708) # 1c001de8 <core_bench_matrix+0x978>
1c0026e4:	001244c1 	slt	$r1,$r6,$r17
1c0026e8:	00100507 	add.w	$r7,$r8,$r1
1c0026ec:	29805067 	st.w	$r7,$r3,20(0x14)
1c0026f0:	28405064 	ld.h	$r4,$r3,20(0x14)
1c0026f4:	53f6cbff 	b	-2360(0xffff6c8) # 1c001dbc <core_bench_matrix+0x94c>
1c0026f8:	001218a5 	slt	$r5,$r5,$r6
1c0026fc:	00101511 	add.w	$r17,$r8,$r5
1c002700:	29803071 	st.w	$r17,$r3,12(0xc)
1c002704:	28403064 	ld.h	$r4,$r3,12(0xc)
1c002708:	53f98bff 	b	-1656(0xffff988) # 1c002090 <core_bench_matrix+0xc20>
1c00270c:	03400000 	andi	$r0,$r0,0x0
1c002710:	00122631 	slt	$r17,$r17,$r9
1c002714:	00104688 	add.w	$r8,$r20,$r17
1c002718:	29803068 	st.w	$r8,$r3,12(0xc)
1c00271c:	28403064 	ld.h	$r4,$r3,12(0xc)
1c002720:	53f443ff 	b	-3008(0xffff440) # 1c001b60 <core_bench_matrix+0x6f0>
1c002724:	2980307b 	st.w	$r27,$r3,12(0xc)
1c002728:	53f4cbff 	b	-2872(0xffff4c8) # 1c001bf0 <core_bench_matrix+0x780>
1c00272c:	03400000 	andi	$r0,$r0,0x0
1c002730:	00150005 	move	$r5,$r0
1c002734:	00150004 	move	$r4,$r0
1c002738:	54308800 	bl	12424(0x3088) # 1c0057c0 <crc16>
1c00273c:	00150085 	move	$r5,$r4
1c002740:	00150004 	move	$r4,$r0
1c002744:	54307c00 	bl	12412(0x307c) # 1c0057c0 <crc16>
1c002748:	00150085 	move	$r5,$r4
1c00274c:	00150004 	move	$r4,$r0
1c002750:	54307000 	bl	12400(0x3070) # 1c0057c0 <crc16>
1c002754:	00150085 	move	$r5,$r4
1c002758:	00150004 	move	$r4,$r0
1c00275c:	54306400 	bl	12388(0x3064) # 1c0057c0 <crc16>
1c002760:	29803064 	st.w	$r4,$r3,12(0xc)
1c002764:	28812076 	ld.w	$r22,$r3,72(0x48)
1c002768:	28403064 	ld.h	$r4,$r3,12(0xc)
1c00276c:	28804065 	ld.w	$r5,$r3,16(0x10)
1c002770:	28813061 	ld.w	$r1,$r3,76(0x4c)
1c002774:	28811077 	ld.w	$r23,$r3,68(0x44)
1c002778:	28810078 	ld.w	$r24,$r3,64(0x40)
1c00277c:	2880f079 	ld.w	$r25,$r3,60(0x3c)
1c002780:	2880e07a 	ld.w	$r26,$r3,56(0x38)
1c002784:	2880d07b 	ld.w	$r27,$r3,52(0x34)
1c002788:	2880c07c 	ld.w	$r28,$r3,48(0x30)
1c00278c:	2880b07d 	ld.w	$r29,$r3,44(0x2c)
1c002790:	2880a07e 	ld.w	$r30,$r3,40(0x28)
1c002794:	2880907f 	ld.w	$r31,$r3,36(0x24)
1c002798:	02814063 	addi.w	$r3,$r3,80(0x50)
1c00279c:	50302400 	b	12324(0x3024) # 1c0057c0 <crc16>

1c0027a0 <matrix_test>:
matrix_test():
1c0027a0:	02bec063 	addi.w	$r3,$r3,-80(0xfb0)
1c0027a4:	2980f079 	st.w	$r25,$r3,60(0x3c)
1c0027a8:	29813061 	st.w	$r1,$r3,76(0x4c)
1c0027ac:	15fffff9 	lu12i.w	$r25,-1(0xfffff)
1c0027b0:	29812076 	st.w	$r22,$r3,72(0x48)
1c0027b4:	29811077 	st.w	$r23,$r3,68(0x44)
1c0027b8:	29810078 	st.w	$r24,$r3,64(0x40)
1c0027bc:	2980e07a 	st.w	$r26,$r3,56(0x38)
1c0027c0:	2980d07b 	st.w	$r27,$r3,52(0x34)
1c0027c4:	2980c07c 	st.w	$r28,$r3,48(0x30)
1c0027c8:	2980b07d 	st.w	$r29,$r3,44(0x2c)
1c0027cc:	2980a07e 	st.w	$r30,$r3,40(0x28)
1c0027d0:	2980907f 	st.w	$r31,$r3,36(0x24)
1c0027d4:	29803065 	st.w	$r5,$r3,12(0xc)
1c0027d8:	29805066 	st.w	$r6,$r3,20(0x14)
1c0027dc:	29804067 	st.w	$r7,$r3,16(0x10)
1c0027e0:	00156519 	or	$r25,$r8,$r25
1c0027e4:	5812e080 	beq	$r4,$r0,4832(0x12e0) # 1c003ac4 <matrix_test+0x1324>
1c0027e8:	02bff816 	addi.w	$r22,$r0,-2(0xffe)
1c0027ec:	02bff005 	addi.w	$r5,$r0,-4(0xffc)
1c0027f0:	001c5896 	mul.w	$r22,$r4,$r22
1c0027f4:	29802068 	st.w	$r8,$r3,8(0x8)
1c0027f8:	00408497 	slli.w	$r23,$r4,0x1
1c0027fc:	2a40207a 	ld.hu	$r26,$r3,8(0x8)
1c002800:	00105cdf 	add.w	$r31,$r6,$r23
1c002804:	00150094 	move	$r20,$r4
1c002808:	001500dd 	move	$r29,$r6
1c00280c:	001503ed 	move	$r13,$r31
1c002810:	00150011 	move	$r17,$r0
1c002814:	001c1485 	mul.w	$r5,$r4,$r5
1c002818:	001059af 	add.w	$r15,$r13,$r22
1c00281c:	00113dae 	sub.w	$r14,$r13,$r15
1c002820:	02bff9c1 	addi.w	$r1,$r14,-2(0xffe)
1c002824:	00448424 	srli.w	$r4,$r1,0x1
1c002828:	02800486 	addi.w	$r6,$r4,1(0x1)
1c00282c:	03401cc7 	andi	$r7,$r6,0x7
1c002830:	001501ec 	move	$r12,$r15
1c002834:	5800a8e0 	beq	$r7,$r0,168(0xa8) # 1c0028dc <matrix_test+0x13c>
1c002838:	02800410 	addi.w	$r16,$r0,1(0x1)
1c00283c:	58008cf0 	beq	$r7,$r16,140(0x8c) # 1c0028c8 <matrix_test+0x128>
1c002840:	02800809 	addi.w	$r9,$r0,2(0x2)
1c002844:	580074e9 	beq	$r7,$r9,116(0x74) # 1c0028b8 <matrix_test+0x118>
1c002848:	02800c0a 	addi.w	$r10,$r0,3(0x3)
1c00284c:	58005cea 	beq	$r7,$r10,92(0x5c) # 1c0028a8 <matrix_test+0x108>
1c002850:	0280100b 	addi.w	$r11,$r0,4(0x4)
1c002854:	580044eb 	beq	$r7,$r11,68(0x44) # 1c002898 <matrix_test+0xf8>
1c002858:	02801412 	addi.w	$r18,$r0,5(0x5)
1c00285c:	58002cf2 	beq	$r7,$r18,44(0x2c) # 1c002888 <matrix_test+0xe8>
1c002860:	02801813 	addi.w	$r19,$r0,6(0x6)
1c002864:	580014f3 	beq	$r7,$r19,20(0x14) # 1c002878 <matrix_test+0xd8>
1c002868:	2a4001f8 	ld.hu	$r24,$r15,0
1c00286c:	028009ec 	addi.w	$r12,$r15,2(0x2)
1c002870:	0010635b 	add.w	$r27,$r26,$r24
1c002874:	294001fb 	st.h	$r27,$r15,0
1c002878:	2a40019c 	ld.hu	$r28,$r12,0
1c00287c:	0280098c 	addi.w	$r12,$r12,2(0x2)
1c002880:	0010735e 	add.w	$r30,$r26,$r28
1c002884:	297ff99e 	st.h	$r30,$r12,-2(0xffe)
1c002888:	2a40018e 	ld.hu	$r14,$r12,0
1c00288c:	0280098c 	addi.w	$r12,$r12,2(0x2)
1c002890:	00103b41 	add.w	$r1,$r26,$r14
1c002894:	297ff981 	st.h	$r1,$r12,-2(0xffe)
1c002898:	2a400184 	ld.hu	$r4,$r12,0
1c00289c:	0280098c 	addi.w	$r12,$r12,2(0x2)
1c0028a0:	00101346 	add.w	$r6,$r26,$r4
1c0028a4:	297ff986 	st.h	$r6,$r12,-2(0xffe)
1c0028a8:	2a400187 	ld.hu	$r7,$r12,0
1c0028ac:	0280098c 	addi.w	$r12,$r12,2(0x2)
1c0028b0:	00101f50 	add.w	$r16,$r26,$r7
1c0028b4:	297ff990 	st.h	$r16,$r12,-2(0xffe)
1c0028b8:	2a400189 	ld.hu	$r9,$r12,0
1c0028bc:	0280098c 	addi.w	$r12,$r12,2(0x2)
1c0028c0:	0010274a 	add.w	$r10,$r26,$r9
1c0028c4:	297ff98a 	st.h	$r10,$r12,-2(0xffe)
1c0028c8:	2a40018b 	ld.hu	$r11,$r12,0
1c0028cc:	0280098c 	addi.w	$r12,$r12,2(0x2)
1c0028d0:	00102f52 	add.w	$r18,$r26,$r11
1c0028d4:	297ff992 	st.h	$r18,$r12,-2(0xffe)
1c0028d8:	58006d8d 	beq	$r12,$r13,108(0x6c) # 1c002944 <matrix_test+0x1a4>
1c0028dc:	2a400198 	ld.hu	$r24,$r12,0
1c0028e0:	2a40099b 	ld.hu	$r27,$r12,2(0x2)
1c0028e4:	2a40119c 	ld.hu	$r28,$r12,4(0x4)
1c0028e8:	2a40199e 	ld.hu	$r30,$r12,6(0x6)
1c0028ec:	2a402193 	ld.hu	$r19,$r12,8(0x8)
1c0028f0:	2a402981 	ld.hu	$r1,$r12,10(0xa)
1c0028f4:	2a403190 	ld.hu	$r16,$r12,12(0xc)
1c0028f8:	2a40398e 	ld.hu	$r14,$r12,14(0xe)
1c0028fc:	00106349 	add.w	$r9,$r26,$r24
1c002900:	00106f47 	add.w	$r7,$r26,$r27
1c002904:	00107346 	add.w	$r6,$r26,$r28
1c002908:	00107b44 	add.w	$r4,$r26,$r30
1c00290c:	00104f4a 	add.w	$r10,$r26,$r19
1c002910:	0010074b 	add.w	$r11,$r26,$r1
1c002914:	00104352 	add.w	$r18,$r26,$r16
1c002918:	00103b58 	add.w	$r24,$r26,$r14
1c00291c:	29400189 	st.h	$r9,$r12,0
1c002920:	29400987 	st.h	$r7,$r12,2(0x2)
1c002924:	29401186 	st.h	$r6,$r12,4(0x4)
1c002928:	29401984 	st.h	$r4,$r12,6(0x6)
1c00292c:	2940218a 	st.h	$r10,$r12,8(0x8)
1c002930:	2940298b 	st.h	$r11,$r12,10(0xa)
1c002934:	29403192 	st.h	$r18,$r12,12(0xc)
1c002938:	29403998 	st.h	$r24,$r12,14(0xe)
1c00293c:	0280418c 	addi.w	$r12,$r12,16(0x10)
1c002940:	5fff9d8d 	bne	$r12,$r13,-100(0x3ff9c) # 1c0028dc <matrix_test+0x13c>
1c002944:	02800638 	addi.w	$r24,$r17,1(0x1)
1c002948:	001115ed 	sub.w	$r13,$r15,$r5
1c00294c:	58000e98 	beq	$r20,$r24,12(0xc) # 1c002958 <matrix_test+0x1b8>
1c002950:	00150311 	move	$r17,$r24
1c002954:	53fec7ff 	b	-316(0xffffec4) # 1c002818 <matrix_test+0x78>
1c002958:	2880306b 	ld.w	$r11,$r3,12(0xc)
1c00295c:	02bff00f 	addi.w	$r15,$r0,-4(0xffc)
1c002960:	001c3f07 	mul.w	$r7,$r24,$r15
1c002964:	00408b1e 	slli.w	$r30,$r24,0x2
1c002968:	0015017c 	move	$r28,$r11
1c00296c:	001503ef 	move	$r15,$r31
1c002970:	00150001 	move	$r1,$r0
1c002974:	001059fb 	add.w	$r27,$r15,$r22
1c002978:	00116dec 	sub.w	$r12,$r15,$r27
1c00297c:	02bff985 	addi.w	$r5,$r12,-2(0xffe)
1c002980:	004484b4 	srli.w	$r20,$r5,0x1
1c002984:	02800693 	addi.w	$r19,$r20,1(0x1)
1c002988:	03401e70 	andi	$r16,$r19,0x7
1c00298c:	0015016d 	move	$r13,$r11
1c002990:	0015036c 	move	$r12,$r27
1c002994:	5800c600 	beq	$r16,$r0,196(0xc4) # 1c002a58 <matrix_test+0x2b8>
1c002998:	0280040e 	addi.w	$r14,$r0,1(0x1)
1c00299c:	5800a60e 	beq	$r16,$r14,164(0xa4) # 1c002a40 <matrix_test+0x2a0>
1c0029a0:	02800809 	addi.w	$r9,$r0,2(0x2)
1c0029a4:	58008a09 	beq	$r16,$r9,136(0x88) # 1c002a2c <matrix_test+0x28c>
1c0029a8:	02800c06 	addi.w	$r6,$r0,3(0x3)
1c0029ac:	58006e06 	beq	$r16,$r6,108(0x6c) # 1c002a18 <matrix_test+0x278>
1c0029b0:	02801004 	addi.w	$r4,$r0,4(0x4)
1c0029b4:	58005204 	beq	$r16,$r4,80(0x50) # 1c002a04 <matrix_test+0x264>
1c0029b8:	0280140a 	addi.w	$r10,$r0,5(0x5)
1c0029bc:	5800360a 	beq	$r16,$r10,52(0x34) # 1c0029f0 <matrix_test+0x250>
1c0029c0:	02801812 	addi.w	$r18,$r0,6(0x6)
1c0029c4:	58001a12 	beq	$r16,$r18,24(0x18) # 1c0029dc <matrix_test+0x23c>
1c0029c8:	28400365 	ld.h	$r5,$r27,0
1c0029cc:	02800b6c 	addi.w	$r12,$r27,2(0x2)
1c0029d0:	0280116d 	addi.w	$r13,$r11,4(0x4)
1c0029d4:	001c20b4 	mul.w	$r20,$r5,$r8
1c0029d8:	29800174 	st.w	$r20,$r11,0
1c0029dc:	28400193 	ld.h	$r19,$r12,0
1c0029e0:	028011ad 	addi.w	$r13,$r13,4(0x4)
1c0029e4:	0280098c 	addi.w	$r12,$r12,2(0x2)
1c0029e8:	001c2270 	mul.w	$r16,$r19,$r8
1c0029ec:	29bff1b0 	st.w	$r16,$r13,-4(0xffc)
1c0029f0:	2840018e 	ld.h	$r14,$r12,0
1c0029f4:	028011ad 	addi.w	$r13,$r13,4(0x4)
1c0029f8:	0280098c 	addi.w	$r12,$r12,2(0x2)
1c0029fc:	001c21c9 	mul.w	$r9,$r14,$r8
1c002a00:	29bff1a9 	st.w	$r9,$r13,-4(0xffc)
1c002a04:	28400186 	ld.h	$r6,$r12,0
1c002a08:	028011ad 	addi.w	$r13,$r13,4(0x4)
1c002a0c:	0280098c 	addi.w	$r12,$r12,2(0x2)
1c002a10:	001c20c4 	mul.w	$r4,$r6,$r8
1c002a14:	29bff1a4 	st.w	$r4,$r13,-4(0xffc)
1c002a18:	2840018a 	ld.h	$r10,$r12,0
1c002a1c:	028011ad 	addi.w	$r13,$r13,4(0x4)
1c002a20:	0280098c 	addi.w	$r12,$r12,2(0x2)
1c002a24:	001c2152 	mul.w	$r18,$r10,$r8
1c002a28:	29bff1b2 	st.w	$r18,$r13,-4(0xffc)
1c002a2c:	28400185 	ld.h	$r5,$r12,0
1c002a30:	028011ad 	addi.w	$r13,$r13,4(0x4)
1c002a34:	0280098c 	addi.w	$r12,$r12,2(0x2)
1c002a38:	001c20b4 	mul.w	$r20,$r5,$r8
1c002a3c:	29bff1b4 	st.w	$r20,$r13,-4(0xffc)
1c002a40:	28400193 	ld.h	$r19,$r12,0
1c002a44:	028011ad 	addi.w	$r13,$r13,4(0x4)
1c002a48:	0280098c 	addi.w	$r12,$r12,2(0x2)
1c002a4c:	001c2270 	mul.w	$r16,$r19,$r8
1c002a50:	29bff1b0 	st.w	$r16,$r13,-4(0xffc)
1c002a54:	580071ec 	beq	$r15,$r12,112(0x70) # 1c002ac4 <matrix_test+0x324>
1c002a58:	2840018e 	ld.h	$r14,$r12,0
1c002a5c:	28400986 	ld.h	$r6,$r12,2(0x2)
1c002a60:	2840118a 	ld.h	$r10,$r12,4(0x4)
1c002a64:	28401984 	ld.h	$r4,$r12,6(0x6)
1c002a68:	28402194 	ld.h	$r20,$r12,8(0x8)
1c002a6c:	28402993 	ld.h	$r19,$r12,10(0xa)
1c002a70:	001c21c9 	mul.w	$r9,$r14,$r8
1c002a74:	28403192 	ld.h	$r18,$r12,12(0xc)
1c002a78:	28403990 	ld.h	$r16,$r12,14(0xe)
1c002a7c:	028081ad 	addi.w	$r13,$r13,32(0x20)
1c002a80:	0280418c 	addi.w	$r12,$r12,16(0x10)
1c002a84:	001c20ce 	mul.w	$r14,$r6,$r8
1c002a88:	29bf81a9 	st.w	$r9,$r13,-32(0xfe0)
1c002a8c:	001c2145 	mul.w	$r5,$r10,$r8
1c002a90:	29bf91ae 	st.w	$r14,$r13,-28(0xfe4)
1c002a94:	001c2086 	mul.w	$r6,$r4,$r8
1c002a98:	29bfa1a5 	st.w	$r5,$r13,-24(0xfe8)
1c002a9c:	001c228a 	mul.w	$r10,$r20,$r8
1c002aa0:	29bfb1a6 	st.w	$r6,$r13,-20(0xfec)
1c002aa4:	001c2264 	mul.w	$r4,$r19,$r8
1c002aa8:	29bfc1aa 	st.w	$r10,$r13,-16(0xff0)
1c002aac:	001c2249 	mul.w	$r9,$r18,$r8
1c002ab0:	29bfd1a4 	st.w	$r4,$r13,-12(0xff4)
1c002ab4:	001c2214 	mul.w	$r20,$r16,$r8
1c002ab8:	29bfe1a9 	st.w	$r9,$r13,-8(0xff8)
1c002abc:	29bff1b4 	st.w	$r20,$r13,-4(0xffc)
1c002ac0:	5fff99ec 	bne	$r15,$r12,-104(0x3ff98) # 1c002a58 <matrix_test+0x2b8>
1c002ac4:	0280042c 	addi.w	$r12,$r1,1(0x1)
1c002ac8:	0010796b 	add.w	$r11,$r11,$r30
1c002acc:	00111f6f 	sub.w	$r15,$r27,$r7
1c002ad0:	58001031 	beq	$r1,$r17,16(0x10) # 1c002ae0 <matrix_test+0x340>
1c002ad4:	00150181 	move	$r1,$r12
1c002ad8:	53fe9fff 	b	-356(0xffffe9c) # 1c002974 <matrix_test+0x1d4>
1c002adc:	03400000 	andi	$r0,$r0,0x0
1c002ae0:	02bfe001 	addi.w	$r1,$r0,-8(0xff8)
1c002ae4:	001c0712 	mul.w	$r18,$r24,$r1
1c002ae8:	28803068 	ld.w	$r8,$r3,12(0xc)
1c002aec:	00150004 	move	$r4,$r0
1c002af0:	00150014 	move	$r20,$r0
1c002af4:	0010790c 	add.w	$r12,$r8,$r30
1c002af8:	0015018d 	move	$r13,$r12
1c002afc:	00150008 	move	$r8,$r0
1c002b00:	00150010 	move	$r16,$r0
1c002b04:	00101dbb 	add.w	$r27,$r13,$r7
1c002b08:	00116db3 	sub.w	$r19,$r13,$r27
1c002b0c:	02bff26e 	addi.w	$r14,$r19,-4(0xffc)
1c002b10:	004489c5 	srli.w	$r5,$r14,0x2
1c002b14:	028004a6 	addi.w	$r6,$r5,1(0x1)
1c002b18:	03400cca 	andi	$r10,$r6,0x3
1c002b1c:	0015036f 	move	$r15,$r27
1c002b20:	58014140 	beq	$r10,$r0,320(0x140) # 1c002c60 <matrix_test+0x4c0>
1c002b24:	02800409 	addi.w	$r9,$r0,1(0x1)
1c002b28:	58006549 	beq	$r10,$r9,100(0x64) # 1c002b8c <matrix_test+0x3ec>
1c002b2c:	0280080b 	addi.w	$r11,$r0,2(0x2)
1c002b30:	5800314b 	beq	$r10,$r11,48(0x30) # 1c002b60 <matrix_test+0x3c0>
1c002b34:	28800361 	ld.w	$r1,$r27,0
1c002b38:	29802064 	st.w	$r4,$r3,8(0x8)
1c002b3c:	2a402064 	ld.hu	$r4,$r3,8(0x8)
1c002b40:	00100694 	add.w	$r20,$r20,$r1
1c002b44:	6401e334 	bge	$r25,$r20,480(0x1e0) # 1c002d24 <matrix_test+0x584>
1c002b48:	02802894 	addi.w	$r20,$r4,10(0xa)
1c002b4c:	29802074 	st.w	$r20,$r3,8(0x8)
1c002b50:	28402064 	ld.h	$r4,$r3,8(0x8)
1c002b54:	00150014 	move	$r20,$r0
1c002b58:	0280136f 	addi.w	$r15,$r27,4(0x4)
1c002b5c:	00150028 	move	$r8,$r1
1c002b60:	288001f3 	ld.w	$r19,$r15,0
1c002b64:	29802064 	st.w	$r4,$r3,8(0x8)
1c002b68:	2a40206e 	ld.hu	$r14,$r3,8(0x8)
1c002b6c:	00104e94 	add.w	$r20,$r20,$r19
1c002b70:	6401a334 	bge	$r25,$r20,416(0x1a0) # 1c002d10 <matrix_test+0x570>
1c002b74:	028029ca 	addi.w	$r10,$r14,10(0xa)
1c002b78:	2980206a 	st.w	$r10,$r3,8(0x8)
1c002b7c:	28402064 	ld.h	$r4,$r3,8(0x8)
1c002b80:	00150014 	move	$r20,$r0
1c002b84:	028011ef 	addi.w	$r15,$r15,4(0x4)
1c002b88:	00150268 	move	$r8,$r19
1c002b8c:	288001ee 	ld.w	$r14,$r15,0
1c002b90:	29802064 	st.w	$r4,$r3,8(0x8)
1c002b94:	2a402069 	ld.hu	$r9,$r3,8(0x8)
1c002b98:	00103a94 	add.w	$r20,$r20,$r14
1c002b9c:	64015f34 	bge	$r25,$r20,348(0x15c) # 1c002cf8 <matrix_test+0x558>
1c002ba0:	02802924 	addi.w	$r4,$r9,10(0xa)
1c002ba4:	29802064 	st.w	$r4,$r3,8(0x8)
1c002ba8:	28402064 	ld.h	$r4,$r3,8(0x8)
1c002bac:	00150014 	move	$r20,$r0
1c002bb0:	028011ef 	addi.w	$r15,$r15,4(0x4)
1c002bb4:	001501c8 	move	$r8,$r14
1c002bb8:	5c00a9ed 	bne	$r15,$r13,168(0xa8) # 1c002c60 <matrix_test+0x4c0>
1c002bbc:	02800606 	addi.w	$r6,$r16,1(0x1)
1c002bc0:	00114b6d 	sub.w	$r13,$r27,$r18
1c002bc4:	001501c8 	move	$r8,$r14
1c002bc8:	58017230 	beq	$r17,$r16,368(0x170) # 1c002d38 <matrix_test+0x598>
1c002bcc:	001500d0 	move	$r16,$r6
1c002bd0:	53ff37ff 	b	-204(0xfffff34) # 1c002b04 <matrix_test+0x364>
1c002bd4:	00123908 	slt	$r8,$r8,$r14
1c002bd8:	00102265 	add.w	$r5,$r19,$r8
1c002bdc:	29802065 	st.w	$r5,$r3,8(0x8)
1c002be0:	288011e9 	ld.w	$r9,$r15,4(0x4)
1c002be4:	28402066 	ld.h	$r6,$r3,8(0x8)
1c002be8:	028011ef 	addi.w	$r15,$r15,4(0x4)
1c002bec:	00102541 	add.w	$r1,$r10,$r9
1c002bf0:	29802066 	st.w	$r6,$r3,8(0x8)
1c002bf4:	2a40206b 	ld.hu	$r11,$r3,8(0x8)
1c002bf8:	6400a721 	bge	$r25,$r1,164(0xa4) # 1c002c9c <matrix_test+0x4fc>
1c002bfc:	02802968 	addi.w	$r8,$r11,10(0xa)
1c002c00:	29802068 	st.w	$r8,$r3,8(0x8)
1c002c04:	28402073 	ld.h	$r19,$r3,8(0x8)
1c002c08:	288011e5 	ld.w	$r5,$r15,4(0x4)
1c002c0c:	00150001 	move	$r1,$r0
1c002c10:	29802073 	st.w	$r19,$r3,8(0x8)
1c002c14:	00101434 	add.w	$r20,$r1,$r5
1c002c18:	2a402066 	ld.hu	$r6,$r3,8(0x8)
1c002c1c:	6400a734 	bge	$r25,$r20,164(0xa4) # 1c002cc0 <matrix_test+0x520>
1c002c20:	028028c1 	addi.w	$r1,$r6,10(0xa)
1c002c24:	29802061 	st.w	$r1,$r3,8(0x8)
1c002c28:	2840206b 	ld.h	$r11,$r3,8(0x8)
1c002c2c:	288021ee 	ld.w	$r14,$r15,8(0x8)
1c002c30:	00150014 	move	$r20,$r0
1c002c34:	2980206b 	st.w	$r11,$r3,8(0x8)
1c002c38:	00103a94 	add.w	$r20,$r20,$r14
1c002c3c:	2a402064 	ld.hu	$r4,$r3,8(0x8)
1c002c40:	6400a734 	bge	$r25,$r20,164(0xa4) # 1c002ce4 <matrix_test+0x544>
1c002c44:	02802885 	addi.w	$r5,$r4,10(0xa)
1c002c48:	29802065 	st.w	$r5,$r3,8(0x8)
1c002c4c:	28402064 	ld.h	$r4,$r3,8(0x8)
1c002c50:	00150014 	move	$r20,$r0
1c002c54:	028031ef 	addi.w	$r15,$r15,12(0xc)
1c002c58:	001501c8 	move	$r8,$r14
1c002c5c:	5bff61ed 	beq	$r15,$r13,-160(0x3ff60) # 1c002bbc <matrix_test+0x41c>
1c002c60:	288001ee 	ld.w	$r14,$r15,0
1c002c64:	29802064 	st.w	$r4,$r3,8(0x8)
1c002c68:	2a402073 	ld.hu	$r19,$r3,8(0x8)
1c002c6c:	00103a8a 	add.w	$r10,$r20,$r14
1c002c70:	67ff672a 	bge	$r25,$r10,-156(0x3ff64) # 1c002bd4 <matrix_test+0x434>
1c002c74:	02802a74 	addi.w	$r20,$r19,10(0xa)
1c002c78:	29802074 	st.w	$r20,$r3,8(0x8)
1c002c7c:	288011e9 	ld.w	$r9,$r15,4(0x4)
1c002c80:	28402066 	ld.h	$r6,$r3,8(0x8)
1c002c84:	0015000a 	move	$r10,$r0
1c002c88:	00102541 	add.w	$r1,$r10,$r9
1c002c8c:	29802066 	st.w	$r6,$r3,8(0x8)
1c002c90:	028011ef 	addi.w	$r15,$r15,4(0x4)
1c002c94:	2a40206b 	ld.hu	$r11,$r3,8(0x8)
1c002c98:	63ff6721 	blt	$r25,$r1,-156(0x3ff64) # 1c002bfc <matrix_test+0x45c>
1c002c9c:	001225c4 	slt	$r4,$r14,$r9
1c002ca0:	0010116e 	add.w	$r14,$r11,$r4
1c002ca4:	2980206e 	st.w	$r14,$r3,8(0x8)
1c002ca8:	28402073 	ld.h	$r19,$r3,8(0x8)
1c002cac:	288011e5 	ld.w	$r5,$r15,4(0x4)
1c002cb0:	29802073 	st.w	$r19,$r3,8(0x8)
1c002cb4:	00101434 	add.w	$r20,$r1,$r5
1c002cb8:	2a402066 	ld.hu	$r6,$r3,8(0x8)
1c002cbc:	63ff6734 	blt	$r25,$r20,-156(0x3ff64) # 1c002c20 <matrix_test+0x480>
1c002cc0:	0012152a 	slt	$r10,$r9,$r5
1c002cc4:	001028c9 	add.w	$r9,$r6,$r10
1c002cc8:	29802069 	st.w	$r9,$r3,8(0x8)
1c002ccc:	2840206b 	ld.h	$r11,$r3,8(0x8)
1c002cd0:	288021ee 	ld.w	$r14,$r15,8(0x8)
1c002cd4:	2980206b 	st.w	$r11,$r3,8(0x8)
1c002cd8:	00103a94 	add.w	$r20,$r20,$r14
1c002cdc:	2a402064 	ld.hu	$r4,$r3,8(0x8)
1c002ce0:	63ff6734 	blt	$r25,$r20,-156(0x3ff64) # 1c002c44 <matrix_test+0x4a4>
1c002ce4:	001238b3 	slt	$r19,$r5,$r14
1c002ce8:	00104c88 	add.w	$r8,$r4,$r19
1c002cec:	29802068 	st.w	$r8,$r3,8(0x8)
1c002cf0:	28402064 	ld.h	$r4,$r3,8(0x8)
1c002cf4:	53ff63ff 	b	-160(0xfffff60) # 1c002c54 <matrix_test+0x4b4>
1c002cf8:	0012390b 	slt	$r11,$r8,$r14
1c002cfc:	00102d21 	add.w	$r1,$r9,$r11
1c002d00:	29802061 	st.w	$r1,$r3,8(0x8)
1c002d04:	28402064 	ld.h	$r4,$r3,8(0x8)
1c002d08:	53feabff 	b	-344(0xffffea8) # 1c002bb0 <matrix_test+0x410>
1c002d0c:	03400000 	andi	$r0,$r0,0x0
1c002d10:	00124d05 	slt	$r5,$r8,$r19
1c002d14:	001015c6 	add.w	$r6,$r14,$r5
1c002d18:	29802066 	st.w	$r6,$r3,8(0x8)
1c002d1c:	28402064 	ld.h	$r4,$r3,8(0x8)
1c002d20:	53fe67ff 	b	-412(0xffffe64) # 1c002b84 <matrix_test+0x3e4>
1c002d24:	0012050f 	slt	$r15,$r8,$r1
1c002d28:	00103c88 	add.w	$r8,$r4,$r15
1c002d2c:	29802068 	st.w	$r8,$r3,8(0x8)
1c002d30:	28402064 	ld.h	$r4,$r3,8(0x8)
1c002d34:	53fe27ff 	b	-476(0xffffe24) # 1c002b58 <matrix_test+0x3b8>
1c002d38:	00150005 	move	$r5,$r0
1c002d3c:	29807067 	st.w	$r7,$r3,28(0x1c)
1c002d40:	2980606c 	st.w	$r12,$r3,24(0x18)
1c002d44:	542a7c00 	bl	10876(0x2a7c) # 1c0057c0 <crc16>
1c002d48:	2880307b 	ld.w	$r27,$r3,12(0xc)
1c002d4c:	29802064 	st.w	$r4,$r3,8(0x8)
1c002d50:	001503c6 	move	$r6,$r30
1c002d54:	00150005 	move	$r5,$r0
1c002d58:	00150364 	move	$r4,$r27
1c002d5c:	545cb000 	bl	23728(0x5cb0) # 1c008a0c <memset>
1c002d60:	2880606b 	ld.w	$r11,$r3,24(0x18)
1c002d64:	28807067 	ld.w	$r7,$r3,28(0x1c)
1c002d68:	2880206d 	ld.w	$r13,$r3,8(0x8)
1c002d6c:	28804064 	ld.w	$r4,$r3,16(0x10)
1c002d70:	00105be1 	add.w	$r1,$r31,$r22
1c002d74:	001107ea 	sub.w	$r10,$r31,$r1
1c002d78:	02bff949 	addi.w	$r9,$r10,-2(0xffe)
1c002d7c:	0044852e 	srli.w	$r14,$r9,0x1
1c002d80:	028005d4 	addi.w	$r20,$r14,1(0x1)
1c002d84:	03400e85 	andi	$r5,$r20,0x3
1c002d88:	00150090 	move	$r16,$r4
1c002d8c:	0015002e 	move	$r14,$r1
1c002d90:	00150013 	move	$r19,$r0
1c002d94:	58005ca0 	beq	$r5,$r0,92(0x5c) # 1c002df0 <matrix_test+0x650>
1c002d98:	0280040f 	addi.w	$r15,$r0,1(0x1)
1c002d9c:	580038af 	beq	$r5,$r15,56(0x38) # 1c002dd4 <matrix_test+0x634>
1c002da0:	02800808 	addi.w	$r8,$r0,2(0x2)
1c002da4:	580018a8 	beq	$r5,$r8,24(0x18) # 1c002dbc <matrix_test+0x61c>
1c002da8:	28400033 	ld.h	$r19,$r1,0
1c002dac:	2840008c 	ld.h	$r12,$r4,0
1c002db0:	0280082e 	addi.w	$r14,$r1,2(0x2)
1c002db4:	02800890 	addi.w	$r16,$r4,2(0x2)
1c002db8:	001c3273 	mul.w	$r19,$r19,$r12
1c002dbc:	284001d2 	ld.h	$r18,$r14,0
1c002dc0:	28400211 	ld.h	$r17,$r16,0
1c002dc4:	028009ce 	addi.w	$r14,$r14,2(0x2)
1c002dc8:	02800a10 	addi.w	$r16,$r16,2(0x2)
1c002dcc:	001c4646 	mul.w	$r6,$r18,$r17
1c002dd0:	00101a73 	add.w	$r19,$r19,$r6
1c002dd4:	284001ca 	ld.h	$r10,$r14,0
1c002dd8:	28400209 	ld.h	$r9,$r16,0
1c002ddc:	028009ce 	addi.w	$r14,$r14,2(0x2)
1c002de0:	02800a10 	addi.w	$r16,$r16,2(0x2)
1c002de4:	001c2554 	mul.w	$r20,$r10,$r9
1c002de8:	00105273 	add.w	$r19,$r19,$r20
1c002dec:	580053ee 	beq	$r31,$r14,80(0x50) # 1c002e3c <matrix_test+0x69c>
1c002df0:	284001cf 	ld.h	$r15,$r14,0
1c002df4:	28400208 	ld.h	$r8,$r16,0
1c002df8:	284009cc 	ld.h	$r12,$r14,2(0x2)
1c002dfc:	28400a12 	ld.h	$r18,$r16,2(0x2)
1c002e00:	284011c5 	ld.h	$r5,$r14,4(0x4)
1c002e04:	001c21ea 	mul.w	$r10,$r15,$r8
1c002e08:	28401209 	ld.h	$r9,$r16,4(0x4)
1c002e0c:	284019d1 	ld.h	$r17,$r14,6(0x6)
1c002e10:	28401a14 	ld.h	$r20,$r16,6(0x6)
1c002e14:	028021ce 	addi.w	$r14,$r14,8(0x8)
1c002e18:	02802210 	addi.w	$r16,$r16,8(0x8)
1c002e1c:	001c4986 	mul.w	$r6,$r12,$r18
1c002e20:	00102a73 	add.w	$r19,$r19,$r10
1c002e24:	001c24a8 	mul.w	$r8,$r5,$r9
1c002e28:	00101a6f 	add.w	$r15,$r19,$r6
1c002e2c:	001c522c 	mul.w	$r12,$r17,$r20
1c002e30:	001021f2 	add.w	$r18,$r15,$r8
1c002e34:	00103253 	add.w	$r19,$r18,$r12
1c002e38:	5fffbbee 	bne	$r31,$r14,-72(0x3ffb8) # 1c002df0 <matrix_test+0x650>
1c002e3c:	29800373 	st.w	$r19,$r27,0
1c002e40:	0280137b 	addi.w	$r27,$r27,4(0x4)
1c002e44:	00111c3f 	sub.w	$r31,$r1,$r7
1c002e48:	5fff297b 	bne	$r11,$r27,-216(0x3ff28) # 1c002d70 <matrix_test+0x5d0>
1c002e4c:	2880306c 	ld.w	$r12,$r3,12(0xc)
1c002e50:	00150004 	move	$r4,$r0
1c002e54:	00150013 	move	$r19,$r0
1c002e58:	00150012 	move	$r18,$r0
1c002e5c:	0015000f 	move	$r15,$r0
1c002e60:	28800189 	ld.w	$r9,$r12,0
1c002e64:	02bfff16 	addi.w	$r22,$r24,-1(0xfff)
1c002e68:	29802064 	st.w	$r4,$r3,8(0x8)
1c002e6c:	00102652 	add.w	$r18,$r18,$r9
1c002e70:	03400edf 	andi	$r31,$r22,0x3
1c002e74:	2a40207b 	ld.hu	$r27,$r3,8(0x8)
1c002e78:	640b5f32 	bge	$r25,$r18,2908(0xb5c) # 1c0039d4 <matrix_test+0x1234>
1c002e7c:	02802b64 	addi.w	$r4,$r27,10(0xa)
1c002e80:	29802064 	st.w	$r4,$r3,8(0x8)
1c002e84:	28402064 	ld.h	$r4,$r3,8(0x8)
1c002e88:	00150012 	move	$r18,$r0
1c002e8c:	02800411 	addi.w	$r17,$r0,1(0x1)
1c002e90:	02801190 	addi.w	$r16,$r12,4(0x4)
1c002e94:	00150136 	move	$r22,$r9
1c002e98:	6c00a238 	bgeu	$r17,$r24,160(0xa0) # 1c002f38 <matrix_test+0x798>
1c002e9c:	580827e0 	beq	$r31,$r0,2084(0x824) # 1c0036c0 <matrix_test+0xf20>
1c002ea0:	58006bf1 	beq	$r31,$r17,104(0x68) # 1c002f08 <matrix_test+0x768>
1c002ea4:	02800801 	addi.w	$r1,$r0,2(0x2)
1c002ea8:	580033e1 	beq	$r31,$r1,48(0x30) # 1c002ed8 <matrix_test+0x738>
1c002eac:	28800216 	ld.w	$r22,$r16,0
1c002eb0:	29802064 	st.w	$r4,$r3,8(0x8)
1c002eb4:	2a40206e 	ld.hu	$r14,$r3,8(0x8)
1c002eb8:	00105a52 	add.w	$r18,$r18,$r22
1c002ebc:	640bef32 	bge	$r25,$r18,3052(0xbec) # 1c003aa8 <matrix_test+0x1308>
1c002ec0:	028029c9 	addi.w	$r9,$r14,10(0xa)
1c002ec4:	29802069 	st.w	$r9,$r3,8(0x8)
1c002ec8:	28402064 	ld.h	$r4,$r3,8(0x8)
1c002ecc:	00150012 	move	$r18,$r0
1c002ed0:	02800631 	addi.w	$r17,$r17,1(0x1)
1c002ed4:	02801210 	addi.w	$r16,$r16,4(0x4)
1c002ed8:	28800206 	ld.w	$r6,$r16,0
1c002edc:	29802064 	st.w	$r4,$r3,8(0x8)
1c002ee0:	2a402073 	ld.hu	$r19,$r3,8(0x8)
1c002ee4:	00101a52 	add.w	$r18,$r18,$r6
1c002ee8:	640b6f32 	bge	$r25,$r18,2924(0xb6c) # 1c003a54 <matrix_test+0x12b4>
1c002eec:	02802a72 	addi.w	$r18,$r19,10(0xa)
1c002ef0:	29802072 	st.w	$r18,$r3,8(0x8)
1c002ef4:	28402064 	ld.h	$r4,$r3,8(0x8)
1c002ef8:	00150012 	move	$r18,$r0
1c002efc:	02800631 	addi.w	$r17,$r17,1(0x1)
1c002f00:	02801210 	addi.w	$r16,$r16,4(0x4)
1c002f04:	001500d6 	move	$r22,$r6
1c002f08:	28800209 	ld.w	$r9,$r16,0
1c002f0c:	29802064 	st.w	$r4,$r3,8(0x8)
1c002f10:	2a40207f 	ld.hu	$r31,$r3,8(0x8)
1c002f14:	00102652 	add.w	$r18,$r18,$r9
1c002f18:	640b1332 	bge	$r25,$r18,2832(0xb10) # 1c003a28 <matrix_test+0x1288>
1c002f1c:	02802be7 	addi.w	$r7,$r31,10(0xa)
1c002f20:	29802067 	st.w	$r7,$r3,8(0x8)
1c002f24:	28402064 	ld.h	$r4,$r3,8(0x8)
1c002f28:	00150012 	move	$r18,$r0
1c002f2c:	02800631 	addi.w	$r17,$r17,1(0x1)
1c002f30:	02801210 	addi.w	$r16,$r16,4(0x4)
1c002f34:	68078e38 	bltu	$r17,$r24,1932(0x78c) # 1c0036c0 <matrix_test+0xf20>
1c002f38:	028005ef 	addi.w	$r15,$r15,1(0x1)
1c002f3c:	0010798c 	add.w	$r12,$r12,$r30
1c002f40:	00150133 	move	$r19,$r9
1c002f44:	6bff1df8 	bltu	$r15,$r24,-228(0x3ff1c) # 1c002e60 <matrix_test+0x6c0>
1c002f48:	001501a5 	move	$r5,$r13
1c002f4c:	54287400 	bl	10356(0x2874) # 1c0057c0 <crc16>
1c002f50:	29806064 	st.w	$r4,$r3,24(0x18)
1c002f54:	0280101f 	addi.w	$r31,$r0,4(0x4)
1c002f58:	5c0b6700 	bne	$r24,$r0,2916(0xb64) # 1c003abc <matrix_test+0x131c>
1c002f5c:	0015001b 	move	$r27,$r0
1c002f60:	29802079 	st.w	$r25,$r3,8(0x8)
1c002f64:	28805076 	ld.w	$r22,$r3,20(0x14)
1c002f68:	00150379 	move	$r25,$r27
1c002f6c:	2880306d 	ld.w	$r13,$r3,12(0xc)
1c002f70:	2880407b 	ld.w	$r27,$r3,16(0x10)
1c002f74:	001503e6 	move	$r6,$r31
1c002f78:	00150005 	move	$r5,$r0
1c002f7c:	001501a4 	move	$r4,$r13
1c002f80:	545a8c00 	bl	23180(0x5a8c) # 1c008a0c <memset>
1c002f84:	0015008b 	move	$r11,$r4
1c002f88:	00150367 	move	$r7,$r27
1c002f8c:	0015000a 	move	$r10,$r0
1c002f90:	284000ee 	ld.h	$r14,$r7,0
1c002f94:	284002c1 	ld.h	$r1,$r22,0
1c002f98:	02bfff05 	addi.w	$r5,$r24,-1(0xfff)
1c002f9c:	02800410 	addi.w	$r16,$r0,1(0x1)
1c002fa0:	001c382c 	mul.w	$r12,$r1,$r14
1c002fa4:	03400ca9 	andi	$r9,$r5,0x3
1c002fa8:	02800acf 	addi.w	$r15,$r22,2(0x2)
1c002fac:	00105cee 	add.w	$r14,$r7,$r23
1c002fb0:	6c00ca18 	bgeu	$r16,$r24,200(0xc8) # 1c003078 <matrix_test+0x8d8>
1c002fb4:	58006920 	beq	$r9,$r0,104(0x68) # 1c00301c <matrix_test+0x87c>
1c002fb8:	58004530 	beq	$r9,$r16,68(0x44) # 1c002ffc <matrix_test+0x85c>
1c002fbc:	02800806 	addi.w	$r6,$r0,2(0x2)
1c002fc0:	58002126 	beq	$r9,$r6,32(0x20) # 1c002fe0 <matrix_test+0x840>
1c002fc4:	284001f2 	ld.h	$r18,$r15,0
1c002fc8:	284001d4 	ld.h	$r20,$r14,0
1c002fcc:	02800810 	addi.w	$r16,$r0,2(0x2)
1c002fd0:	028012cf 	addi.w	$r15,$r22,4(0x4)
1c002fd4:	00105dce 	add.w	$r14,$r14,$r23
1c002fd8:	001c5248 	mul.w	$r8,$r18,$r20
1c002fdc:	0010218c 	add.w	$r12,$r12,$r8
1c002fe0:	284001f3 	ld.h	$r19,$r15,0
1c002fe4:	284001d1 	ld.h	$r17,$r14,0
1c002fe8:	02800610 	addi.w	$r16,$r16,1(0x1)
1c002fec:	028009ef 	addi.w	$r15,$r15,2(0x2)
1c002ff0:	001c466d 	mul.w	$r13,$r19,$r17
1c002ff4:	00105dce 	add.w	$r14,$r14,$r23
1c002ff8:	0010358c 	add.w	$r12,$r12,$r13
1c002ffc:	284001e1 	ld.h	$r1,$r15,0
1c003000:	284001c5 	ld.h	$r5,$r14,0
1c003004:	02800610 	addi.w	$r16,$r16,1(0x1)
1c003008:	028009ef 	addi.w	$r15,$r15,2(0x2)
1c00300c:	001c1429 	mul.w	$r9,$r1,$r5
1c003010:	00105dce 	add.w	$r14,$r14,$r23
1c003014:	0010258c 	add.w	$r12,$r12,$r9
1c003018:	6c006218 	bgeu	$r16,$r24,96(0x60) # 1c003078 <matrix_test+0x8d8>
1c00301c:	284001f2 	ld.h	$r18,$r15,0
1c003020:	284001d4 	ld.h	$r20,$r14,0
1c003024:	00105dc6 	add.w	$r6,$r14,$r23
1c003028:	00105cc8 	add.w	$r8,$r6,$r23
1c00302c:	284009f3 	ld.h	$r19,$r15,2(0x2)
1c003030:	001c524d 	mul.w	$r13,$r18,$r20
1c003034:	284000c1 	ld.h	$r1,$r6,0
1c003038:	00105d05 	add.w	$r5,$r8,$r23
1c00303c:	284011e9 	ld.h	$r9,$r15,4(0x4)
1c003040:	28400112 	ld.h	$r18,$r8,0
1c003044:	284019f1 	ld.h	$r17,$r15,6(0x6)
1c003048:	284000a6 	ld.h	$r6,$r5,0
1c00304c:	02801210 	addi.w	$r16,$r16,4(0x4)
1c003050:	028021ef 	addi.w	$r15,$r15,8(0x8)
1c003054:	00105cae 	add.w	$r14,$r5,$r23
1c003058:	001c0674 	mul.w	$r20,$r19,$r1
1c00305c:	0010358c 	add.w	$r12,$r12,$r13
1c003060:	001c4933 	mul.w	$r19,$r9,$r18
1c003064:	00105188 	add.w	$r8,$r12,$r20
1c003068:	001c1a21 	mul.w	$r1,$r17,$r6
1c00306c:	00104d0d 	add.w	$r13,$r8,$r19
1c003070:	001005ac 	add.w	$r12,$r13,$r1
1c003074:	6bffaa18 	bltu	$r16,$r24,-88(0x3ffa8) # 1c00301c <matrix_test+0x87c>
1c003078:	2980008c 	st.w	$r12,$r4,0
1c00307c:	0280054a 	addi.w	$r10,$r10,1(0x1)
1c003080:	02801084 	addi.w	$r4,$r4,4(0x4)
1c003084:	028008e7 	addi.w	$r7,$r7,2(0x2)
1c003088:	6bff0958 	bltu	$r10,$r24,-248(0x3ff08) # 1c002f90 <matrix_test+0x7f0>
1c00308c:	02800739 	addi.w	$r25,$r25,1(0x1)
1c003090:	0010796d 	add.w	$r13,$r11,$r30
1c003094:	00105ed6 	add.w	$r22,$r22,$r23
1c003098:	6bfedf38 	bltu	$r25,$r24,-292(0x3fedc) # 1c002f74 <matrix_test+0x7d4>
1c00309c:	28802079 	ld.w	$r25,$r3,8(0x8)
1c0030a0:	2880306c 	ld.w	$r12,$r3,12(0xc)
1c0030a4:	00150004 	move	$r4,$r0
1c0030a8:	00150012 	move	$r18,$r0
1c0030ac:	00150011 	move	$r17,$r0
1c0030b0:	0015000d 	move	$r13,$r0
1c0030b4:	28800186 	ld.w	$r6,$r12,0
1c0030b8:	02bfff16 	addi.w	$r22,$r24,-1(0xfff)
1c0030bc:	29802064 	st.w	$r4,$r3,8(0x8)
1c0030c0:	00101a31 	add.w	$r17,$r17,$r6
1c0030c4:	03400edb 	andi	$r27,$r22,0x3
1c0030c8:	2a40206b 	ld.hu	$r11,$r3,8(0x8)
1c0030cc:	6408f731 	bge	$r25,$r17,2292(0x8f4) # 1c0039c0 <matrix_test+0x1220>
1c0030d0:	0280296a 	addi.w	$r10,$r11,10(0xa)
1c0030d4:	2980206a 	st.w	$r10,$r3,8(0x8)
1c0030d8:	28402064 	ld.h	$r4,$r3,8(0x8)
1c0030dc:	00150011 	move	$r17,$r0
1c0030e0:	02800410 	addi.w	$r16,$r0,1(0x1)
1c0030e4:	0280118f 	addi.w	$r15,$r12,4(0x4)
1c0030e8:	001500d6 	move	$r22,$r6
1c0030ec:	6c00a218 	bgeu	$r16,$r24,160(0xa0) # 1c00318c <matrix_test+0x9ec>
1c0030f0:	58070360 	beq	$r27,$r0,1792(0x700) # 1c0037f0 <matrix_test+0x1050>
1c0030f4:	58006b70 	beq	$r27,$r16,104(0x68) # 1c00315c <matrix_test+0x9bc>
1c0030f8:	0280080e 	addi.w	$r14,$r0,2(0x2)
1c0030fc:	5800336e 	beq	$r27,$r14,48(0x30) # 1c00312c <matrix_test+0x98c>
1c003100:	288001f6 	ld.w	$r22,$r15,0
1c003104:	29802064 	st.w	$r4,$r3,8(0x8)
1c003108:	2a402069 	ld.hu	$r9,$r3,8(0x8)
1c00310c:	00105a31 	add.w	$r17,$r17,$r22
1c003110:	64098731 	bge	$r25,$r17,2436(0x984) # 1c003a94 <matrix_test+0x12f4>
1c003114:	02802931 	addi.w	$r17,$r9,10(0xa)
1c003118:	29802071 	st.w	$r17,$r3,8(0x8)
1c00311c:	28402064 	ld.h	$r4,$r3,8(0x8)
1c003120:	00150011 	move	$r17,$r0
1c003124:	02800610 	addi.w	$r16,$r16,1(0x1)
1c003128:	028011ef 	addi.w	$r15,$r15,4(0x4)
1c00312c:	288001e6 	ld.w	$r6,$r15,0
1c003130:	29802064 	st.w	$r4,$r3,8(0x8)
1c003134:	2a402074 	ld.hu	$r20,$r3,8(0x8)
1c003138:	00101a31 	add.w	$r17,$r17,$r6
1c00313c:	64090731 	bge	$r25,$r17,2308(0x904) # 1c003a40 <matrix_test+0x12a0>
1c003140:	02802a81 	addi.w	$r1,$r20,10(0xa)
1c003144:	29802061 	st.w	$r1,$r3,8(0x8)
1c003148:	28402064 	ld.h	$r4,$r3,8(0x8)
1c00314c:	00150011 	move	$r17,$r0
1c003150:	02800610 	addi.w	$r16,$r16,1(0x1)
1c003154:	028011ef 	addi.w	$r15,$r15,4(0x4)
1c003158:	001500d6 	move	$r22,$r6
1c00315c:	288001e6 	ld.w	$r6,$r15,0
1c003160:	29802064 	st.w	$r4,$r3,8(0x8)
1c003164:	2a40207b 	ld.hu	$r27,$r3,8(0x8)
1c003168:	00101a31 	add.w	$r17,$r17,$r6
1c00316c:	6408ab31 	bge	$r25,$r17,2216(0x8a8) # 1c003a14 <matrix_test+0x1274>
1c003170:	02802b64 	addi.w	$r4,$r27,10(0xa)
1c003174:	29802064 	st.w	$r4,$r3,8(0x8)
1c003178:	28402064 	ld.h	$r4,$r3,8(0x8)
1c00317c:	00150011 	move	$r17,$r0
1c003180:	02800610 	addi.w	$r16,$r16,1(0x1)
1c003184:	028011ef 	addi.w	$r15,$r15,4(0x4)
1c003188:	68066a18 	bltu	$r16,$r24,1640(0x668) # 1c0037f0 <matrix_test+0x1050>
1c00318c:	028005ad 	addi.w	$r13,$r13,1(0x1)
1c003190:	0010798c 	add.w	$r12,$r12,$r30
1c003194:	001500d2 	move	$r18,$r6
1c003198:	6bff1db8 	bltu	$r13,$r24,-228(0x3ff1c) # 1c0030b4 <matrix_test+0x914>
1c00319c:	28806065 	ld.w	$r5,$r3,24(0x18)
1c0031a0:	00150016 	move	$r22,$r0
1c0031a4:	54261c00 	bl	9756(0x261c) # 1c0057c0 <crc16>
1c0031a8:	2880506b 	ld.w	$r11,$r3,20(0x14)
1c0031ac:	28803071 	ld.w	$r17,$r3,12(0xc)
1c0031b0:	2880407b 	ld.w	$r27,$r3,16(0x10)
1c0031b4:	29802079 	st.w	$r25,$r3,8(0x8)
1c0031b8:	29806064 	st.w	$r4,$r3,24(0x18)
1c0031bc:	001502d9 	move	$r25,$r22
1c0031c0:	00150227 	move	$r7,$r17
1c0031c4:	00150176 	move	$r22,$r11
1c0031c8:	00150005 	move	$r5,$r0
1c0031cc:	001503e6 	move	$r6,$r31
1c0031d0:	001500e4 	move	$r4,$r7
1c0031d4:	54583800 	bl	22584(0x5838) # 1c008a0c <memset>
1c0031d8:	00150092 	move	$r18,$r4
1c0031dc:	00150085 	move	$r5,$r4
1c0031e0:	00150374 	move	$r20,$r27
1c0031e4:	00150004 	move	$r4,$r0
1c0031e8:	2840028e 	ld.h	$r14,$r20,0
1c0031ec:	284002ca 	ld.h	$r10,$r22,0
1c0031f0:	02bfff09 	addi.w	$r9,$r24,-1(0xfff)
1c0031f4:	02800413 	addi.w	$r19,$r0,1(0x1)
1c0031f8:	001c3946 	mul.w	$r6,$r10,$r14
1c0031fc:	03400d21 	andi	$r1,$r9,0x3
1c003200:	02800acf 	addi.w	$r15,$r22,2(0x2)
1c003204:	00105e8e 	add.w	$r14,$r20,$r23
1c003208:	004888c8 	srai.w	$r8,$r6,0x2
1c00320c:	004894d0 	srai.w	$r16,$r6,0x5
1c003210:	03403d0d 	andi	$r13,$r8,0xf
1c003214:	0341fe0c 	andi	$r12,$r16,0x7f
1c003218:	001c31a8 	mul.w	$r8,$r13,$r12
1c00321c:	6c015678 	bgeu	$r19,$r24,340(0x154) # 1c003370 <matrix_test+0xbd0>
1c003220:	5800a420 	beq	$r1,$r0,164(0xa4) # 1c0032c4 <matrix_test+0xb24>
1c003224:	58006c33 	beq	$r1,$r19,108(0x6c) # 1c003290 <matrix_test+0xaf0>
1c003228:	0280080b 	addi.w	$r11,$r0,2(0x2)
1c00322c:	5800342b 	beq	$r1,$r11,52(0x34) # 1c003260 <matrix_test+0xac0>
1c003230:	284001f1 	ld.h	$r17,$r15,0
1c003234:	284001c7 	ld.h	$r7,$r14,0
1c003238:	02800813 	addi.w	$r19,$r0,2(0x2)
1c00323c:	028012cf 	addi.w	$r15,$r22,4(0x4)
1c003240:	00105dce 	add.w	$r14,$r14,$r23
1c003244:	001c1e2a 	mul.w	$r10,$r17,$r7
1c003248:	00488949 	srai.w	$r9,$r10,0x2
1c00324c:	00489546 	srai.w	$r6,$r10,0x5
1c003250:	03403d21 	andi	$r1,$r9,0xf
1c003254:	0341fcd0 	andi	$r16,$r6,0x7f
1c003258:	001c402d 	mul.w	$r13,$r1,$r16
1c00325c:	00103508 	add.w	$r8,$r8,$r13
1c003260:	284001ec 	ld.h	$r12,$r15,0
1c003264:	284001cb 	ld.h	$r11,$r14,0
1c003268:	02800673 	addi.w	$r19,$r19,1(0x1)
1c00326c:	028009ef 	addi.w	$r15,$r15,2(0x2)
1c003270:	001c2d91 	mul.w	$r17,$r12,$r11
1c003274:	00105dce 	add.w	$r14,$r14,$r23
1c003278:	00488a27 	srai.w	$r7,$r17,0x2
1c00327c:	0048962a 	srai.w	$r10,$r17,0x5
1c003280:	03403ce9 	andi	$r9,$r7,0xf
1c003284:	0341fd46 	andi	$r6,$r10,0x7f
1c003288:	001c1921 	mul.w	$r1,$r9,$r6
1c00328c:	00100508 	add.w	$r8,$r8,$r1
1c003290:	284001f0 	ld.h	$r16,$r15,0
1c003294:	284001cd 	ld.h	$r13,$r14,0
1c003298:	02800673 	addi.w	$r19,$r19,1(0x1)
1c00329c:	028009ef 	addi.w	$r15,$r15,2(0x2)
1c0032a0:	001c360c 	mul.w	$r12,$r16,$r13
1c0032a4:	00105dce 	add.w	$r14,$r14,$r23
1c0032a8:	0048898b 	srai.w	$r11,$r12,0x2
1c0032ac:	00489591 	srai.w	$r17,$r12,0x5
1c0032b0:	03403d67 	andi	$r7,$r11,0xf
1c0032b4:	0341fe2a 	andi	$r10,$r17,0x7f
1c0032b8:	001c28e9 	mul.w	$r9,$r7,$r10
1c0032bc:	00102508 	add.w	$r8,$r8,$r9
1c0032c0:	6c00b278 	bgeu	$r19,$r24,176(0xb0) # 1c003370 <matrix_test+0xbd0>
1c0032c4:	284001ed 	ld.h	$r13,$r15,0
1c0032c8:	284001cc 	ld.h	$r12,$r14,0
1c0032cc:	00105dc1 	add.w	$r1,$r14,$r23
1c0032d0:	00105c30 	add.w	$r16,$r1,$r23
1c0032d4:	28400031 	ld.h	$r17,$r1,0
1c0032d8:	001c31a7 	mul.w	$r7,$r13,$r12
1c0032dc:	284009e6 	ld.h	$r6,$r15,2(0x2)
1c0032e0:	284011eb 	ld.h	$r11,$r15,4(0x4)
1c0032e4:	00105e0e 	add.w	$r14,$r16,$r23
1c0032e8:	2840020c 	ld.h	$r12,$r16,0
1c0032ec:	284001ca 	ld.h	$r10,$r14,0
1c0032f0:	284019e1 	ld.h	$r1,$r15,6(0x6)
1c0032f4:	02801273 	addi.w	$r19,$r19,4(0x4)
1c0032f8:	028021ef 	addi.w	$r15,$r15,8(0x8)
1c0032fc:	00105dce 	add.w	$r14,$r14,$r23
1c003300:	001c44c6 	mul.w	$r6,$r6,$r17
1c003304:	004888e9 	srai.w	$r9,$r7,0x2
1c003308:	004894ed 	srai.w	$r13,$r7,0x5
1c00330c:	03403d31 	andi	$r17,$r9,0xf
1c003310:	0341fda9 	andi	$r9,$r13,0x7f
1c003314:	001c3170 	mul.w	$r16,$r11,$r12
1c003318:	004888c7 	srai.w	$r7,$r6,0x2
1c00331c:	004894cc 	srai.w	$r12,$r6,0x5
1c003320:	0341fd86 	andi	$r6,$r12,0x7f
1c003324:	03403ceb 	andi	$r11,$r7,0xf
1c003328:	001c2821 	mul.w	$r1,$r1,$r10
1c00332c:	0048960d 	srai.w	$r13,$r16,0x5
1c003330:	00488a0a 	srai.w	$r10,$r16,0x2
1c003334:	0341fda7 	andi	$r7,$r13,0x7f
1c003338:	03403d4a 	andi	$r10,$r10,0xf
1c00333c:	001c2631 	mul.w	$r17,$r17,$r9
1c003340:	00489430 	srai.w	$r16,$r1,0x5
1c003344:	00488829 	srai.w	$r9,$r1,0x2
1c003348:	03403d21 	andi	$r1,$r9,0xf
1c00334c:	0341fe0d 	andi	$r13,$r16,0x7f
1c003350:	001c196b 	mul.w	$r11,$r11,$r6
1c003354:	00104508 	add.w	$r8,$r8,$r17
1c003358:	001c1d46 	mul.w	$r6,$r10,$r7
1c00335c:	00102d0c 	add.w	$r12,$r8,$r11
1c003360:	001c342a 	mul.w	$r10,$r1,$r13
1c003364:	00101987 	add.w	$r7,$r12,$r6
1c003368:	001028e8 	add.w	$r8,$r7,$r10
1c00336c:	6bff5a78 	bltu	$r19,$r24,-168(0x3ff58) # 1c0032c4 <matrix_test+0xb24>
1c003370:	298000a8 	st.w	$r8,$r5,0
1c003374:	02800484 	addi.w	$r4,$r4,1(0x1)
1c003378:	028010a5 	addi.w	$r5,$r5,4(0x4)
1c00337c:	02800a94 	addi.w	$r20,$r20,2(0x2)
1c003380:	6bfe6898 	bltu	$r4,$r24,-408(0x3fe68) # 1c0031e8 <matrix_test+0xa48>
1c003384:	02800739 	addi.w	$r25,$r25,1(0x1)
1c003388:	00107a47 	add.w	$r7,$r18,$r30
1c00338c:	00105ed6 	add.w	$r22,$r22,$r23
1c003390:	6bfe3b38 	bltu	$r25,$r24,-456(0x3fe38) # 1c0031c8 <matrix_test+0xa28>
1c003394:	28802079 	ld.w	$r25,$r3,8(0x8)
1c003398:	00150004 	move	$r4,$r0
1c00339c:	0015000e 	move	$r14,$r0
1c0033a0:	0015000f 	move	$r15,$r0
1c0033a4:	0015000c 	move	$r12,$r0
1c0033a8:	28800389 	ld.w	$r9,$r28,0
1c0033ac:	02bfff1f 	addi.w	$r31,$r24,-1(0xfff)
1c0033b0:	29802064 	st.w	$r4,$r3,8(0x8)
1c0033b4:	001025ef 	add.w	$r15,$r15,$r9
1c0033b8:	03400ff6 	andi	$r22,$r31,0x3
1c0033bc:	2a40207b 	ld.hu	$r27,$r3,8(0x8)
1c0033c0:	64062b2f 	bge	$r25,$r15,1576(0x628) # 1c0039e8 <matrix_test+0x1248>
1c0033c4:	02802b65 	addi.w	$r5,$r27,10(0xa)
1c0033c8:	29802065 	st.w	$r5,$r3,8(0x8)
1c0033cc:	28402064 	ld.h	$r4,$r3,8(0x8)
1c0033d0:	0015000f 	move	$r15,$r0
1c0033d4:	02800411 	addi.w	$r17,$r0,1(0x1)
1c0033d8:	02801390 	addi.w	$r16,$r28,4(0x4)
1c0033dc:	0015012a 	move	$r10,$r9
1c0033e0:	6c00a238 	bgeu	$r17,$r24,160(0xa0) # 1c003480 <matrix_test+0xce0>
1c0033e4:	58053ec0 	beq	$r22,$r0,1340(0x53c) # 1c003920 <matrix_test+0x1180>
1c0033e8:	58006ad1 	beq	$r22,$r17,104(0x68) # 1c003450 <matrix_test+0xcb0>
1c0033ec:	02800813 	addi.w	$r19,$r0,2(0x2)
1c0033f0:	580032d3 	beq	$r22,$r19,48(0x30) # 1c003420 <matrix_test+0xc80>
1c0033f4:	2880020a 	ld.w	$r10,$r16,0
1c0033f8:	29802064 	st.w	$r4,$r3,8(0x8)
1c0033fc:	2a402064 	ld.hu	$r4,$r3,8(0x8)
1c003400:	001029ef 	add.w	$r15,$r15,$r10
1c003404:	64067f2f 	bge	$r25,$r15,1660(0x67c) # 1c003a80 <matrix_test+0x12e0>
1c003408:	0280288f 	addi.w	$r15,$r4,10(0xa)
1c00340c:	2980206f 	st.w	$r15,$r3,8(0x8)
1c003410:	28402064 	ld.h	$r4,$r3,8(0x8)
1c003414:	0015000f 	move	$r15,$r0
1c003418:	02800631 	addi.w	$r17,$r17,1(0x1)
1c00341c:	02801210 	addi.w	$r16,$r16,4(0x4)
1c003420:	28800201 	ld.w	$r1,$r16,0
1c003424:	29802064 	st.w	$r4,$r3,8(0x8)
1c003428:	2a40206d 	ld.hu	$r13,$r3,8(0x8)
1c00342c:	001005ef 	add.w	$r15,$r15,$r1
1c003430:	64063b2f 	bge	$r25,$r15,1592(0x638) # 1c003a68 <matrix_test+0x12c8>
1c003434:	028029a6 	addi.w	$r6,$r13,10(0xa)
1c003438:	29802066 	st.w	$r6,$r3,8(0x8)
1c00343c:	28402064 	ld.h	$r4,$r3,8(0x8)
1c003440:	0015000f 	move	$r15,$r0
1c003444:	02800631 	addi.w	$r17,$r17,1(0x1)
1c003448:	02801210 	addi.w	$r16,$r16,4(0x4)
1c00344c:	0015002a 	move	$r10,$r1
1c003450:	28800209 	ld.w	$r9,$r16,0
1c003454:	29802064 	st.w	$r4,$r3,8(0x8)
1c003458:	2a402067 	ld.hu	$r7,$r3,8(0x8)
1c00345c:	001025ef 	add.w	$r15,$r15,$r9
1c003460:	6405a32f 	bge	$r25,$r15,1440(0x5a0) # 1c003a00 <matrix_test+0x1260>
1c003464:	028028fb 	addi.w	$r27,$r7,10(0xa)
1c003468:	2980207b 	st.w	$r27,$r3,8(0x8)
1c00346c:	28402064 	ld.h	$r4,$r3,8(0x8)
1c003470:	0015000f 	move	$r15,$r0
1c003474:	02800631 	addi.w	$r17,$r17,1(0x1)
1c003478:	02801210 	addi.w	$r16,$r16,4(0x4)
1c00347c:	6804a638 	bltu	$r17,$r24,1188(0x4a4) # 1c003920 <matrix_test+0x1180>
1c003480:	0280058c 	addi.w	$r12,$r12,1(0x1)
1c003484:	00107b9c 	add.w	$r28,$r28,$r30
1c003488:	0015012e 	move	$r14,$r9
1c00348c:	6bff1d98 	bltu	$r12,$r24,-228(0x3ff1c) # 1c0033a8 <matrix_test+0xc08>
1c003490:	28806065 	ld.w	$r5,$r3,24(0x18)
1c003494:	0015001c 	move	$r28,$r0
1c003498:	54232800 	bl	9000(0x2328) # 1c0057c0 <crc16>
1c00349c:	29802064 	st.w	$r4,$r3,8(0x8)
1c0034a0:	2a4003be 	ld.hu	$r30,$r29,0
1c0034a4:	02bfff01 	addi.w	$r1,$r24,-1(0xfff)
1c0034a8:	0280040d 	addi.w	$r13,$r0,1(0x1)
1c0034ac:	00116bcb 	sub.w	$r11,$r30,$r26
1c0034b0:	294003ab 	st.h	$r11,$r29,0
1c0034b4:	03401c28 	andi	$r8,$r1,0x7
1c0034b8:	02800bac 	addi.w	$r12,$r29,2(0x2)
1c0034bc:	6c0131b8 	bgeu	$r13,$r24,304(0x130) # 1c0035ec <matrix_test+0xe4c>
1c0034c0:	5800c100 	beq	$r8,$r0,192(0xc0) # 1c003580 <matrix_test+0xde0>
1c0034c4:	5800a50d 	beq	$r8,$r13,164(0xa4) # 1c003568 <matrix_test+0xdc8>
1c0034c8:	02800806 	addi.w	$r6,$r0,2(0x2)
1c0034cc:	58008906 	beq	$r8,$r6,136(0x88) # 1c003554 <matrix_test+0xdb4>
1c0034d0:	02800c0a 	addi.w	$r10,$r0,3(0x3)
1c0034d4:	58006d0a 	beq	$r8,$r10,108(0x6c) # 1c003540 <matrix_test+0xda0>
1c0034d8:	02801007 	addi.w	$r7,$r0,4(0x4)
1c0034dc:	58005107 	beq	$r8,$r7,80(0x50) # 1c00352c <matrix_test+0xd8c>
1c0034e0:	0280141f 	addi.w	$r31,$r0,5(0x5)
1c0034e4:	5800351f 	beq	$r8,$r31,52(0x34) # 1c003518 <matrix_test+0xd78>
1c0034e8:	02801816 	addi.w	$r22,$r0,6(0x6)
1c0034ec:	58001916 	beq	$r8,$r22,24(0x18) # 1c003504 <matrix_test+0xd64>
1c0034f0:	2a40019b 	ld.hu	$r27,$r12,0
1c0034f4:	0280080d 	addi.w	$r13,$r0,2(0x2)
1c0034f8:	00116b72 	sub.w	$r18,$r27,$r26
1c0034fc:	29400192 	st.h	$r18,$r12,0
1c003500:	028013ac 	addi.w	$r12,$r29,4(0x4)
1c003504:	2a400194 	ld.hu	$r20,$r12,0
1c003508:	028005ad 	addi.w	$r13,$r13,1(0x1)
1c00350c:	0280098c 	addi.w	$r12,$r12,2(0x2)
1c003510:	00116a85 	sub.w	$r5,$r20,$r26
1c003514:	297ff985 	st.h	$r5,$r12,-2(0xffe)
1c003518:	2a400189 	ld.hu	$r9,$r12,0
1c00351c:	028005ad 	addi.w	$r13,$r13,1(0x1)
1c003520:	0280098c 	addi.w	$r12,$r12,2(0x2)
1c003524:	00116933 	sub.w	$r19,$r9,$r26
1c003528:	297ff993 	st.h	$r19,$r12,-2(0xffe)
1c00352c:	2a40018f 	ld.hu	$r15,$r12,0
1c003530:	028005ad 	addi.w	$r13,$r13,1(0x1)
1c003534:	0280098c 	addi.w	$r12,$r12,2(0x2)
1c003538:	001169e4 	sub.w	$r4,$r15,$r26
1c00353c:	297ff984 	st.h	$r4,$r12,-2(0xffe)
1c003540:	2a400191 	ld.hu	$r17,$r12,0
1c003544:	028005ad 	addi.w	$r13,$r13,1(0x1)
1c003548:	0280098c 	addi.w	$r12,$r12,2(0x2)
1c00354c:	00116a30 	sub.w	$r16,$r17,$r26
1c003550:	297ff990 	st.h	$r16,$r12,-2(0xffe)
1c003554:	2a400199 	ld.hu	$r25,$r12,0
1c003558:	028005ad 	addi.w	$r13,$r13,1(0x1)
1c00355c:	0280098c 	addi.w	$r12,$r12,2(0x2)
1c003560:	00116b2e 	sub.w	$r14,$r25,$r26
1c003564:	297ff98e 	st.h	$r14,$r12,-2(0xffe)
1c003568:	2a40019e 	ld.hu	$r30,$r12,0
1c00356c:	0280098c 	addi.w	$r12,$r12,2(0x2)
1c003570:	028005ad 	addi.w	$r13,$r13,1(0x1)
1c003574:	00116bc1 	sub.w	$r1,$r30,$r26
1c003578:	297ff981 	st.h	$r1,$r12,-2(0xffe)
1c00357c:	6c0071b8 	bgeu	$r13,$r24,112(0x70) # 1c0035ec <matrix_test+0xe4c>
1c003580:	2a40018b 	ld.hu	$r11,$r12,0
1c003584:	2a400988 	ld.hu	$r8,$r12,2(0x2)
1c003588:	2a401186 	ld.hu	$r6,$r12,4(0x4)
1c00358c:	2a40198a 	ld.hu	$r10,$r12,6(0x6)
1c003590:	2a402187 	ld.hu	$r7,$r12,8(0x8)
1c003594:	2a40299f 	ld.hu	$r31,$r12,10(0xa)
1c003598:	2a403196 	ld.hu	$r22,$r12,12(0xc)
1c00359c:	2a40399b 	ld.hu	$r27,$r12,14(0xe)
1c0035a0:	00116965 	sub.w	$r5,$r11,$r26
1c0035a4:	00116914 	sub.w	$r20,$r8,$r26
1c0035a8:	001168c9 	sub.w	$r9,$r6,$r26
1c0035ac:	00116952 	sub.w	$r18,$r10,$r26
1c0035b0:	001168f3 	sub.w	$r19,$r7,$r26
1c0035b4:	00116be4 	sub.w	$r4,$r31,$r26
1c0035b8:	00116acf 	sub.w	$r15,$r22,$r26
1c0035bc:	00116b71 	sub.w	$r17,$r27,$r26
1c0035c0:	29400185 	st.h	$r5,$r12,0
1c0035c4:	29400994 	st.h	$r20,$r12,2(0x2)
1c0035c8:	29401189 	st.h	$r9,$r12,4(0x4)
1c0035cc:	29401992 	st.h	$r18,$r12,6(0x6)
1c0035d0:	29402193 	st.h	$r19,$r12,8(0x8)
1c0035d4:	29402984 	st.h	$r4,$r12,10(0xa)
1c0035d8:	2940318f 	st.h	$r15,$r12,12(0xc)
1c0035dc:	29403991 	st.h	$r17,$r12,14(0xe)
1c0035e0:	028021ad 	addi.w	$r13,$r13,8(0x8)
1c0035e4:	0280418c 	addi.w	$r12,$r12,16(0x10)
1c0035e8:	6bff99b8 	bltu	$r13,$r24,-104(0x3ff98) # 1c003580 <matrix_test+0xde0>
1c0035ec:	0280079c 	addi.w	$r28,$r28,1(0x1)
1c0035f0:	00105fbd 	add.w	$r29,$r29,$r23
1c0035f4:	6bfeaf98 	bltu	$r28,$r24,-340(0x3feac) # 1c0034a0 <matrix_test+0xd00>
1c0035f8:	28813061 	ld.w	$r1,$r3,76(0x4c)
1c0035fc:	28812076 	ld.w	$r22,$r3,72(0x48)
1c003600:	28402064 	ld.h	$r4,$r3,8(0x8)
1c003604:	28811077 	ld.w	$r23,$r3,68(0x44)
1c003608:	28810078 	ld.w	$r24,$r3,64(0x40)
1c00360c:	2880f079 	ld.w	$r25,$r3,60(0x3c)
1c003610:	2880e07a 	ld.w	$r26,$r3,56(0x38)
1c003614:	2880d07b 	ld.w	$r27,$r3,52(0x34)
1c003618:	2880c07c 	ld.w	$r28,$r3,48(0x30)
1c00361c:	2880b07d 	ld.w	$r29,$r3,44(0x2c)
1c003620:	2880a07e 	ld.w	$r30,$r3,40(0x28)
1c003624:	2880907f 	ld.w	$r31,$r3,36(0x24)
1c003628:	02814063 	addi.w	$r3,$r3,80(0x50)
1c00362c:	4c000020 	jirl	$r0,$r1,0
1c003630:	0012052e 	slt	$r14,$r9,$r1
1c003634:	00103885 	add.w	$r5,$r4,$r14
1c003638:	29802065 	st.w	$r5,$r3,8(0x8)
1c00363c:	28801213 	ld.w	$r19,$r16,4(0x4)
1c003640:	28402069 	ld.h	$r9,$r3,8(0x8)
1c003644:	02800631 	addi.w	$r17,$r17,1(0x1)
1c003648:	00104cd4 	add.w	$r20,$r6,$r19
1c00364c:	29802069 	st.w	$r9,$r3,8(0x8)
1c003650:	02801210 	addi.w	$r16,$r16,4(0x4)
1c003654:	2a402068 	ld.hu	$r8,$r3,8(0x8)
1c003658:	6400ab34 	bge	$r25,$r20,168(0xa8) # 1c003700 <matrix_test+0xf60>
1c00365c:	0280291b 	addi.w	$r27,$r8,10(0xa)
1c003660:	2980207b 	st.w	$r27,$r3,8(0x8)
1c003664:	2840207f 	ld.h	$r31,$r3,8(0x8)
1c003668:	2880120b 	ld.w	$r11,$r16,4(0x4)
1c00366c:	00150014 	move	$r20,$r0
1c003670:	2980207f 	st.w	$r31,$r3,8(0x8)
1c003674:	00102e81 	add.w	$r1,$r20,$r11
1c003678:	2a402067 	ld.hu	$r7,$r3,8(0x8)
1c00367c:	6400ab21 	bge	$r25,$r1,168(0xa8) # 1c003724 <matrix_test+0xf84>
1c003680:	028028ea 	addi.w	$r10,$r7,10(0xa)
1c003684:	2980206a 	st.w	$r10,$r3,8(0x8)
1c003688:	28402065 	ld.h	$r5,$r3,8(0x8)
1c00368c:	28802209 	ld.w	$r9,$r16,8(0x8)
1c003690:	00150001 	move	$r1,$r0
1c003694:	29802065 	st.w	$r5,$r3,8(0x8)
1c003698:	00102432 	add.w	$r18,$r1,$r9
1c00369c:	2a402066 	ld.hu	$r6,$r3,8(0x8)
1c0036a0:	6400ab32 	bge	$r25,$r18,168(0xa8) # 1c003748 <matrix_test+0xfa8>
1c0036a4:	028028c8 	addi.w	$r8,$r6,10(0xa)
1c0036a8:	29802068 	st.w	$r8,$r3,8(0x8)
1c0036ac:	28402064 	ld.h	$r4,$r3,8(0x8)
1c0036b0:	00150012 	move	$r18,$r0
1c0036b4:	02800e31 	addi.w	$r17,$r17,3(0x3)
1c0036b8:	02803210 	addi.w	$r16,$r16,12(0xc)
1c0036bc:	6ff87e38 	bgeu	$r17,$r24,-1924(0x3f87c) # 1c002f38 <matrix_test+0x798>
1c0036c0:	28800201 	ld.w	$r1,$r16,0
1c0036c4:	29802064 	st.w	$r4,$r3,8(0x8)
1c0036c8:	2a402064 	ld.hu	$r4,$r3,8(0x8)
1c0036cc:	00100646 	add.w	$r6,$r18,$r1
1c0036d0:	67ff6326 	bge	$r25,$r6,-160(0x3ff60) # 1c003630 <matrix_test+0xe90>
1c0036d4:	0280288a 	addi.w	$r10,$r4,10(0xa)
1c0036d8:	2980206a 	st.w	$r10,$r3,8(0x8)
1c0036dc:	28801213 	ld.w	$r19,$r16,4(0x4)
1c0036e0:	28402069 	ld.h	$r9,$r3,8(0x8)
1c0036e4:	00150006 	move	$r6,$r0
1c0036e8:	00104cd4 	add.w	$r20,$r6,$r19
1c0036ec:	29802069 	st.w	$r9,$r3,8(0x8)
1c0036f0:	02800631 	addi.w	$r17,$r17,1(0x1)
1c0036f4:	02801210 	addi.w	$r16,$r16,4(0x4)
1c0036f8:	2a402068 	ld.hu	$r8,$r3,8(0x8)
1c0036fc:	63ff6334 	blt	$r25,$r20,-160(0x3ff60) # 1c00365c <matrix_test+0xebc>
1c003700:	00124c32 	slt	$r18,$r1,$r19
1c003704:	00104916 	add.w	$r22,$r8,$r18
1c003708:	29802076 	st.w	$r22,$r3,8(0x8)
1c00370c:	2840207f 	ld.h	$r31,$r3,8(0x8)
1c003710:	2880120b 	ld.w	$r11,$r16,4(0x4)
1c003714:	2980207f 	st.w	$r31,$r3,8(0x8)
1c003718:	00102e81 	add.w	$r1,$r20,$r11
1c00371c:	2a402067 	ld.hu	$r7,$r3,8(0x8)
1c003720:	63ff6321 	blt	$r25,$r1,-160(0x3ff60) # 1c003680 <matrix_test+0xee0>
1c003724:	00122e64 	slt	$r4,$r19,$r11
1c003728:	001010ee 	add.w	$r14,$r7,$r4
1c00372c:	2980206e 	st.w	$r14,$r3,8(0x8)
1c003730:	28402065 	ld.h	$r5,$r3,8(0x8)
1c003734:	28802209 	ld.w	$r9,$r16,8(0x8)
1c003738:	29802065 	st.w	$r5,$r3,8(0x8)
1c00373c:	00102432 	add.w	$r18,$r1,$r9
1c003740:	2a402066 	ld.hu	$r6,$r3,8(0x8)
1c003744:	63ff6332 	blt	$r25,$r18,-160(0x3ff60) # 1c0036a4 <matrix_test+0xf04>
1c003748:	00122573 	slt	$r19,$r11,$r9
1c00374c:	00104cd4 	add.w	$r20,$r6,$r19
1c003750:	29802074 	st.w	$r20,$r3,8(0x8)
1c003754:	28402064 	ld.h	$r4,$r3,8(0x8)
1c003758:	53ff5fff 	b	-164(0xfffff5c) # 1c0036b4 <matrix_test+0xf14>
1c00375c:	03400000 	andi	$r0,$r0,0x0
1c003760:	001228c9 	slt	$r9,$r6,$r10
1c003764:	001025c5 	add.w	$r5,$r14,$r9
1c003768:	29802065 	st.w	$r5,$r3,8(0x8)
1c00376c:	288011f4 	ld.w	$r20,$r15,4(0x4)
1c003770:	28402066 	ld.h	$r6,$r3,8(0x8)
1c003774:	02800610 	addi.w	$r16,$r16,1(0x1)
1c003778:	00105233 	add.w	$r19,$r17,$r20
1c00377c:	29802066 	st.w	$r6,$r3,8(0x8)
1c003780:	028011ef 	addi.w	$r15,$r15,4(0x4)
1c003784:	2a402068 	ld.hu	$r8,$r3,8(0x8)
1c003788:	6400ab33 	bge	$r25,$r19,168(0xa8) # 1c003830 <matrix_test+0x1090>
1c00378c:	0280290b 	addi.w	$r11,$r8,10(0xa)
1c003790:	2980206b 	st.w	$r11,$r3,8(0x8)
1c003794:	2840207b 	ld.h	$r27,$r3,8(0x8)
1c003798:	288011e7 	ld.w	$r7,$r15,4(0x4)
1c00379c:	00150013 	move	$r19,$r0
1c0037a0:	2980207b 	st.w	$r27,$r3,8(0x8)
1c0037a4:	00101e6a 	add.w	$r10,$r19,$r7
1c0037a8:	2a402064 	ld.hu	$r4,$r3,8(0x8)
1c0037ac:	6400ab2a 	bge	$r25,$r10,168(0xa8) # 1c003854 <matrix_test+0x10b4>
1c0037b0:	02802892 	addi.w	$r18,$r4,10(0xa)
1c0037b4:	29802072 	st.w	$r18,$r3,8(0x8)
1c0037b8:	28402065 	ld.h	$r5,$r3,8(0x8)
1c0037bc:	288021e6 	ld.w	$r6,$r15,8(0x8)
1c0037c0:	0015000a 	move	$r10,$r0
1c0037c4:	29802065 	st.w	$r5,$r3,8(0x8)
1c0037c8:	00101951 	add.w	$r17,$r10,$r6
1c0037cc:	2a402074 	ld.hu	$r20,$r3,8(0x8)
1c0037d0:	6400ab31 	bge	$r25,$r17,168(0xa8) # 1c003878 <matrix_test+0x10d8>
1c0037d4:	02802a81 	addi.w	$r1,$r20,10(0xa)
1c0037d8:	29802061 	st.w	$r1,$r3,8(0x8)
1c0037dc:	28402064 	ld.h	$r4,$r3,8(0x8)
1c0037e0:	00150011 	move	$r17,$r0
1c0037e4:	02800e10 	addi.w	$r16,$r16,3(0x3)
1c0037e8:	028031ef 	addi.w	$r15,$r15,12(0xc)
1c0037ec:	6ff9a218 	bgeu	$r16,$r24,-1632(0x3f9a0) # 1c00318c <matrix_test+0x9ec>
1c0037f0:	288001ea 	ld.w	$r10,$r15,0
1c0037f4:	29802064 	st.w	$r4,$r3,8(0x8)
1c0037f8:	2a40206e 	ld.hu	$r14,$r3,8(0x8)
1c0037fc:	00102a31 	add.w	$r17,$r17,$r10
1c003800:	67ff6331 	bge	$r25,$r17,-160(0x3ff60) # 1c003760 <matrix_test+0xfc0>
1c003804:	028029d2 	addi.w	$r18,$r14,10(0xa)
1c003808:	29802072 	st.w	$r18,$r3,8(0x8)
1c00380c:	288011f4 	ld.w	$r20,$r15,4(0x4)
1c003810:	28402066 	ld.h	$r6,$r3,8(0x8)
1c003814:	00150011 	move	$r17,$r0
1c003818:	00105233 	add.w	$r19,$r17,$r20
1c00381c:	29802066 	st.w	$r6,$r3,8(0x8)
1c003820:	02800610 	addi.w	$r16,$r16,1(0x1)
1c003824:	028011ef 	addi.w	$r15,$r15,4(0x4)
1c003828:	2a402068 	ld.hu	$r8,$r3,8(0x8)
1c00382c:	63ff6333 	blt	$r25,$r19,-160(0x3ff60) # 1c00378c <matrix_test+0xfec>
1c003830:	00125141 	slt	$r1,$r10,$r20
1c003834:	00100516 	add.w	$r22,$r8,$r1
1c003838:	29802076 	st.w	$r22,$r3,8(0x8)
1c00383c:	2840207b 	ld.h	$r27,$r3,8(0x8)
1c003840:	288011e7 	ld.w	$r7,$r15,4(0x4)
1c003844:	2980207b 	st.w	$r27,$r3,8(0x8)
1c003848:	00101e6a 	add.w	$r10,$r19,$r7
1c00384c:	2a402064 	ld.hu	$r4,$r3,8(0x8)
1c003850:	63ff632a 	blt	$r25,$r10,-160(0x3ff60) # 1c0037b0 <matrix_test+0x1010>
1c003854:	00121e8e 	slt	$r14,$r20,$r7
1c003858:	00103889 	add.w	$r9,$r4,$r14
1c00385c:	29802069 	st.w	$r9,$r3,8(0x8)
1c003860:	28402065 	ld.h	$r5,$r3,8(0x8)
1c003864:	288021e6 	ld.w	$r6,$r15,8(0x8)
1c003868:	29802065 	st.w	$r5,$r3,8(0x8)
1c00386c:	00101951 	add.w	$r17,$r10,$r6
1c003870:	2a402074 	ld.hu	$r20,$r3,8(0x8)
1c003874:	63ff6331 	blt	$r25,$r17,-160(0x3ff60) # 1c0037d4 <matrix_test+0x1034>
1c003878:	001218f3 	slt	$r19,$r7,$r6
1c00387c:	00104e88 	add.w	$r8,$r20,$r19
1c003880:	29802068 	st.w	$r8,$r3,8(0x8)
1c003884:	28402064 	ld.h	$r4,$r3,8(0x8)
1c003888:	53ff5fff 	b	-164(0xfffff5c) # 1c0037e4 <matrix_test+0x1044>
1c00388c:	03400000 	andi	$r0,$r0,0x0
1c003890:	00124925 	slt	$r5,$r9,$r18
1c003894:	00101693 	add.w	$r19,$r20,$r5
1c003898:	29802073 	st.w	$r19,$r3,8(0x8)
1c00389c:	2880120e 	ld.w	$r14,$r16,4(0x4)
1c0038a0:	28402069 	ld.h	$r9,$r3,8(0x8)
1c0038a4:	02800621 	addi.w	$r1,$r17,1(0x1)
1c0038a8:	001039ed 	add.w	$r13,$r15,$r14
1c0038ac:	29802069 	st.w	$r9,$r3,8(0x8)
1c0038b0:	02801210 	addi.w	$r16,$r16,4(0x4)
1c0038b4:	2a402071 	ld.hu	$r17,$r3,8(0x8)
1c0038b8:	6400ab2d 	bge	$r25,$r13,168(0xa8) # 1c003960 <matrix_test+0x11c0>
1c0038bc:	02802a2a 	addi.w	$r10,$r17,10(0xa)
1c0038c0:	2980206a 	st.w	$r10,$r3,8(0x8)
1c0038c4:	28402066 	ld.h	$r6,$r3,8(0x8)
1c0038c8:	28801207 	ld.w	$r7,$r16,4(0x4)
1c0038cc:	0015000d 	move	$r13,$r0
1c0038d0:	29802066 	st.w	$r6,$r3,8(0x8)
1c0038d4:	00101db6 	add.w	$r22,$r13,$r7
1c0038d8:	2a40207f 	ld.hu	$r31,$r3,8(0x8)
1c0038dc:	6400ab36 	bge	$r25,$r22,168(0xa8) # 1c003984 <matrix_test+0x11e4>
1c0038e0:	02802be5 	addi.w	$r5,$r31,10(0xa)
1c0038e4:	29802065 	st.w	$r5,$r3,8(0x8)
1c0038e8:	28402074 	ld.h	$r20,$r3,8(0x8)
1c0038ec:	28802209 	ld.w	$r9,$r16,8(0x8)
1c0038f0:	00150016 	move	$r22,$r0
1c0038f4:	29802074 	st.w	$r20,$r3,8(0x8)
1c0038f8:	001026cf 	add.w	$r15,$r22,$r9
1c0038fc:	2a402073 	ld.hu	$r19,$r3,8(0x8)
1c003900:	6400ab2f 	bge	$r25,$r15,168(0xa8) # 1c0039a8 <matrix_test+0x1208>
1c003904:	02802a6d 	addi.w	$r13,$r19,10(0xa)
1c003908:	2980206d 	st.w	$r13,$r3,8(0x8)
1c00390c:	28402064 	ld.h	$r4,$r3,8(0x8)
1c003910:	0015000f 	move	$r15,$r0
1c003914:	02800c31 	addi.w	$r17,$r1,3(0x3)
1c003918:	02803210 	addi.w	$r16,$r16,12(0xc)
1c00391c:	6ffb6638 	bgeu	$r17,$r24,-1180(0x3fb64) # 1c003480 <matrix_test+0xce0>
1c003920:	28800212 	ld.w	$r18,$r16,0
1c003924:	29802064 	st.w	$r4,$r3,8(0x8)
1c003928:	2a402074 	ld.hu	$r20,$r3,8(0x8)
1c00392c:	001049ef 	add.w	$r15,$r15,$r18
1c003930:	67ff632f 	bge	$r25,$r15,-160(0x3ff60) # 1c003890 <matrix_test+0x10f0>
1c003934:	02802a84 	addi.w	$r4,$r20,10(0xa)
1c003938:	29802064 	st.w	$r4,$r3,8(0x8)
1c00393c:	2880120e 	ld.w	$r14,$r16,4(0x4)
1c003940:	28402069 	ld.h	$r9,$r3,8(0x8)
1c003944:	0015000f 	move	$r15,$r0
1c003948:	001039ed 	add.w	$r13,$r15,$r14
1c00394c:	29802069 	st.w	$r9,$r3,8(0x8)
1c003950:	02800621 	addi.w	$r1,$r17,1(0x1)
1c003954:	02801210 	addi.w	$r16,$r16,4(0x4)
1c003958:	2a402071 	ld.hu	$r17,$r3,8(0x8)
1c00395c:	63ff632d 	blt	$r25,$r13,-160(0x3ff60) # 1c0038bc <matrix_test+0x111c>
1c003960:	00123a4b 	slt	$r11,$r18,$r14
1c003964:	00102e28 	add.w	$r8,$r17,$r11
1c003968:	29802068 	st.w	$r8,$r3,8(0x8)
1c00396c:	28402066 	ld.h	$r6,$r3,8(0x8)
1c003970:	28801207 	ld.w	$r7,$r16,4(0x4)
1c003974:	29802066 	st.w	$r6,$r3,8(0x8)
1c003978:	00101db6 	add.w	$r22,$r13,$r7
1c00397c:	2a40207f 	ld.hu	$r31,$r3,8(0x8)
1c003980:	63ff6336 	blt	$r25,$r22,-160(0x3ff60) # 1c0038e0 <matrix_test+0x1140>
1c003984:	00121ddb 	slt	$r27,$r14,$r7
1c003988:	00106ff2 	add.w	$r18,$r31,$r27
1c00398c:	29802072 	st.w	$r18,$r3,8(0x8)
1c003990:	28402074 	ld.h	$r20,$r3,8(0x8)
1c003994:	28802209 	ld.w	$r9,$r16,8(0x8)
1c003998:	29802074 	st.w	$r20,$r3,8(0x8)
1c00399c:	001026cf 	add.w	$r15,$r22,$r9
1c0039a0:	2a402073 	ld.hu	$r19,$r3,8(0x8)
1c0039a4:	63ff632f 	blt	$r25,$r15,-160(0x3ff60) # 1c003904 <matrix_test+0x1164>
1c0039a8:	001224e4 	slt	$r4,$r7,$r9
1c0039ac:	0010126e 	add.w	$r14,$r19,$r4
1c0039b0:	2980206e 	st.w	$r14,$r3,8(0x8)
1c0039b4:	28402064 	ld.h	$r4,$r3,8(0x8)
1c0039b8:	53ff5fff 	b	-164(0xfffff5c) # 1c003914 <matrix_test+0x1174>
1c0039bc:	03400000 	andi	$r0,$r0,0x0
1c0039c0:	00121a47 	slt	$r7,$r18,$r6
1c0039c4:	00101d64 	add.w	$r4,$r11,$r7
1c0039c8:	29802064 	st.w	$r4,$r3,8(0x8)
1c0039cc:	28402064 	ld.h	$r4,$r3,8(0x8)
1c0039d0:	53f713ff 	b	-2288(0xffff710) # 1c0030e0 <matrix_test+0x940>
1c0039d4:	0012266b 	slt	$r11,$r19,$r9
1c0039d8:	00102f67 	add.w	$r7,$r27,$r11
1c0039dc:	29802067 	st.w	$r7,$r3,8(0x8)
1c0039e0:	28402064 	ld.h	$r4,$r3,8(0x8)
1c0039e4:	53f4abff 	b	-2904(0xffff4a8) # 1c002e8c <matrix_test+0x6ec>
1c0039e8:	001225d2 	slt	$r18,$r14,$r9
1c0039ec:	00104b74 	add.w	$r20,$r27,$r18
1c0039f0:	29802074 	st.w	$r20,$r3,8(0x8)
1c0039f4:	28402064 	ld.h	$r4,$r3,8(0x8)
1c0039f8:	53f9dfff 	b	-1572(0xffff9dc) # 1c0033d4 <matrix_test+0xc34>
1c0039fc:	03400000 	andi	$r0,$r0,0x0
1c003a00:	0012255f 	slt	$r31,$r10,$r9
1c003a04:	00107cf6 	add.w	$r22,$r7,$r31
1c003a08:	29802076 	st.w	$r22,$r3,8(0x8)
1c003a0c:	28402064 	ld.h	$r4,$r3,8(0x8)
1c003a10:	53fa67ff 	b	-1436(0xffffa64) # 1c003474 <matrix_test+0xcd4>
1c003a14:	00121acb 	slt	$r11,$r22,$r6
1c003a18:	00102f67 	add.w	$r7,$r27,$r11
1c003a1c:	29802067 	st.w	$r7,$r3,8(0x8)
1c003a20:	28402064 	ld.h	$r4,$r3,8(0x8)
1c003a24:	53f75fff 	b	-2212(0xffff75c) # 1c003180 <matrix_test+0x9e0>
1c003a28:	001226db 	slt	$r27,$r22,$r9
1c003a2c:	00106feb 	add.w	$r11,$r31,$r27
1c003a30:	2980206b 	st.w	$r11,$r3,8(0x8)
1c003a34:	28402064 	ld.h	$r4,$r3,8(0x8)
1c003a38:	53f4f7ff 	b	-2828(0xffff4f4) # 1c002f2c <matrix_test+0x78c>
1c003a3c:	03400000 	andi	$r0,$r0,0x0
1c003a40:	00121ad3 	slt	$r19,$r22,$r6
1c003a44:	00104e88 	add.w	$r8,$r20,$r19
1c003a48:	29802068 	st.w	$r8,$r3,8(0x8)
1c003a4c:	28402064 	ld.h	$r4,$r3,8(0x8)
1c003a50:	53f703ff 	b	-2304(0xffff700) # 1c003150 <matrix_test+0x9b0>
1c003a54:	00121ad4 	slt	$r20,$r22,$r6
1c003a58:	00105268 	add.w	$r8,$r19,$r20
1c003a5c:	29802068 	st.w	$r8,$r3,8(0x8)
1c003a60:	28402064 	ld.h	$r4,$r3,8(0x8)
1c003a64:	53f49bff 	b	-2920(0xffff498) # 1c002efc <matrix_test+0x75c>
1c003a68:	0012054b 	slt	$r11,$r10,$r1
1c003a6c:	00102da8 	add.w	$r8,$r13,$r11
1c003a70:	29802068 	st.w	$r8,$r3,8(0x8)
1c003a74:	28402064 	ld.h	$r4,$r3,8(0x8)
1c003a78:	53f9cfff 	b	-1588(0xffff9cc) # 1c003444 <matrix_test+0xca4>
1c003a7c:	03400000 	andi	$r0,$r0,0x0
1c003a80:	0012292e 	slt	$r14,$r9,$r10
1c003a84:	00103889 	add.w	$r9,$r4,$r14
1c003a88:	29802069 	st.w	$r9,$r3,8(0x8)
1c003a8c:	28402064 	ld.h	$r4,$r3,8(0x8)
1c003a90:	53f98bff 	b	-1656(0xffff988) # 1c003418 <matrix_test+0xc78>
1c003a94:	001258c5 	slt	$r5,$r6,$r22
1c003a98:	00101532 	add.w	$r18,$r9,$r5
1c003a9c:	29802072 	st.w	$r18,$r3,8(0x8)
1c003aa0:	28402064 	ld.h	$r4,$r3,8(0x8)
1c003aa4:	53f683ff 	b	-2432(0xffff680) # 1c003124 <matrix_test+0x984>
1c003aa8:	00125925 	slt	$r5,$r9,$r22
1c003aac:	001015ca 	add.w	$r10,$r14,$r5
1c003ab0:	2980206a 	st.w	$r10,$r3,8(0x8)
1c003ab4:	28402064 	ld.h	$r4,$r3,8(0x8)
1c003ab8:	53f41bff 	b	-3048(0xffff418) # 1c002ed0 <matrix_test+0x730>
1c003abc:	001503df 	move	$r31,$r30
1c003ac0:	53f49fff 	b	-2916(0xffff49c) # 1c002f5c <matrix_test+0x7bc>
1c003ac4:	00150005 	move	$r5,$r0
1c003ac8:	541cf800 	bl	7416(0x1cf8) # 1c0057c0 <crc16>
1c003acc:	00150085 	move	$r5,$r4
1c003ad0:	00150004 	move	$r4,$r0
1c003ad4:	541cec00 	bl	7404(0x1cec) # 1c0057c0 <crc16>
1c003ad8:	00150085 	move	$r5,$r4
1c003adc:	00150004 	move	$r4,$r0
1c003ae0:	541ce000 	bl	7392(0x1ce0) # 1c0057c0 <crc16>
1c003ae4:	00150085 	move	$r5,$r4
1c003ae8:	00150004 	move	$r4,$r0
1c003aec:	541cd400 	bl	7380(0x1cd4) # 1c0057c0 <crc16>
1c003af0:	28813061 	ld.w	$r1,$r3,76(0x4c)
1c003af4:	28812076 	ld.w	$r22,$r3,72(0x48)
1c003af8:	29802064 	st.w	$r4,$r3,8(0x8)
1c003afc:	28402064 	ld.h	$r4,$r3,8(0x8)
1c003b00:	28811077 	ld.w	$r23,$r3,68(0x44)
1c003b04:	28810078 	ld.w	$r24,$r3,64(0x40)
1c003b08:	2880f079 	ld.w	$r25,$r3,60(0x3c)
1c003b0c:	2880e07a 	ld.w	$r26,$r3,56(0x38)
1c003b10:	2880d07b 	ld.w	$r27,$r3,52(0x34)
1c003b14:	2880c07c 	ld.w	$r28,$r3,48(0x30)
1c003b18:	2880b07d 	ld.w	$r29,$r3,44(0x2c)
1c003b1c:	2880a07e 	ld.w	$r30,$r3,40(0x28)
1c003b20:	2880907f 	ld.w	$r31,$r3,36(0x24)
1c003b24:	02814063 	addi.w	$r3,$r3,80(0x50)
1c003b28:	4c000020 	jirl	$r0,$r1,0
1c003b2c:	03400000 	andi	$r0,$r0,0x0

1c003b30 <core_init_matrix>:
core_init_matrix():
1c003b30:	02bf0063 	addi.w	$r3,$r3,-64(0xfc0)
1c003b34:	2980f077 	st.w	$r23,$r3,60(0x3c)
1c003b38:	2980e078 	st.w	$r24,$r3,56(0x38)
1c003b3c:	2980d079 	st.w	$r25,$r3,52(0x34)
1c003b40:	2980c07a 	st.w	$r26,$r3,48(0x30)
1c003b44:	2980b07b 	st.w	$r27,$r3,44(0x2c)
1c003b48:	2980a07c 	st.w	$r28,$r3,40(0x28)
1c003b4c:	2980907d 	st.w	$r29,$r3,36(0x24)
1c003b50:	2980807e 	st.w	$r30,$r3,32(0x20)
1c003b54:	2980707f 	st.w	$r31,$r3,28(0x1c)
1c003b58:	5c0008c0 	bne	$r6,$r0,8(0x8) # 1c003b60 <core_init_matrix+0x30>
1c003b5c:	02800406 	addi.w	$r6,$r0,1(0x1)
1c003b60:	02bffcaa 	addi.w	$r10,$r5,-1(0xfff)
1c003b64:	02bff00c 	addi.w	$r12,$r0,-4(0xffc)
1c003b68:	0014b145 	and	$r5,$r10,$r12
1c003b6c:	028010b7 	addi.w	$r23,$r5,4(0x4)
1c003b70:	00150014 	move	$r20,$r0
1c003b74:	5803a080 	beq	$r4,$r0,928(0x3a0) # 1c003f14 <core_init_matrix+0x3e4>
1c003b78:	02800688 	addi.w	$r8,$r20,1(0x1)
1c003b7c:	001c210d 	mul.w	$r13,$r8,$r8
1c003b80:	02800d0f 	addi.w	$r15,$r8,3(0x3)
1c003b84:	02801113 	addi.w	$r19,$r8,4(0x4)
1c003b88:	02801510 	addi.w	$r16,$r8,5(0x5)
1c003b8c:	02801911 	addi.w	$r17,$r8,6(0x6)
1c003b90:	02801d12 	addi.w	$r18,$r8,7(0x7)
1c003b94:	00408dab 	slli.w	$r11,$r13,0x3
1c003b98:	6c00a564 	bgeu	$r11,$r4,164(0xa4) # 1c003c3c <core_init_matrix+0x10c>
1c003b9c:	0280050e 	addi.w	$r14,$r8,1(0x1)
1c003ba0:	001c39d9 	mul.w	$r25,$r14,$r14
1c003ba4:	00150114 	move	$r20,$r8
1c003ba8:	00408f3a 	slli.w	$r26,$r25,0x3
1c003bac:	6c009344 	bgeu	$r26,$r4,144(0x90) # 1c003c3c <core_init_matrix+0x10c>
1c003bb0:	028005db 	addi.w	$r27,$r14,1(0x1)
1c003bb4:	001c6f7c 	mul.w	$r28,$r27,$r27
1c003bb8:	001501d4 	move	$r20,$r14
1c003bbc:	00408f9d 	slli.w	$r29,$r28,0x3
1c003bc0:	6c007fa4 	bgeu	$r29,$r4,124(0x7c) # 1c003c3c <core_init_matrix+0x10c>
1c003bc4:	001c3dec 	mul.w	$r12,$r15,$r15
1c003bc8:	02800914 	addi.w	$r20,$r8,2(0x2)
1c003bcc:	00408d9f 	slli.w	$r31,$r12,0x3
1c003bd0:	6c006fe4 	bgeu	$r31,$r4,108(0x6c) # 1c003c3c <core_init_matrix+0x10c>
1c003bd4:	001c4e65 	mul.w	$r5,$r19,$r19
1c003bd8:	001501f4 	move	$r20,$r15
1c003bdc:	00408caa 	slli.w	$r10,$r5,0x3
1c003be0:	6c005d44 	bgeu	$r10,$r4,92(0x5c) # 1c003c3c <core_init_matrix+0x10c>
1c003be4:	001c4218 	mul.w	$r24,$r16,$r16
1c003be8:	00150274 	move	$r20,$r19
1c003bec:	00408f09 	slli.w	$r9,$r24,0x3
1c003bf0:	6c004d24 	bgeu	$r9,$r4,76(0x4c) # 1c003c3c <core_init_matrix+0x10c>
1c003bf4:	001c4628 	mul.w	$r8,$r17,$r17
1c003bf8:	00150214 	move	$r20,$r16
1c003bfc:	00408d0f 	slli.w	$r15,$r8,0x3
1c003c00:	6c003de4 	bgeu	$r15,$r4,60(0x3c) # 1c003c3c <core_init_matrix+0x10c>
1c003c04:	001c4a4d 	mul.w	$r13,$r18,$r18
1c003c08:	00150234 	move	$r20,$r17
1c003c0c:	00408db3 	slli.w	$r19,$r13,0x3
1c003c10:	6c002e64 	bgeu	$r19,$r4,44(0x2c) # 1c003c3c <core_init_matrix+0x10c>
1c003c14:	00150254 	move	$r20,$r18
1c003c18:	02800688 	addi.w	$r8,$r20,1(0x1)
1c003c1c:	001c210d 	mul.w	$r13,$r8,$r8
1c003c20:	02800d0f 	addi.w	$r15,$r8,3(0x3)
1c003c24:	02801113 	addi.w	$r19,$r8,4(0x4)
1c003c28:	02801510 	addi.w	$r16,$r8,5(0x5)
1c003c2c:	02801911 	addi.w	$r17,$r8,6(0x6)
1c003c30:	02801d12 	addi.w	$r18,$r8,7(0x7)
1c003c34:	00408dab 	slli.w	$r11,$r13,0x3
1c003c38:	6bff6564 	bltu	$r11,$r4,-156(0x3ff64) # 1c003b9c <core_init_matrix+0x6c>
1c003c3c:	001c5284 	mul.w	$r4,$r20,$r20
1c003c40:	00150298 	move	$r24,$r20
1c003c44:	00408489 	slli.w	$r9,$r4,0x1
1c003c48:	001026ea 	add.w	$r10,$r23,$r9
1c003c4c:	58027680 	beq	$r20,$r0,628(0x274) # 1c003ec0 <core_init_matrix+0x390>
1c003c50:	0040868b 	slli.w	$r11,$r20,0x1
1c003c54:	00150144 	move	$r4,$r10
1c003c58:	00150008 	move	$r8,$r0
1c003c5c:	0280040d 	addi.w	$r13,$r0,1(0x1)
1c003c60:	00112af3 	sub.w	$r19,$r23,$r10
1c003c64:	14000212 	lu12i.w	$r18,16(0x10)
1c003c68:	001c34d0 	mul.w	$r16,$r6,$r13
1c003c6c:	2980306d 	st.w	$r13,$r3,12(0xc)
1c003c70:	2a40306e 	ld.hu	$r14,$r3,12(0xc)
1c003c74:	02bffe86 	addi.w	$r6,$r20,-1(0xfff)
1c003c78:	03400cda 	andi	$r26,$r6,0x3
1c003c7c:	00101279 	add.w	$r25,$r19,$r4
1c003c80:	02800411 	addi.w	$r17,$r0,1(0x1)
1c003c84:	0280088c 	addi.w	$r12,$r4,2(0x2)
1c003c88:	028005ad 	addi.w	$r13,$r13,1(0x1)
1c003c8c:	0020ca06 	mod.w	$r6,$r16,$r18
1c003c90:	5c000a40 	bne	$r18,$r0,8(0x8) # 1c003c98 <core_init_matrix+0x168>
1c003c94:	002a0007 	break	0x7
1c003c98:	001019db 	add.w	$r27,$r14,$r6
1c003c9c:	2980307b 	st.w	$r27,$r3,12(0xc)
1c003ca0:	2a40307c 	ld.hu	$r28,$r3,12(0xc)
1c003ca4:	00103b9d 	add.w	$r29,$r28,$r14
1c003ca8:	2980307d 	st.w	$r29,$r3,12(0xc)
1c003cac:	2a00307e 	ld.bu	$r30,$r3,12(0xc)
1c003cb0:	2940009c 	st.h	$r28,$r4,0
1c003cb4:	2940033e 	st.h	$r30,$r25,0
1c003cb8:	6c01fe34 	bgeu	$r17,$r20,508(0x1fc) # 1c003eb4 <core_init_matrix+0x384>
1c003cbc:	5800ef40 	beq	$r26,$r0,236(0xec) # 1c003da8 <core_init_matrix+0x278>
1c003cc0:	58009f51 	beq	$r26,$r17,156(0x9c) # 1c003d5c <core_init_matrix+0x22c>
1c003cc4:	02800805 	addi.w	$r5,$r0,2(0x2)
1c003cc8:	58004f45 	beq	$r26,$r5,76(0x4c) # 1c003d14 <core_init_matrix+0x1e4>
1c003ccc:	001c34cf 	mul.w	$r15,$r6,$r13
1c003cd0:	2980306d 	st.w	$r13,$r3,12(0xc)
1c003cd4:	2a403079 	ld.hu	$r25,$r3,12(0xc)
1c003cd8:	00103270 	add.w	$r16,$r19,$r12
1c003cdc:	02800811 	addi.w	$r17,$r0,2(0x2)
1c003ce0:	028005ad 	addi.w	$r13,$r13,1(0x1)
1c003ce4:	0020c9e6 	mod.w	$r6,$r15,$r18
1c003ce8:	5c000a40 	bne	$r18,$r0,8(0x8) # 1c003cf0 <core_init_matrix+0x1c0>
1c003cec:	002a0007 	break	0x7
1c003cf0:	00101b3a 	add.w	$r26,$r25,$r6
1c003cf4:	2980307a 	st.w	$r26,$r3,12(0xc)
1c003cf8:	2a40307b 	ld.hu	$r27,$r3,12(0xc)
1c003cfc:	0010676e 	add.w	$r14,$r27,$r25
1c003d00:	2980306e 	st.w	$r14,$r3,12(0xc)
1c003d04:	2a00307c 	ld.bu	$r28,$r3,12(0xc)
1c003d08:	2940019b 	st.h	$r27,$r12,0
1c003d0c:	0280108c 	addi.w	$r12,$r4,4(0x4)
1c003d10:	2940021c 	st.h	$r28,$r16,0
1c003d14:	001c34dd 	mul.w	$r29,$r6,$r13
1c003d18:	2980306d 	st.w	$r13,$r3,12(0xc)
1c003d1c:	2a40307f 	ld.hu	$r31,$r3,12(0xc)
1c003d20:	0010327e 	add.w	$r30,$r19,$r12
1c003d24:	02800631 	addi.w	$r17,$r17,1(0x1)
1c003d28:	028005ad 	addi.w	$r13,$r13,1(0x1)
1c003d2c:	0280098c 	addi.w	$r12,$r12,2(0x2)
1c003d30:	0020cba6 	mod.w	$r6,$r29,$r18
1c003d34:	5c000a40 	bne	$r18,$r0,8(0x8) # 1c003d3c <core_init_matrix+0x20c>
1c003d38:	002a0007 	break	0x7
1c003d3c:	00101be5 	add.w	$r5,$r31,$r6
1c003d40:	29803065 	st.w	$r5,$r3,12(0xc)
1c003d44:	2a40306f 	ld.hu	$r15,$r3,12(0xc)
1c003d48:	00107df0 	add.w	$r16,$r15,$r31
1c003d4c:	29803070 	st.w	$r16,$r3,12(0xc)
1c003d50:	2a003079 	ld.bu	$r25,$r3,12(0xc)
1c003d54:	297ff98f 	st.h	$r15,$r12,-2(0xffe)
1c003d58:	294003d9 	st.h	$r25,$r30,0
1c003d5c:	001c34da 	mul.w	$r26,$r6,$r13
1c003d60:	2980306d 	st.w	$r13,$r3,12(0xc)
1c003d64:	2a40306e 	ld.hu	$r14,$r3,12(0xc)
1c003d68:	0010327b 	add.w	$r27,$r19,$r12
1c003d6c:	0280098c 	addi.w	$r12,$r12,2(0x2)
1c003d70:	02800631 	addi.w	$r17,$r17,1(0x1)
1c003d74:	028005ad 	addi.w	$r13,$r13,1(0x1)
1c003d78:	0020cb46 	mod.w	$r6,$r26,$r18
1c003d7c:	5c000a40 	bne	$r18,$r0,8(0x8) # 1c003d84 <core_init_matrix+0x254>
1c003d80:	002a0007 	break	0x7
1c003d84:	001019dc 	add.w	$r28,$r14,$r6
1c003d88:	2980307c 	st.w	$r28,$r3,12(0xc)
1c003d8c:	2a40307d 	ld.hu	$r29,$r3,12(0xc)
1c003d90:	00103bbe 	add.w	$r30,$r29,$r14
1c003d94:	2980307e 	st.w	$r30,$r3,12(0xc)
1c003d98:	2a00307f 	ld.bu	$r31,$r3,12(0xc)
1c003d9c:	297ff99d 	st.h	$r29,$r12,-2(0xffe)
1c003da0:	2940037f 	st.h	$r31,$r27,0
1c003da4:	6c011234 	bgeu	$r17,$r20,272(0x110) # 1c003eb4 <core_init_matrix+0x384>
1c003da8:	001c34ce 	mul.w	$r14,$r6,$r13
1c003dac:	028005be 	addi.w	$r30,$r13,1(0x1)
1c003db0:	2980307e 	st.w	$r30,$r3,12(0xc)
1c003db4:	028009bc 	addi.w	$r28,$r13,2(0x2)
1c003db8:	2a403066 	ld.hu	$r6,$r3,12(0xc)
1c003dbc:	02800dba 	addi.w	$r26,$r13,3(0x3)
1c003dc0:	2980307c 	st.w	$r28,$r3,12(0xc)
1c003dc4:	2a403070 	ld.hu	$r16,$r3,12(0xc)
1c003dc8:	2980307a 	st.w	$r26,$r3,12(0xc)
1c003dcc:	2a40306f 	ld.hu	$r15,$r3,12(0xc)
1c003dd0:	2980306d 	st.w	$r13,$r3,12(0xc)
1c003dd4:	0010327f 	add.w	$r31,$r19,$r12
1c003dd8:	0280218c 	addi.w	$r12,$r12,8(0x8)
1c003ddc:	001503fb 	move	$r27,$r31
1c003de0:	001503f9 	move	$r25,$r31
1c003de4:	001503e5 	move	$r5,$r31
1c003de8:	02801231 	addi.w	$r17,$r17,4(0x4)
1c003dec:	028011ad 	addi.w	$r13,$r13,4(0x4)
1c003df0:	0020c9dd 	mod.w	$r29,$r14,$r18
1c003df4:	5c000a40 	bne	$r18,$r0,8(0x8) # 1c003dfc <core_init_matrix+0x2cc>
1c003df8:	002a0007 	break	0x7
1c003dfc:	001c7bbe 	mul.w	$r30,$r29,$r30
1c003e00:	2a40306e 	ld.hu	$r14,$r3,12(0xc)
1c003e04:	001075dd 	add.w	$r29,$r14,$r29
1c003e08:	2980307d 	st.w	$r29,$r3,12(0xc)
1c003e0c:	2a40307d 	ld.hu	$r29,$r3,12(0xc)
1c003e10:	00103bae 	add.w	$r14,$r29,$r14
1c003e14:	2980306e 	st.w	$r14,$r3,12(0xc)
1c003e18:	2a00306e 	ld.bu	$r14,$r3,12(0xc)
1c003e1c:	297fe19d 	st.h	$r29,$r12,-8(0xff8)
1c003e20:	294003ee 	st.h	$r14,$r31,0
1c003e24:	0020cbdf 	mod.w	$r31,$r30,$r18
1c003e28:	5c000a40 	bne	$r18,$r0,8(0x8) # 1c003e30 <core_init_matrix+0x300>
1c003e2c:	002a0007 	break	0x7
1c003e30:	001c73fc 	mul.w	$r28,$r31,$r28
1c003e34:	00107cde 	add.w	$r30,$r6,$r31
1c003e38:	2980307e 	st.w	$r30,$r3,12(0xc)
1c003e3c:	2a40307d 	ld.hu	$r29,$r3,12(0xc)
1c003e40:	00101ba6 	add.w	$r6,$r29,$r6
1c003e44:	29803066 	st.w	$r6,$r3,12(0xc)
1c003e48:	2a00306e 	ld.bu	$r14,$r3,12(0xc)
1c003e4c:	297fe99d 	st.h	$r29,$r12,-6(0xffa)
1c003e50:	29400b6e 	st.h	$r14,$r27,2(0x2)
1c003e54:	0020cb9b 	mod.w	$r27,$r28,$r18
1c003e58:	5c000a40 	bne	$r18,$r0,8(0x8) # 1c003e60 <core_init_matrix+0x330>
1c003e5c:	002a0007 	break	0x7
1c003e60:	001c6b7a 	mul.w	$r26,$r27,$r26
1c003e64:	00106e1f 	add.w	$r31,$r16,$r27
1c003e68:	2980307f 	st.w	$r31,$r3,12(0xc)
1c003e6c:	2a40307c 	ld.hu	$r28,$r3,12(0xc)
1c003e70:	00104390 	add.w	$r16,$r28,$r16
1c003e74:	29803070 	st.w	$r16,$r3,12(0xc)
1c003e78:	2a00307e 	ld.bu	$r30,$r3,12(0xc)
1c003e7c:	297ff19c 	st.h	$r28,$r12,-4(0xffc)
1c003e80:	2940133e 	st.h	$r30,$r25,4(0x4)
1c003e84:	0020cb46 	mod.w	$r6,$r26,$r18
1c003e88:	5c000a40 	bne	$r18,$r0,8(0x8) # 1c003e90 <core_init_matrix+0x360>
1c003e8c:	002a0007 	break	0x7
1c003e90:	001019f9 	add.w	$r25,$r15,$r6
1c003e94:	29803079 	st.w	$r25,$r3,12(0xc)
1c003e98:	2a40307d 	ld.hu	$r29,$r3,12(0xc)
1c003e9c:	00103faf 	add.w	$r15,$r29,$r15
1c003ea0:	2980306f 	st.w	$r15,$r3,12(0xc)
1c003ea4:	2a00306e 	ld.bu	$r14,$r3,12(0xc)
1c003ea8:	297ff99d 	st.h	$r29,$r12,-2(0xffe)
1c003eac:	294018ae 	st.h	$r14,$r5,6(0x6)
1c003eb0:	6bfefa34 	bltu	$r17,$r20,-264(0x3fef8) # 1c003da8 <core_init_matrix+0x278>
1c003eb4:	02800508 	addi.w	$r8,$r8,1(0x1)
1c003eb8:	00102c84 	add.w	$r4,$r4,$r11
1c003ebc:	6bfdad14 	bltu	$r8,$r20,-596(0x3fdac) # 1c003c68 <core_init_matrix+0x138>
1c003ec0:	00102549 	add.w	$r9,$r10,$r9
1c003ec4:	02bff004 	addi.w	$r4,$r0,-4(0xffc)
1c003ec8:	02bffd2b 	addi.w	$r11,$r9,-1(0xfff)
1c003ecc:	00149168 	and	$r8,$r11,$r4
1c003ed0:	02801113 	addi.w	$r19,$r8,4(0x4)
1c003ed4:	298010f7 	st.w	$r23,$r7,4(0x4)
1c003ed8:	298020ea 	st.w	$r10,$r7,8(0x8)
1c003edc:	298000f8 	st.w	$r24,$r7,0
1c003ee0:	298030f3 	st.w	$r19,$r7,12(0xc)
1c003ee4:	2880f077 	ld.w	$r23,$r3,60(0x3c)
1c003ee8:	2880e078 	ld.w	$r24,$r3,56(0x38)
1c003eec:	2880d079 	ld.w	$r25,$r3,52(0x34)
1c003ef0:	2880c07a 	ld.w	$r26,$r3,48(0x30)
1c003ef4:	2880b07b 	ld.w	$r27,$r3,44(0x2c)
1c003ef8:	2880a07c 	ld.w	$r28,$r3,40(0x28)
1c003efc:	2880907d 	ld.w	$r29,$r3,36(0x24)
1c003f00:	2880807e 	ld.w	$r30,$r3,32(0x20)
1c003f04:	2880707f 	ld.w	$r31,$r3,28(0x1c)
1c003f08:	00150284 	move	$r4,$r20
1c003f0c:	02810063 	addi.w	$r3,$r3,64(0x40)
1c003f10:	4c000020 	jirl	$r0,$r1,0
1c003f14:	028018aa 	addi.w	$r10,$r5,6(0x6)
1c003f18:	02bffc18 	addi.w	$r24,$r0,-1(0xfff)
1c003f1c:	02bffc14 	addi.w	$r20,$r0,-1(0xfff)
1c003f20:	02800809 	addi.w	$r9,$r0,2(0x2)
1c003f24:	53fd2fff 	b	-724(0xffffd2c) # 1c003c50 <core_init_matrix+0x120>
1c003f28:	03400000 	andi	$r0,$r0,0x0
1c003f2c:	03400000 	andi	$r0,$r0,0x0

1c003f30 <matrix_sum>:
matrix_sum():
1c003f30:	58026480 	beq	$r4,$r0,612(0x264) # 1c004194 <matrix_sum+0x264>
1c003f34:	02bff011 	addi.w	$r17,$r0,-4(0xffc)
1c003f38:	02bfe012 	addi.w	$r18,$r0,-8(0xff8)
1c003f3c:	001c4491 	mul.w	$r17,$r4,$r17
1c003f40:	0040888e 	slli.w	$r14,$r4,0x2
1c003f44:	02bfc063 	addi.w	$r3,$r3,-16(0xff0)
1c003f48:	001038ae 	add.w	$r14,$r5,$r14
1c003f4c:	00150010 	move	$r16,$r0
1c003f50:	0015000c 	move	$r12,$r0
1c003f54:	00150007 	move	$r7,$r0
1c003f58:	00150014 	move	$r20,$r0
1c003f5c:	001c4892 	mul.w	$r18,$r4,$r18
1c003f60:	00103a2f 	add.w	$r15,$r17,$r14
1c003f64:	00113dc5 	sub.w	$r5,$r14,$r15
1c003f68:	02bff0a8 	addi.w	$r8,$r5,-4(0xffc)
1c003f6c:	00448909 	srli.w	$r9,$r8,0x2
1c003f70:	0280052a 	addi.w	$r10,$r9,1(0x1)
1c003f74:	03400d4b 	andi	$r11,$r10,0x3
1c003f78:	001501f3 	move	$r19,$r15
1c003f7c:	58014160 	beq	$r11,$r0,320(0x140) # 1c0040bc <matrix_sum+0x18c>
1c003f80:	0280040d 	addi.w	$r13,$r0,1(0x1)
1c003f84:	5800656d 	beq	$r11,$r13,100(0x64) # 1c003fe8 <matrix_sum+0xb8>
1c003f88:	02800805 	addi.w	$r5,$r0,2(0x2)
1c003f8c:	58003165 	beq	$r11,$r5,48(0x30) # 1c003fbc <matrix_sum+0x8c>
1c003f90:	288001e8 	ld.w	$r8,$r15,0
1c003f94:	2980306c 	st.w	$r12,$r3,12(0xc)
1c003f98:	2a403073 	ld.hu	$r19,$r3,12(0xc)
1c003f9c:	00102294 	add.w	$r20,$r20,$r8
1c003fa0:	6401e0d4 	bge	$r6,$r20,480(0x1e0) # 1c004180 <matrix_sum+0x250>
1c003fa4:	02802a74 	addi.w	$r20,$r19,10(0xa)
1c003fa8:	29803074 	st.w	$r20,$r3,12(0xc)
1c003fac:	2840306c 	ld.h	$r12,$r3,12(0xc)
1c003fb0:	00150014 	move	$r20,$r0
1c003fb4:	028011f3 	addi.w	$r19,$r15,4(0x4)
1c003fb8:	00150107 	move	$r7,$r8
1c003fbc:	28800269 	ld.w	$r9,$r19,0
1c003fc0:	2980306c 	st.w	$r12,$r3,12(0xc)
1c003fc4:	2a40306a 	ld.hu	$r10,$r3,12(0xc)
1c003fc8:	00102694 	add.w	$r20,$r20,$r9
1c003fcc:	64019cd4 	bge	$r6,$r20,412(0x19c) # 1c004168 <matrix_sum+0x238>
1c003fd0:	02802945 	addi.w	$r5,$r10,10(0xa)
1c003fd4:	29803065 	st.w	$r5,$r3,12(0xc)
1c003fd8:	2840306c 	ld.h	$r12,$r3,12(0xc)
1c003fdc:	00150014 	move	$r20,$r0
1c003fe0:	02801273 	addi.w	$r19,$r19,4(0x4)
1c003fe4:	00150127 	move	$r7,$r9
1c003fe8:	28800268 	ld.w	$r8,$r19,0
1c003fec:	2980306c 	st.w	$r12,$r3,12(0xc)
1c003ff0:	2a40306c 	ld.hu	$r12,$r3,12(0xc)
1c003ff4:	00102294 	add.w	$r20,$r20,$r8
1c003ff8:	64015cd4 	bge	$r6,$r20,348(0x15c) # 1c004154 <matrix_sum+0x224>
1c003ffc:	02802994 	addi.w	$r20,$r12,10(0xa)
1c004000:	29803074 	st.w	$r20,$r3,12(0xc)
1c004004:	2840306c 	ld.h	$r12,$r3,12(0xc)
1c004008:	00150014 	move	$r20,$r0
1c00400c:	02801273 	addi.w	$r19,$r19,4(0x4)
1c004010:	00150107 	move	$r7,$r8
1c004014:	5c00a9d3 	bne	$r14,$r19,168(0xa8) # 1c0040bc <matrix_sum+0x18c>
1c004018:	02800610 	addi.w	$r16,$r16,1(0x1)
1c00401c:	001149ee 	sub.w	$r14,$r15,$r18
1c004020:	5fff4090 	bne	$r4,$r16,-192(0x3ff40) # 1c003f60 <matrix_sum+0x30>
1c004024:	00150184 	move	$r4,$r12
1c004028:	02804063 	addi.w	$r3,$r3,16(0x10)
1c00402c:	4c000020 	jirl	$r0,$r1,0
1c004030:	001228ed 	slt	$r13,$r7,$r10
1c004034:	00103565 	add.w	$r5,$r11,$r13
1c004038:	29803065 	st.w	$r5,$r3,12(0xc)
1c00403c:	28801267 	ld.w	$r7,$r19,4(0x4)
1c004040:	2840306c 	ld.h	$r12,$r3,12(0xc)
1c004044:	02801273 	addi.w	$r19,$r19,4(0x4)
1c004048:	00101d34 	add.w	$r20,$r9,$r7
1c00404c:	2980306c 	st.w	$r12,$r3,12(0xc)
1c004050:	2a40306b 	ld.hu	$r11,$r3,12(0xc)
1c004054:	6400a4d4 	bge	$r6,$r20,164(0xa4) # 1c0040f8 <matrix_sum+0x1c8>
1c004058:	02802965 	addi.w	$r5,$r11,10(0xa)
1c00405c:	29803065 	st.w	$r5,$r3,12(0xc)
1c004060:	28403068 	ld.h	$r8,$r3,12(0xc)
1c004064:	28801269 	ld.w	$r9,$r19,4(0x4)
1c004068:	00150014 	move	$r20,$r0
1c00406c:	29803068 	st.w	$r8,$r3,12(0xc)
1c004070:	0010268b 	add.w	$r11,$r20,$r9
1c004074:	2a40306c 	ld.hu	$r12,$r3,12(0xc)
1c004078:	6400a4cb 	bge	$r6,$r11,164(0xa4) # 1c00411c <matrix_sum+0x1ec>
1c00407c:	0280298d 	addi.w	$r13,$r12,10(0xa)
1c004080:	2980306d 	st.w	$r13,$r3,12(0xc)
1c004084:	2840306a 	ld.h	$r10,$r3,12(0xc)
1c004088:	28802268 	ld.w	$r8,$r19,8(0x8)
1c00408c:	0015000b 	move	$r11,$r0
1c004090:	2980306a 	st.w	$r10,$r3,12(0xc)
1c004094:	00102174 	add.w	$r20,$r11,$r8
1c004098:	2a40306c 	ld.hu	$r12,$r3,12(0xc)
1c00409c:	6400a4d4 	bge	$r6,$r20,164(0xa4) # 1c004140 <matrix_sum+0x210>
1c0040a0:	0280298b 	addi.w	$r11,$r12,10(0xa)
1c0040a4:	2980306b 	st.w	$r11,$r3,12(0xc)
1c0040a8:	2840306c 	ld.h	$r12,$r3,12(0xc)
1c0040ac:	00150014 	move	$r20,$r0
1c0040b0:	02803273 	addi.w	$r19,$r19,12(0xc)
1c0040b4:	00150107 	move	$r7,$r8
1c0040b8:	5bff61d3 	beq	$r14,$r19,-160(0x3ff60) # 1c004018 <matrix_sum+0xe8>
1c0040bc:	2880026a 	ld.w	$r10,$r19,0
1c0040c0:	2980306c 	st.w	$r12,$r3,12(0xc)
1c0040c4:	2a40306b 	ld.hu	$r11,$r3,12(0xc)
1c0040c8:	00102a89 	add.w	$r9,$r20,$r10
1c0040cc:	67ff64c9 	bge	$r6,$r9,-156(0x3ff64) # 1c004030 <matrix_sum+0x100>
1c0040d0:	02802968 	addi.w	$r8,$r11,10(0xa)
1c0040d4:	29803068 	st.w	$r8,$r3,12(0xc)
1c0040d8:	28801267 	ld.w	$r7,$r19,4(0x4)
1c0040dc:	2840306c 	ld.h	$r12,$r3,12(0xc)
1c0040e0:	00150009 	move	$r9,$r0
1c0040e4:	00101d34 	add.w	$r20,$r9,$r7
1c0040e8:	2980306c 	st.w	$r12,$r3,12(0xc)
1c0040ec:	02801273 	addi.w	$r19,$r19,4(0x4)
1c0040f0:	2a40306b 	ld.hu	$r11,$r3,12(0xc)
1c0040f4:	63ff64d4 	blt	$r6,$r20,-156(0x3ff64) # 1c004058 <matrix_sum+0x128>
1c0040f8:	00121d4a 	slt	$r10,$r10,$r7
1c0040fc:	0010296d 	add.w	$r13,$r11,$r10
1c004100:	2980306d 	st.w	$r13,$r3,12(0xc)
1c004104:	28403068 	ld.h	$r8,$r3,12(0xc)
1c004108:	28801269 	ld.w	$r9,$r19,4(0x4)
1c00410c:	29803068 	st.w	$r8,$r3,12(0xc)
1c004110:	0010268b 	add.w	$r11,$r20,$r9
1c004114:	2a40306c 	ld.hu	$r12,$r3,12(0xc)
1c004118:	63ff64cb 	blt	$r6,$r11,-156(0x3ff64) # 1c00407c <matrix_sum+0x14c>
1c00411c:	001224e7 	slt	$r7,$r7,$r9
1c004120:	00101d94 	add.w	$r20,$r12,$r7
1c004124:	29803074 	st.w	$r20,$r3,12(0xc)
1c004128:	2840306a 	ld.h	$r10,$r3,12(0xc)
1c00412c:	28802268 	ld.w	$r8,$r19,8(0x8)
1c004130:	2980306a 	st.w	$r10,$r3,12(0xc)
1c004134:	00102174 	add.w	$r20,$r11,$r8
1c004138:	2a40306c 	ld.hu	$r12,$r3,12(0xc)
1c00413c:	63ff64d4 	blt	$r6,$r20,-156(0x3ff64) # 1c0040a0 <matrix_sum+0x170>
1c004140:	00122125 	slt	$r5,$r9,$r8
1c004144:	00101589 	add.w	$r9,$r12,$r5
1c004148:	29803069 	st.w	$r9,$r3,12(0xc)
1c00414c:	2840306c 	ld.h	$r12,$r3,12(0xc)
1c004150:	53ff63ff 	b	-160(0xfffff60) # 1c0040b0 <matrix_sum+0x180>
1c004154:	001220e7 	slt	$r7,$r7,$r8
1c004158:	00101d89 	add.w	$r9,$r12,$r7
1c00415c:	29803069 	st.w	$r9,$r3,12(0xc)
1c004160:	2840306c 	ld.h	$r12,$r3,12(0xc)
1c004164:	53feabff 	b	-344(0xffffea8) # 1c00400c <matrix_sum+0xdc>
1c004168:	001224eb 	slt	$r11,$r7,$r9
1c00416c:	00102d4d 	add.w	$r13,$r10,$r11
1c004170:	2980306d 	st.w	$r13,$r3,12(0xc)
1c004174:	2840306c 	ld.h	$r12,$r3,12(0xc)
1c004178:	53fe6bff 	b	-408(0xffffe68) # 1c003fe0 <matrix_sum+0xb0>
1c00417c:	03400000 	andi	$r0,$r0,0x0
1c004180:	001220ec 	slt	$r12,$r7,$r8
1c004184:	00103267 	add.w	$r7,$r19,$r12
1c004188:	29803067 	st.w	$r7,$r3,12(0xc)
1c00418c:	2840306c 	ld.h	$r12,$r3,12(0xc)
1c004190:	53fe27ff 	b	-476(0xffffe24) # 1c003fb4 <matrix_sum+0x84>
1c004194:	00150004 	move	$r4,$r0
1c004198:	4c000020 	jirl	$r0,$r1,0
1c00419c:	03400000 	andi	$r0,$r0,0x0

1c0041a0 <matrix_mul_const>:
matrix_mul_const():
1c0041a0:	58029080 	beq	$r4,$r0,656(0x290) # 1c004430 <matrix_mul_const+0x290>
1c0041a4:	02bff809 	addi.w	$r9,$r0,-2(0xffe)
1c0041a8:	02bff00a 	addi.w	$r10,$r0,-4(0xffc)
1c0041ac:	001c2489 	mul.w	$r9,$r4,$r9
1c0041b0:	0040848f 	slli.w	$r15,$r4,0x1
1c0041b4:	0040888b 	slli.w	$r11,$r4,0x2
1c0041b8:	00103ccf 	add.w	$r15,$r6,$r15
1c0041bc:	00150008 	move	$r8,$r0
1c0041c0:	001c288a 	mul.w	$r10,$r4,$r10
1c0041c4:	001025f0 	add.w	$r16,$r15,$r9
1c0041c8:	001141ee 	sub.w	$r14,$r15,$r16
1c0041cc:	02bff9c6 	addi.w	$r6,$r14,-2(0xffe)
1c0041d0:	004484cc 	srli.w	$r12,$r6,0x1
1c0041d4:	0280058d 	addi.w	$r13,$r12,1(0x1)
1c0041d8:	03401db2 	andi	$r18,$r13,0x7
1c0041dc:	0015020c 	move	$r12,$r16
1c0041e0:	001500ad 	move	$r13,$r5
1c0041e4:	5800c640 	beq	$r18,$r0,196(0xc4) # 1c0042a8 <matrix_mul_const+0x108>
1c0041e8:	02800411 	addi.w	$r17,$r0,1(0x1)
1c0041ec:	5800a651 	beq	$r18,$r17,164(0xa4) # 1c004290 <matrix_mul_const+0xf0>
1c0041f0:	02800813 	addi.w	$r19,$r0,2(0x2)
1c0041f4:	58008a53 	beq	$r18,$r19,136(0x88) # 1c00427c <matrix_mul_const+0xdc>
1c0041f8:	02800c14 	addi.w	$r20,$r0,3(0x3)
1c0041fc:	58006e54 	beq	$r18,$r20,108(0x6c) # 1c004268 <matrix_mul_const+0xc8>
1c004200:	0280100e 	addi.w	$r14,$r0,4(0x4)
1c004204:	5800524e 	beq	$r18,$r14,80(0x50) # 1c004254 <matrix_mul_const+0xb4>
1c004208:	02801406 	addi.w	$r6,$r0,5(0x5)
1c00420c:	58003646 	beq	$r18,$r6,52(0x34) # 1c004240 <matrix_mul_const+0xa0>
1c004210:	02801811 	addi.w	$r17,$r0,6(0x6)
1c004214:	58001a51 	beq	$r18,$r17,24(0x18) # 1c00422c <matrix_mul_const+0x8c>
1c004218:	28400212 	ld.h	$r18,$r16,0
1c00421c:	02800a0c 	addi.w	$r12,$r16,2(0x2)
1c004220:	028010ad 	addi.w	$r13,$r5,4(0x4)
1c004224:	001c1e53 	mul.w	$r19,$r18,$r7
1c004228:	298000b3 	st.w	$r19,$r5,0
1c00422c:	28400194 	ld.h	$r20,$r12,0
1c004230:	028011ad 	addi.w	$r13,$r13,4(0x4)
1c004234:	0280098c 	addi.w	$r12,$r12,2(0x2)
1c004238:	001c1e8e 	mul.w	$r14,$r20,$r7
1c00423c:	29bff1ae 	st.w	$r14,$r13,-4(0xffc)
1c004240:	28400186 	ld.h	$r6,$r12,0
1c004244:	028011ad 	addi.w	$r13,$r13,4(0x4)
1c004248:	0280098c 	addi.w	$r12,$r12,2(0x2)
1c00424c:	001c1cd1 	mul.w	$r17,$r6,$r7
1c004250:	29bff1b1 	st.w	$r17,$r13,-4(0xffc)
1c004254:	28400192 	ld.h	$r18,$r12,0
1c004258:	028011ad 	addi.w	$r13,$r13,4(0x4)
1c00425c:	0280098c 	addi.w	$r12,$r12,2(0x2)
1c004260:	001c1e53 	mul.w	$r19,$r18,$r7
1c004264:	29bff1b3 	st.w	$r19,$r13,-4(0xffc)
1c004268:	28400194 	ld.h	$r20,$r12,0
1c00426c:	028011ad 	addi.w	$r13,$r13,4(0x4)
1c004270:	0280098c 	addi.w	$r12,$r12,2(0x2)
1c004274:	001c1e8e 	mul.w	$r14,$r20,$r7
1c004278:	29bff1ae 	st.w	$r14,$r13,-4(0xffc)
1c00427c:	28400186 	ld.h	$r6,$r12,0
1c004280:	028011ad 	addi.w	$r13,$r13,4(0x4)
1c004284:	0280098c 	addi.w	$r12,$r12,2(0x2)
1c004288:	001c1cd1 	mul.w	$r17,$r6,$r7
1c00428c:	29bff1b1 	st.w	$r17,$r13,-4(0xffc)
1c004290:	28400192 	ld.h	$r18,$r12,0
1c004294:	028011ad 	addi.w	$r13,$r13,4(0x4)
1c004298:	0280098c 	addi.w	$r12,$r12,2(0x2)
1c00429c:	001c1e53 	mul.w	$r19,$r18,$r7
1c0042a0:	29bff1b3 	st.w	$r19,$r13,-4(0xffc)
1c0042a4:	58017dec 	beq	$r15,$r12,380(0x17c) # 1c004420 <matrix_mul_const+0x280>
1c0042a8:	02bfc063 	addi.w	$r3,$r3,-16(0xff0)
1c0042ac:	29803077 	st.w	$r23,$r3,12(0xc)
1c0042b0:	29802078 	st.w	$r24,$r3,8(0x8)
1c0042b4:	28400198 	ld.h	$r24,$r12,0
1c0042b8:	28400997 	ld.h	$r23,$r12,2(0x2)
1c0042bc:	28402193 	ld.h	$r19,$r12,8(0x8)
1c0042c0:	28402992 	ld.h	$r18,$r12,10(0xa)
1c0042c4:	28401186 	ld.h	$r6,$r12,4(0x4)
1c0042c8:	28401994 	ld.h	$r20,$r12,6(0x6)
1c0042cc:	001c1f18 	mul.w	$r24,$r24,$r7
1c0042d0:	28403191 	ld.h	$r17,$r12,12(0xc)
1c0042d4:	2840398e 	ld.h	$r14,$r12,14(0xe)
1c0042d8:	028081ad 	addi.w	$r13,$r13,32(0x20)
1c0042dc:	0280418c 	addi.w	$r12,$r12,16(0x10)
1c0042e0:	001c1ef7 	mul.w	$r23,$r23,$r7
1c0042e4:	29bf81b8 	st.w	$r24,$r13,-32(0xfe0)
1c0042e8:	001c1cc6 	mul.w	$r6,$r6,$r7
1c0042ec:	29bf91b7 	st.w	$r23,$r13,-28(0xfe4)
1c0042f0:	001c1e78 	mul.w	$r24,$r19,$r7
1c0042f4:	29bfa1a6 	st.w	$r6,$r13,-24(0xfe8)
1c0042f8:	001c1e53 	mul.w	$r19,$r18,$r7
1c0042fc:	29bfc1b8 	st.w	$r24,$r13,-16(0xff0)
1c004300:	001c1e32 	mul.w	$r18,$r17,$r7
1c004304:	29bfd1b3 	st.w	$r19,$r13,-12(0xff4)
1c004308:	001c1e94 	mul.w	$r20,$r20,$r7
1c00430c:	001c1dd1 	mul.w	$r17,$r14,$r7
1c004310:	29bfb1b4 	st.w	$r20,$r13,-20(0xfec)
1c004314:	29bfe1b2 	st.w	$r18,$r13,-8(0xff8)
1c004318:	29bff1b1 	st.w	$r17,$r13,-4(0xffc)
1c00431c:	5fff99ec 	bne	$r15,$r12,-104(0x3ff98) # 1c0042b4 <matrix_mul_const+0x114>
1c004320:	02800508 	addi.w	$r8,$r8,1(0x1)
1c004324:	00102ca5 	add.w	$r5,$r5,$r11
1c004328:	00112a0f 	sub.w	$r15,$r16,$r10
1c00432c:	5800e488 	beq	$r4,$r8,228(0xe4) # 1c004410 <matrix_mul_const+0x270>
1c004330:	001025f0 	add.w	$r16,$r15,$r9
1c004334:	001141ec 	sub.w	$r12,$r15,$r16
1c004338:	02bff98d 	addi.w	$r13,$r12,-2(0xffe)
1c00433c:	004485ae 	srli.w	$r14,$r13,0x1
1c004340:	028005d7 	addi.w	$r23,$r14,1(0x1)
1c004344:	03401ee6 	andi	$r6,$r23,0x7
1c004348:	001500ad 	move	$r13,$r5
1c00434c:	0015020c 	move	$r12,$r16
1c004350:	5bff64c0 	beq	$r6,$r0,-156(0x3ff64) # 1c0042b4 <matrix_mul_const+0x114>
1c004354:	02800414 	addi.w	$r20,$r0,1(0x1)
1c004358:	580090d4 	beq	$r6,$r20,144(0x90) # 1c0043e8 <matrix_mul_const+0x248>
1c00435c:	02800818 	addi.w	$r24,$r0,2(0x2)
1c004360:	580074d8 	beq	$r6,$r24,116(0x74) # 1c0043d4 <matrix_mul_const+0x234>
1c004364:	02800c13 	addi.w	$r19,$r0,3(0x3)
1c004368:	580058d3 	beq	$r6,$r19,88(0x58) # 1c0043c0 <matrix_mul_const+0x220>
1c00436c:	02801012 	addi.w	$r18,$r0,4(0x4)
1c004370:	58003cd2 	beq	$r6,$r18,60(0x3c) # 1c0043ac <matrix_mul_const+0x20c>
1c004374:	02801411 	addi.w	$r17,$r0,5(0x5)
1c004378:	580020d1 	beq	$r6,$r17,32(0x20) # 1c004398 <matrix_mul_const+0x1f8>
1c00437c:	0280180e 	addi.w	$r14,$r0,6(0x6)
1c004380:	5c00b4ce 	bne	$r6,$r14,180(0xb4) # 1c004434 <matrix_mul_const+0x294>
1c004384:	28400194 	ld.h	$r20,$r12,0
1c004388:	028011ad 	addi.w	$r13,$r13,4(0x4)
1c00438c:	0280098c 	addi.w	$r12,$r12,2(0x2)
1c004390:	001c1e98 	mul.w	$r24,$r20,$r7
1c004394:	29bff1b8 	st.w	$r24,$r13,-4(0xffc)
1c004398:	28400193 	ld.h	$r19,$r12,0
1c00439c:	028011ad 	addi.w	$r13,$r13,4(0x4)
1c0043a0:	0280098c 	addi.w	$r12,$r12,2(0x2)
1c0043a4:	001c1e72 	mul.w	$r18,$r19,$r7
1c0043a8:	29bff1b2 	st.w	$r18,$r13,-4(0xffc)
1c0043ac:	28400191 	ld.h	$r17,$r12,0
1c0043b0:	028011ad 	addi.w	$r13,$r13,4(0x4)
1c0043b4:	0280098c 	addi.w	$r12,$r12,2(0x2)
1c0043b8:	001c1e2e 	mul.w	$r14,$r17,$r7
1c0043bc:	29bff1ae 	st.w	$r14,$r13,-4(0xffc)
1c0043c0:	28400197 	ld.h	$r23,$r12,0
1c0043c4:	028011ad 	addi.w	$r13,$r13,4(0x4)
1c0043c8:	0280098c 	addi.w	$r12,$r12,2(0x2)
1c0043cc:	001c1ee6 	mul.w	$r6,$r23,$r7
1c0043d0:	29bff1a6 	st.w	$r6,$r13,-4(0xffc)
1c0043d4:	28400194 	ld.h	$r20,$r12,0
1c0043d8:	028011ad 	addi.w	$r13,$r13,4(0x4)
1c0043dc:	0280098c 	addi.w	$r12,$r12,2(0x2)
1c0043e0:	001c1e98 	mul.w	$r24,$r20,$r7
1c0043e4:	29bff1b8 	st.w	$r24,$r13,-4(0xffc)
1c0043e8:	28400193 	ld.h	$r19,$r12,0
1c0043ec:	028011ad 	addi.w	$r13,$r13,4(0x4)
1c0043f0:	0280098c 	addi.w	$r12,$r12,2(0x2)
1c0043f4:	001c1e72 	mul.w	$r18,$r19,$r7
1c0043f8:	29bff1b2 	st.w	$r18,$r13,-4(0xffc)
1c0043fc:	5ffeb9ec 	bne	$r15,$r12,-328(0x3feb8) # 1c0042b4 <matrix_mul_const+0x114>
1c004400:	02800508 	addi.w	$r8,$r8,1(0x1)
1c004404:	00102ca5 	add.w	$r5,$r5,$r11
1c004408:	00112a0f 	sub.w	$r15,$r16,$r10
1c00440c:	5fff2488 	bne	$r4,$r8,-220(0x3ff24) # 1c004330 <matrix_mul_const+0x190>
1c004410:	28803077 	ld.w	$r23,$r3,12(0xc)
1c004414:	28802078 	ld.w	$r24,$r3,8(0x8)
1c004418:	02804063 	addi.w	$r3,$r3,16(0x10)
1c00441c:	4c000020 	jirl	$r0,$r1,0
1c004420:	02800508 	addi.w	$r8,$r8,1(0x1)
1c004424:	00102ca5 	add.w	$r5,$r5,$r11
1c004428:	00112a0f 	sub.w	$r15,$r16,$r10
1c00442c:	5ffd9888 	bne	$r4,$r8,-616(0x3fd98) # 1c0041c4 <matrix_mul_const+0x24>
1c004430:	4c000020 	jirl	$r0,$r1,0
1c004434:	28400217 	ld.h	$r23,$r16,0
1c004438:	02800a0c 	addi.w	$r12,$r16,2(0x2)
1c00443c:	028010ad 	addi.w	$r13,$r5,4(0x4)
1c004440:	001c1ee6 	mul.w	$r6,$r23,$r7
1c004444:	298000a6 	st.w	$r6,$r5,0
1c004448:	53ff3fff 	b	-196(0xfffff3c) # 1c004384 <matrix_mul_const+0x1e4>
1c00444c:	03400000 	andi	$r0,$r0,0x0

1c004450 <matrix_add_const>:
matrix_add_const():
1c004450:	02bfc063 	addi.w	$r3,$r3,-16(0xff0)
1c004454:	29803066 	st.w	$r6,$r3,12(0xc)
1c004458:	58015c80 	beq	$r4,$r0,348(0x15c) # 1c0045b4 <matrix_add_const+0x164>
1c00445c:	02bff808 	addi.w	$r8,$r0,-2(0xffe)
1c004460:	02bff009 	addi.w	$r9,$r0,-4(0xffc)
1c004464:	001c2088 	mul.w	$r8,$r4,$r8
1c004468:	2a40306e 	ld.hu	$r14,$r3,12(0xc)
1c00446c:	0040848c 	slli.w	$r12,$r4,0x1
1c004470:	001030af 	add.w	$r15,$r5,$r12
1c004474:	00150007 	move	$r7,$r0
1c004478:	001c2489 	mul.w	$r9,$r4,$r9
1c00447c:	00103d10 	add.w	$r16,$r8,$r15
1c004480:	001141ed 	sub.w	$r13,$r15,$r16
1c004484:	02bff9a5 	addi.w	$r5,$r13,-2(0xffe)
1c004488:	004484aa 	srli.w	$r10,$r5,0x1
1c00448c:	0280054b 	addi.w	$r11,$r10,1(0x1)
1c004490:	03401d72 	andi	$r18,$r11,0x7
1c004494:	0015020c 	move	$r12,$r16
1c004498:	5800aa40 	beq	$r18,$r0,168(0xa8) # 1c004540 <matrix_add_const+0xf0>
1c00449c:	02800411 	addi.w	$r17,$r0,1(0x1)
1c0044a0:	58008e51 	beq	$r18,$r17,140(0x8c) # 1c00452c <matrix_add_const+0xdc>
1c0044a4:	02800813 	addi.w	$r19,$r0,2(0x2)
1c0044a8:	58007653 	beq	$r18,$r19,116(0x74) # 1c00451c <matrix_add_const+0xcc>
1c0044ac:	02800c14 	addi.w	$r20,$r0,3(0x3)
1c0044b0:	58005e54 	beq	$r18,$r20,92(0x5c) # 1c00450c <matrix_add_const+0xbc>
1c0044b4:	02801006 	addi.w	$r6,$r0,4(0x4)
1c0044b8:	58004646 	beq	$r18,$r6,68(0x44) # 1c0044fc <matrix_add_const+0xac>
1c0044bc:	0280140d 	addi.w	$r13,$r0,5(0x5)
1c0044c0:	58002e4d 	beq	$r18,$r13,44(0x2c) # 1c0044ec <matrix_add_const+0x9c>
1c0044c4:	02801805 	addi.w	$r5,$r0,6(0x6)
1c0044c8:	58001645 	beq	$r18,$r5,20(0x14) # 1c0044dc <matrix_add_const+0x8c>
1c0044cc:	2a40020a 	ld.hu	$r10,$r16,0
1c0044d0:	02800a0c 	addi.w	$r12,$r16,2(0x2)
1c0044d4:	001029cb 	add.w	$r11,$r14,$r10
1c0044d8:	2940020b 	st.h	$r11,$r16,0
1c0044dc:	2a400192 	ld.hu	$r18,$r12,0
1c0044e0:	0280098c 	addi.w	$r12,$r12,2(0x2)
1c0044e4:	001049d1 	add.w	$r17,$r14,$r18
1c0044e8:	297ff991 	st.h	$r17,$r12,-2(0xffe)
1c0044ec:	2a400193 	ld.hu	$r19,$r12,0
1c0044f0:	0280098c 	addi.w	$r12,$r12,2(0x2)
1c0044f4:	00104dd4 	add.w	$r20,$r14,$r19
1c0044f8:	297ff994 	st.h	$r20,$r12,-2(0xffe)
1c0044fc:	2a400186 	ld.hu	$r6,$r12,0
1c004500:	0280098c 	addi.w	$r12,$r12,2(0x2)
1c004504:	001019cd 	add.w	$r13,$r14,$r6
1c004508:	297ff98d 	st.h	$r13,$r12,-2(0xffe)
1c00450c:	2a400185 	ld.hu	$r5,$r12,0
1c004510:	0280098c 	addi.w	$r12,$r12,2(0x2)
1c004514:	001015ca 	add.w	$r10,$r14,$r5
1c004518:	297ff98a 	st.h	$r10,$r12,-2(0xffe)
1c00451c:	2a40018b 	ld.hu	$r11,$r12,0
1c004520:	0280098c 	addi.w	$r12,$r12,2(0x2)
1c004524:	00102dd2 	add.w	$r18,$r14,$r11
1c004528:	297ff992 	st.h	$r18,$r12,-2(0xffe)
1c00452c:	2a400191 	ld.hu	$r17,$r12,0
1c004530:	0280098c 	addi.w	$r12,$r12,2(0x2)
1c004534:	001045d3 	add.w	$r19,$r14,$r17
1c004538:	297ff993 	st.h	$r19,$r12,-2(0xffe)
1c00453c:	58006dec 	beq	$r15,$r12,108(0x6c) # 1c0045a8 <matrix_add_const+0x158>
1c004540:	2a40218b 	ld.hu	$r11,$r12,8(0x8)
1c004544:	2a402992 	ld.hu	$r18,$r12,10(0xa)
1c004548:	2a40018a 	ld.hu	$r10,$r12,0
1c00454c:	2a400986 	ld.hu	$r6,$r12,2(0x2)
1c004550:	2a401185 	ld.hu	$r5,$r12,4(0x4)
1c004554:	2a401994 	ld.hu	$r20,$r12,6(0x6)
1c004558:	2a403191 	ld.hu	$r17,$r12,12(0xc)
1c00455c:	2a40398d 	ld.hu	$r13,$r12,14(0xe)
1c004560:	00102dd3 	add.w	$r19,$r14,$r11
1c004564:	001029ca 	add.w	$r10,$r14,$r10
1c004568:	001049cb 	add.w	$r11,$r14,$r18
1c00456c:	001019c6 	add.w	$r6,$r14,$r6
1c004570:	001045d2 	add.w	$r18,$r14,$r17
1c004574:	001015c5 	add.w	$r5,$r14,$r5
1c004578:	001051d4 	add.w	$r20,$r14,$r20
1c00457c:	001035d1 	add.w	$r17,$r14,$r13
1c004580:	2940018a 	st.h	$r10,$r12,0
1c004584:	29400986 	st.h	$r6,$r12,2(0x2)
1c004588:	29401185 	st.h	$r5,$r12,4(0x4)
1c00458c:	29401994 	st.h	$r20,$r12,6(0x6)
1c004590:	29402193 	st.h	$r19,$r12,8(0x8)
1c004594:	2940298b 	st.h	$r11,$r12,10(0xa)
1c004598:	29403192 	st.h	$r18,$r12,12(0xc)
1c00459c:	29403991 	st.h	$r17,$r12,14(0xe)
1c0045a0:	0280418c 	addi.w	$r12,$r12,16(0x10)
1c0045a4:	5fff9dec 	bne	$r15,$r12,-100(0x3ff9c) # 1c004540 <matrix_add_const+0xf0>
1c0045a8:	028004e7 	addi.w	$r7,$r7,1(0x1)
1c0045ac:	0011260f 	sub.w	$r15,$r16,$r9
1c0045b0:	5ffecc87 	bne	$r4,$r7,-308(0x3fecc) # 1c00447c <matrix_add_const+0x2c>
1c0045b4:	02804063 	addi.w	$r3,$r3,16(0x10)
1c0045b8:	4c000020 	jirl	$r0,$r1,0
1c0045bc:	03400000 	andi	$r0,$r0,0x0

1c0045c0 <matrix_mul_vect>:
matrix_mul_vect():
1c0045c0:	58015880 	beq	$r4,$r0,344(0x158) # 1c004718 <matrix_mul_vect+0x158>
1c0045c4:	02bf8063 	addi.w	$r3,$r3,-32(0xfe0)
1c0045c8:	001500ac 	move	$r12,$r5
1c0045cc:	2980307a 	st.w	$r26,$r3,12(0xc)
1c0045d0:	0040889a 	slli.w	$r26,$r4,0x2
1c0045d4:	29805078 	st.w	$r24,$r3,20(0x14)
1c0045d8:	29804079 	st.w	$r25,$r3,16(0x10)
1c0045dc:	00150098 	move	$r24,$r4
1c0045e0:	001500d9 	move	$r25,$r6
1c0045e4:	00150005 	move	$r5,$r0
1c0045e8:	00150346 	move	$r6,$r26
1c0045ec:	00150184 	move	$r4,$r12
1c0045f0:	29806077 	st.w	$r23,$r3,24(0x18)
1c0045f4:	29807061 	st.w	$r1,$r3,28(0x1c)
1c0045f8:	001500f7 	move	$r23,$r7
1c0045fc:	54441000 	bl	17424(0x4410) # 1c008a0c <memset>
1c004600:	02bff807 	addi.w	$r7,$r0,-2(0xffe)
1c004604:	00408713 	slli.w	$r19,$r24,0x1
1c004608:	001c1f0b 	mul.w	$r11,$r24,$r7
1c00460c:	02bff006 	addi.w	$r6,$r0,-4(0xffc)
1c004610:	00104f33 	add.w	$r19,$r25,$r19
1c004614:	00150085 	move	$r5,$r4
1c004618:	00106888 	add.w	$r8,$r4,$r26
1c00461c:	001c1b19 	mul.w	$r25,$r24,$r6
1c004620:	00104d74 	add.w	$r20,$r11,$r19
1c004624:	0011526f 	sub.w	$r15,$r19,$r20
1c004628:	02bff9e1 	addi.w	$r1,$r15,-2(0xffe)
1c00462c:	00448424 	srli.w	$r4,$r1,0x1
1c004630:	02800489 	addi.w	$r9,$r4,1(0x1)
1c004634:	03400d2a 	andi	$r10,$r9,0x3
1c004638:	001502ee 	move	$r14,$r23
1c00463c:	0015028c 	move	$r12,$r20
1c004640:	00150010 	move	$r16,$r0
1c004644:	58005d40 	beq	$r10,$r0,92(0x5c) # 1c0046a0 <matrix_mul_vect+0xe0>
1c004648:	0280040d 	addi.w	$r13,$r0,1(0x1)
1c00464c:	5800394d 	beq	$r10,$r13,56(0x38) # 1c004684 <matrix_mul_vect+0xc4>
1c004650:	02800811 	addi.w	$r17,$r0,2(0x2)
1c004654:	58001951 	beq	$r10,$r17,24(0x18) # 1c00466c <matrix_mul_vect+0xac>
1c004658:	28400290 	ld.h	$r16,$r20,0
1c00465c:	284002f2 	ld.h	$r18,$r23,0
1c004660:	02800a8c 	addi.w	$r12,$r20,2(0x2)
1c004664:	02800aee 	addi.w	$r14,$r23,2(0x2)
1c004668:	001c4a10 	mul.w	$r16,$r16,$r18
1c00466c:	28400198 	ld.h	$r24,$r12,0
1c004670:	284001da 	ld.h	$r26,$r14,0
1c004674:	0280098c 	addi.w	$r12,$r12,2(0x2)
1c004678:	028009ce 	addi.w	$r14,$r14,2(0x2)
1c00467c:	001c6b07 	mul.w	$r7,$r24,$r26
1c004680:	00101e10 	add.w	$r16,$r16,$r7
1c004684:	28400186 	ld.h	$r6,$r12,0
1c004688:	284001cf 	ld.h	$r15,$r14,0
1c00468c:	0280098c 	addi.w	$r12,$r12,2(0x2)
1c004690:	028009ce 	addi.w	$r14,$r14,2(0x2)
1c004694:	001c3cc1 	mul.w	$r1,$r6,$r15
1c004698:	00100610 	add.w	$r16,$r16,$r1
1c00469c:	5800526c 	beq	$r19,$r12,80(0x50) # 1c0046ec <matrix_mul_vect+0x12c>
1c0046a0:	28400184 	ld.h	$r4,$r12,0
1c0046a4:	284001c9 	ld.h	$r9,$r14,0
1c0046a8:	28400992 	ld.h	$r18,$r12,2(0x2)
1c0046ac:	284009ca 	ld.h	$r10,$r14,2(0x2)
1c0046b0:	001c248d 	mul.w	$r13,$r4,$r9
1c0046b4:	28401191 	ld.h	$r17,$r12,4(0x4)
1c0046b8:	284011d8 	ld.h	$r24,$r14,4(0x4)
1c0046bc:	2840199a 	ld.h	$r26,$r12,6(0x6)
1c0046c0:	284019c7 	ld.h	$r7,$r14,6(0x6)
1c0046c4:	0280218c 	addi.w	$r12,$r12,8(0x8)
1c0046c8:	028021ce 	addi.w	$r14,$r14,8(0x8)
1c0046cc:	001c2a46 	mul.w	$r6,$r18,$r10
1c0046d0:	0010360f 	add.w	$r15,$r16,$r13
1c0046d4:	001c6221 	mul.w	$r1,$r17,$r24
1c0046d8:	001019e4 	add.w	$r4,$r15,$r6
1c0046dc:	001c1f50 	mul.w	$r16,$r26,$r7
1c0046e0:	00100489 	add.w	$r9,$r4,$r1
1c0046e4:	00104130 	add.w	$r16,$r9,$r16
1c0046e8:	5fffba6c 	bne	$r19,$r12,-72(0x3ffb8) # 1c0046a0 <matrix_mul_vect+0xe0>
1c0046ec:	298000b0 	st.w	$r16,$r5,0
1c0046f0:	028010a5 	addi.w	$r5,$r5,4(0x4)
1c0046f4:	00116693 	sub.w	$r19,$r20,$r25
1c0046f8:	5fff2905 	bne	$r8,$r5,-216(0x3ff28) # 1c004620 <matrix_mul_vect+0x60>
1c0046fc:	28807061 	ld.w	$r1,$r3,28(0x1c)
1c004700:	28806077 	ld.w	$r23,$r3,24(0x18)
1c004704:	28805078 	ld.w	$r24,$r3,20(0x14)
1c004708:	28804079 	ld.w	$r25,$r3,16(0x10)
1c00470c:	2880307a 	ld.w	$r26,$r3,12(0xc)
1c004710:	02808063 	addi.w	$r3,$r3,32(0x20)
1c004714:	4c000020 	jirl	$r0,$r1,0
1c004718:	4c000020 	jirl	$r0,$r1,0
1c00471c:	03400000 	andi	$r0,$r0,0x0

1c004720 <matrix_mul_matrix>:
matrix_mul_matrix():
1c004720:	58019480 	beq	$r4,$r0,404(0x194) # 1c0048b4 <matrix_mul_matrix+0x194>
1c004724:	02bf4063 	addi.w	$r3,$r3,-48(0xfd0)
1c004728:	29808079 	st.w	$r25,$r3,32(0x20)
1c00472c:	2980407d 	st.w	$r29,$r3,16(0x10)
1c004730:	00408499 	slli.w	$r25,$r4,0x1
1c004734:	0040889d 	slli.w	$r29,$r4,0x2
1c004738:	2980a077 	st.w	$r23,$r3,40(0x28)
1c00473c:	29809078 	st.w	$r24,$r3,36(0x24)
1c004740:	2980707a 	st.w	$r26,$r3,28(0x1c)
1c004744:	2980607b 	st.w	$r27,$r3,24(0x18)
1c004748:	2980507c 	st.w	$r28,$r3,20(0x14)
1c00474c:	2980307e 	st.w	$r30,$r3,12(0xc)
1c004750:	2980b061 	st.w	$r1,$r3,44(0x2c)
1c004754:	001500f8 	move	$r24,$r7
1c004758:	001500b1 	move	$r17,$r5
1c00475c:	00150097 	move	$r23,$r4
1c004760:	001500db 	move	$r27,$r6
1c004764:	001074bc 	add.w	$r28,$r5,$r29
1c004768:	001064da 	add.w	$r26,$r6,$r25
1c00476c:	0015001e 	move	$r30,$r0
1c004770:	00150224 	move	$r4,$r17
1c004774:	001503a6 	move	$r6,$r29
1c004778:	00150005 	move	$r5,$r0
1c00477c:	54429000 	bl	17040(0x4290) # 1c008a0c <memset>
1c004780:	00150091 	move	$r17,$r4
1c004784:	00150314 	move	$r20,$r24
1c004788:	00150093 	move	$r19,$r4
1c00478c:	00116f4f 	sub.w	$r15,$r26,$r27
1c004790:	02bff9e1 	addi.w	$r1,$r15,-2(0xffe)
1c004794:	00448424 	srli.w	$r4,$r1,0x1
1c004798:	02800485 	addi.w	$r5,$r4,1(0x1)
1c00479c:	03400ca6 	andi	$r6,$r5,0x3
1c0047a0:	0015028e 	move	$r14,$r20
1c0047a4:	0015036c 	move	$r12,$r27
1c0047a8:	00150010 	move	$r16,$r0
1c0047ac:	58005cc0 	beq	$r6,$r0,92(0x5c) # 1c004808 <matrix_mul_matrix+0xe8>
1c0047b0:	0280040d 	addi.w	$r13,$r0,1(0x1)
1c0047b4:	580038cd 	beq	$r6,$r13,56(0x38) # 1c0047ec <matrix_mul_matrix+0xcc>
1c0047b8:	02800807 	addi.w	$r7,$r0,2(0x2)
1c0047bc:	580018c7 	beq	$r6,$r7,24(0x18) # 1c0047d4 <matrix_mul_matrix+0xb4>
1c0047c0:	28400370 	ld.h	$r16,$r27,0
1c0047c4:	28400288 	ld.h	$r8,$r20,0
1c0047c8:	02800b6c 	addi.w	$r12,$r27,2(0x2)
1c0047cc:	0010668e 	add.w	$r14,$r20,$r25
1c0047d0:	001c2210 	mul.w	$r16,$r16,$r8
1c0047d4:	28400189 	ld.h	$r9,$r12,0
1c0047d8:	284001ca 	ld.h	$r10,$r14,0
1c0047dc:	0280098c 	addi.w	$r12,$r12,2(0x2)
1c0047e0:	001065ce 	add.w	$r14,$r14,$r25
1c0047e4:	001c292b 	mul.w	$r11,$r9,$r10
1c0047e8:	00102e10 	add.w	$r16,$r16,$r11
1c0047ec:	28400192 	ld.h	$r18,$r12,0
1c0047f0:	284001cf 	ld.h	$r15,$r14,0
1c0047f4:	0280098c 	addi.w	$r12,$r12,2(0x2)
1c0047f8:	001065ce 	add.w	$r14,$r14,$r25
1c0047fc:	001c3e41 	mul.w	$r1,$r18,$r15
1c004800:	00100610 	add.w	$r16,$r16,$r1
1c004804:	58005f4c 	beq	$r26,$r12,92(0x5c) # 1c004860 <matrix_mul_matrix+0x140>
1c004808:	001065c5 	add.w	$r5,$r14,$r25
1c00480c:	28400186 	ld.h	$r6,$r12,0
1c004810:	284001cd 	ld.h	$r13,$r14,0
1c004814:	001064a8 	add.w	$r8,$r5,$r25
1c004818:	28400984 	ld.h	$r4,$r12,2(0x2)
1c00481c:	284000a7 	ld.h	$r7,$r5,0
1c004820:	001c34c9 	mul.w	$r9,$r6,$r13
1c004824:	0010650b 	add.w	$r11,$r8,$r25
1c004828:	2840118a 	ld.h	$r10,$r12,4(0x4)
1c00482c:	28400112 	ld.h	$r18,$r8,0
1c004830:	2840198f 	ld.h	$r15,$r12,6(0x6)
1c004834:	28400161 	ld.h	$r1,$r11,0
1c004838:	0280218c 	addi.w	$r12,$r12,8(0x8)
1c00483c:	0010656e 	add.w	$r14,$r11,$r25
1c004840:	001c1c85 	mul.w	$r5,$r4,$r7
1c004844:	00102610 	add.w	$r16,$r16,$r9
1c004848:	001c4946 	mul.w	$r6,$r10,$r18
1c00484c:	0010160d 	add.w	$r13,$r16,$r5
1c004850:	001c05e4 	mul.w	$r4,$r15,$r1
1c004854:	001019a8 	add.w	$r8,$r13,$r6
1c004858:	00101110 	add.w	$r16,$r8,$r4
1c00485c:	5fffaf4c 	bne	$r26,$r12,-84(0x3ffac) # 1c004808 <matrix_mul_matrix+0xe8>
1c004860:	29800270 	st.w	$r16,$r19,0
1c004864:	02801273 	addi.w	$r19,$r19,4(0x4)
1c004868:	02800a94 	addi.w	$r20,$r20,2(0x2)
1c00486c:	5fff2393 	bne	$r28,$r19,-224(0x3ff20) # 1c00478c <matrix_mul_matrix+0x6c>
1c004870:	028007de 	addi.w	$r30,$r30,1(0x1)
1c004874:	00107631 	add.w	$r17,$r17,$r29
1c004878:	0010779c 	add.w	$r28,$r28,$r29
1c00487c:	0010677b 	add.w	$r27,$r27,$r25
1c004880:	0010675a 	add.w	$r26,$r26,$r25
1c004884:	5ffeeefe 	bne	$r23,$r30,-276(0x3feec) # 1c004770 <matrix_mul_matrix+0x50>
1c004888:	2880b061 	ld.w	$r1,$r3,44(0x2c)
1c00488c:	2880a077 	ld.w	$r23,$r3,40(0x28)
1c004890:	28809078 	ld.w	$r24,$r3,36(0x24)
1c004894:	28808079 	ld.w	$r25,$r3,32(0x20)
1c004898:	2880707a 	ld.w	$r26,$r3,28(0x1c)
1c00489c:	2880607b 	ld.w	$r27,$r3,24(0x18)
1c0048a0:	2880507c 	ld.w	$r28,$r3,20(0x14)
1c0048a4:	2880407d 	ld.w	$r29,$r3,16(0x10)
1c0048a8:	2880307e 	ld.w	$r30,$r3,12(0xc)
1c0048ac:	0280c063 	addi.w	$r3,$r3,48(0x30)
1c0048b0:	4c000020 	jirl	$r0,$r1,0
1c0048b4:	4c000020 	jirl	$r0,$r1,0
1c0048b8:	03400000 	andi	$r0,$r0,0x0
1c0048bc:	03400000 	andi	$r0,$r0,0x0

1c0048c0 <matrix_mul_matrix_bitextract>:
matrix_mul_matrix_bitextract():
1c0048c0:	58022080 	beq	$r4,$r0,544(0x220) # 1c004ae0 <matrix_mul_matrix_bitextract+0x220>
1c0048c4:	02bf4063 	addi.w	$r3,$r3,-48(0xfd0)
1c0048c8:	29808079 	st.w	$r25,$r3,32(0x20)
1c0048cc:	2980407d 	st.w	$r29,$r3,16(0x10)
1c0048d0:	00408499 	slli.w	$r25,$r4,0x1
1c0048d4:	0040889d 	slli.w	$r29,$r4,0x2
1c0048d8:	2980a077 	st.w	$r23,$r3,40(0x28)
1c0048dc:	29809078 	st.w	$r24,$r3,36(0x24)
1c0048e0:	2980707a 	st.w	$r26,$r3,28(0x1c)
1c0048e4:	2980607b 	st.w	$r27,$r3,24(0x18)
1c0048e8:	2980507c 	st.w	$r28,$r3,20(0x14)
1c0048ec:	2980307e 	st.w	$r30,$r3,12(0xc)
1c0048f0:	2980b061 	st.w	$r1,$r3,44(0x2c)
1c0048f4:	001500f8 	move	$r24,$r7
1c0048f8:	001500b2 	move	$r18,$r5
1c0048fc:	00150097 	move	$r23,$r4
1c004900:	001500db 	move	$r27,$r6
1c004904:	001074bc 	add.w	$r28,$r5,$r29
1c004908:	001064da 	add.w	$r26,$r6,$r25
1c00490c:	0015001e 	move	$r30,$r0
1c004910:	00150244 	move	$r4,$r18
1c004914:	001503a6 	move	$r6,$r29
1c004918:	00150005 	move	$r5,$r0
1c00491c:	5440f000 	bl	16624(0x40f0) # 1c008a0c <memset>
1c004920:	00150092 	move	$r18,$r4
1c004924:	00150254 	move	$r20,$r18
1c004928:	00150304 	move	$r4,$r24
1c00492c:	00116f4c 	sub.w	$r12,$r26,$r27
1c004930:	02bff981 	addi.w	$r1,$r12,-2(0xffe)
1c004934:	00448425 	srli.w	$r5,$r1,0x1
1c004938:	028004a6 	addi.w	$r6,$r5,1(0x1)
1c00493c:	03400cc7 	andi	$r7,$r6,0x3
1c004940:	00150093 	move	$r19,$r4
1c004944:	0015036e 	move	$r14,$r27
1c004948:	00150005 	move	$r5,$r0
1c00494c:	580098e0 	beq	$r7,$r0,152(0x98) # 1c0049e4 <matrix_mul_matrix_bitextract+0x124>
1c004950:	0280040d 	addi.w	$r13,$r0,1(0x1)
1c004954:	580060ed 	beq	$r7,$r13,96(0x60) # 1c0049b4 <matrix_mul_matrix_bitextract+0xf4>
1c004958:	02800808 	addi.w	$r8,$r0,2(0x2)
1c00495c:	58002ce8 	beq	$r7,$r8,44(0x2c) # 1c004988 <matrix_mul_matrix_bitextract+0xc8>
1c004960:	28400369 	ld.h	$r9,$r27,0
1c004964:	2840008a 	ld.h	$r10,$r4,0
1c004968:	02800b6e 	addi.w	$r14,$r27,2(0x2)
1c00496c:	00106493 	add.w	$r19,$r4,$r25
1c004970:	001c292b 	mul.w	$r11,$r9,$r10
1c004974:	0048896f 	srai.w	$r15,$r11,0x2
1c004978:	00489570 	srai.w	$r16,$r11,0x5
1c00497c:	03403df1 	andi	$r17,$r15,0xf
1c004980:	0341fe0c 	andi	$r12,$r16,0x7f
1c004984:	001c3225 	mul.w	$r5,$r17,$r12
1c004988:	284001c1 	ld.h	$r1,$r14,0
1c00498c:	28400266 	ld.h	$r6,$r19,0
1c004990:	028009ce 	addi.w	$r14,$r14,2(0x2)
1c004994:	00106673 	add.w	$r19,$r19,$r25
1c004998:	001c1827 	mul.w	$r7,$r1,$r6
1c00499c:	004888ed 	srai.w	$r13,$r7,0x2
1c0049a0:	004894e8 	srai.w	$r8,$r7,0x5
1c0049a4:	03403da9 	andi	$r9,$r13,0xf
1c0049a8:	0341fd0a 	andi	$r10,$r8,0x7f
1c0049ac:	001c292b 	mul.w	$r11,$r9,$r10
1c0049b0:	00102ca5 	add.w	$r5,$r5,$r11
1c0049b4:	284001cf 	ld.h	$r15,$r14,0
1c0049b8:	28400270 	ld.h	$r16,$r19,0
1c0049bc:	028009ce 	addi.w	$r14,$r14,2(0x2)
1c0049c0:	00106673 	add.w	$r19,$r19,$r25
1c0049c4:	001c41f1 	mul.w	$r17,$r15,$r16
1c0049c8:	00488a21 	srai.w	$r1,$r17,0x2
1c0049cc:	0048962c 	srai.w	$r12,$r17,0x5
1c0049d0:	03403c26 	andi	$r6,$r1,0xf
1c0049d4:	0341fd87 	andi	$r7,$r12,0x7f
1c0049d8:	001c1ccd 	mul.w	$r13,$r6,$r7
1c0049dc:	001034a5 	add.w	$r5,$r5,$r13
1c0049e0:	5800af4e 	beq	$r26,$r14,172(0xac) # 1c004a8c <matrix_mul_matrix_bitextract+0x1cc>
1c0049e4:	284001c9 	ld.h	$r9,$r14,0
1c0049e8:	2840026a 	ld.h	$r10,$r19,0
1c0049ec:	00106668 	add.w	$r8,$r19,$r25
1c0049f0:	284009cb 	ld.h	$r11,$r14,2(0x2)
1c0049f4:	001c2921 	mul.w	$r1,$r9,$r10
1c0049f8:	0010650f 	add.w	$r15,$r8,$r25
1c0049fc:	28400111 	ld.h	$r17,$r8,0
1c004a00:	284011d0 	ld.h	$r16,$r14,4(0x4)
1c004a04:	001065f3 	add.w	$r19,$r15,$r25
1c004a08:	284001e8 	ld.h	$r8,$r15,0
1c004a0c:	28400267 	ld.h	$r7,$r19,0
1c004a10:	284019c9 	ld.h	$r9,$r14,6(0x6)
1c004a14:	028021ce 	addi.w	$r14,$r14,8(0x8)
1c004a18:	00106673 	add.w	$r19,$r19,$r25
1c004a1c:	001c456a 	mul.w	$r10,$r11,$r17
1c004a20:	0048882c 	srai.w	$r12,$r1,0x2
1c004a24:	00489426 	srai.w	$r6,$r1,0x5
1c004a28:	0341fccb 	andi	$r11,$r6,0x7f
1c004a2c:	03403d8d 	andi	$r13,$r12,0xf
1c004a30:	001c2201 	mul.w	$r1,$r16,$r8
1c004a34:	0048894f 	srai.w	$r15,$r10,0x2
1c004a38:	00489551 	srai.w	$r17,$r10,0x5
1c004a3c:	03403de8 	andi	$r8,$r15,0xf
1c004a40:	0341fe2a 	andi	$r10,$r17,0x7f
1c004a44:	001c1d29 	mul.w	$r9,$r9,$r7
1c004a48:	00489430 	srai.w	$r16,$r1,0x5
1c004a4c:	00488827 	srai.w	$r7,$r1,0x2
1c004a50:	03403ce6 	andi	$r6,$r7,0xf
1c004a54:	0341fe01 	andi	$r1,$r16,0x7f
1c004a58:	001c2dac 	mul.w	$r12,$r13,$r11
1c004a5c:	0048952b 	srai.w	$r11,$r9,0x5
1c004a60:	0048892d 	srai.w	$r13,$r9,0x2
1c004a64:	03403da9 	andi	$r9,$r13,0xf
1c004a68:	0341fd6f 	andi	$r15,$r11,0x7f
1c004a6c:	001c2911 	mul.w	$r17,$r8,$r10
1c004a70:	001030a5 	add.w	$r5,$r5,$r12
1c004a74:	001c04c8 	mul.w	$r8,$r6,$r1
1c004a78:	001044aa 	add.w	$r10,$r5,$r17
1c004a7c:	001c3d27 	mul.w	$r7,$r9,$r15
1c004a80:	00102150 	add.w	$r16,$r10,$r8
1c004a84:	00101e05 	add.w	$r5,$r16,$r7
1c004a88:	5fff5f4e 	bne	$r26,$r14,-164(0x3ff5c) # 1c0049e4 <matrix_mul_matrix_bitextract+0x124>
1c004a8c:	29800285 	st.w	$r5,$r20,0
1c004a90:	02801294 	addi.w	$r20,$r20,4(0x4)
1c004a94:	02800884 	addi.w	$r4,$r4,2(0x2)
1c004a98:	5ffe9794 	bne	$r28,$r20,-364(0x3fe94) # 1c00492c <matrix_mul_matrix_bitextract+0x6c>
1c004a9c:	028007de 	addi.w	$r30,$r30,1(0x1)
1c004aa0:	00107652 	add.w	$r18,$r18,$r29
1c004aa4:	0010779c 	add.w	$r28,$r28,$r29
1c004aa8:	0010677b 	add.w	$r27,$r27,$r25
1c004aac:	0010675a 	add.w	$r26,$r26,$r25
1c004ab0:	5ffe62fe 	bne	$r23,$r30,-416(0x3fe60) # 1c004910 <matrix_mul_matrix_bitextract+0x50>
1c004ab4:	2880b061 	ld.w	$r1,$r3,44(0x2c)
1c004ab8:	2880a077 	ld.w	$r23,$r3,40(0x28)
1c004abc:	28809078 	ld.w	$r24,$r3,36(0x24)
1c004ac0:	28808079 	ld.w	$r25,$r3,32(0x20)
1c004ac4:	2880707a 	ld.w	$r26,$r3,28(0x1c)
1c004ac8:	2880607b 	ld.w	$r27,$r3,24(0x18)
1c004acc:	2880507c 	ld.w	$r28,$r3,20(0x14)
1c004ad0:	2880407d 	ld.w	$r29,$r3,16(0x10)
1c004ad4:	2880307e 	ld.w	$r30,$r3,12(0xc)
1c004ad8:	0280c063 	addi.w	$r3,$r3,48(0x30)
1c004adc:	4c000020 	jirl	$r0,$r1,0
1c004ae0:	4c000020 	jirl	$r0,$r1,0
1c004ae4:	03400000 	andi	$r0,$r0,0x0
1c004ae8:	03400000 	andi	$r0,$r0,0x0
1c004aec:	03400000 	andi	$r0,$r0,0x0

1c004af0 <parseval>:
parseval():
1c004af0:	28000093 	ld.b	$r19,$r4,0
1c004af4:	0280b40c 	addi.w	$r12,$r0,45(0x2d)
1c004af8:	02bfc063 	addi.w	$r3,$r3,-16(0xff0)
1c004afc:	02800414 	addi.w	$r20,$r0,1(0x1)
1c004b00:	5c00126c 	bne	$r19,$r12,16(0x10) # 1c004b10 <parseval+0x20>
1c004b04:	28000493 	ld.b	$r19,$r4,1(0x1)
1c004b08:	02bffc14 	addi.w	$r20,$r0,-1(0xfff)
1c004b0c:	02800484 	addi.w	$r4,$r4,1(0x1)
1c004b10:	0280c005 	addi.w	$r5,$r0,48(0x30)
1c004b14:	58013e65 	beq	$r19,$r5,316(0x13c) # 1c004c50 <parseval+0x160>
1c004b18:	02bf426b 	addi.w	$r11,$r19,-48(0xfd0)
1c004b1c:	2980306b 	st.w	$r11,$r3,12(0xc)
1c004b20:	2a00306d 	ld.bu	$r13,$r3,12(0xc)
1c004b24:	02802406 	addi.w	$r6,$r0,9(0x9)
1c004b28:	680190cd 	bltu	$r6,$r13,400(0x190) # 1c004cb8 <parseval+0x1c8>
1c004b2c:	0015000a 	move	$r10,$r0
1c004b30:	0280280e 	addi.w	$r14,$r0,10(0xa)
1c004b34:	02802409 	addi.w	$r9,$r0,9(0x9)
1c004b38:	001c394a 	mul.w	$r10,$r10,$r14
1c004b3c:	28000493 	ld.b	$r19,$r4,1(0x1)
1c004b40:	02bf4270 	addi.w	$r16,$r19,-48(0xfd0)
1c004b44:	29803070 	st.w	$r16,$r3,12(0xc)
1c004b48:	2a003071 	ld.bu	$r17,$r3,12(0xc)
1c004b4c:	0010296a 	add.w	$r10,$r11,$r10
1c004b50:	6800cd31 	bltu	$r9,$r17,204(0xcc) # 1c004c1c <parseval+0x12c>
1c004b54:	001c394b 	mul.w	$r11,$r10,$r14
1c004b58:	28000893 	ld.b	$r19,$r4,2(0x2)
1c004b5c:	02bf426f 	addi.w	$r15,$r19,-48(0xfd0)
1c004b60:	2980306f 	st.w	$r15,$r3,12(0xc)
1c004b64:	2a003072 	ld.bu	$r18,$r3,12(0xc)
1c004b68:	00102e0a 	add.w	$r10,$r16,$r11
1c004b6c:	6800b132 	bltu	$r9,$r18,176(0xb0) # 1c004c1c <parseval+0x12c>
1c004b70:	001c394c 	mul.w	$r12,$r10,$r14
1c004b74:	28000c93 	ld.b	$r19,$r4,3(0x3)
1c004b78:	02bf4265 	addi.w	$r5,$r19,-48(0xfd0)
1c004b7c:	29803065 	st.w	$r5,$r3,12(0xc)
1c004b80:	2a00306d 	ld.bu	$r13,$r3,12(0xc)
1c004b84:	001031ea 	add.w	$r10,$r15,$r12
1c004b88:	6800952d 	bltu	$r9,$r13,148(0x94) # 1c004c1c <parseval+0x12c>
1c004b8c:	001c3946 	mul.w	$r6,$r10,$r14
1c004b90:	28001093 	ld.b	$r19,$r4,4(0x4)
1c004b94:	02bf4267 	addi.w	$r7,$r19,-48(0xfd0)
1c004b98:	29803067 	st.w	$r7,$r3,12(0xc)
1c004b9c:	2a003068 	ld.bu	$r8,$r3,12(0xc)
1c004ba0:	001018aa 	add.w	$r10,$r5,$r6
1c004ba4:	68007928 	bltu	$r9,$r8,120(0x78) # 1c004c1c <parseval+0x12c>
1c004ba8:	001c394a 	mul.w	$r10,$r10,$r14
1c004bac:	28001493 	ld.b	$r19,$r4,5(0x5)
1c004bb0:	02bf4270 	addi.w	$r16,$r19,-48(0xfd0)
1c004bb4:	29803070 	st.w	$r16,$r3,12(0xc)
1c004bb8:	2a003071 	ld.bu	$r17,$r3,12(0xc)
1c004bbc:	001028ea 	add.w	$r10,$r7,$r10
1c004bc0:	68005d31 	bltu	$r9,$r17,92(0x5c) # 1c004c1c <parseval+0x12c>
1c004bc4:	001c394b 	mul.w	$r11,$r10,$r14
1c004bc8:	28001893 	ld.b	$r19,$r4,6(0x6)
1c004bcc:	02bf426f 	addi.w	$r15,$r19,-48(0xfd0)
1c004bd0:	2980306f 	st.w	$r15,$r3,12(0xc)
1c004bd4:	2a003072 	ld.bu	$r18,$r3,12(0xc)
1c004bd8:	00102e0a 	add.w	$r10,$r16,$r11
1c004bdc:	68004132 	bltu	$r9,$r18,64(0x40) # 1c004c1c <parseval+0x12c>
1c004be0:	001c394c 	mul.w	$r12,$r10,$r14
1c004be4:	02802084 	addi.w	$r4,$r4,8(0x8)
1c004be8:	283ffc93 	ld.b	$r19,$r4,-1(0xfff)
1c004bec:	02bf4265 	addi.w	$r5,$r19,-48(0xfd0)
1c004bf0:	29803065 	st.w	$r5,$r3,12(0xc)
1c004bf4:	2a00306d 	ld.bu	$r13,$r3,12(0xc)
1c004bf8:	001031ea 	add.w	$r10,$r15,$r12
1c004bfc:	6800212d 	bltu	$r9,$r13,32(0x20) # 1c004c1c <parseval+0x12c>
1c004c00:	001c3946 	mul.w	$r6,$r10,$r14
1c004c04:	28000093 	ld.b	$r19,$r4,0
1c004c08:	02bf426b 	addi.w	$r11,$r19,-48(0xfd0)
1c004c0c:	2980306b 	st.w	$r11,$r3,12(0xc)
1c004c10:	2a003067 	ld.bu	$r7,$r3,12(0xc)
1c004c14:	001018aa 	add.w	$r10,$r5,$r6
1c004c18:	6fff2127 	bgeu	$r9,$r7,-224(0x3ff20) # 1c004b38 <parseval+0x48>
1c004c1c:	02812c04 	addi.w	$r4,$r0,75(0x4b)
1c004c20:	58002264 	beq	$r19,$r4,32(0x20) # 1c004c40 <parseval+0x150>
1c004c24:	02813411 	addi.w	$r17,$r0,77(0x4d)
1c004c28:	5c000a71 	bne	$r19,$r17,8(0x8) # 1c004c30 <parseval+0x140>
1c004c2c:	0040d14a 	slli.w	$r10,$r10,0x14
1c004c30:	001c5144 	mul.w	$r4,$r10,$r20
1c004c34:	02804063 	addi.w	$r3,$r3,16(0x10)
1c004c38:	4c000020 	jirl	$r0,$r1,0
1c004c3c:	03400000 	andi	$r0,$r0,0x0
1c004c40:	0040a94a 	slli.w	$r10,$r10,0xa
1c004c44:	001c5144 	mul.w	$r4,$r10,$r20
1c004c48:	02804063 	addi.w	$r3,$r3,16(0x10)
1c004c4c:	4c000020 	jirl	$r0,$r1,0
1c004c50:	28000487 	ld.b	$r7,$r4,1(0x1)
1c004c54:	0281e008 	addi.w	$r8,$r0,120(0x78)
1c004c58:	0015000b 	move	$r11,$r0
1c004c5c:	5ffed0e8 	bne	$r7,$r8,-304(0x3fed0) # 1c004b2c <parseval+0x3c>
1c004c60:	02800888 	addi.w	$r8,$r4,2(0x2)
1c004c64:	0015000a 	move	$r10,$r0
1c004c68:	02802406 	addi.w	$r6,$r0,9(0x9)
1c004c6c:	0280140d 	addi.w	$r13,$r0,5(0x5)
1c004c70:	28000113 	ld.b	$r19,$r8,0
1c004c74:	00409149 	slli.w	$r9,$r10,0x4
1c004c78:	02800508 	addi.w	$r8,$r8,1(0x1)
1c004c7c:	29803073 	st.w	$r19,$r3,12(0xc)
1c004c80:	2a003070 	ld.bu	$r16,$r3,12(0xc)
1c004c84:	02bf426f 	addi.w	$r15,$r19,-48(0xfd0)
1c004c88:	02bf420e 	addi.w	$r14,$r16,-48(0xfd0)
1c004c8c:	2980306e 	st.w	$r14,$r3,12(0xc)
1c004c90:	2a00306c 	ld.bu	$r12,$r3,12(0xc)
1c004c94:	02be7e12 	addi.w	$r18,$r16,-97(0xf9f)
1c004c98:	29803072 	st.w	$r18,$r3,12(0xc)
1c004c9c:	2a003065 	ld.bu	$r5,$r3,12(0xc)
1c004ca0:	6c0008cc 	bgeu	$r6,$r12,8(0x8) # 1c004ca8 <parseval+0x1b8>
1c004ca4:	6bff79a5 	bltu	$r13,$r5,-136(0x3ff78) # 1c004c1c <parseval+0x12c>
1c004ca8:	640008cf 	bge	$r6,$r15,8(0x8) # 1c004cb0 <parseval+0x1c0>
1c004cac:	02bea66f 	addi.w	$r15,$r19,-87(0xfa9)
1c004cb0:	001025ea 	add.w	$r10,$r15,$r9
1c004cb4:	53ffbfff 	b	-68(0xfffffbc) # 1c004c70 <parseval+0x180>
1c004cb8:	0015000a 	move	$r10,$r0
1c004cbc:	53ff63ff 	b	-160(0xfffff60) # 1c004c1c <parseval+0x12c>

1c004cc0 <get_seed_args>:
get_seed_args():
1c004cc0:	60001085 	blt	$r4,$r5,16(0x10) # 1c004cd0 <get_seed_args+0x10>
1c004cc4:	00150004 	move	$r4,$r0
1c004cc8:	4c000020 	jirl	$r0,$r1,0
1c004ccc:	03400000 	andi	$r0,$r0,0x0
1c004cd0:	00408884 	slli.w	$r4,$r4,0x2
1c004cd4:	001010c5 	add.w	$r5,$r6,$r4
1c004cd8:	288000ac 	ld.w	$r12,$r5,0
1c004cdc:	0280b40d 	addi.w	$r13,$r0,45(0x2d)
1c004ce0:	02bfc063 	addi.w	$r3,$r3,-16(0xff0)
1c004ce4:	28000192 	ld.b	$r18,$r12,0
1c004ce8:	02800413 	addi.w	$r19,$r0,1(0x1)
1c004cec:	58014a4d 	beq	$r18,$r13,328(0x148) # 1c004e34 <get_seed_args+0x174>
1c004cf0:	0280c006 	addi.w	$r6,$r0,48(0x30)
1c004cf4:	58012e46 	beq	$r18,$r6,300(0x12c) # 1c004e20 <get_seed_args+0x160>
1c004cf8:	02bf4248 	addi.w	$r8,$r18,-48(0xfd0)
1c004cfc:	29803068 	st.w	$r8,$r3,12(0xc)
1c004d00:	2a00306e 	ld.bu	$r14,$r3,12(0xc)
1c004d04:	02802407 	addi.w	$r7,$r0,9(0x9)
1c004d08:	00150004 	move	$r4,$r0
1c004d0c:	6800f4ee 	bltu	$r7,$r14,244(0xf4) # 1c004e00 <get_seed_args+0x140>
1c004d10:	00150004 	move	$r4,$r0
1c004d14:	0280280a 	addi.w	$r10,$r0,10(0xa)
1c004d18:	0280240b 	addi.w	$r11,$r0,9(0x9)
1c004d1c:	001c2894 	mul.w	$r20,$r4,$r10
1c004d20:	28000592 	ld.b	$r18,$r12,1(0x1)
1c004d24:	02bf4250 	addi.w	$r16,$r18,-48(0xfd0)
1c004d28:	29803070 	st.w	$r16,$r3,12(0xc)
1c004d2c:	2a003071 	ld.bu	$r17,$r3,12(0xc)
1c004d30:	00105104 	add.w	$r4,$r8,$r20
1c004d34:	6800cd71 	bltu	$r11,$r17,204(0xcc) # 1c004e00 <get_seed_args+0x140>
1c004d38:	001c2884 	mul.w	$r4,$r4,$r10
1c004d3c:	28000992 	ld.b	$r18,$r12,2(0x2)
1c004d40:	02bf424f 	addi.w	$r15,$r18,-48(0xfd0)
1c004d44:	2980306f 	st.w	$r15,$r3,12(0xc)
1c004d48:	2a003065 	ld.bu	$r5,$r3,12(0xc)
1c004d4c:	00101204 	add.w	$r4,$r16,$r4
1c004d50:	6800b165 	bltu	$r11,$r5,176(0xb0) # 1c004e00 <get_seed_args+0x140>
1c004d54:	001c288d 	mul.w	$r13,$r4,$r10
1c004d58:	28000d92 	ld.b	$r18,$r12,3(0x3)
1c004d5c:	02bf4246 	addi.w	$r6,$r18,-48(0xfd0)
1c004d60:	29803066 	st.w	$r6,$r3,12(0xc)
1c004d64:	2a00306e 	ld.bu	$r14,$r3,12(0xc)
1c004d68:	001035e4 	add.w	$r4,$r15,$r13
1c004d6c:	6800956e 	bltu	$r11,$r14,148(0x94) # 1c004e00 <get_seed_args+0x140>
1c004d70:	001c2887 	mul.w	$r7,$r4,$r10
1c004d74:	28001192 	ld.b	$r18,$r12,4(0x4)
1c004d78:	02bf4248 	addi.w	$r8,$r18,-48(0xfd0)
1c004d7c:	29803068 	st.w	$r8,$r3,12(0xc)
1c004d80:	2a003069 	ld.bu	$r9,$r3,12(0xc)
1c004d84:	00101cc4 	add.w	$r4,$r6,$r7
1c004d88:	68007969 	bltu	$r11,$r9,120(0x78) # 1c004e00 <get_seed_args+0x140>
1c004d8c:	001c2894 	mul.w	$r20,$r4,$r10
1c004d90:	28001592 	ld.b	$r18,$r12,5(0x5)
1c004d94:	02bf4250 	addi.w	$r16,$r18,-48(0xfd0)
1c004d98:	29803070 	st.w	$r16,$r3,12(0xc)
1c004d9c:	2a003071 	ld.bu	$r17,$r3,12(0xc)
1c004da0:	00105104 	add.w	$r4,$r8,$r20
1c004da4:	68005d71 	bltu	$r11,$r17,92(0x5c) # 1c004e00 <get_seed_args+0x140>
1c004da8:	001c2884 	mul.w	$r4,$r4,$r10
1c004dac:	28001992 	ld.b	$r18,$r12,6(0x6)
1c004db0:	02bf424f 	addi.w	$r15,$r18,-48(0xfd0)
1c004db4:	2980306f 	st.w	$r15,$r3,12(0xc)
1c004db8:	2a003065 	ld.bu	$r5,$r3,12(0xc)
1c004dbc:	00101204 	add.w	$r4,$r16,$r4
1c004dc0:	68004165 	bltu	$r11,$r5,64(0x40) # 1c004e00 <get_seed_args+0x140>
1c004dc4:	001c288d 	mul.w	$r13,$r4,$r10
1c004dc8:	0280218c 	addi.w	$r12,$r12,8(0x8)
1c004dcc:	283ffd92 	ld.b	$r18,$r12,-1(0xfff)
1c004dd0:	02bf4246 	addi.w	$r6,$r18,-48(0xfd0)
1c004dd4:	29803066 	st.w	$r6,$r3,12(0xc)
1c004dd8:	2a00306e 	ld.bu	$r14,$r3,12(0xc)
1c004ddc:	001035e4 	add.w	$r4,$r15,$r13
1c004de0:	6800216e 	bltu	$r11,$r14,32(0x20) # 1c004e00 <get_seed_args+0x140>
1c004de4:	001c2887 	mul.w	$r7,$r4,$r10
1c004de8:	28000192 	ld.b	$r18,$r12,0
1c004dec:	02bf4248 	addi.w	$r8,$r18,-48(0xfd0)
1c004df0:	29803068 	st.w	$r8,$r3,12(0xc)
1c004df4:	2a003069 	ld.bu	$r9,$r3,12(0xc)
1c004df8:	00101cc4 	add.w	$r4,$r6,$r7
1c004dfc:	6fff2169 	bgeu	$r11,$r9,-224(0x3ff20) # 1c004d1c <get_seed_args+0x5c>
1c004e00:	02812c14 	addi.w	$r20,$r0,75(0x4b)
1c004e04:	58004254 	beq	$r18,$r20,64(0x40) # 1c004e44 <get_seed_args+0x184>
1c004e08:	02813410 	addi.w	$r16,$r0,77(0x4d)
1c004e0c:	5c000a50 	bne	$r18,$r16,8(0x8) # 1c004e14 <get_seed_args+0x154>
1c004e10:	0040d084 	slli.w	$r4,$r4,0x14
1c004e14:	001c4c84 	mul.w	$r4,$r4,$r19
1c004e18:	02804063 	addi.w	$r3,$r3,16(0x10)
1c004e1c:	4c000020 	jirl	$r0,$r1,0
1c004e20:	28000588 	ld.b	$r8,$r12,1(0x1)
1c004e24:	0281e009 	addi.w	$r9,$r0,120(0x78)
1c004e28:	58002909 	beq	$r8,$r9,40(0x28) # 1c004e50 <get_seed_args+0x190>
1c004e2c:	00150008 	move	$r8,$r0
1c004e30:	53fee3ff 	b	-288(0xffffee0) # 1c004d10 <get_seed_args+0x50>
1c004e34:	28000592 	ld.b	$r18,$r12,1(0x1)
1c004e38:	02bffc13 	addi.w	$r19,$r0,-1(0xfff)
1c004e3c:	0280058c 	addi.w	$r12,$r12,1(0x1)
1c004e40:	53feb3ff 	b	-336(0xffffeb0) # 1c004cf0 <get_seed_args+0x30>
1c004e44:	0040a884 	slli.w	$r4,$r4,0xa
1c004e48:	53ffcfff 	b	-52(0xfffffcc) # 1c004e14 <get_seed_args+0x154>
1c004e4c:	03400000 	andi	$r0,$r0,0x0
1c004e50:	0280098b 	addi.w	$r11,$r12,2(0x2)
1c004e54:	00150004 	move	$r4,$r0
1c004e58:	0280240e 	addi.w	$r14,$r0,9(0x9)
1c004e5c:	02801407 	addi.w	$r7,$r0,5(0x5)
1c004e60:	28000172 	ld.b	$r18,$r11,0
1c004e64:	0040908a 	slli.w	$r10,$r4,0x4
1c004e68:	0280056b 	addi.w	$r11,$r11,1(0x1)
1c004e6c:	29803072 	st.w	$r18,$r3,12(0xc)
1c004e70:	2a003071 	ld.bu	$r17,$r3,12(0xc)
1c004e74:	02bf424f 	addi.w	$r15,$r18,-48(0xfd0)
1c004e78:	02bf4225 	addi.w	$r5,$r17,-48(0xfd0)
1c004e7c:	29803065 	st.w	$r5,$r3,12(0xc)
1c004e80:	2a00306c 	ld.bu	$r12,$r3,12(0xc)
1c004e84:	02be7e2d 	addi.w	$r13,$r17,-97(0xf9f)
1c004e88:	2980306d 	st.w	$r13,$r3,12(0xc)
1c004e8c:	2a003066 	ld.bu	$r6,$r3,12(0xc)
1c004e90:	6c0009cc 	bgeu	$r14,$r12,8(0x8) # 1c004e98 <get_seed_args+0x1d8>
1c004e94:	6bff6ce6 	bltu	$r7,$r6,-148(0x3ff6c) # 1c004e00 <get_seed_args+0x140>
1c004e98:	640009cf 	bge	$r14,$r15,8(0x8) # 1c004ea0 <get_seed_args+0x1e0>
1c004e9c:	02bea64f 	addi.w	$r15,$r18,-87(0xfa9)
1c004ea0:	00103d44 	add.w	$r4,$r10,$r15
1c004ea4:	53ffbfff 	b	-68(0xfffffbc) # 1c004e60 <get_seed_args+0x1a0>
1c004ea8:	03400000 	andi	$r0,$r0,0x0
1c004eac:	03400000 	andi	$r0,$r0,0x0

1c004eb0 <crcu8>:
crcu8():
1c004eb0:	0015948e 	xor	$r14,$r4,$r5
1c004eb4:	034005c6 	andi	$r6,$r14,0x1
1c004eb8:	02bfc063 	addi.w	$r3,$r3,-16(0xff0)
1c004ebc:	0044848d 	srli.w	$r13,$r4,0x1
1c004ec0:	004484a8 	srli.w	$r8,$r5,0x1
1c004ec4:	580018c0 	beq	$r6,$r0,24(0x18) # 1c004edc <crcu8+0x2c>
1c004ec8:	15ffff45 	lu12i.w	$r5,-6(0xffffa)
1c004ecc:	038004a7 	ori	$r7,$r5,0x1
1c004ed0:	00159d0c 	xor	$r12,$r8,$r7
1c004ed4:	2980306c 	st.w	$r12,$r3,12(0xc)
1c004ed8:	2a403068 	ld.hu	$r8,$r3,12(0xc)
1c004edc:	0015b509 	xor	$r9,$r8,$r13
1c004ee0:	0340052a 	andi	$r10,$r9,0x1
1c004ee4:	0044888b 	srli.w	$r11,$r4,0x2
1c004ee8:	00448512 	srli.w	$r18,$r8,0x1
1c004eec:	58001940 	beq	$r10,$r0,24(0x18) # 1c004f04 <crcu8+0x54>
1c004ef0:	15ffff4f 	lu12i.w	$r15,-6(0xffffa)
1c004ef4:	038005f0 	ori	$r16,$r15,0x1
1c004ef8:	0015c251 	xor	$r17,$r18,$r16
1c004efc:	29803071 	st.w	$r17,$r3,12(0xc)
1c004f00:	2a403072 	ld.hu	$r18,$r3,12(0xc)
1c004f04:	0015ae53 	xor	$r19,$r18,$r11
1c004f08:	03400674 	andi	$r20,$r19,0x1
1c004f0c:	00448c86 	srli.w	$r6,$r4,0x3
1c004f10:	00448647 	srli.w	$r7,$r18,0x1
1c004f14:	58001a80 	beq	$r20,$r0,24(0x18) # 1c004f2c <crcu8+0x7c>
1c004f18:	15ffff4e 	lu12i.w	$r14,-6(0xffffa)
1c004f1c:	038005cd 	ori	$r13,$r14,0x1
1c004f20:	0015b4e5 	xor	$r5,$r7,$r13
1c004f24:	29803065 	st.w	$r5,$r3,12(0xc)
1c004f28:	2a403067 	ld.hu	$r7,$r3,12(0xc)
1c004f2c:	001598ec 	xor	$r12,$r7,$r6
1c004f30:	03400588 	andi	$r8,$r12,0x1
1c004f34:	00449089 	srli.w	$r9,$r4,0x4
1c004f38:	004484f0 	srli.w	$r16,$r7,0x1
1c004f3c:	58001900 	beq	$r8,$r0,24(0x18) # 1c004f54 <crcu8+0xa4>
1c004f40:	15ffff4a 	lu12i.w	$r10,-6(0xffffa)
1c004f44:	0380054b 	ori	$r11,$r10,0x1
1c004f48:	0015ae0f 	xor	$r15,$r16,$r11
1c004f4c:	2980306f 	st.w	$r15,$r3,12(0xc)
1c004f50:	2a403070 	ld.hu	$r16,$r3,12(0xc)
1c004f54:	0015a611 	xor	$r17,$r16,$r9
1c004f58:	03400632 	andi	$r18,$r17,0x1
1c004f5c:	00449493 	srli.w	$r19,$r4,0x5
1c004f60:	00448605 	srli.w	$r5,$r16,0x1
1c004f64:	58001a40 	beq	$r18,$r0,24(0x18) # 1c004f7c <crcu8+0xcc>
1c004f68:	15ffff54 	lu12i.w	$r20,-6(0xffffa)
1c004f6c:	03800686 	ori	$r6,$r20,0x1
1c004f70:	001598ae 	xor	$r14,$r5,$r6
1c004f74:	2980306e 	st.w	$r14,$r3,12(0xc)
1c004f78:	2a403065 	ld.hu	$r5,$r3,12(0xc)
1c004f7c:	0015ccad 	xor	$r13,$r5,$r19
1c004f80:	034005a7 	andi	$r7,$r13,0x1
1c004f84:	00449888 	srli.w	$r8,$r4,0x6
1c004f88:	004484ab 	srli.w	$r11,$r5,0x1
1c004f8c:	580018e0 	beq	$r7,$r0,24(0x18) # 1c004fa4 <crcu8+0xf4>
1c004f90:	15ffff49 	lu12i.w	$r9,-6(0xffffa)
1c004f94:	0380052a 	ori	$r10,$r9,0x1
1c004f98:	0015a96c 	xor	$r12,$r11,$r10
1c004f9c:	2980306c 	st.w	$r12,$r3,12(0xc)
1c004fa0:	2a40306b 	ld.hu	$r11,$r3,12(0xc)
1c004fa4:	0015a16f 	xor	$r15,$r11,$r8
1c004fa8:	034005f0 	andi	$r16,$r15,0x1
1c004fac:	00449c91 	srli.w	$r17,$r4,0x7
1c004fb0:	00448574 	srli.w	$r20,$r11,0x1
1c004fb4:	58001a00 	beq	$r16,$r0,24(0x18) # 1c004fcc <crcu8+0x11c>
1c004fb8:	15ffff44 	lu12i.w	$r4,-6(0xffffa)
1c004fbc:	03800492 	ori	$r18,$r4,0x1
1c004fc0:	0015ca93 	xor	$r19,$r20,$r18
1c004fc4:	29803073 	st.w	$r19,$r3,12(0xc)
1c004fc8:	2a403074 	ld.hu	$r20,$r3,12(0xc)
1c004fcc:	03400686 	andi	$r6,$r20,0x1
1c004fd0:	00448684 	srli.w	$r4,$r20,0x1
1c004fd4:	580018d1 	beq	$r6,$r17,24(0x18) # 1c004fec <crcu8+0x13c>
1c004fd8:	15ffff4e 	lu12i.w	$r14,-6(0xffffa)
1c004fdc:	038005c5 	ori	$r5,$r14,0x1
1c004fe0:	0015948d 	xor	$r13,$r4,$r5
1c004fe4:	2980306d 	st.w	$r13,$r3,12(0xc)
1c004fe8:	2a403064 	ld.hu	$r4,$r3,12(0xc)
1c004fec:	02804063 	addi.w	$r3,$r3,16(0x10)
1c004ff0:	4c000020 	jirl	$r0,$r1,0
1c004ff4:	03400000 	andi	$r0,$r0,0x0
1c004ff8:	03400000 	andi	$r0,$r0,0x0
1c004ffc:	03400000 	andi	$r0,$r0,0x0

1c005000 <crcu16>:
crcu16():
1c005000:	0015948f 	xor	$r15,$r4,$r5
1c005004:	0040e08c 	slli.w	$r12,$r4,0x18
1c005008:	034005e6 	andi	$r6,$r15,0x1
1c00500c:	02bfc063 	addi.w	$r3,$r3,-16(0xff0)
1c005010:	0044e18d 	srli.w	$r13,$r12,0x18
1c005014:	0044e58e 	srli.w	$r14,$r12,0x19
1c005018:	004484a9 	srli.w	$r9,$r5,0x1
1c00501c:	580018c0 	beq	$r6,$r0,24(0x18) # 1c005034 <crcu16+0x34>
1c005020:	15ffff45 	lu12i.w	$r5,-6(0xffffa)
1c005024:	038004a7 	ori	$r7,$r5,0x1
1c005028:	00159d28 	xor	$r8,$r9,$r7
1c00502c:	29803068 	st.w	$r8,$r3,12(0xc)
1c005030:	2a403069 	ld.hu	$r9,$r3,12(0xc)
1c005034:	0015b92a 	xor	$r10,$r9,$r14
1c005038:	0340054b 	andi	$r11,$r10,0x1
1c00503c:	004489b0 	srli.w	$r16,$r13,0x2
1c005040:	00448534 	srli.w	$r20,$r9,0x1
1c005044:	58001960 	beq	$r11,$r0,24(0x18) # 1c00505c <crcu16+0x5c>
1c005048:	15ffff51 	lu12i.w	$r17,-6(0xffffa)
1c00504c:	03800632 	ori	$r18,$r17,0x1
1c005050:	0015ca93 	xor	$r19,$r20,$r18
1c005054:	29803073 	st.w	$r19,$r3,12(0xc)
1c005058:	2a403074 	ld.hu	$r20,$r3,12(0xc)
1c00505c:	0015c28f 	xor	$r15,$r20,$r16
1c005060:	034005e6 	andi	$r6,$r15,0x1
1c005064:	00448da5 	srli.w	$r5,$r13,0x3
1c005068:	00448688 	srli.w	$r8,$r20,0x1
1c00506c:	580018c0 	beq	$r6,$r0,24(0x18) # 1c005084 <crcu16+0x84>
1c005070:	15ffff4e 	lu12i.w	$r14,-6(0xffffa)
1c005074:	038005c7 	ori	$r7,$r14,0x1
1c005078:	00159d0c 	xor	$r12,$r8,$r7
1c00507c:	2980306c 	st.w	$r12,$r3,12(0xc)
1c005080:	2a403068 	ld.hu	$r8,$r3,12(0xc)
1c005084:	00159509 	xor	$r9,$r8,$r5
1c005088:	0340052a 	andi	$r10,$r9,0x1
1c00508c:	004491ab 	srli.w	$r11,$r13,0x4
1c005090:	00448513 	srli.w	$r19,$r8,0x1
1c005094:	58001940 	beq	$r10,$r0,24(0x18) # 1c0050ac <crcu16+0xac>
1c005098:	15ffff50 	lu12i.w	$r16,-6(0xffffa)
1c00509c:	03800611 	ori	$r17,$r16,0x1
1c0050a0:	0015c672 	xor	$r18,$r19,$r17
1c0050a4:	29803072 	st.w	$r18,$r3,12(0xc)
1c0050a8:	2a403073 	ld.hu	$r19,$r3,12(0xc)
1c0050ac:	0015ae74 	xor	$r20,$r19,$r11
1c0050b0:	03400686 	andi	$r6,$r20,0x1
1c0050b4:	004495af 	srli.w	$r15,$r13,0x5
1c0050b8:	0044866c 	srli.w	$r12,$r19,0x1
1c0050bc:	580018c0 	beq	$r6,$r0,24(0x18) # 1c0050d4 <crcu16+0xd4>
1c0050c0:	15ffff45 	lu12i.w	$r5,-6(0xffffa)
1c0050c4:	038004ae 	ori	$r14,$r5,0x1
1c0050c8:	0015b987 	xor	$r7,$r12,$r14
1c0050cc:	29803067 	st.w	$r7,$r3,12(0xc)
1c0050d0:	2a40306c 	ld.hu	$r12,$r3,12(0xc)
1c0050d4:	0015bd88 	xor	$r8,$r12,$r15
1c0050d8:	03400509 	andi	$r9,$r8,0x1
1c0050dc:	004499aa 	srli.w	$r10,$r13,0x6
1c0050e0:	00448592 	srli.w	$r18,$r12,0x1
1c0050e4:	58001920 	beq	$r9,$r0,24(0x18) # 1c0050fc <crcu16+0xfc>
1c0050e8:	15ffff4b 	lu12i.w	$r11,-6(0xffffa)
1c0050ec:	03800570 	ori	$r16,$r11,0x1
1c0050f0:	0015c251 	xor	$r17,$r18,$r16
1c0050f4:	29803071 	st.w	$r17,$r3,12(0xc)
1c0050f8:	2a403072 	ld.hu	$r18,$r3,12(0xc)
1c0050fc:	0015aa53 	xor	$r19,$r18,$r10
1c005100:	03400674 	andi	$r20,$r19,0x1
1c005104:	00449dad 	srli.w	$r13,$r13,0x7
1c005108:	00448647 	srli.w	$r7,$r18,0x1
1c00510c:	58001a80 	beq	$r20,$r0,24(0x18) # 1c005124 <crcu16+0x124>
1c005110:	15ffff46 	lu12i.w	$r6,-6(0xffffa)
1c005114:	038004cf 	ori	$r15,$r6,0x1
1c005118:	0015bce5 	xor	$r5,$r7,$r15
1c00511c:	29803065 	st.w	$r5,$r3,12(0xc)
1c005120:	2a403067 	ld.hu	$r7,$r3,12(0xc)
1c005124:	034004ee 	andi	$r14,$r7,0x1
1c005128:	004484ea 	srli.w	$r10,$r7,0x1
1c00512c:	580019cd 	beq	$r14,$r13,24(0x18) # 1c005144 <crcu16+0x144>
1c005130:	15ffff48 	lu12i.w	$r8,-6(0xffffa)
1c005134:	03800509 	ori	$r9,$r8,0x1
1c005138:	0015a54c 	xor	$r12,$r10,$r9
1c00513c:	2980306c 	st.w	$r12,$r3,12(0xc)
1c005140:	2a40306a 	ld.hu	$r10,$r3,12(0xc)
1c005144:	0044a084 	srli.w	$r4,$r4,0x8
1c005148:	0015a88b 	xor	$r11,$r4,$r10
1c00514c:	0040e090 	slli.w	$r16,$r4,0x18
1c005150:	03400571 	andi	$r17,$r11,0x1
1c005154:	0044e212 	srli.w	$r18,$r16,0x18
1c005158:	0044e613 	srli.w	$r19,$r16,0x19
1c00515c:	0044854f 	srli.w	$r15,$r10,0x1
1c005160:	58001a20 	beq	$r17,$r0,24(0x18) # 1c005178 <crcu16+0x178>
1c005164:	15ffff54 	lu12i.w	$r20,-6(0xffffa)
1c005168:	0380068d 	ori	$r13,$r20,0x1
1c00516c:	0015b5e6 	xor	$r6,$r15,$r13
1c005170:	29803066 	st.w	$r6,$r3,12(0xc)
1c005174:	2a40306f 	ld.hu	$r15,$r3,12(0xc)
1c005178:	0015be65 	xor	$r5,$r19,$r15
1c00517c:	034004a7 	andi	$r7,$r5,0x1
1c005180:	00448a4e 	srli.w	$r14,$r18,0x2
1c005184:	004485ea 	srli.w	$r10,$r15,0x1
1c005188:	580018e0 	beq	$r7,$r0,24(0x18) # 1c0051a0 <crcu16+0x1a0>
1c00518c:	15ffff48 	lu12i.w	$r8,-6(0xffffa)
1c005190:	03800509 	ori	$r9,$r8,0x1
1c005194:	0015a54c 	xor	$r12,$r10,$r9
1c005198:	2980306c 	st.w	$r12,$r3,12(0xc)
1c00519c:	2a40306a 	ld.hu	$r10,$r3,12(0xc)
1c0051a0:	0015b944 	xor	$r4,$r10,$r14
1c0051a4:	0340048b 	andi	$r11,$r4,0x1
1c0051a8:	00448e50 	srli.w	$r16,$r18,0x3
1c0051ac:	00448546 	srli.w	$r6,$r10,0x1
1c0051b0:	58001960 	beq	$r11,$r0,24(0x18) # 1c0051c8 <crcu16+0x1c8>
1c0051b4:	15ffff51 	lu12i.w	$r17,-6(0xffffa)
1c0051b8:	03800633 	ori	$r19,$r17,0x1
1c0051bc:	0015ccd4 	xor	$r20,$r6,$r19
1c0051c0:	29803074 	st.w	$r20,$r3,12(0xc)
1c0051c4:	2a403066 	ld.hu	$r6,$r3,12(0xc)
1c0051c8:	0015c0cd 	xor	$r13,$r6,$r16
1c0051cc:	034005af 	andi	$r15,$r13,0x1
1c0051d0:	00449245 	srli.w	$r5,$r18,0x4
1c0051d4:	004484c9 	srli.w	$r9,$r6,0x1
1c0051d8:	580019e0 	beq	$r15,$r0,24(0x18) # 1c0051f0 <crcu16+0x1f0>
1c0051dc:	15ffff47 	lu12i.w	$r7,-6(0xffffa)
1c0051e0:	038004ee 	ori	$r14,$r7,0x1
1c0051e4:	0015b928 	xor	$r8,$r9,$r14
1c0051e8:	29803068 	st.w	$r8,$r3,12(0xc)
1c0051ec:	2a403069 	ld.hu	$r9,$r3,12(0xc)
1c0051f0:	0015952c 	xor	$r12,$r9,$r5
1c0051f4:	0340058a 	andi	$r10,$r12,0x1
1c0051f8:	0044964b 	srli.w	$r11,$r18,0x5
1c0051fc:	00448533 	srli.w	$r19,$r9,0x1
1c005200:	58001940 	beq	$r10,$r0,24(0x18) # 1c005218 <crcu16+0x218>
1c005204:	15ffff50 	lu12i.w	$r16,-6(0xffffa)
1c005208:	03800611 	ori	$r17,$r16,0x1
1c00520c:	0015c664 	xor	$r4,$r19,$r17
1c005210:	29803064 	st.w	$r4,$r3,12(0xc)
1c005214:	2a403073 	ld.hu	$r19,$r3,12(0xc)
1c005218:	0015ae74 	xor	$r20,$r19,$r11
1c00521c:	03400686 	andi	$r6,$r20,0x1
1c005220:	00449a4f 	srli.w	$r15,$r18,0x6
1c005224:	00448668 	srli.w	$r8,$r19,0x1
1c005228:	580018c0 	beq	$r6,$r0,24(0x18) # 1c005240 <crcu16+0x240>
1c00522c:	15ffff4d 	lu12i.w	$r13,-6(0xffffa)
1c005230:	038005a5 	ori	$r5,$r13,0x1
1c005234:	00159507 	xor	$r7,$r8,$r5
1c005238:	29803067 	st.w	$r7,$r3,12(0xc)
1c00523c:	2a403068 	ld.hu	$r8,$r3,12(0xc)
1c005240:	0015bd0e 	xor	$r14,$r8,$r15
1c005244:	034005c9 	andi	$r9,$r14,0x1
1c005248:	00449e52 	srli.w	$r18,$r18,0x7
1c00524c:	00448510 	srli.w	$r16,$r8,0x1
1c005250:	58001920 	beq	$r9,$r0,24(0x18) # 1c005268 <crcu16+0x268>
1c005254:	15ffff4c 	lu12i.w	$r12,-6(0xffffa)
1c005258:	0380058a 	ori	$r10,$r12,0x1
1c00525c:	0015aa0b 	xor	$r11,$r16,$r10
1c005260:	2980306b 	st.w	$r11,$r3,12(0xc)
1c005264:	2a403070 	ld.hu	$r16,$r3,12(0xc)
1c005268:	03400611 	andi	$r17,$r16,0x1
1c00526c:	00448604 	srli.w	$r4,$r16,0x1
1c005270:	58001a32 	beq	$r17,$r18,24(0x18) # 1c005288 <crcu16+0x288>
1c005274:	15ffff53 	lu12i.w	$r19,-6(0xffffa)
1c005278:	03800674 	ori	$r20,$r19,0x1
1c00527c:	0015d084 	xor	$r4,$r4,$r20
1c005280:	29803064 	st.w	$r4,$r3,12(0xc)
1c005284:	2a403064 	ld.hu	$r4,$r3,12(0xc)
1c005288:	02804063 	addi.w	$r3,$r3,16(0x10)
1c00528c:	4c000020 	jirl	$r0,$r1,0

1c005290 <crcu32>:
crcu32():
1c005290:	02bfc063 	addi.w	$r3,$r3,-16(0xff0)
1c005294:	00159490 	xor	$r16,$r4,$r5
1c005298:	0040e08c 	slli.w	$r12,$r4,0x18
1c00529c:	29803064 	st.w	$r4,$r3,12(0xc)
1c0052a0:	03400606 	andi	$r6,$r16,0x1
1c0052a4:	2a40306d 	ld.hu	$r13,$r3,12(0xc)
1c0052a8:	0044e18e 	srli.w	$r14,$r12,0x18
1c0052ac:	0044e58f 	srli.w	$r15,$r12,0x19
1c0052b0:	004484a9 	srli.w	$r9,$r5,0x1
1c0052b4:	580018c0 	beq	$r6,$r0,24(0x18) # 1c0052cc <crcu32+0x3c>
1c0052b8:	15ffff45 	lu12i.w	$r5,-6(0xffffa)
1c0052bc:	038004a7 	ori	$r7,$r5,0x1
1c0052c0:	00159d28 	xor	$r8,$r9,$r7
1c0052c4:	29803068 	st.w	$r8,$r3,12(0xc)
1c0052c8:	2a403069 	ld.hu	$r9,$r3,12(0xc)
1c0052cc:	0015bd2a 	xor	$r10,$r9,$r15
1c0052d0:	0340054b 	andi	$r11,$r10,0x1
1c0052d4:	004489d1 	srli.w	$r17,$r14,0x2
1c0052d8:	0044852c 	srli.w	$r12,$r9,0x1
1c0052dc:	58001960 	beq	$r11,$r0,24(0x18) # 1c0052f4 <crcu32+0x64>
1c0052e0:	15ffff52 	lu12i.w	$r18,-6(0xffffa)
1c0052e4:	03800653 	ori	$r19,$r18,0x1
1c0052e8:	0015cd94 	xor	$r20,$r12,$r19
1c0052ec:	29803074 	st.w	$r20,$r3,12(0xc)
1c0052f0:	2a40306c 	ld.hu	$r12,$r3,12(0xc)
1c0052f4:	0015c590 	xor	$r16,$r12,$r17
1c0052f8:	03400606 	andi	$r6,$r16,0x1
1c0052fc:	00448dc5 	srli.w	$r5,$r14,0x3
1c005300:	00448589 	srli.w	$r9,$r12,0x1
1c005304:	580018c0 	beq	$r6,$r0,24(0x18) # 1c00531c <crcu32+0x8c>
1c005308:	15ffff4f 	lu12i.w	$r15,-6(0xffffa)
1c00530c:	038005e7 	ori	$r7,$r15,0x1
1c005310:	00159d28 	xor	$r8,$r9,$r7
1c005314:	29803068 	st.w	$r8,$r3,12(0xc)
1c005318:	2a403069 	ld.hu	$r9,$r3,12(0xc)
1c00531c:	0015952a 	xor	$r10,$r9,$r5
1c005320:	0340054b 	andi	$r11,$r10,0x1
1c005324:	004491d1 	srli.w	$r17,$r14,0x4
1c005328:	0044852c 	srli.w	$r12,$r9,0x1
1c00532c:	58001960 	beq	$r11,$r0,24(0x18) # 1c005344 <crcu32+0xb4>
1c005330:	15ffff52 	lu12i.w	$r18,-6(0xffffa)
1c005334:	03800653 	ori	$r19,$r18,0x1
1c005338:	0015cd94 	xor	$r20,$r12,$r19
1c00533c:	29803074 	st.w	$r20,$r3,12(0xc)
1c005340:	2a40306c 	ld.hu	$r12,$r3,12(0xc)
1c005344:	0015c590 	xor	$r16,$r12,$r17
1c005348:	03400606 	andi	$r6,$r16,0x1
1c00534c:	004495c5 	srli.w	$r5,$r14,0x5
1c005350:	00448589 	srli.w	$r9,$r12,0x1
1c005354:	580018c0 	beq	$r6,$r0,24(0x18) # 1c00536c <crcu32+0xdc>
1c005358:	15ffff4f 	lu12i.w	$r15,-6(0xffffa)
1c00535c:	038005e7 	ori	$r7,$r15,0x1
1c005360:	00159d28 	xor	$r8,$r9,$r7
1c005364:	29803068 	st.w	$r8,$r3,12(0xc)
1c005368:	2a403069 	ld.hu	$r9,$r3,12(0xc)
1c00536c:	0015952a 	xor	$r10,$r9,$r5
1c005370:	0340054b 	andi	$r11,$r10,0x1
1c005374:	004499d1 	srli.w	$r17,$r14,0x6
1c005378:	0044852c 	srli.w	$r12,$r9,0x1
1c00537c:	58001960 	beq	$r11,$r0,24(0x18) # 1c005394 <crcu32+0x104>
1c005380:	15ffff52 	lu12i.w	$r18,-6(0xffffa)
1c005384:	03800653 	ori	$r19,$r18,0x1
1c005388:	0015cd94 	xor	$r20,$r12,$r19
1c00538c:	29803074 	st.w	$r20,$r3,12(0xc)
1c005390:	2a40306c 	ld.hu	$r12,$r3,12(0xc)
1c005394:	0015c590 	xor	$r16,$r12,$r17
1c005398:	03400606 	andi	$r6,$r16,0x1
1c00539c:	00449dce 	srli.w	$r14,$r14,0x7
1c0053a0:	00448588 	srli.w	$r8,$r12,0x1
1c0053a4:	580018c0 	beq	$r6,$r0,24(0x18) # 1c0053bc <crcu32+0x12c>
1c0053a8:	15ffff45 	lu12i.w	$r5,-6(0xffffa)
1c0053ac:	038004af 	ori	$r15,$r5,0x1
1c0053b0:	0015bd07 	xor	$r7,$r8,$r15
1c0053b4:	29803067 	st.w	$r7,$r3,12(0xc)
1c0053b8:	2a403068 	ld.hu	$r8,$r3,12(0xc)
1c0053bc:	03400509 	andi	$r9,$r8,0x1
1c0053c0:	00448512 	srli.w	$r18,$r8,0x1
1c0053c4:	5800192e 	beq	$r9,$r14,24(0x18) # 1c0053dc <crcu32+0x14c>
1c0053c8:	15ffff4a 	lu12i.w	$r10,-6(0xffffa)
1c0053cc:	0380054b 	ori	$r11,$r10,0x1
1c0053d0:	0015ae51 	xor	$r17,$r18,$r11
1c0053d4:	29803071 	st.w	$r17,$r3,12(0xc)
1c0053d8:	2a403072 	ld.hu	$r18,$r3,12(0xc)
1c0053dc:	0044a1ad 	srli.w	$r13,$r13,0x8
1c0053e0:	0015c9b3 	xor	$r19,$r13,$r18
1c0053e4:	0040e1b4 	slli.w	$r20,$r13,0x18
1c0053e8:	03400670 	andi	$r16,$r19,0x1
1c0053ec:	0044e286 	srli.w	$r6,$r20,0x18
1c0053f0:	0044e68e 	srli.w	$r14,$r20,0x19
1c0053f4:	00448647 	srli.w	$r7,$r18,0x1
1c0053f8:	58001a00 	beq	$r16,$r0,24(0x18) # 1c005410 <crcu32+0x180>
1c0053fc:	15ffff45 	lu12i.w	$r5,-6(0xffffa)
1c005400:	038004af 	ori	$r15,$r5,0x1
1c005404:	0015bcec 	xor	$r12,$r7,$r15
1c005408:	2980306c 	st.w	$r12,$r3,12(0xc)
1c00540c:	2a403067 	ld.hu	$r7,$r3,12(0xc)
1c005410:	0015b8e8 	xor	$r8,$r7,$r14
1c005414:	03400509 	andi	$r9,$r8,0x1
1c005418:	004488ca 	srli.w	$r10,$r6,0x2
1c00541c:	004484f3 	srli.w	$r19,$r7,0x1
1c005420:	58001920 	beq	$r9,$r0,24(0x18) # 1c005438 <crcu32+0x1a8>
1c005424:	15ffff4b 	lu12i.w	$r11,-6(0xffffa)
1c005428:	03800571 	ori	$r17,$r11,0x1
1c00542c:	0015c672 	xor	$r18,$r19,$r17
1c005430:	29803072 	st.w	$r18,$r3,12(0xc)
1c005434:	2a403073 	ld.hu	$r19,$r3,12(0xc)
1c005438:	0015aa6d 	xor	$r13,$r19,$r10
1c00543c:	034005b4 	andi	$r20,$r13,0x1
1c005440:	00448cd0 	srli.w	$r16,$r6,0x3
1c005444:	0044866c 	srli.w	$r12,$r19,0x1
1c005448:	58001a80 	beq	$r20,$r0,24(0x18) # 1c005460 <crcu32+0x1d0>
1c00544c:	15ffff4e 	lu12i.w	$r14,-6(0xffffa)
1c005450:	038005c5 	ori	$r5,$r14,0x1
1c005454:	0015958f 	xor	$r15,$r12,$r5
1c005458:	2980306f 	st.w	$r15,$r3,12(0xc)
1c00545c:	2a40306c 	ld.hu	$r12,$r3,12(0xc)
1c005460:	0015c187 	xor	$r7,$r12,$r16
1c005464:	034004e8 	andi	$r8,$r7,0x1
1c005468:	004490c9 	srli.w	$r9,$r6,0x4
1c00546c:	00448592 	srli.w	$r18,$r12,0x1
1c005470:	58001900 	beq	$r8,$r0,24(0x18) # 1c005488 <crcu32+0x1f8>
1c005474:	15ffff4a 	lu12i.w	$r10,-6(0xffffa)
1c005478:	0380054b 	ori	$r11,$r10,0x1
1c00547c:	0015ae51 	xor	$r17,$r18,$r11
1c005480:	29803071 	st.w	$r17,$r3,12(0xc)
1c005484:	2a403072 	ld.hu	$r18,$r3,12(0xc)
1c005488:	0015a653 	xor	$r19,$r18,$r9
1c00548c:	0340066d 	andi	$r13,$r19,0x1
1c005490:	004494d4 	srli.w	$r20,$r6,0x5
1c005494:	0044864c 	srli.w	$r12,$r18,0x1
1c005498:	580019a0 	beq	$r13,$r0,24(0x18) # 1c0054b0 <crcu32+0x220>
1c00549c:	15ffff50 	lu12i.w	$r16,-6(0xffffa)
1c0054a0:	0380060e 	ori	$r14,$r16,0x1
1c0054a4:	0015b985 	xor	$r5,$r12,$r14
1c0054a8:	29803065 	st.w	$r5,$r3,12(0xc)
1c0054ac:	2a40306c 	ld.hu	$r12,$r3,12(0xc)
1c0054b0:	0015d18f 	xor	$r15,$r12,$r20
1c0054b4:	034005e7 	andi	$r7,$r15,0x1
1c0054b8:	004498c8 	srli.w	$r8,$r6,0x6
1c0054bc:	00448591 	srli.w	$r17,$r12,0x1
1c0054c0:	580018e0 	beq	$r7,$r0,24(0x18) # 1c0054d8 <crcu32+0x248>
1c0054c4:	15ffff49 	lu12i.w	$r9,-6(0xffffa)
1c0054c8:	0380052a 	ori	$r10,$r9,0x1
1c0054cc:	0015aa2b 	xor	$r11,$r17,$r10
1c0054d0:	2980306b 	st.w	$r11,$r3,12(0xc)
1c0054d4:	2a403071 	ld.hu	$r17,$r3,12(0xc)
1c0054d8:	0015a232 	xor	$r18,$r17,$r8
1c0054dc:	03400653 	andi	$r19,$r18,0x1
1c0054e0:	00449cc6 	srli.w	$r6,$r6,0x7
1c0054e4:	0044862e 	srli.w	$r14,$r17,0x1
1c0054e8:	58001a60 	beq	$r19,$r0,24(0x18) # 1c005500 <crcu32+0x270>
1c0054ec:	15ffff4d 	lu12i.w	$r13,-6(0xffffa)
1c0054f0:	038005b4 	ori	$r20,$r13,0x1
1c0054f4:	0015d1d0 	xor	$r16,$r14,$r20
1c0054f8:	29803070 	st.w	$r16,$r3,12(0xc)
1c0054fc:	2a40306e 	ld.hu	$r14,$r3,12(0xc)
1c005500:	034005c5 	andi	$r5,$r14,0x1
1c005504:	004485c8 	srli.w	$r8,$r14,0x1
1c005508:	580018a6 	beq	$r5,$r6,24(0x18) # 1c005520 <crcu32+0x290>
1c00550c:	15ffff4f 	lu12i.w	$r15,-6(0xffffa)
1c005510:	038005e7 	ori	$r7,$r15,0x1
1c005514:	00159d0c 	xor	$r12,$r8,$r7
1c005518:	2980306c 	st.w	$r12,$r3,12(0xc)
1c00551c:	2a403068 	ld.hu	$r8,$r3,12(0xc)
1c005520:	0044c08f 	srli.w	$r15,$r4,0x10
1c005524:	0015a1e4 	xor	$r4,$r15,$r8
1c005528:	0040e1e9 	slli.w	$r9,$r15,0x18
1c00552c:	0340048a 	andi	$r10,$r4,0x1
1c005530:	001501eb 	move	$r11,$r15
1c005534:	0044e131 	srli.w	$r17,$r9,0x18
1c005538:	0044e532 	srli.w	$r18,$r9,0x19
1c00553c:	00448514 	srli.w	$r20,$r8,0x1
1c005540:	58001940 	beq	$r10,$r0,24(0x18) # 1c005558 <crcu32+0x2c8>
1c005544:	15ffff53 	lu12i.w	$r19,-6(0xffffa)
1c005548:	03800666 	ori	$r6,$r19,0x1
1c00554c:	00159a8d 	xor	$r13,$r20,$r6
1c005550:	2980306d 	st.w	$r13,$r3,12(0xc)
1c005554:	2a403074 	ld.hu	$r20,$r3,12(0xc)
1c005558:	0015ca90 	xor	$r16,$r20,$r18
1c00555c:	0340060e 	andi	$r14,$r16,0x1
1c005560:	00448a25 	srli.w	$r5,$r17,0x2
1c005564:	0044868f 	srli.w	$r15,$r20,0x1
1c005568:	580019c0 	beq	$r14,$r0,24(0x18) # 1c005580 <crcu32+0x2f0>
1c00556c:	15ffff47 	lu12i.w	$r7,-6(0xffffa)
1c005570:	038004ec 	ori	$r12,$r7,0x1
1c005574:	0015b1e8 	xor	$r8,$r15,$r12
1c005578:	29803068 	st.w	$r8,$r3,12(0xc)
1c00557c:	2a40306f 	ld.hu	$r15,$r3,12(0xc)
1c005580:	001595e4 	xor	$r4,$r15,$r5
1c005584:	03400489 	andi	$r9,$r4,0x1
1c005588:	00448e2a 	srli.w	$r10,$r17,0x3
1c00558c:	004485ed 	srli.w	$r13,$r15,0x1
1c005590:	58001920 	beq	$r9,$r0,24(0x18) # 1c0055a8 <crcu32+0x318>
1c005594:	15ffff52 	lu12i.w	$r18,-6(0xffffa)
1c005598:	03800653 	ori	$r19,$r18,0x1
1c00559c:	0015cda6 	xor	$r6,$r13,$r19
1c0055a0:	29803066 	st.w	$r6,$r3,12(0xc)
1c0055a4:	2a40306d 	ld.hu	$r13,$r3,12(0xc)
1c0055a8:	0015a9b4 	xor	$r20,$r13,$r10
1c0055ac:	03400690 	andi	$r16,$r20,0x1
1c0055b0:	00449225 	srli.w	$r5,$r17,0x4
1c0055b4:	004485a8 	srli.w	$r8,$r13,0x1
1c0055b8:	58001a00 	beq	$r16,$r0,24(0x18) # 1c0055d0 <crcu32+0x340>
1c0055bc:	15ffff4e 	lu12i.w	$r14,-6(0xffffa)
1c0055c0:	038005c7 	ori	$r7,$r14,0x1
1c0055c4:	00159d0c 	xor	$r12,$r8,$r7
1c0055c8:	2980306c 	st.w	$r12,$r3,12(0xc)
1c0055cc:	2a403068 	ld.hu	$r8,$r3,12(0xc)
1c0055d0:	0015950f 	xor	$r15,$r8,$r5
1c0055d4:	034005e9 	andi	$r9,$r15,0x1
1c0055d8:	0044962a 	srli.w	$r10,$r17,0x5
1c0055dc:	00448506 	srli.w	$r6,$r8,0x1
1c0055e0:	58001920 	beq	$r9,$r0,24(0x18) # 1c0055f8 <crcu32+0x368>
1c0055e4:	15ffff52 	lu12i.w	$r18,-6(0xffffa)
1c0055e8:	03800653 	ori	$r19,$r18,0x1
1c0055ec:	0015ccc4 	xor	$r4,$r6,$r19
1c0055f0:	29803064 	st.w	$r4,$r3,12(0xc)
1c0055f4:	2a403066 	ld.hu	$r6,$r3,12(0xc)
1c0055f8:	0015a8cd 	xor	$r13,$r6,$r10
1c0055fc:	034005b4 	andi	$r20,$r13,0x1
1c005600:	00449a30 	srli.w	$r16,$r17,0x6
1c005604:	004484c8 	srli.w	$r8,$r6,0x1
1c005608:	58001a80 	beq	$r20,$r0,24(0x18) # 1c005620 <crcu32+0x390>
1c00560c:	15ffff45 	lu12i.w	$r5,-6(0xffffa)
1c005610:	038004ae 	ori	$r14,$r5,0x1
1c005614:	0015b907 	xor	$r7,$r8,$r14
1c005618:	29803067 	st.w	$r7,$r3,12(0xc)
1c00561c:	2a403068 	ld.hu	$r8,$r3,12(0xc)
1c005620:	0015c10c 	xor	$r12,$r8,$r16
1c005624:	0340058f 	andi	$r15,$r12,0x1
1c005628:	00449e31 	srli.w	$r17,$r17,0x7
1c00562c:	00448513 	srli.w	$r19,$r8,0x1
1c005630:	580019e0 	beq	$r15,$r0,24(0x18) # 1c005648 <crcu32+0x3b8>
1c005634:	15ffff49 	lu12i.w	$r9,-6(0xffffa)
1c005638:	0380052a 	ori	$r10,$r9,0x1
1c00563c:	0015aa72 	xor	$r18,$r19,$r10
1c005640:	29803072 	st.w	$r18,$r3,12(0xc)
1c005644:	2a403073 	ld.hu	$r19,$r3,12(0xc)
1c005648:	03400666 	andi	$r6,$r19,0x1
1c00564c:	00448670 	srli.w	$r16,$r19,0x1
1c005650:	580018d1 	beq	$r6,$r17,24(0x18) # 1c005668 <crcu32+0x3d8>
1c005654:	15ffff4d 	lu12i.w	$r13,-6(0xffffa)
1c005658:	038005b4 	ori	$r20,$r13,0x1
1c00565c:	0015d204 	xor	$r4,$r16,$r20
1c005660:	29803064 	st.w	$r4,$r3,12(0xc)
1c005664:	2a403070 	ld.hu	$r16,$r3,12(0xc)
1c005668:	0044a16b 	srli.w	$r11,$r11,0x8
1c00566c:	0015c165 	xor	$r5,$r11,$r16
1c005670:	0040e167 	slli.w	$r7,$r11,0x18
1c005674:	034004ae 	andi	$r14,$r5,0x1
1c005678:	0044e0e8 	srli.w	$r8,$r7,0x18
1c00567c:	0044e4ec 	srli.w	$r12,$r7,0x19
1c005680:	0044860a 	srli.w	$r10,$r16,0x1
1c005684:	580019c0 	beq	$r14,$r0,24(0x18) # 1c00569c <crcu32+0x40c>
1c005688:	15ffff4f 	lu12i.w	$r15,-6(0xffffa)
1c00568c:	038005f1 	ori	$r17,$r15,0x1
1c005690:	0015c549 	xor	$r9,$r10,$r17
1c005694:	29803069 	st.w	$r9,$r3,12(0xc)
1c005698:	2a40306a 	ld.hu	$r10,$r3,12(0xc)
1c00569c:	0015b152 	xor	$r18,$r10,$r12
1c0056a0:	03400653 	andi	$r19,$r18,0x1
1c0056a4:	00448906 	srli.w	$r6,$r8,0x2
1c0056a8:	00448550 	srli.w	$r16,$r10,0x1
1c0056ac:	58001a60 	beq	$r19,$r0,24(0x18) # 1c0056c4 <crcu32+0x434>
1c0056b0:	15ffff4d 	lu12i.w	$r13,-6(0xffffa)
1c0056b4:	038005b4 	ori	$r20,$r13,0x1
1c0056b8:	0015d204 	xor	$r4,$r16,$r20
1c0056bc:	29803064 	st.w	$r4,$r3,12(0xc)
1c0056c0:	2a403070 	ld.hu	$r16,$r3,12(0xc)
1c0056c4:	0015c0cb 	xor	$r11,$r6,$r16
1c0056c8:	03400565 	andi	$r5,$r11,0x1
1c0056cc:	00448d07 	srli.w	$r7,$r8,0x3
1c0056d0:	00448611 	srli.w	$r17,$r16,0x1
1c0056d4:	580018a0 	beq	$r5,$r0,24(0x18) # 1c0056ec <crcu32+0x45c>
1c0056d8:	15ffff4e 	lu12i.w	$r14,-6(0xffffa)
1c0056dc:	038005cc 	ori	$r12,$r14,0x1
1c0056e0:	0015b22f 	xor	$r15,$r17,$r12
1c0056e4:	2980306f 	st.w	$r15,$r3,12(0xc)
1c0056e8:	2a403071 	ld.hu	$r17,$r3,12(0xc)
1c0056ec:	0015c4e9 	xor	$r9,$r7,$r17
1c0056f0:	0340052a 	andi	$r10,$r9,0x1
1c0056f4:	00449112 	srli.w	$r18,$r8,0x4
1c0056f8:	00448634 	srli.w	$r20,$r17,0x1
1c0056fc:	58001940 	beq	$r10,$r0,24(0x18) # 1c005714 <crcu32+0x484>
1c005700:	15ffff53 	lu12i.w	$r19,-6(0xffffa)
1c005704:	03800666 	ori	$r6,$r19,0x1
1c005708:	00159a8d 	xor	$r13,$r20,$r6
1c00570c:	2980306d 	st.w	$r13,$r3,12(0xc)
1c005710:	2a403074 	ld.hu	$r20,$r3,12(0xc)
1c005714:	0015d244 	xor	$r4,$r18,$r20
1c005718:	03400490 	andi	$r16,$r4,0x1
1c00571c:	0044950b 	srli.w	$r11,$r8,0x5
1c005720:	0044868f 	srli.w	$r15,$r20,0x1
1c005724:	58001a00 	beq	$r16,$r0,24(0x18) # 1c00573c <crcu32+0x4ac>
1c005728:	15ffff45 	lu12i.w	$r5,-6(0xffffa)
1c00572c:	038004a7 	ori	$r7,$r5,0x1
1c005730:	00159dee 	xor	$r14,$r15,$r7
1c005734:	2980306e 	st.w	$r14,$r3,12(0xc)
1c005738:	2a40306f 	ld.hu	$r15,$r3,12(0xc)
1c00573c:	0015bd6c 	xor	$r12,$r11,$r15
1c005740:	03400591 	andi	$r17,$r12,0x1
1c005744:	00449909 	srli.w	$r9,$r8,0x6
1c005748:	004485e6 	srli.w	$r6,$r15,0x1
1c00574c:	58001a20 	beq	$r17,$r0,24(0x18) # 1c005764 <crcu32+0x4d4>
1c005750:	15ffff4a 	lu12i.w	$r10,-6(0xffffa)
1c005754:	03800552 	ori	$r18,$r10,0x1
1c005758:	0015c8d3 	xor	$r19,$r6,$r18
1c00575c:	29803073 	st.w	$r19,$r3,12(0xc)
1c005760:	2a403066 	ld.hu	$r6,$r3,12(0xc)
1c005764:	0015992d 	xor	$r13,$r9,$r6
1c005768:	034005b4 	andi	$r20,$r13,0x1
1c00576c:	00449d08 	srli.w	$r8,$r8,0x7
1c005770:	004484c5 	srli.w	$r5,$r6,0x1
1c005774:	58001a80 	beq	$r20,$r0,24(0x18) # 1c00578c <crcu32+0x4fc>
1c005778:	15ffff50 	lu12i.w	$r16,-6(0xffffa)
1c00577c:	0380060b 	ori	$r11,$r16,0x1
1c005780:	0015aca4 	xor	$r4,$r5,$r11
1c005784:	29803064 	st.w	$r4,$r3,12(0xc)
1c005788:	2a403065 	ld.hu	$r5,$r3,12(0xc)
1c00578c:	034004a7 	andi	$r7,$r5,0x1
1c005790:	004484a4 	srli.w	$r4,$r5,0x1
1c005794:	580018e8 	beq	$r7,$r8,24(0x18) # 1c0057ac <crcu32+0x51c>
1c005798:	15ffff4e 	lu12i.w	$r14,-6(0xffffa)
1c00579c:	038005cf 	ori	$r15,$r14,0x1
1c0057a0:	0015bc8c 	xor	$r12,$r4,$r15
1c0057a4:	2980306c 	st.w	$r12,$r3,12(0xc)
1c0057a8:	2a403064 	ld.hu	$r4,$r3,12(0xc)
1c0057ac:	02804063 	addi.w	$r3,$r3,16(0x10)
1c0057b0:	4c000020 	jirl	$r0,$r1,0
1c0057b4:	03400000 	andi	$r0,$r0,0x0
1c0057b8:	03400000 	andi	$r0,$r0,0x0
1c0057bc:	03400000 	andi	$r0,$r0,0x0

1c0057c0 <crc16>:
crc16():
1c0057c0:	02bfc063 	addi.w	$r3,$r3,-16(0xff0)
1c0057c4:	0015948f 	xor	$r15,$r4,$r5
1c0057c8:	0040e08e 	slli.w	$r14,$r4,0x18
1c0057cc:	29803064 	st.w	$r4,$r3,12(0xc)
1c0057d0:	034005e6 	andi	$r6,$r15,0x1
1c0057d4:	2a40306c 	ld.hu	$r12,$r3,12(0xc)
1c0057d8:	0044e1cd 	srli.w	$r13,$r14,0x18
1c0057dc:	0044e5c7 	srli.w	$r7,$r14,0x19
1c0057e0:	004484a9 	srli.w	$r9,$r5,0x1
1c0057e4:	580018c0 	beq	$r6,$r0,24(0x18) # 1c0057fc <crc16+0x3c>
1c0057e8:	15ffff45 	lu12i.w	$r5,-6(0xffffa)
1c0057ec:	038004a8 	ori	$r8,$r5,0x1
1c0057f0:	0015a124 	xor	$r4,$r9,$r8
1c0057f4:	29803064 	st.w	$r4,$r3,12(0xc)
1c0057f8:	2a403069 	ld.hu	$r9,$r3,12(0xc)
1c0057fc:	00159d2a 	xor	$r10,$r9,$r7
1c005800:	0340054b 	andi	$r11,$r10,0x1
1c005804:	004489b0 	srli.w	$r16,$r13,0x2
1c005808:	00448534 	srli.w	$r20,$r9,0x1
1c00580c:	58001960 	beq	$r11,$r0,24(0x18) # 1c005824 <crc16+0x64>
1c005810:	15ffff51 	lu12i.w	$r17,-6(0xffffa)
1c005814:	03800632 	ori	$r18,$r17,0x1
1c005818:	0015ca93 	xor	$r19,$r20,$r18
1c00581c:	29803073 	st.w	$r19,$r3,12(0xc)
1c005820:	2a403074 	ld.hu	$r20,$r3,12(0xc)
1c005824:	0015c28f 	xor	$r15,$r20,$r16
1c005828:	034005ee 	andi	$r14,$r15,0x1
1c00582c:	00448da6 	srli.w	$r6,$r13,0x3
1c005830:	00448684 	srli.w	$r4,$r20,0x1
1c005834:	580019c0 	beq	$r14,$r0,24(0x18) # 1c00584c <crc16+0x8c>
1c005838:	15ffff47 	lu12i.w	$r7,-6(0xffffa)
1c00583c:	038004e5 	ori	$r5,$r7,0x1
1c005840:	00159488 	xor	$r8,$r4,$r5
1c005844:	29803068 	st.w	$r8,$r3,12(0xc)
1c005848:	2a403064 	ld.hu	$r4,$r3,12(0xc)
1c00584c:	00159889 	xor	$r9,$r4,$r6
1c005850:	0340052a 	andi	$r10,$r9,0x1
1c005854:	004491ab 	srli.w	$r11,$r13,0x4
1c005858:	00448493 	srli.w	$r19,$r4,0x1
1c00585c:	58001940 	beq	$r10,$r0,24(0x18) # 1c005874 <crc16+0xb4>
1c005860:	15ffff50 	lu12i.w	$r16,-6(0xffffa)
1c005864:	03800611 	ori	$r17,$r16,0x1
1c005868:	0015c672 	xor	$r18,$r19,$r17
1c00586c:	29803072 	st.w	$r18,$r3,12(0xc)
1c005870:	2a403073 	ld.hu	$r19,$r3,12(0xc)
1c005874:	0015ae74 	xor	$r20,$r19,$r11
1c005878:	0340068e 	andi	$r14,$r20,0x1
1c00587c:	004495af 	srli.w	$r15,$r13,0x5
1c005880:	00448668 	srli.w	$r8,$r19,0x1
1c005884:	580019c0 	beq	$r14,$r0,24(0x18) # 1c00589c <crc16+0xdc>
1c005888:	15ffff46 	lu12i.w	$r6,-6(0xffffa)
1c00588c:	038004c7 	ori	$r7,$r6,0x1
1c005890:	00159d05 	xor	$r5,$r8,$r7
1c005894:	29803065 	st.w	$r5,$r3,12(0xc)
1c005898:	2a403068 	ld.hu	$r8,$r3,12(0xc)
1c00589c:	0015bd04 	xor	$r4,$r8,$r15
1c0058a0:	03400489 	andi	$r9,$r4,0x1
1c0058a4:	004499aa 	srli.w	$r10,$r13,0x6
1c0058a8:	00448512 	srli.w	$r18,$r8,0x1
1c0058ac:	58001920 	beq	$r9,$r0,24(0x18) # 1c0058c4 <crc16+0x104>
1c0058b0:	15ffff4b 	lu12i.w	$r11,-6(0xffffa)
1c0058b4:	03800570 	ori	$r16,$r11,0x1
1c0058b8:	0015c251 	xor	$r17,$r18,$r16
1c0058bc:	29803071 	st.w	$r17,$r3,12(0xc)
1c0058c0:	2a403072 	ld.hu	$r18,$r3,12(0xc)
1c0058c4:	0015aa53 	xor	$r19,$r18,$r10
1c0058c8:	03400674 	andi	$r20,$r19,0x1
1c0058cc:	00449dad 	srli.w	$r13,$r13,0x7
1c0058d0:	00448647 	srli.w	$r7,$r18,0x1
1c0058d4:	58001a80 	beq	$r20,$r0,24(0x18) # 1c0058ec <crc16+0x12c>
1c0058d8:	15ffff4e 	lu12i.w	$r14,-6(0xffffa)
1c0058dc:	038005cf 	ori	$r15,$r14,0x1
1c0058e0:	0015bce6 	xor	$r6,$r7,$r15
1c0058e4:	29803066 	st.w	$r6,$r3,12(0xc)
1c0058e8:	2a403067 	ld.hu	$r7,$r3,12(0xc)
1c0058ec:	034004e5 	andi	$r5,$r7,0x1
1c0058f0:	004484ea 	srli.w	$r10,$r7,0x1
1c0058f4:	580018ad 	beq	$r5,$r13,24(0x18) # 1c00590c <crc16+0x14c>
1c0058f8:	15ffff48 	lu12i.w	$r8,-6(0xffffa)
1c0058fc:	03800509 	ori	$r9,$r8,0x1
1c005900:	0015a544 	xor	$r4,$r10,$r9
1c005904:	29803064 	st.w	$r4,$r3,12(0xc)
1c005908:	2a40306a 	ld.hu	$r10,$r3,12(0xc)
1c00590c:	0044a18c 	srli.w	$r12,$r12,0x8
1c005910:	0015a98b 	xor	$r11,$r12,$r10
1c005914:	0040e190 	slli.w	$r16,$r12,0x18
1c005918:	03400571 	andi	$r17,$r11,0x1
1c00591c:	0044e212 	srli.w	$r18,$r16,0x18
1c005920:	0044e613 	srli.w	$r19,$r16,0x19
1c005924:	0044854f 	srli.w	$r15,$r10,0x1
1c005928:	58001a20 	beq	$r17,$r0,24(0x18) # 1c005940 <crc16+0x180>
1c00592c:	15ffff54 	lu12i.w	$r20,-6(0xffffa)
1c005930:	0380068d 	ori	$r13,$r20,0x1
1c005934:	0015b5ee 	xor	$r14,$r15,$r13
1c005938:	2980306e 	st.w	$r14,$r3,12(0xc)
1c00593c:	2a40306f 	ld.hu	$r15,$r3,12(0xc)
1c005940:	0015be66 	xor	$r6,$r19,$r15
1c005944:	034004c7 	andi	$r7,$r6,0x1
1c005948:	00448a45 	srli.w	$r5,$r18,0x2
1c00594c:	004485ea 	srli.w	$r10,$r15,0x1
1c005950:	580018e0 	beq	$r7,$r0,24(0x18) # 1c005968 <crc16+0x1a8>
1c005954:	15ffff48 	lu12i.w	$r8,-6(0xffffa)
1c005958:	03800509 	ori	$r9,$r8,0x1
1c00595c:	0015a544 	xor	$r4,$r10,$r9
1c005960:	29803064 	st.w	$r4,$r3,12(0xc)
1c005964:	2a40306a 	ld.hu	$r10,$r3,12(0xc)
1c005968:	0015954c 	xor	$r12,$r10,$r5
1c00596c:	0340058b 	andi	$r11,$r12,0x1
1c005970:	00448e50 	srli.w	$r16,$r18,0x3
1c005974:	0044854d 	srli.w	$r13,$r10,0x1
1c005978:	58001960 	beq	$r11,$r0,24(0x18) # 1c005990 <crc16+0x1d0>
1c00597c:	15ffff51 	lu12i.w	$r17,-6(0xffffa)
1c005980:	03800633 	ori	$r19,$r17,0x1
1c005984:	0015cdb4 	xor	$r20,$r13,$r19
1c005988:	29803074 	st.w	$r20,$r3,12(0xc)
1c00598c:	2a40306d 	ld.hu	$r13,$r3,12(0xc)
1c005990:	0015c1ae 	xor	$r14,$r13,$r16
1c005994:	034005cf 	andi	$r15,$r14,0x1
1c005998:	00449246 	srli.w	$r6,$r18,0x4
1c00599c:	004485a9 	srli.w	$r9,$r13,0x1
1c0059a0:	580019e0 	beq	$r15,$r0,24(0x18) # 1c0059b8 <crc16+0x1f8>
1c0059a4:	15ffff47 	lu12i.w	$r7,-6(0xffffa)
1c0059a8:	038004e5 	ori	$r5,$r7,0x1
1c0059ac:	00159528 	xor	$r8,$r9,$r5
1c0059b0:	29803068 	st.w	$r8,$r3,12(0xc)
1c0059b4:	2a403069 	ld.hu	$r9,$r3,12(0xc)
1c0059b8:	00159924 	xor	$r4,$r9,$r6
1c0059bc:	0340048a 	andi	$r10,$r4,0x1
1c0059c0:	0044964b 	srli.w	$r11,$r18,0x5
1c0059c4:	00448533 	srli.w	$r19,$r9,0x1
1c0059c8:	58001940 	beq	$r10,$r0,24(0x18) # 1c0059e0 <crc16+0x220>
1c0059cc:	15ffff4c 	lu12i.w	$r12,-6(0xffffa)
1c0059d0:	03800590 	ori	$r16,$r12,0x1
1c0059d4:	0015c271 	xor	$r17,$r19,$r16
1c0059d8:	29803071 	st.w	$r17,$r3,12(0xc)
1c0059dc:	2a403073 	ld.hu	$r19,$r3,12(0xc)
1c0059e0:	0015ae74 	xor	$r20,$r19,$r11
1c0059e4:	0340068d 	andi	$r13,$r20,0x1
1c0059e8:	00449a4f 	srli.w	$r15,$r18,0x6
1c0059ec:	00448665 	srli.w	$r5,$r19,0x1
1c0059f0:	580019a0 	beq	$r13,$r0,24(0x18) # 1c005a08 <crc16+0x248>
1c0059f4:	15ffff4e 	lu12i.w	$r14,-6(0xffffa)
1c0059f8:	038005c6 	ori	$r6,$r14,0x1
1c0059fc:	001598a7 	xor	$r7,$r5,$r6
1c005a00:	29803067 	st.w	$r7,$r3,12(0xc)
1c005a04:	2a403065 	ld.hu	$r5,$r3,12(0xc)
1c005a08:	0015bca8 	xor	$r8,$r5,$r15
1c005a0c:	03400509 	andi	$r9,$r8,0x1
1c005a10:	00449e52 	srli.w	$r18,$r18,0x7
1c005a14:	004484b0 	srli.w	$r16,$r5,0x1
1c005a18:	58001920 	beq	$r9,$r0,24(0x18) # 1c005a30 <crc16+0x270>
1c005a1c:	15ffff4a 	lu12i.w	$r10,-6(0xffffa)
1c005a20:	0380054b 	ori	$r11,$r10,0x1
1c005a24:	0015ae04 	xor	$r4,$r16,$r11
1c005a28:	29803064 	st.w	$r4,$r3,12(0xc)
1c005a2c:	2a403070 	ld.hu	$r16,$r3,12(0xc)
1c005a30:	0340060c 	andi	$r12,$r16,0x1
1c005a34:	00448604 	srli.w	$r4,$r16,0x1
1c005a38:	58001992 	beq	$r12,$r18,24(0x18) # 1c005a50 <crc16+0x290>
1c005a3c:	15ffff51 	lu12i.w	$r17,-6(0xffffa)
1c005a40:	03800633 	ori	$r19,$r17,0x1
1c005a44:	0015cc94 	xor	$r20,$r4,$r19
1c005a48:	29803074 	st.w	$r20,$r3,12(0xc)
1c005a4c:	2a403064 	ld.hu	$r4,$r3,12(0xc)
1c005a50:	02804063 	addi.w	$r3,$r3,16(0x10)
1c005a54:	4c000020 	jirl	$r0,$r1,0
1c005a58:	03400000 	andi	$r0,$r0,0x0
1c005a5c:	03400000 	andi	$r0,$r0,0x0

1c005a60 <check_data_types>:
check_data_types():
1c005a60:	00150004 	move	$r4,$r0
1c005a64:	4c000020 	jirl	$r0,$r1,0
1c005a68:	03400000 	andi	$r0,$r0,0x0
1c005a6c:	03400000 	andi	$r0,$r0,0x0

1c005a70 <core_bench_state>:
core_bench_state():
1c005a70:	02bd8063 	addi.w	$r3,$r3,-160(0xf60)
1c005a74:	2981d07f 	st.w	$r31,$r3,116(0x74)
1c005a78:	29827061 	st.w	$r1,$r3,156(0x9c)
1c005a7c:	29826076 	st.w	$r22,$r3,152(0x98)
1c005a80:	29825077 	st.w	$r23,$r3,148(0x94)
1c005a84:	29824078 	st.w	$r24,$r3,144(0x90)
1c005a88:	29823079 	st.w	$r25,$r3,140(0x8c)
1c005a8c:	2982207a 	st.w	$r26,$r3,136(0x88)
1c005a90:	2982107b 	st.w	$r27,$r3,132(0x84)
1c005a94:	2982007c 	st.w	$r28,$r3,128(0x80)
1c005a98:	2981f07d 	st.w	$r29,$r3,124(0x7c)
1c005a9c:	2981e07e 	st.w	$r30,$r3,120(0x78)
1c005aa0:	2a0000ac 	ld.bu	$r12,$r5,0
1c005aa4:	29814060 	st.w	$r0,$r3,80(0x50)
1c005aa8:	29815060 	st.w	$r0,$r3,84(0x54)
1c005aac:	29816060 	st.w	$r0,$r3,88(0x58)
1c005ab0:	29817060 	st.w	$r0,$r3,92(0x5c)
1c005ab4:	29818060 	st.w	$r0,$r3,96(0x60)
1c005ab8:	29819060 	st.w	$r0,$r3,100(0x64)
1c005abc:	2981a060 	st.w	$r0,$r3,104(0x68)
1c005ac0:	2981b060 	st.w	$r0,$r3,108(0x6c)
1c005ac4:	2980c060 	st.w	$r0,$r3,48(0x30)
1c005ac8:	2980d060 	st.w	$r0,$r3,52(0x34)
1c005acc:	2980e060 	st.w	$r0,$r3,56(0x38)
1c005ad0:	2980f060 	st.w	$r0,$r3,60(0x3c)
1c005ad4:	29810060 	st.w	$r0,$r3,64(0x40)
1c005ad8:	29811060 	st.w	$r0,$r3,68(0x44)
1c005adc:	29812060 	st.w	$r0,$r3,72(0x48)
1c005ae0:	29813060 	st.w	$r0,$r3,76(0x4c)
1c005ae4:	2980b064 	st.w	$r4,$r3,44(0x2c)
1c005ae8:	2980a067 	st.w	$r7,$r3,40(0x28)
1c005aec:	001500b2 	move	$r18,$r5
1c005af0:	001500df 	move	$r31,$r6
1c005af4:	00150125 	move	$r5,$r9
1c005af8:	580a4180 	beq	$r12,$r0,2624(0xa40) # 1c006538 <core_bench_state+0xac8>
1c005afc:	2a000658 	ld.bu	$r24,$r18,1(0x1)
1c005b00:	2881507b 	ld.w	$r27,$r3,84(0x54)
1c005b04:	2881606b 	ld.w	$r11,$r3,88(0x58)
1c005b08:	2881807a 	ld.w	$r26,$r3,96(0x60)
1c005b0c:	28819079 	ld.w	$r25,$r3,100(0x64)
1c005b10:	28817061 	ld.w	$r1,$r3,92(0x5c)
1c005b14:	2881a077 	ld.w	$r23,$r3,104(0x68)
1c005b18:	0280065d 	addi.w	$r29,$r18,1(0x1)
1c005b1c:	2980207b 	st.w	$r27,$r3,8(0x8)
1c005b20:	2980306b 	st.w	$r11,$r3,12(0xc)
1c005b24:	2980407a 	st.w	$r26,$r3,16(0x10)
1c005b28:	29805079 	st.w	$r25,$r3,20(0x14)
1c005b2c:	29807061 	st.w	$r1,$r3,28(0x1c)
1c005b30:	29808077 	st.w	$r23,$r3,32(0x20)
1c005b34:	29009c78 	st.b	$r24,$r3,39(0x27)
1c005b38:	2980607d 	st.w	$r29,$r3,24(0x18)
1c005b3c:	0280b00d 	addi.w	$r13,$r0,44(0x2c)
1c005b40:	0015031e 	move	$r30,$r24
1c005b44:	580ab18d 	beq	$r12,$r13,2736(0xab0) # 1c0065f4 <core_bench_state+0xb84>
1c005b48:	0015018d 	move	$r13,$r12
1c005b4c:	00150007 	move	$r7,$r0
1c005b50:	0015024f 	move	$r15,$r18
1c005b54:	0015000a 	move	$r10,$r0
1c005b58:	00150014 	move	$r20,$r0
1c005b5c:	00150004 	move	$r4,$r0
1c005b60:	29801060 	st.w	$r0,$r3,4(0x4)
1c005b64:	0015001c 	move	$r28,$r0
1c005b68:	00150016 	move	$r22,$r0
1c005b6c:	02bf41b8 	addi.w	$r24,$r13,-48(0xfd0)
1c005b70:	29800078 	st.w	$r24,$r3,0
1c005b74:	2a00006e 	ld.bu	$r14,$r3,0
1c005b78:	02802413 	addi.w	$r19,$r0,9(0x9)
1c005b7c:	028004e7 	addi.w	$r7,$r7,1(0x1)
1c005b80:	6803326e 	bltu	$r19,$r14,816(0x330) # 1c005eb0 <core_bench_state+0x440>
1c005b84:	0280100e 	addi.w	$r14,$r0,4(0x4)
1c005b88:	02800410 	addi.w	$r16,$r0,1(0x1)
1c005b8c:	5805d7c0 	beq	$r30,$r0,1492(0x5d4) # 1c006160 <core_bench_state+0x6f0>
1c005b90:	0280b00d 	addi.w	$r13,$r0,44(0x2c)
1c005b94:	028007a9 	addi.w	$r9,$r29,1(0x1)
1c005b98:	58098bcd 	beq	$r30,$r13,2440(0x988) # 1c006520 <core_bench_state+0xab0>
1c005b9c:	2a0009f1 	ld.bu	$r17,$r15,2(0x2)
1c005ba0:	001503cd 	move	$r13,$r30
1c005ba4:	001503af 	move	$r15,$r29
1c005ba8:	0280b813 	addi.w	$r19,$r0,46(0x2e)
1c005bac:	02802406 	addi.w	$r6,$r0,9(0x9)
1c005bb0:	0280b018 	addi.w	$r24,$r0,44(0x2c)
1c005bb4:	02bf41bd 	addi.w	$r29,$r13,-48(0xfd0)
1c005bb8:	2980007d 	st.w	$r29,$r3,0
1c005bbc:	2a000070 	ld.bu	$r16,$r3,0
1c005bc0:	580325b3 	beq	$r13,$r19,804(0x324) # 1c005ee4 <core_bench_state+0x474>
1c005bc4:	0280101d 	addi.w	$r29,$r0,4(0x4)
1c005bc8:	6c0480d0 	bgeu	$r6,$r16,1152(0x480) # 1c006048 <core_bench_state+0x5d8>
1c005bcc:	0280040f 	addi.w	$r15,$r0,1(0x1)
1c005bd0:	2980106f 	st.w	$r15,$r3,4(0x4)
1c005bd4:	0280075a 	addi.w	$r26,$r26,1(0x1)
1c005bd8:	0280040e 	addi.w	$r14,$r0,1(0x1)
1c005bdc:	02800410 	addi.w	$r16,$r0,1(0x1)
1c005be0:	0015022d 	move	$r13,$r17
1c005be4:	0015012f 	move	$r15,$r9
1c005be8:	004089ce 	slli.w	$r14,$r14,0x2
1c005bec:	0281c071 	addi.w	$r17,$r3,112(0x70)
1c005bf0:	00103a26 	add.w	$r6,$r17,$r14
1c005bf4:	28bf00c9 	ld.w	$r9,$r6,-64(0xfc0)
1c005bf8:	0280b013 	addi.w	$r19,$r0,44(0x2c)
1c005bfc:	028005fd 	addi.w	$r29,$r15,1(0x1)
1c005c00:	02800538 	addi.w	$r24,$r9,1(0x1)
1c005c04:	29bf00d8 	st.w	$r24,$r6,-64(0xfc0)
1c005c08:	0015000e 	move	$r14,$r0
1c005c0c:	580039a0 	beq	$r13,$r0,56(0x38) # 1c005c44 <core_bench_state+0x1d4>
1c005c10:	2a0005fe 	ld.bu	$r30,$r15,1(0x1)
1c005c14:	5fff59b3 	bne	$r13,$r19,-168(0x3ff58) # 1c005b6c <core_bench_state+0xfc>
1c005c18:	004089ce 	slli.w	$r14,$r14,0x2
1c005c1c:	0281c071 	addi.w	$r17,$r3,112(0x70)
1c005c20:	00103a26 	add.w	$r6,$r17,$r14
1c005c24:	28bf00c9 	ld.w	$r9,$r6,-64(0xfc0)
1c005c28:	001503af 	move	$r15,$r29
1c005c2c:	001503cd 	move	$r13,$r30
1c005c30:	02800538 	addi.w	$r24,$r9,1(0x1)
1c005c34:	29bf00d8 	st.w	$r24,$r6,-64(0xfc0)
1c005c38:	028005fd 	addi.w	$r29,$r15,1(0x1)
1c005c3c:	0015000e 	move	$r14,$r0
1c005c40:	5fffd1a0 	bne	$r13,$r0,-48(0x3ffd0) # 1c005c10 <core_bench_state+0x1a0>
1c005c44:	58000ec0 	beq	$r22,$r0,12(0xc) # 1c005c50 <core_bench_state+0x1e0>
1c005c48:	2980207b 	st.w	$r27,$r3,8(0x8)
1c005c4c:	2981507b 	st.w	$r27,$r3,84(0x54)
1c005c50:	5808e200 	beq	$r16,$r0,2272(0x8e0) # 1c006530 <core_bench_state+0xac0>
1c005c54:	29814067 	st.w	$r7,$r3,80(0x50)
1c005c58:	58000f80 	beq	$r28,$r0,12(0xc) # 1c005c64 <core_bench_state+0x1f4>
1c005c5c:	2980306b 	st.w	$r11,$r3,12(0xc)
1c005c60:	2981606b 	st.w	$r11,$r3,88(0x58)
1c005c64:	28801070 	ld.w	$r16,$r3,4(0x4)
1c005c68:	58000e00 	beq	$r16,$r0,12(0xc) # 1c005c74 <core_bench_state+0x204>
1c005c6c:	2980407a 	st.w	$r26,$r3,16(0x10)
1c005c70:	2981807a 	st.w	$r26,$r3,96(0x60)
1c005c74:	58000c80 	beq	$r4,$r0,12(0xc) # 1c005c80 <core_bench_state+0x210>
1c005c78:	29805079 	st.w	$r25,$r3,20(0x14)
1c005c7c:	29819079 	st.w	$r25,$r3,100(0x64)
1c005c80:	58000e80 	beq	$r20,$r0,12(0xc) # 1c005c8c <core_bench_state+0x21c>
1c005c84:	29807061 	st.w	$r1,$r3,28(0x1c)
1c005c88:	29817061 	st.w	$r1,$r3,92(0x5c)
1c005c8c:	58000d40 	beq	$r10,$r0,12(0xc) # 1c005c98 <core_bench_state+0x228>
1c005c90:	29808077 	st.w	$r23,$r3,32(0x20)
1c005c94:	2981a077 	st.w	$r23,$r3,104(0x68)
1c005c98:	2880b07d 	ld.w	$r29,$r3,44(0x2c)
1c005c9c:	00107658 	add.w	$r24,$r18,$r29
1c005ca0:	6c092258 	bgeu	$r18,$r24,2336(0x920) # 1c0065c0 <core_bench_state+0xb50>
1c005ca4:	0015024c 	move	$r12,$r18
1c005ca8:	0280b01e 	addi.w	$r30,$r0,44(0x2c)
1c005cac:	2a00018d 	ld.bu	$r13,$r12,0
1c005cb0:	0015fdaf 	xor	$r15,$r13,$r31
1c005cb4:	580009be 	beq	$r13,$r30,8(0x8) # 1c005cbc <core_bench_state+0x24c>
1c005cb8:	2900018f 	st.b	$r15,$r12,0
1c005cbc:	0010218c 	add.w	$r12,$r12,$r8
1c005cc0:	6bffed98 	bltu	$r12,$r24,-20(0x3ffec) # 1c005cac <core_bench_state+0x23c>
1c005cc4:	2a00024c 	ld.bu	$r12,$r18,0
1c005cc8:	58016180 	beq	$r12,$r0,352(0x160) # 1c005e28 <core_bench_state+0x3b8>
1c005ccc:	2881506a 	ld.w	$r10,$r3,84(0x54)
1c005cd0:	28816074 	ld.w	$r20,$r3,88(0x58)
1c005cd4:	28818064 	ld.w	$r4,$r3,96(0x60)
1c005cd8:	2881907c 	ld.w	$r28,$r3,100(0x64)
1c005cdc:	28817076 	ld.w	$r22,$r3,92(0x5c)
1c005ce0:	2881a073 	ld.w	$r19,$r3,104(0x68)
1c005ce4:	2a000651 	ld.bu	$r17,$r18,1(0x1)
1c005ce8:	0280065f 	addi.w	$r31,$r18,1(0x1)
1c005cec:	2980206a 	st.w	$r10,$r3,8(0x8)
1c005cf0:	29803074 	st.w	$r20,$r3,12(0xc)
1c005cf4:	29804064 	st.w	$r4,$r3,16(0x10)
1c005cf8:	2980507c 	st.w	$r28,$r3,20(0x14)
1c005cfc:	29807076 	st.w	$r22,$r3,28(0x1c)
1c005d00:	29808073 	st.w	$r19,$r3,32(0x20)
1c005d04:	29009c71 	st.b	$r17,$r3,39(0x27)
1c005d08:	2980607f 	st.w	$r31,$r3,24(0x18)
1c005d0c:	0280b006 	addi.w	$r6,$r0,44(0x2c)
1c005d10:	2880207b 	ld.w	$r27,$r3,8(0x8)
1c005d14:	2880306b 	ld.w	$r11,$r3,12(0xc)
1c005d18:	2880407a 	ld.w	$r26,$r3,16(0x10)
1c005d1c:	28805079 	ld.w	$r25,$r3,20(0x14)
1c005d20:	28807061 	ld.w	$r1,$r3,28(0x1c)
1c005d24:	28808077 	ld.w	$r23,$r3,32(0x20)
1c005d28:	2a009c69 	ld.bu	$r9,$r3,39(0x27)
1c005d2c:	58089d86 	beq	$r12,$r6,2204(0x89c) # 1c0065c8 <core_bench_state+0xb58>
1c005d30:	0015024e 	move	$r14,$r18
1c005d34:	0015001e 	move	$r30,$r0
1c005d38:	0015001d 	move	$r29,$r0
1c005d3c:	00150014 	move	$r20,$r0
1c005d40:	0015001c 	move	$r28,$r0
1c005d44:	0015000a 	move	$r10,$r0
1c005d48:	00150013 	move	$r19,$r0
1c005d4c:	02bf4196 	addi.w	$r22,$r12,-48(0xfd0)
1c005d50:	29800076 	st.w	$r22,$r3,0
1c005d54:	2a000070 	ld.bu	$r16,$r3,0
1c005d58:	02802404 	addi.w	$r4,$r0,9(0x9)
1c005d5c:	028004e7 	addi.w	$r7,$r7,1(0x1)
1c005d60:	6c043090 	bgeu	$r4,$r16,1072(0x430) # 1c006190 <core_bench_state+0x720>
1c005d64:	0280ac11 	addi.w	$r17,$r0,43(0x2b)
1c005d68:	58061191 	beq	$r12,$r17,1552(0x610) # 1c006378 <core_bench_state+0x908>
1c005d6c:	0280b40d 	addi.w	$r13,$r0,45(0x2d)
1c005d70:	5806098d 	beq	$r12,$r13,1544(0x608) # 1c006378 <core_bench_state+0x908>
1c005d74:	0280b806 	addi.w	$r6,$r0,46(0x2e)
1c005d78:	5806c986 	beq	$r12,$r6,1736(0x6c8) # 1c006440 <core_bench_state+0x9d0>
1c005d7c:	0280077b 	addi.w	$r27,$r27,1(0x1)
1c005d80:	001503ee 	move	$r14,$r31
1c005d84:	0280040d 	addi.w	$r13,$r0,1(0x1)
1c005d88:	0280041d 	addi.w	$r29,$r0,1(0x1)
1c005d8c:	0280040f 	addi.w	$r15,$r0,1(0x1)
1c005d90:	0015012c 	move	$r12,$r9
1c005d94:	004089ad 	slli.w	$r13,$r13,0x2
1c005d98:	0281c070 	addi.w	$r16,$r3,112(0x70)
1c005d9c:	00103604 	add.w	$r4,$r16,$r13
1c005da0:	28bf0091 	ld.w	$r17,$r4,-64(0xfc0)
1c005da4:	0280b016 	addi.w	$r22,$r0,44(0x2c)
1c005da8:	028005df 	addi.w	$r31,$r14,1(0x1)
1c005dac:	02800626 	addi.w	$r6,$r17,1(0x1)
1c005db0:	29bf0086 	st.w	$r6,$r4,-64(0xfc0)
1c005db4:	0015000d 	move	$r13,$r0
1c005db8:	58003980 	beq	$r12,$r0,56(0x38) # 1c005df0 <core_bench_state+0x380>
1c005dbc:	2a0005c9 	ld.bu	$r9,$r14,1(0x1)
1c005dc0:	5fff8d96 	bne	$r12,$r22,-116(0x3ff8c) # 1c005d4c <core_bench_state+0x2dc>
1c005dc4:	004089ad 	slli.w	$r13,$r13,0x2
1c005dc8:	0281c070 	addi.w	$r16,$r3,112(0x70)
1c005dcc:	00103604 	add.w	$r4,$r16,$r13
1c005dd0:	28bf0091 	ld.w	$r17,$r4,-64(0xfc0)
1c005dd4:	001503ee 	move	$r14,$r31
1c005dd8:	0015012c 	move	$r12,$r9
1c005ddc:	02800626 	addi.w	$r6,$r17,1(0x1)
1c005de0:	29bf0086 	st.w	$r6,$r4,-64(0xfc0)
1c005de4:	028005df 	addi.w	$r31,$r14,1(0x1)
1c005de8:	0015000d 	move	$r13,$r0
1c005dec:	5fffd180 	bne	$r12,$r0,-48(0x3ffd0) # 1c005dbc <core_bench_state+0x34c>
1c005df0:	58000ba0 	beq	$r29,$r0,8(0x8) # 1c005df8 <core_bench_state+0x388>
1c005df4:	2981507b 	st.w	$r27,$r3,84(0x54)
1c005df8:	580009e0 	beq	$r15,$r0,8(0x8) # 1c005e00 <core_bench_state+0x390>
1c005dfc:	29814067 	st.w	$r7,$r3,80(0x50)
1c005e00:	58000b80 	beq	$r28,$r0,8(0x8) # 1c005e08 <core_bench_state+0x398>
1c005e04:	2981606b 	st.w	$r11,$r3,88(0x58)
1c005e08:	58000bc0 	beq	$r30,$r0,8(0x8) # 1c005e10 <core_bench_state+0x3a0>
1c005e0c:	2981807a 	st.w	$r26,$r3,96(0x60)
1c005e10:	58000a80 	beq	$r20,$r0,8(0x8) # 1c005e18 <core_bench_state+0x3a8>
1c005e14:	29819079 	st.w	$r25,$r3,100(0x64)
1c005e18:	58000a60 	beq	$r19,$r0,8(0x8) # 1c005e20 <core_bench_state+0x3b0>
1c005e1c:	29817061 	st.w	$r1,$r3,92(0x5c)
1c005e20:	58000940 	beq	$r10,$r0,8(0x8) # 1c005e28 <core_bench_state+0x3b8>
1c005e24:	2981a077 	st.w	$r23,$r3,104(0x68)
1c005e28:	0280b007 	addi.w	$r7,$r0,44(0x2c)
1c005e2c:	2880a06f 	ld.w	$r15,$r3,40(0x28)
1c005e30:	6c001e58 	bgeu	$r18,$r24,28(0x1c) # 1c005e4c <core_bench_state+0x3dc>
1c005e34:	2a00024c 	ld.bu	$r12,$r18,0
1c005e38:	0015bd9f 	xor	$r31,$r12,$r15
1c005e3c:	58000987 	beq	$r12,$r7,8(0x8) # 1c005e44 <core_bench_state+0x3d4>
1c005e40:	2900025f 	st.b	$r31,$r18,0
1c005e44:	00102252 	add.w	$r18,$r18,$r8
1c005e48:	6bffee58 	bltu	$r18,$r24,-20(0x3ffec) # 1c005e34 <core_bench_state+0x3c4>
1c005e4c:	0280c07b 	addi.w	$r27,$r3,48(0x30)
1c005e50:	02814078 	addi.w	$r24,$r3,80(0x50)
1c005e54:	28800364 	ld.w	$r4,$r27,0
1c005e58:	0280137b 	addi.w	$r27,$r27,4(0x4)
1c005e5c:	02801318 	addi.w	$r24,$r24,4(0x4)
1c005e60:	57f433ff 	bl	-3024(0xffff430) # 1c005290 <crcu32>
1c005e64:	00150085 	move	$r5,$r4
1c005e68:	28bff304 	ld.w	$r4,$r24,-4(0xffc)
1c005e6c:	57f427ff 	bl	-3036(0xffff424) # 1c005290 <crcu32>
1c005e70:	02814068 	addi.w	$r8,$r3,80(0x50)
1c005e74:	00150085 	move	$r5,$r4
1c005e78:	5fffdd1b 	bne	$r8,$r27,-36(0x3ffdc) # 1c005e54 <core_bench_state+0x3e4>
1c005e7c:	28827061 	ld.w	$r1,$r3,156(0x9c)
1c005e80:	28826076 	ld.w	$r22,$r3,152(0x98)
1c005e84:	28825077 	ld.w	$r23,$r3,148(0x94)
1c005e88:	28824078 	ld.w	$r24,$r3,144(0x90)
1c005e8c:	28823079 	ld.w	$r25,$r3,140(0x8c)
1c005e90:	2882207a 	ld.w	$r26,$r3,136(0x88)
1c005e94:	2882107b 	ld.w	$r27,$r3,132(0x84)
1c005e98:	2882007c 	ld.w	$r28,$r3,128(0x80)
1c005e9c:	2881f07d 	ld.w	$r29,$r3,124(0x7c)
1c005ea0:	2881e07e 	ld.w	$r30,$r3,120(0x78)
1c005ea4:	2881d07f 	ld.w	$r31,$r3,116(0x74)
1c005ea8:	02828063 	addi.w	$r3,$r3,160(0xa0)
1c005eac:	4c000020 	jirl	$r0,$r1,0
1c005eb0:	0280ac06 	addi.w	$r6,$r0,43(0x2b)
1c005eb4:	5801bda6 	beq	$r13,$r6,444(0x1bc) # 1c006070 <core_bench_state+0x600>
1c005eb8:	0280b411 	addi.w	$r17,$r0,45(0x2d)
1c005ebc:	5801b5b1 	beq	$r13,$r17,436(0x1b4) # 1c006070 <core_bench_state+0x600>
1c005ec0:	0280b810 	addi.w	$r16,$r0,46(0x2e)
1c005ec4:	580271b0 	beq	$r13,$r16,624(0x270) # 1c006134 <core_bench_state+0x6c4>
1c005ec8:	0280077b 	addi.w	$r27,$r27,1(0x1)
1c005ecc:	0280040e 	addi.w	$r14,$r0,1(0x1)
1c005ed0:	02800416 	addi.w	$r22,$r0,1(0x1)
1c005ed4:	02800410 	addi.w	$r16,$r0,1(0x1)
1c005ed8:	001503cd 	move	$r13,$r30
1c005edc:	001503af 	move	$r15,$r29
1c005ee0:	53fd0bff 	b	-760(0xffffd08) # 1c005be8 <core_bench_state+0x178>
1c005ee4:	02800413 	addi.w	$r19,$r0,1(0x1)
1c005ee8:	29801073 	st.w	$r19,$r3,4(0x4)
1c005eec:	0280075a 	addi.w	$r26,$r26,1(0x1)
1c005ef0:	0280140e 	addi.w	$r14,$r0,5(0x5)
1c005ef4:	02800410 	addi.w	$r16,$r0,1(0x1)
1c005ef8:	58028e20 	beq	$r17,$r0,652(0x28c) # 1c006184 <core_bench_state+0x714>
1c005efc:	0280b018 	addi.w	$r24,$r0,44(0x2c)
1c005f00:	02800526 	addi.w	$r6,$r9,1(0x1)
1c005f04:	58064638 	beq	$r17,$r24,1604(0x644) # 1c006548 <core_bench_state+0xad8>
1c005f08:	2a0009f3 	ld.bu	$r19,$r15,2(0x2)
1c005f0c:	02811418 	addi.w	$r24,$r0,69(0x45)
1c005f10:	0280241d 	addi.w	$r29,$r0,9(0x9)
1c005f14:	0280b01e 	addi.w	$r30,$r0,44(0x2c)
1c005f18:	02bf4230 	addi.w	$r16,$r17,-48(0xfd0)
1c005f1c:	29800070 	st.w	$r16,$r3,0
1c005f20:	03437e31 	andi	$r17,$r17,0xdf
1c005f24:	2a00006e 	ld.bu	$r14,$r3,0
1c005f28:	58002a38 	beq	$r17,$r24,40(0x28) # 1c005f50 <core_bench_state+0x4e0>
1c005f2c:	6c01dfae 	bgeu	$r29,$r14,476(0x1dc) # 1c006108 <core_bench_state+0x698>
1c005f30:	02800739 	addi.w	$r25,$r25,1(0x1)
1c005f34:	0280040e 	addi.w	$r14,$r0,1(0x1)
1c005f38:	02800410 	addi.w	$r16,$r0,1(0x1)
1c005f3c:	02800404 	addi.w	$r4,$r0,1(0x1)
1c005f40:	0015026d 	move	$r13,$r19
1c005f44:	001500cf 	move	$r15,$r6
1c005f48:	53fca3ff 	b	-864(0xffffca0) # 1c005be8 <core_bench_state+0x178>
1c005f4c:	03400000 	andi	$r0,$r0,0x0
1c005f50:	02800739 	addi.w	$r25,$r25,1(0x1)
1c005f54:	02800c0e 	addi.w	$r14,$r0,3(0x3)
1c005f58:	02800410 	addi.w	$r16,$r0,1(0x1)
1c005f5c:	02800404 	addi.w	$r4,$r0,1(0x1)
1c005f60:	58021260 	beq	$r19,$r0,528(0x210) # 1c006170 <core_bench_state+0x700>
1c005f64:	0280b018 	addi.w	$r24,$r0,44(0x2c)
1c005f68:	028004cf 	addi.w	$r15,$r6,1(0x1)
1c005f6c:	58054678 	beq	$r19,$r24,1348(0x544) # 1c0064b0 <core_bench_state+0xa40>
1c005f70:	02bf5674 	addi.w	$r20,$r19,-43(0xfd5)
1c005f74:	0343f69d 	andi	$r29,$r20,0xfd
1c005f78:	2a00092d 	ld.bu	$r13,$r9,2(0x2)
1c005f7c:	02800421 	addi.w	$r1,$r1,1(0x1)
1c005f80:	0280040e 	addi.w	$r14,$r0,1(0x1)
1c005f84:	00150090 	move	$r16,$r4
1c005f88:	02800414 	addi.w	$r20,$r0,1(0x1)
1c005f8c:	5ffc5fa0 	bne	$r29,$r0,-932(0x3fc5c) # 1c005be8 <core_bench_state+0x178>
1c005f90:	0280180e 	addi.w	$r14,$r0,6(0x6)
1c005f94:	5bfc55a0 	beq	$r13,$r0,-940(0x3fc54) # 1c005be8 <core_bench_state+0x178>
1c005f98:	028008cf 	addi.w	$r15,$r6,2(0x2)
1c005f9c:	580525b8 	beq	$r13,$r24,1316(0x524) # 1c0064c0 <core_bench_state+0xa50>
1c005fa0:	02bf41a4 	addi.w	$r4,$r13,-48(0xfd0)
1c005fa4:	29800064 	st.w	$r4,$r3,0
1c005fa8:	2a0008dd 	ld.bu	$r29,$r6,2(0x2)
1c005fac:	2a00007e 	ld.bu	$r30,$r3,0
1c005fb0:	02802409 	addi.w	$r9,$r0,9(0x9)
1c005fb4:	028006f7 	addi.w	$r23,$r23,1(0x1)
1c005fb8:	0280040e 	addi.w	$r14,$r0,1(0x1)
1c005fbc:	00150290 	move	$r16,$r20
1c005fc0:	00150284 	move	$r4,$r20
1c005fc4:	0280040a 	addi.w	$r10,$r0,1(0x1)
1c005fc8:	001503ad 	move	$r13,$r29
1c005fcc:	6bfc1d3e 	bltu	$r9,$r30,-996(0x3fc1c) # 1c005be8 <core_bench_state+0x178>
1c005fd0:	02801c0e 	addi.w	$r14,$r0,7(0x7)
1c005fd4:	5bfc17a0 	beq	$r29,$r0,-1004(0x3fc14) # 1c005be8 <core_bench_state+0x178>
1c005fd8:	02800ccf 	addi.w	$r15,$r6,3(0x3)
1c005fdc:	580525b8 	beq	$r13,$r24,1316(0x524) # 1c006500 <core_bench_state+0xa90>
1c005fe0:	2a000ccd 	ld.bu	$r13,$r6,3(0x3)
1c005fe4:	02802413 	addi.w	$r19,$r0,9(0x9)
1c005fe8:	0280b018 	addi.w	$r24,$r0,44(0x2c)
1c005fec:	02bf43aa 	addi.w	$r10,$r29,-48(0xfd0)
1c005ff0:	2980006a 	st.w	$r10,$r3,0
1c005ff4:	2a000071 	ld.bu	$r17,$r3,0
1c005ff8:	02801c0e 	addi.w	$r14,$r0,7(0x7)
1c005ffc:	02800410 	addi.w	$r16,$r0,1(0x1)
1c006000:	6c002271 	bgeu	$r19,$r17,32(0x20) # 1c006020 <core_bench_state+0x5b0>
1c006004:	0280077b 	addi.w	$r27,$r27,1(0x1)
1c006008:	0280040e 	addi.w	$r14,$r0,1(0x1)
1c00600c:	02800416 	addi.w	$r22,$r0,1(0x1)
1c006010:	02800404 	addi.w	$r4,$r0,1(0x1)
1c006014:	02800414 	addi.w	$r20,$r0,1(0x1)
1c006018:	0280040a 	addi.w	$r10,$r0,1(0x1)
1c00601c:	53fbcfff 	b	-1076(0xffffbcc) # 1c005be8 <core_bench_state+0x178>
1c006020:	02800404 	addi.w	$r4,$r0,1(0x1)
1c006024:	02800414 	addi.w	$r20,$r0,1(0x1)
1c006028:	0280040a 	addi.w	$r10,$r0,1(0x1)
1c00602c:	5bfbbda0 	beq	$r13,$r0,-1092(0x3fbbc) # 1c005be8 <core_bench_state+0x178>
1c006030:	2a0005e6 	ld.bu	$r6,$r15,1(0x1)
1c006034:	001501bd 	move	$r29,$r13
1c006038:	028005ef 	addi.w	$r15,$r15,1(0x1)
1c00603c:	001500cd 	move	$r13,$r6
1c006040:	5fffafb8 	bne	$r29,$r24,-84(0x3ffac) # 1c005fec <core_bench_state+0x57c>
1c006044:	53fba7ff 	b	-1116(0xffffba4) # 1c005be8 <core_bench_state+0x178>
1c006048:	02800410 	addi.w	$r16,$r0,1(0x1)
1c00604c:	58013620 	beq	$r17,$r0,308(0x134) # 1c006180 <core_bench_state+0x710>
1c006050:	2a00053e 	ld.bu	$r30,$r9,1(0x1)
1c006054:	0280052e 	addi.w	$r14,$r9,1(0x1)
1c006058:	0015022d 	move	$r13,$r17
1c00605c:	0015012f 	move	$r15,$r9
1c006060:	58052238 	beq	$r17,$r24,1312(0x520) # 1c006580 <core_bench_state+0xb10>
1c006064:	001503d1 	move	$r17,$r30
1c006068:	001501c9 	move	$r9,$r14
1c00606c:	53fb4bff 	b	-1208(0xffffb48) # 1c005bb4 <core_bench_state+0x144>
1c006070:	0280080e 	addi.w	$r14,$r0,2(0x2)
1c006074:	02800410 	addi.w	$r16,$r0,1(0x1)
1c006078:	5800ebc0 	beq	$r30,$r0,232(0xe8) # 1c006160 <core_bench_state+0x6f0>
1c00607c:	0280b009 	addi.w	$r9,$r0,44(0x2c)
1c006080:	028007b8 	addi.w	$r24,$r29,1(0x1)
1c006084:	58051bc9 	beq	$r30,$r9,1304(0x518) # 1c00659c <core_bench_state+0xb2c>
1c006088:	02bf43dc 	addi.w	$r28,$r30,-48(0xfd0)
1c00608c:	2980007c 	st.w	$r28,$r3,0
1c006090:	2a00006e 	ld.bu	$r14,$r3,0
1c006094:	02802413 	addi.w	$r19,$r0,9(0x9)
1c006098:	2a0009ed 	ld.bu	$r13,$r15,2(0x2)
1c00609c:	0280056b 	addi.w	$r11,$r11,1(0x1)
1c0060a0:	0015030f 	move	$r15,$r24
1c0060a4:	6c00426e 	bgeu	$r19,$r14,64(0x40) # 1c0060e4 <core_bench_state+0x674>
1c0060a8:	0280b806 	addi.w	$r6,$r0,46(0x2e)
1c0060ac:	0280040e 	addi.w	$r14,$r0,1(0x1)
1c0060b0:	02800410 	addi.w	$r16,$r0,1(0x1)
1c0060b4:	0280041c 	addi.w	$r28,$r0,1(0x1)
1c0060b8:	5ffb33c6 	bne	$r30,$r6,-1232(0x3fb30) # 1c005be8 <core_bench_state+0x178>
1c0060bc:	0280140e 	addi.w	$r14,$r0,5(0x5)
1c0060c0:	00150390 	move	$r16,$r28
1c0060c4:	5bfb25a0 	beq	$r13,$r0,-1244(0x3fb24) # 1c005be8 <core_bench_state+0x178>
1c0060c8:	0280b01e 	addi.w	$r30,$r0,44(0x2c)
1c0060cc:	028005e6 	addi.w	$r6,$r15,1(0x1)
1c0060d0:	5804e5be 	beq	$r13,$r30,1252(0x4e4) # 1c0065b4 <core_bench_state+0xb44>
1c0060d4:	2a000bb3 	ld.bu	$r19,$r29,2(0x2)
1c0060d8:	001501e9 	move	$r9,$r15
1c0060dc:	001501b1 	move	$r17,$r13
1c0060e0:	53fe2fff 	b	-468(0xffffe2c) # 1c005f0c <core_bench_state+0x49c>
1c0060e4:	0280100e 	addi.w	$r14,$r0,4(0x4)
1c0060e8:	02800410 	addi.w	$r16,$r0,1(0x1)
1c0060ec:	0280041c 	addi.w	$r28,$r0,1(0x1)
1c0060f0:	5bfaf9a0 	beq	$r13,$r0,-1288(0x3faf8) # 1c005be8 <core_bench_state+0x178>
1c0060f4:	0280b011 	addi.w	$r17,$r0,44(0x2c)
1c0060f8:	028005e9 	addi.w	$r9,$r15,1(0x1)
1c0060fc:	5803f5b1 	beq	$r13,$r17,1012(0x3f4) # 1c0064f0 <core_bench_state+0xa80>
1c006100:	2a000bb1 	ld.bu	$r17,$r29,2(0x2)
1c006104:	53faa7ff 	b	-1372(0xffffaa4) # 1c005ba8 <core_bench_state+0x138>
1c006108:	0280140e 	addi.w	$r14,$r0,5(0x5)
1c00610c:	02800410 	addi.w	$r16,$r0,1(0x1)
1c006110:	58006260 	beq	$r19,$r0,96(0x60) # 1c006170 <core_bench_state+0x700>
1c006114:	2a0004cd 	ld.bu	$r13,$r6,1(0x1)
1c006118:	028004cf 	addi.w	$r15,$r6,1(0x1)
1c00611c:	00150271 	move	$r17,$r19
1c006120:	001500c9 	move	$r9,$r6
1c006124:	5bfac67e 	beq	$r19,$r30,-1340(0x3fac4) # 1c005be8 <core_bench_state+0x178>
1c006128:	001501b3 	move	$r19,$r13
1c00612c:	001501e6 	move	$r6,$r15
1c006130:	53fdebff 	b	-536(0xffffde8) # 1c005f18 <core_bench_state+0x4a8>
1c006134:	0280140e 	addi.w	$r14,$r0,5(0x5)
1c006138:	02800410 	addi.w	$r16,$r0,1(0x1)
1c00613c:	580027c0 	beq	$r30,$r0,36(0x24) # 1c006160 <core_bench_state+0x6f0>
1c006140:	0280b00d 	addi.w	$r13,$r0,44(0x2c)
1c006144:	028007a6 	addi.w	$r6,$r29,1(0x1)
1c006148:	5804ebcd 	beq	$r30,$r13,1256(0x4e8) # 1c006630 <core_bench_state+0xbc0>
1c00614c:	2a0009f3 	ld.bu	$r19,$r15,2(0x2)
1c006150:	001503a9 	move	$r9,$r29
1c006154:	001503d1 	move	$r17,$r30
1c006158:	53fdb7ff 	b	-588(0xffffdb4) # 1c005f0c <core_bench_state+0x49c>
1c00615c:	03400000 	andi	$r0,$r0,0x0
1c006160:	0015000d 	move	$r13,$r0
1c006164:	001503af 	move	$r15,$r29
1c006168:	53fa83ff 	b	-1408(0xffffa80) # 1c005be8 <core_bench_state+0x178>
1c00616c:	03400000 	andi	$r0,$r0,0x0
1c006170:	0015000d 	move	$r13,$r0
1c006174:	001500cf 	move	$r15,$r6
1c006178:	53fa73ff 	b	-1424(0xffffa70) # 1c005be8 <core_bench_state+0x178>
1c00617c:	03400000 	andi	$r0,$r0,0x0
1c006180:	001503ae 	move	$r14,$r29
1c006184:	0015000d 	move	$r13,$r0
1c006188:	0015012f 	move	$r15,$r9
1c00618c:	53fa5fff 	b	-1444(0xffffa5c) # 1c005be8 <core_bench_state+0x178>
1c006190:	0280100d 	addi.w	$r13,$r0,4(0x4)
1c006194:	0280040f 	addi.w	$r15,$r0,1(0x1)
1c006198:	5802d120 	beq	$r9,$r0,720(0x2d0) # 1c006468 <core_bench_state+0x9f8>
1c00619c:	0280b00c 	addi.w	$r12,$r0,44(0x2c)
1c0061a0:	028007e6 	addi.w	$r6,$r31,1(0x1)
1c0061a4:	5803412c 	beq	$r9,$r12,832(0x340) # 1c0064e4 <core_bench_state+0xa74>
1c0061a8:	2a0009d0 	ld.bu	$r16,$r14,2(0x2)
1c0061ac:	0015012c 	move	$r12,$r9
1c0061b0:	001503ee 	move	$r14,$r31
1c0061b4:	0280b811 	addi.w	$r17,$r0,46(0x2e)
1c0061b8:	02802404 	addi.w	$r4,$r0,9(0x9)
1c0061bc:	0280b009 	addi.w	$r9,$r0,44(0x2c)
1c0061c0:	02bf419f 	addi.w	$r31,$r12,-48(0xfd0)
1c0061c4:	2980007f 	st.w	$r31,$r3,0
1c0061c8:	2a00006d 	ld.bu	$r13,$r3,0
1c0061cc:	58002991 	beq	$r12,$r17,40(0x28) # 1c0061f4 <core_bench_state+0x784>
1c0061d0:	0280101f 	addi.w	$r31,$r0,4(0x4)
1c0061d4:	6c017c8d 	bgeu	$r4,$r13,380(0x17c) # 1c006350 <core_bench_state+0x8e0>
1c0061d8:	0280075a 	addi.w	$r26,$r26,1(0x1)
1c0061dc:	0280040d 	addi.w	$r13,$r0,1(0x1)
1c0061e0:	0280040f 	addi.w	$r15,$r0,1(0x1)
1c0061e4:	0280041e 	addi.w	$r30,$r0,1(0x1)
1c0061e8:	0015020c 	move	$r12,$r16
1c0061ec:	001500ce 	move	$r14,$r6
1c0061f0:	53fba7ff 	b	-1116(0xffffba4) # 1c005d94 <core_bench_state+0x324>
1c0061f4:	0280075a 	addi.w	$r26,$r26,1(0x1)
1c0061f8:	0280140d 	addi.w	$r13,$r0,5(0x5)
1c0061fc:	0280040f 	addi.w	$r15,$r0,1(0x1)
1c006200:	0280041e 	addi.w	$r30,$r0,1(0x1)
1c006204:	58028200 	beq	$r16,$r0,640(0x280) # 1c006484 <core_bench_state+0xa14>
1c006208:	0280b00c 	addi.w	$r12,$r0,44(0x2c)
1c00620c:	028004c4 	addi.w	$r4,$r6,1(0x1)
1c006210:	58034a0c 	beq	$r16,$r12,840(0x348) # 1c006558 <core_bench_state+0xae8>
1c006214:	2a0009d1 	ld.bu	$r17,$r14,2(0x2)
1c006218:	02811409 	addi.w	$r9,$r0,69(0x45)
1c00621c:	0280241f 	addi.w	$r31,$r0,9(0x9)
1c006220:	0280b016 	addi.w	$r22,$r0,44(0x2c)
1c006224:	02bf420f 	addi.w	$r15,$r16,-48(0xfd0)
1c006228:	2980006f 	st.w	$r15,$r3,0
1c00622c:	03437e10 	andi	$r16,$r16,0xdf
1c006230:	2a00006d 	ld.bu	$r13,$r3,0
1c006234:	58002609 	beq	$r16,$r9,36(0x24) # 1c006258 <core_bench_state+0x7e8>
1c006238:	6c01dbed 	bgeu	$r31,$r13,472(0x1d8) # 1c006410 <core_bench_state+0x9a0>
1c00623c:	02800739 	addi.w	$r25,$r25,1(0x1)
1c006240:	0280040d 	addi.w	$r13,$r0,1(0x1)
1c006244:	0280040f 	addi.w	$r15,$r0,1(0x1)
1c006248:	02800414 	addi.w	$r20,$r0,1(0x1)
1c00624c:	0015022c 	move	$r12,$r17
1c006250:	0015008e 	move	$r14,$r4
1c006254:	53fb43ff 	b	-1216(0xffffb40) # 1c005d94 <core_bench_state+0x324>
1c006258:	02800739 	addi.w	$r25,$r25,1(0x1)
1c00625c:	02800c0d 	addi.w	$r13,$r0,3(0x3)
1c006260:	0280040f 	addi.w	$r15,$r0,1(0x1)
1c006264:	02800414 	addi.w	$r20,$r0,1(0x1)
1c006268:	58020e20 	beq	$r17,$r0,524(0x20c) # 1c006474 <core_bench_state+0xa04>
1c00626c:	0280b009 	addi.w	$r9,$r0,44(0x2c)
1c006270:	0280048e 	addi.w	$r14,$r4,1(0x1)
1c006274:	58021e29 	beq	$r17,$r9,540(0x21c) # 1c006490 <core_bench_state+0xa20>
1c006278:	02bf5633 	addi.w	$r19,$r17,-43(0xfd5)
1c00627c:	0343f67f 	andi	$r31,$r19,0xfd
1c006280:	2a0008cc 	ld.bu	$r12,$r6,2(0x2)
1c006284:	02800421 	addi.w	$r1,$r1,1(0x1)
1c006288:	0280040d 	addi.w	$r13,$r0,1(0x1)
1c00628c:	0015028f 	move	$r15,$r20
1c006290:	02800413 	addi.w	$r19,$r0,1(0x1)
1c006294:	5ffb03e0 	bne	$r31,$r0,-1280(0x3fb00) # 1c005d94 <core_bench_state+0x324>
1c006298:	0280180d 	addi.w	$r13,$r0,6(0x6)
1c00629c:	5bfaf980 	beq	$r12,$r0,-1288(0x3faf8) # 1c005d94 <core_bench_state+0x324>
1c0062a0:	0280088e 	addi.w	$r14,$r4,2(0x2)
1c0062a4:	5801fd89 	beq	$r12,$r9,508(0x1fc) # 1c0064a0 <core_bench_state+0xa30>
1c0062a8:	02bf4194 	addi.w	$r20,$r12,-48(0xfd0)
1c0062ac:	29800074 	st.w	$r20,$r3,0
1c0062b0:	2a00089f 	ld.bu	$r31,$r4,2(0x2)
1c0062b4:	2a000076 	ld.bu	$r22,$r3,0
1c0062b8:	02802406 	addi.w	$r6,$r0,9(0x9)
1c0062bc:	028006f7 	addi.w	$r23,$r23,1(0x1)
1c0062c0:	0280040d 	addi.w	$r13,$r0,1(0x1)
1c0062c4:	0015026f 	move	$r15,$r19
1c0062c8:	00150274 	move	$r20,$r19
1c0062cc:	0280040a 	addi.w	$r10,$r0,1(0x1)
1c0062d0:	001503ec 	move	$r12,$r31
1c0062d4:	6bfac0d6 	bltu	$r6,$r22,-1344(0x3fac0) # 1c005d94 <core_bench_state+0x324>
1c0062d8:	02801c0d 	addi.w	$r13,$r0,7(0x7)
1c0062dc:	5bfabbe0 	beq	$r31,$r0,-1352(0x3fab8) # 1c005d94 <core_bench_state+0x324>
1c0062e0:	02800c8e 	addi.w	$r14,$r4,3(0x3)
1c0062e4:	5801ed89 	beq	$r12,$r9,492(0x1ec) # 1c0064d0 <core_bench_state+0xa60>
1c0062e8:	2a000c8c 	ld.bu	$r12,$r4,3(0x3)
1c0062ec:	02802411 	addi.w	$r17,$r0,9(0x9)
1c0062f0:	0280b004 	addi.w	$r4,$r0,44(0x2c)
1c0062f4:	02bf43ea 	addi.w	$r10,$r31,-48(0xfd0)
1c0062f8:	2980006a 	st.w	$r10,$r3,0
1c0062fc:	2a000070 	ld.bu	$r16,$r3,0
1c006300:	02801c0d 	addi.w	$r13,$r0,7(0x7)
1c006304:	0280040f 	addi.w	$r15,$r0,1(0x1)
1c006308:	6c002230 	bgeu	$r17,$r16,32(0x20) # 1c006328 <core_bench_state+0x8b8>
1c00630c:	0280077b 	addi.w	$r27,$r27,1(0x1)
1c006310:	0280040d 	addi.w	$r13,$r0,1(0x1)
1c006314:	0280041d 	addi.w	$r29,$r0,1(0x1)
1c006318:	02800414 	addi.w	$r20,$r0,1(0x1)
1c00631c:	02800413 	addi.w	$r19,$r0,1(0x1)
1c006320:	0280040a 	addi.w	$r10,$r0,1(0x1)
1c006324:	53fa73ff 	b	-1424(0xffffa70) # 1c005d94 <core_bench_state+0x324>
1c006328:	02800414 	addi.w	$r20,$r0,1(0x1)
1c00632c:	02800413 	addi.w	$r19,$r0,1(0x1)
1c006330:	0280040a 	addi.w	$r10,$r0,1(0x1)
1c006334:	5bfa6180 	beq	$r12,$r0,-1440(0x3fa60) # 1c005d94 <core_bench_state+0x324>
1c006338:	2a0005c9 	ld.bu	$r9,$r14,1(0x1)
1c00633c:	0015019f 	move	$r31,$r12
1c006340:	028005ce 	addi.w	$r14,$r14,1(0x1)
1c006344:	0015012c 	move	$r12,$r9
1c006348:	5fffafe4 	bne	$r31,$r4,-84(0x3ffac) # 1c0062f4 <core_bench_state+0x884>
1c00634c:	53fa4bff 	b	-1464(0xffffa48) # 1c005d94 <core_bench_state+0x324>
1c006350:	0280040f 	addi.w	$r15,$r0,1(0x1)
1c006354:	58012e00 	beq	$r16,$r0,300(0x12c) # 1c006480 <core_bench_state+0xa10>
1c006358:	2a0004d6 	ld.bu	$r22,$r6,1(0x1)
1c00635c:	028004cd 	addi.w	$r13,$r6,1(0x1)
1c006360:	0015020c 	move	$r12,$r16
1c006364:	001500ce 	move	$r14,$r6
1c006368:	58020209 	beq	$r16,$r9,512(0x200) # 1c006568 <core_bench_state+0xaf8>
1c00636c:	001501a6 	move	$r6,$r13
1c006370:	001502d0 	move	$r16,$r22
1c006374:	53fe4fff 	b	-436(0xffffe4c) # 1c0061c0 <core_bench_state+0x750>
1c006378:	0280080d 	addi.w	$r13,$r0,2(0x2)
1c00637c:	0280040f 	addi.w	$r15,$r0,1(0x1)
1c006380:	5800e920 	beq	$r9,$r0,232(0xe8) # 1c006468 <core_bench_state+0x9f8>
1c006384:	0280b016 	addi.w	$r22,$r0,44(0x2c)
1c006388:	028007f0 	addi.w	$r16,$r31,1(0x1)
1c00638c:	58020536 	beq	$r9,$r22,516(0x204) # 1c006590 <core_bench_state+0xb20>
1c006390:	02bf413c 	addi.w	$r28,$r9,-48(0xfd0)
1c006394:	2980007c 	st.w	$r28,$r3,0
1c006398:	2a000064 	ld.bu	$r4,$r3,0
1c00639c:	0280240f 	addi.w	$r15,$r0,9(0x9)
1c0063a0:	2a0009cc 	ld.bu	$r12,$r14,2(0x2)
1c0063a4:	0280056b 	addi.w	$r11,$r11,1(0x1)
1c0063a8:	0015020e 	move	$r14,$r16
1c0063ac:	680029e4 	bltu	$r15,$r4,40(0x28) # 1c0063d4 <core_bench_state+0x964>
1c0063b0:	0280100d 	addi.w	$r13,$r0,4(0x4)
1c0063b4:	0280040f 	addi.w	$r15,$r0,1(0x1)
1c0063b8:	0280041c 	addi.w	$r28,$r0,1(0x1)
1c0063bc:	5bf9d980 	beq	$r12,$r0,-1576(0x3f9d8) # 1c005d94 <core_bench_state+0x324>
1c0063c0:	0280b016 	addi.w	$r22,$r0,44(0x2c)
1c0063c4:	028005c6 	addi.w	$r6,$r14,1(0x1)
1c0063c8:	58014d96 	beq	$r12,$r22,332(0x14c) # 1c006514 <core_bench_state+0xaa4>
1c0063cc:	2a000bf0 	ld.bu	$r16,$r31,2(0x2)
1c0063d0:	53fde7ff 	b	-540(0xffffde4) # 1c0061b4 <core_bench_state+0x744>
1c0063d4:	0280b811 	addi.w	$r17,$r0,46(0x2e)
1c0063d8:	0280040d 	addi.w	$r13,$r0,1(0x1)
1c0063dc:	0280040f 	addi.w	$r15,$r0,1(0x1)
1c0063e0:	0280041c 	addi.w	$r28,$r0,1(0x1)
1c0063e4:	5ff9b131 	bne	$r9,$r17,-1616(0x3f9b0) # 1c005d94 <core_bench_state+0x324>
1c0063e8:	0280140d 	addi.w	$r13,$r0,5(0x5)
1c0063ec:	0015038f 	move	$r15,$r28
1c0063f0:	5bf9a580 	beq	$r12,$r0,-1628(0x3f9a4) # 1c005d94 <core_bench_state+0x324>
1c0063f4:	0280b009 	addi.w	$r9,$r0,44(0x2c)
1c0063f8:	028005c4 	addi.w	$r4,$r14,1(0x1)
1c0063fc:	5801ad89 	beq	$r12,$r9,428(0x1ac) # 1c0065a8 <core_bench_state+0xb38>
1c006400:	2a000bf1 	ld.bu	$r17,$r31,2(0x2)
1c006404:	001501c6 	move	$r6,$r14
1c006408:	00150190 	move	$r16,$r12
1c00640c:	53fe0fff 	b	-500(0xffffe0c) # 1c006218 <core_bench_state+0x7a8>
1c006410:	0280140d 	addi.w	$r13,$r0,5(0x5)
1c006414:	0280040f 	addi.w	$r15,$r0,1(0x1)
1c006418:	58005e20 	beq	$r17,$r0,92(0x5c) # 1c006474 <core_bench_state+0xa04>
1c00641c:	2a00048c 	ld.bu	$r12,$r4,1(0x1)
1c006420:	0280048e 	addi.w	$r14,$r4,1(0x1)
1c006424:	00150230 	move	$r16,$r17
1c006428:	00150086 	move	$r6,$r4
1c00642c:	5bf96a36 	beq	$r17,$r22,-1688(0x3f968) # 1c005d94 <core_bench_state+0x324>
1c006430:	001501c4 	move	$r4,$r14
1c006434:	00150191 	move	$r17,$r12
1c006438:	53fdefff 	b	-532(0xffffdec) # 1c006224 <core_bench_state+0x7b4>
1c00643c:	03400000 	andi	$r0,$r0,0x0
1c006440:	0280140d 	addi.w	$r13,$r0,5(0x5)
1c006444:	0280040f 	addi.w	$r15,$r0,1(0x1)
1c006448:	58002120 	beq	$r9,$r0,32(0x20) # 1c006468 <core_bench_state+0x9f8>
1c00644c:	0280b00c 	addi.w	$r12,$r0,44(0x2c)
1c006450:	028007e4 	addi.w	$r4,$r31,1(0x1)
1c006454:	5801d12c 	beq	$r9,$r12,464(0x1d0) # 1c006624 <core_bench_state+0xbb4>
1c006458:	2a0009d1 	ld.bu	$r17,$r14,2(0x2)
1c00645c:	001503e6 	move	$r6,$r31
1c006460:	00150130 	move	$r16,$r9
1c006464:	53fdb7ff 	b	-588(0xffffdb4) # 1c006218 <core_bench_state+0x7a8>
1c006468:	0015000c 	move	$r12,$r0
1c00646c:	001503ee 	move	$r14,$r31
1c006470:	53f927ff 	b	-1756(0xffff924) # 1c005d94 <core_bench_state+0x324>
1c006474:	0015000c 	move	$r12,$r0
1c006478:	0015008e 	move	$r14,$r4
1c00647c:	53f91bff 	b	-1768(0xffff918) # 1c005d94 <core_bench_state+0x324>
1c006480:	001503ed 	move	$r13,$r31
1c006484:	0015000c 	move	$r12,$r0
1c006488:	001500ce 	move	$r14,$r6
1c00648c:	53f90bff 	b	-1784(0xffff908) # 1c005d94 <core_bench_state+0x324>
1c006490:	2a0008cc 	ld.bu	$r12,$r6,2(0x2)
1c006494:	0015028f 	move	$r15,$r20
1c006498:	53f8ffff 	b	-1796(0xffff8fc) # 1c005d94 <core_bench_state+0x324>
1c00649c:	03400000 	andi	$r0,$r0,0x0
1c0064a0:	2a00088c 	ld.bu	$r12,$r4,2(0x2)
1c0064a4:	0015026f 	move	$r15,$r19
1c0064a8:	00150274 	move	$r20,$r19
1c0064ac:	53f8ebff 	b	-1816(0xffff8e8) # 1c005d94 <core_bench_state+0x324>
1c0064b0:	2a00092d 	ld.bu	$r13,$r9,2(0x2)
1c0064b4:	00150090 	move	$r16,$r4
1c0064b8:	53f733ff 	b	-2256(0xffff730) # 1c005be8 <core_bench_state+0x178>
1c0064bc:	03400000 	andi	$r0,$r0,0x0
1c0064c0:	2a0008cd 	ld.bu	$r13,$r6,2(0x2)
1c0064c4:	00150290 	move	$r16,$r20
1c0064c8:	00150284 	move	$r4,$r20
1c0064cc:	53f71fff 	b	-2276(0xffff71c) # 1c005be8 <core_bench_state+0x178>
1c0064d0:	2a000c8c 	ld.bu	$r12,$r4,3(0x3)
1c0064d4:	0015014f 	move	$r15,$r10
1c0064d8:	00150154 	move	$r20,$r10
1c0064dc:	00150153 	move	$r19,$r10
1c0064e0:	53f8b7ff 	b	-1868(0xffff8b4) # 1c005d94 <core_bench_state+0x324>
1c0064e4:	2a0009cc 	ld.bu	$r12,$r14,2(0x2)
1c0064e8:	001500ce 	move	$r14,$r6
1c0064ec:	53f8abff 	b	-1880(0xffff8a8) # 1c005d94 <core_bench_state+0x324>
1c0064f0:	2a000bad 	ld.bu	$r13,$r29,2(0x2)
1c0064f4:	0015012f 	move	$r15,$r9
1c0064f8:	53f6f3ff 	b	-2320(0xffff6f0) # 1c005be8 <core_bench_state+0x178>
1c0064fc:	03400000 	andi	$r0,$r0,0x0
1c006500:	2a000ccd 	ld.bu	$r13,$r6,3(0x3)
1c006504:	00150150 	move	$r16,$r10
1c006508:	00150144 	move	$r4,$r10
1c00650c:	00150154 	move	$r20,$r10
1c006510:	53f6dbff 	b	-2344(0xffff6d8) # 1c005be8 <core_bench_state+0x178>
1c006514:	2a000bec 	ld.bu	$r12,$r31,2(0x2)
1c006518:	001500ce 	move	$r14,$r6
1c00651c:	53f87bff 	b	-1928(0xffff878) # 1c005d94 <core_bench_state+0x324>
1c006520:	2a0009ed 	ld.bu	$r13,$r15,2(0x2)
1c006524:	0015012f 	move	$r15,$r9
1c006528:	53f6c3ff 	b	-2368(0xffff6c0) # 1c005be8 <core_bench_state+0x178>
1c00652c:	03400000 	andi	$r0,$r0,0x0
1c006530:	00150007 	move	$r7,$r0
1c006534:	53f727ff 	b	-2268(0xffff724) # 1c005c58 <core_bench_state+0x1e8>
1c006538:	00101258 	add.w	$r24,$r18,$r4
1c00653c:	00150007 	move	$r7,$r0
1c006540:	6bf76658 	bltu	$r18,$r24,-2204(0x3f764) # 1c005ca4 <core_bench_state+0x234>
1c006544:	53f90bff 	b	-1784(0xffff908) # 1c005e4c <core_bench_state+0x3dc>
1c006548:	2a0009ed 	ld.bu	$r13,$r15,2(0x2)
1c00654c:	02800410 	addi.w	$r16,$r0,1(0x1)
1c006550:	001500cf 	move	$r15,$r6
1c006554:	53f697ff 	b	-2412(0xffff694) # 1c005be8 <core_bench_state+0x178>
1c006558:	2a0009cc 	ld.bu	$r12,$r14,2(0x2)
1c00655c:	001503cf 	move	$r15,$r30
1c006560:	0015008e 	move	$r14,$r4
1c006564:	53f833ff 	b	-2000(0xffff830) # 1c005d94 <core_bench_state+0x324>
1c006568:	001501b1 	move	$r17,$r13
1c00656c:	001502cc 	move	$r12,$r22
1c006570:	001503ed 	move	$r13,$r31
1c006574:	0015022e 	move	$r14,$r17
1c006578:	53f81fff 	b	-2020(0xffff81c) # 1c005d94 <core_bench_state+0x324>
1c00657c:	03400000 	andi	$r0,$r0,0x0
1c006580:	001501cf 	move	$r15,$r14
1c006584:	001503cd 	move	$r13,$r30
1c006588:	001503ae 	move	$r14,$r29
1c00658c:	53f65fff 	b	-2468(0xffff65c) # 1c005be8 <core_bench_state+0x178>
1c006590:	2a0009cc 	ld.bu	$r12,$r14,2(0x2)
1c006594:	0015020e 	move	$r14,$r16
1c006598:	53f7ffff 	b	-2052(0xffff7fc) # 1c005d94 <core_bench_state+0x324>
1c00659c:	2a0009ed 	ld.bu	$r13,$r15,2(0x2)
1c0065a0:	0015030f 	move	$r15,$r24
1c0065a4:	53f647ff 	b	-2492(0xffff644) # 1c005be8 <core_bench_state+0x178>
1c0065a8:	2a000bec 	ld.bu	$r12,$r31,2(0x2)
1c0065ac:	0015008e 	move	$r14,$r4
1c0065b0:	53f7e7ff 	b	-2076(0xffff7e4) # 1c005d94 <core_bench_state+0x324>
1c0065b4:	2a000bad 	ld.bu	$r13,$r29,2(0x2)
1c0065b8:	001500cf 	move	$r15,$r6
1c0065bc:	53f62fff 	b	-2516(0xffff62c) # 1c005be8 <core_bench_state+0x178>
1c0065c0:	2880607f 	ld.w	$r31,$r3,24(0x18)
1c0065c4:	53f74bff 	b	-2232(0xffff748) # 1c005d0c <core_bench_state+0x29c>
1c0065c8:	001503ee 	move	$r14,$r31
1c0065cc:	0015012c 	move	$r12,$r9
1c0065d0:	0015001d 	move	$r29,$r0
1c0065d4:	0015000a 	move	$r10,$r0
1c0065d8:	00150013 	move	$r19,$r0
1c0065dc:	00150014 	move	$r20,$r0
1c0065e0:	0015001e 	move	$r30,$r0
1c0065e4:	0015001c 	move	$r28,$r0
1c0065e8:	0015000f 	move	$r15,$r0
1c0065ec:	0015000d 	move	$r13,$r0
1c0065f0:	53f7a7ff 	b	-2140(0xffff7a4) # 1c005d94 <core_bench_state+0x324>
1c0065f4:	001503af 	move	$r15,$r29
1c0065f8:	001503cd 	move	$r13,$r30
1c0065fc:	00150007 	move	$r7,$r0
1c006600:	00150016 	move	$r22,$r0
1c006604:	0015000a 	move	$r10,$r0
1c006608:	00150014 	move	$r20,$r0
1c00660c:	00150004 	move	$r4,$r0
1c006610:	29801060 	st.w	$r0,$r3,4(0x4)
1c006614:	0015001c 	move	$r28,$r0
1c006618:	00150010 	move	$r16,$r0
1c00661c:	0015000e 	move	$r14,$r0
1c006620:	53f5cbff 	b	-2616(0xffff5c8) # 1c005be8 <core_bench_state+0x178>
1c006624:	2a0009cc 	ld.bu	$r12,$r14,2(0x2)
1c006628:	0015008e 	move	$r14,$r4
1c00662c:	53f76bff 	b	-2200(0xffff768) # 1c005d94 <core_bench_state+0x324>
1c006630:	2a0009ed 	ld.bu	$r13,$r15,2(0x2)
1c006634:	001500cf 	move	$r15,$r6
1c006638:	53f5b3ff 	b	-2640(0xffff5b0) # 1c005be8 <core_bench_state+0x178>
1c00663c:	03400000 	andi	$r0,$r0,0x0

1c006640 <core_init_state>:
core_init_state():
1c006640:	02bffc91 	addi.w	$r17,$r4,-1(0xfff)
1c006644:	0280040c 	addi.w	$r12,$r0,1(0x1)
1c006648:	001500d4 	move	$r20,$r6
1c00664c:	6c017d91 	bgeu	$r12,$r17,380(0x17c) # 1c0067c8 <core_init_state+0x188>
1c006650:	02bfc063 	addi.w	$r3,$r3,-16(0xff0)
1c006654:	028004af 	addi.w	$r15,$r5,1(0x1)
1c006658:	2980306f 	st.w	$r15,$r3,12(0xc)
1c00665c:	2a40306f 	ld.hu	$r15,$r3,12(0xc)
1c006660:	02801010 	addi.w	$r16,$r0,4(0x4)
1c006664:	0015000e 	move	$r14,$r0
1c006668:	03401dea 	andi	$r10,$r15,0x7
1c00666c:	02bff54b 	addi.w	$r11,$r10,-3(0xffd)
1c006670:	2980306b 	st.w	$r11,$r3,12(0xc)
1c006674:	2a40306c 	ld.hu	$r12,$r3,12(0xc)
1c006678:	00448ded 	srli.w	$r13,$r15,0x3
1c00667c:	1c000068 	pcaddu12i	$r8,3(0x3)
1c006680:	02b10108 	addi.w	$r8,$r8,-960(0xc40)
1c006684:	1c000073 	pcaddu12i	$r19,3(0x3)
1c006688:	02ad1273 	addi.w	$r19,$r19,-1212(0xb44)
1c00668c:	1c000067 	pcaddu12i	$r7,3(0x3)
1c006690:	02ae00e7 	addi.w	$r7,$r7,-1152(0xb80)
1c006694:	02802009 	addi.w	$r9,$r0,8(0x8)
1c006698:	1c000066 	pcaddu12i	$r6,3(0x3)
1c00669c:	02aed0c6 	addi.w	$r6,$r6,-1100(0xbb4)
1c0066a0:	1c000065 	pcaddu12i	$r5,3(0x3)
1c0066a4:	02afb0a5 	addi.w	$r5,$r5,-1044(0xbec)
1c0066a8:	0280b012 	addi.w	$r18,$r0,44(0x2c)
1c0066ac:	03400daa 	andi	$r10,$r13,0x3
1c0066b0:	6800ae0c 	bltu	$r16,$r12,172(0xac) # 1c00675c <core_init_state+0x11c>
1c0066b4:	0040898b 	slli.w	$r11,$r12,0x2
1c0066b8:	00102e6c 	add.w	$r12,$r19,$r11
1c0066bc:	2880018b 	ld.w	$r11,$r12,0
1c0066c0:	0040894d 	slli.w	$r13,$r10,0x2
1c0066c4:	4c000160 	jirl	$r0,$r11,0
1c0066c8:	001034aa 	add.w	$r10,$r5,$r13
1c0066cc:	028005ef 	addi.w	$r15,$r15,1(0x1)
1c0066d0:	2980306f 	st.w	$r15,$r3,12(0xc)
1c0066d4:	028025cc 	addi.w	$r12,$r14,9(0x9)
1c0066d8:	2880014d 	ld.w	$r13,$r10,0
1c0066dc:	2a40306f 	ld.hu	$r15,$r3,12(0xc)
1c0066e0:	6c00c191 	bgeu	$r12,$r17,192(0xc0) # 1c0067a0 <core_init_state+0x160>
1c0066e4:	0280200a 	addi.w	$r10,$r0,8(0x8)
1c0066e8:	2a0001ab 	ld.bu	$r11,$r13,0
1c0066ec:	00103a8e 	add.w	$r14,$r20,$r14
1c0066f0:	290001cb 	st.b	$r11,$r14,0
1c0066f4:	2a0005ab 	ld.bu	$r11,$r13,1(0x1)
1c0066f8:	290005cb 	st.b	$r11,$r14,1(0x1)
1c0066fc:	2a0009ab 	ld.bu	$r11,$r13,2(0x2)
1c006700:	290009cb 	st.b	$r11,$r14,2(0x2)
1c006704:	2a000dab 	ld.bu	$r11,$r13,3(0x3)
1c006708:	29000dcb 	st.b	$r11,$r14,3(0x3)
1c00670c:	58002950 	beq	$r10,$r16,40(0x28) # 1c006734 <core_init_state+0xf4>
1c006710:	2a0011ab 	ld.bu	$r11,$r13,4(0x4)
1c006714:	290011cb 	st.b	$r11,$r14,4(0x4)
1c006718:	2a0015ab 	ld.bu	$r11,$r13,5(0x5)
1c00671c:	290015cb 	st.b	$r11,$r14,5(0x5)
1c006720:	2a0019ab 	ld.bu	$r11,$r13,6(0x6)
1c006724:	290019cb 	st.b	$r11,$r14,6(0x6)
1c006728:	5c000d49 	bne	$r10,$r9,12(0xc) # 1c006734 <core_init_state+0xf4>
1c00672c:	2a001dad 	ld.bu	$r13,$r13,7(0x7)
1c006730:	29001dcd 	st.b	$r13,$r14,7(0x7)
1c006734:	001029ca 	add.w	$r10,$r14,$r10
1c006738:	29000152 	st.b	$r18,$r10,0
1c00673c:	03401dea 	andi	$r10,$r15,0x7
1c006740:	02bff54b 	addi.w	$r11,$r10,-3(0xffd)
1c006744:	2980306b 	st.w	$r11,$r3,12(0xc)
1c006748:	0015018e 	move	$r14,$r12
1c00674c:	2a40306c 	ld.hu	$r12,$r3,12(0xc)
1c006750:	00448ded 	srli.w	$r13,$r15,0x3
1c006754:	03400daa 	andi	$r10,$r13,0x3
1c006758:	6fff5e0c 	bgeu	$r16,$r12,-164(0x3ff5c) # 1c0066b4 <core_init_state+0x74>
1c00675c:	028005ef 	addi.w	$r15,$r15,1(0x1)
1c006760:	0040894b 	slli.w	$r11,$r10,0x2
1c006764:	00102d0d 	add.w	$r13,$r8,$r11
1c006768:	2980306f 	st.w	$r15,$r3,12(0xc)
1c00676c:	028015cc 	addi.w	$r12,$r14,5(0x5)
1c006770:	288001ad 	ld.w	$r13,$r13,0
1c006774:	2a40306f 	ld.hu	$r15,$r3,12(0xc)
1c006778:	6c002991 	bgeu	$r12,$r17,40(0x28) # 1c0067a0 <core_init_state+0x160>
1c00677c:	0280100a 	addi.w	$r10,$r0,4(0x4)
1c006780:	53ff6bff 	b	-152(0xfffff68) # 1c0066e8 <core_init_state+0xa8>
1c006784:	028005ef 	addi.w	$r15,$r15,1(0x1)
1c006788:	001034ca 	add.w	$r10,$r6,$r13
1c00678c:	2980306f 	st.w	$r15,$r3,12(0xc)
1c006790:	028025cc 	addi.w	$r12,$r14,9(0x9)
1c006794:	2880014d 	ld.w	$r13,$r10,0
1c006798:	2a40306f 	ld.hu	$r15,$r3,12(0xc)
1c00679c:	6bff4991 	bltu	$r12,$r17,-184(0x3ff48) # 1c0066e4 <core_init_state+0xa4>
1c0067a0:	6c0021c4 	bgeu	$r14,$r4,32(0x20) # 1c0067c0 <core_init_state+0x180>
1c0067a4:	00113886 	sub.w	$r6,$r4,$r14
1c0067a8:	00150005 	move	$r5,$r0
1c0067ac:	00103a84 	add.w	$r4,$r20,$r14
1c0067b0:	02804063 	addi.w	$r3,$r3,16(0x10)
1c0067b4:	50225800 	b	8792(0x2258) # 1c008a0c <memset>
1c0067b8:	001034ea 	add.w	$r10,$r7,$r13
1c0067bc:	53ff13ff 	b	-240(0xfffff10) # 1c0066cc <core_init_state+0x8c>
1c0067c0:	02804063 	addi.w	$r3,$r3,16(0x10)
1c0067c4:	4c000020 	jirl	$r0,$r1,0
1c0067c8:	0015000e 	move	$r14,$r0
1c0067cc:	00113886 	sub.w	$r6,$r4,$r14
1c0067d0:	00150005 	move	$r5,$r0
1c0067d4:	00103a84 	add.w	$r4,$r20,$r14
1c0067d8:	50223400 	b	8756(0x2234) # 1c008a0c <memset>
1c0067dc:	03400000 	andi	$r0,$r0,0x0

1c0067e0 <core_state_transition>:
core_state_transition():
1c0067e0:	2880008d 	ld.w	$r13,$r4,0
1c0067e4:	00150091 	move	$r17,$r4
1c0067e8:	00150004 	move	$r4,$r0
1c0067ec:	2a0001ac 	ld.bu	$r12,$r13,0
1c0067f0:	001501ae 	move	$r14,$r13
1c0067f4:	5802fd80 	beq	$r12,$r0,764(0x2fc) # 1c006af0 <core_state_transition+0x310>
1c0067f8:	0280b010 	addi.w	$r16,$r0,44(0x2c)
1c0067fc:	028005ae 	addi.w	$r14,$r13,1(0x1)
1c006800:	5802ed90 	beq	$r12,$r16,748(0x2ec) # 1c006aec <core_state_transition+0x30c>
1c006804:	02bfc063 	addi.w	$r3,$r3,-16(0xff0)
1c006808:	02bf418f 	addi.w	$r15,$r12,-48(0xfd0)
1c00680c:	2980306f 	st.w	$r15,$r3,12(0xc)
1c006810:	288000b2 	ld.w	$r18,$r5,0
1c006814:	2a003064 	ld.bu	$r4,$r3,12(0xc)
1c006818:	02802413 	addi.w	$r19,$r0,9(0x9)
1c00681c:	02800646 	addi.w	$r6,$r18,1(0x1)
1c006820:	6800d264 	bltu	$r19,$r4,208(0xd0) # 1c0068f0 <core_state_transition+0x110>
1c006824:	298000a6 	st.w	$r6,$r5,0
1c006828:	2a0005b2 	ld.bu	$r18,$r13,1(0x1)
1c00682c:	58018640 	beq	$r18,$r0,388(0x184) # 1c0069b0 <core_state_transition+0x1d0>
1c006830:	028009a4 	addi.w	$r4,$r13,2(0x2)
1c006834:	58017a50 	beq	$r18,$r16,376(0x178) # 1c0069ac <core_state_transition+0x1cc>
1c006838:	02bf424a 	addi.w	$r10,$r18,-48(0xfd0)
1c00683c:	2980306a 	st.w	$r10,$r3,12(0xc)
1c006840:	0280b807 	addi.w	$r7,$r0,46(0x2e)
1c006844:	02802408 	addi.w	$r8,$r0,9(0x9)
1c006848:	0280b009 	addi.w	$r9,$r0,44(0x2c)
1c00684c:	2a00306b 	ld.bu	$r11,$r3,12(0xc)
1c006850:	58003247 	beq	$r18,$r7,48(0x30) # 1c006880 <core_state_transition+0xa0>
1c006854:	02800494 	addi.w	$r20,$r4,1(0x1)
1c006858:	6800d10b 	bltu	$r8,$r11,208(0xd0) # 1c006928 <core_state_transition+0x148>
1c00685c:	2a0005d2 	ld.bu	$r18,$r14,1(0x1)
1c006860:	0015008e 	move	$r14,$r4
1c006864:	58014a40 	beq	$r18,$r0,328(0x148) # 1c0069ac <core_state_transition+0x1cc>
1c006868:	5802c649 	beq	$r18,$r9,708(0x2c4) # 1c006b2c <core_state_transition+0x34c>
1c00686c:	02bf424a 	addi.w	$r10,$r18,-48(0xfd0)
1c006870:	2980306a 	st.w	$r10,$r3,12(0xc)
1c006874:	00150284 	move	$r4,$r20
1c006878:	2a00306b 	ld.bu	$r11,$r3,12(0xc)
1c00687c:	5fffda47 	bne	$r18,$r7,-40(0x3ffd8) # 1c006854 <core_state_transition+0x74>
1c006880:	288040b0 	ld.w	$r16,$r5,16(0x10)
1c006884:	02800613 	addi.w	$r19,$r16,1(0x1)
1c006888:	298040b3 	st.w	$r19,$r5,16(0x10)
1c00688c:	2a0005d2 	ld.bu	$r18,$r14,1(0x1)
1c006890:	0015008e 	move	$r14,$r4
1c006894:	58025240 	beq	$r18,$r0,592(0x250) # 1c006ae4 <core_state_transition+0x304>
1c006898:	0280b00e 	addi.w	$r14,$r0,44(0x2c)
1c00689c:	0280048f 	addi.w	$r15,$r4,1(0x1)
1c0068a0:	5802424e 	beq	$r18,$r14,576(0x240) # 1c006ae0 <core_state_transition+0x300>
1c0068a4:	02bf7c0d 	addi.w	$r13,$r0,-33(0xfdf)
1c0068a8:	02811406 	addi.w	$r6,$r0,69(0x45)
1c0068ac:	02802407 	addi.w	$r7,$r0,9(0x9)
1c0068b0:	0280b008 	addi.w	$r8,$r0,44(0x2c)
1c0068b4:	02bf4249 	addi.w	$r9,$r18,-48(0xfd0)
1c0068b8:	29803069 	st.w	$r9,$r3,12(0xc)
1c0068bc:	0014b64b 	and	$r11,$r18,$r13
1c0068c0:	2a00306a 	ld.bu	$r10,$r3,12(0xc)
1c0068c4:	5800f566 	beq	$r11,$r6,244(0xf4) # 1c0069b8 <core_state_transition+0x1d8>
1c0068c8:	6c01c8ea 	bgeu	$r7,$r10,456(0x1c8) # 1c006a90 <core_state_transition+0x2b0>
1c0068cc:	288050b4 	ld.w	$r20,$r5,20(0x14)
1c0068d0:	001501ee 	move	$r14,$r15
1c0068d4:	02800404 	addi.w	$r4,$r0,1(0x1)
1c0068d8:	0280068c 	addi.w	$r12,$r20,1(0x1)
1c0068dc:	298050ac 	st.w	$r12,$r5,20(0x14)
1c0068e0:	2980022e 	st.w	$r14,$r17,0
1c0068e4:	02804063 	addi.w	$r3,$r3,16(0x10)
1c0068e8:	4c000020 	jirl	$r0,$r1,0
1c0068ec:	03400000 	andi	$r0,$r0,0x0
1c0068f0:	0280ac07 	addi.w	$r7,$r0,43(0x2b)
1c0068f4:	58005587 	beq	$r12,$r7,84(0x54) # 1c006948 <core_state_transition+0x168>
1c0068f8:	0280b408 	addi.w	$r8,$r0,45(0x2d)
1c0068fc:	58004d88 	beq	$r12,$r8,76(0x4c) # 1c006948 <core_state_transition+0x168>
1c006900:	0280b809 	addi.w	$r9,$r0,46(0x2e)
1c006904:	5801a989 	beq	$r12,$r9,424(0x1a8) # 1c006aac <core_state_transition+0x2cc>
1c006908:	288010aa 	ld.w	$r10,$r5,4(0x4)
1c00690c:	298000a6 	st.w	$r6,$r5,0
1c006910:	02800404 	addi.w	$r4,$r0,1(0x1)
1c006914:	0280054b 	addi.w	$r11,$r10,1(0x1)
1c006918:	298010ab 	st.w	$r11,$r5,4(0x4)
1c00691c:	2980022e 	st.w	$r14,$r17,0
1c006920:	02804063 	addi.w	$r3,$r3,16(0x10)
1c006924:	4c000020 	jirl	$r0,$r1,0
1c006928:	288040ac 	ld.w	$r12,$r5,16(0x10)
1c00692c:	0015008e 	move	$r14,$r4
1c006930:	02800404 	addi.w	$r4,$r0,1(0x1)
1c006934:	0280058f 	addi.w	$r15,$r12,1(0x1)
1c006938:	298040af 	st.w	$r15,$r5,16(0x10)
1c00693c:	2980022e 	st.w	$r14,$r17,0
1c006940:	02804063 	addi.w	$r3,$r3,16(0x10)
1c006944:	4c000020 	jirl	$r0,$r1,0
1c006948:	298000a6 	st.w	$r6,$r5,0
1c00694c:	2a0005b4 	ld.bu	$r20,$r13,1(0x1)
1c006950:	5801ca80 	beq	$r20,$r0,456(0x1c8) # 1c006b18 <core_state_transition+0x338>
1c006954:	028009ae 	addi.w	$r14,$r13,2(0x2)
1c006958:	5801c290 	beq	$r20,$r16,448(0x1c0) # 1c006b18 <core_state_transition+0x338>
1c00695c:	02bf428c 	addi.w	$r12,$r20,-48(0xfd0)
1c006960:	2980306c 	st.w	$r12,$r3,12(0xc)
1c006964:	288020af 	ld.w	$r15,$r5,8(0x8)
1c006968:	2a003072 	ld.bu	$r18,$r3,12(0xc)
1c00696c:	02802410 	addi.w	$r16,$r0,9(0x9)
1c006970:	028005e4 	addi.w	$r4,$r15,1(0x1)
1c006974:	6c002212 	bgeu	$r16,$r18,32(0x20) # 1c006994 <core_state_transition+0x1b4>
1c006978:	0280b813 	addi.w	$r19,$r0,46(0x2e)
1c00697c:	58014e93 	beq	$r20,$r19,332(0x14c) # 1c006ac8 <core_state_transition+0x2e8>
1c006980:	298020a4 	st.w	$r4,$r5,8(0x8)
1c006984:	2980022e 	st.w	$r14,$r17,0
1c006988:	02800404 	addi.w	$r4,$r0,1(0x1)
1c00698c:	02804063 	addi.w	$r3,$r3,16(0x10)
1c006990:	4c000020 	jirl	$r0,$r1,0
1c006994:	298020a4 	st.w	$r4,$r5,8(0x8)
1c006998:	2a0009b2 	ld.bu	$r18,$r13,2(0x2)
1c00699c:	58001640 	beq	$r18,$r0,20(0x14) # 1c0069b0 <core_state_transition+0x1d0>
1c0069a0:	0280b006 	addi.w	$r6,$r0,44(0x2c)
1c0069a4:	028005c4 	addi.w	$r4,$r14,1(0x1)
1c0069a8:	5ffe9246 	bne	$r18,$r6,-368(0x3fe90) # 1c006838 <core_state_transition+0x58>
1c0069ac:	0015008e 	move	$r14,$r4
1c0069b0:	02801004 	addi.w	$r4,$r0,4(0x4)
1c0069b4:	53ff8bff 	b	-120(0xfffff88) # 1c00693c <core_state_transition+0x15c>
1c0069b8:	288050b0 	ld.w	$r16,$r5,20(0x14)
1c0069bc:	02800613 	addi.w	$r19,$r16,1(0x1)
1c0069c0:	298050b3 	st.w	$r19,$r5,20(0x14)
1c0069c4:	2a000484 	ld.bu	$r4,$r4,1(0x1)
1c0069c8:	58014480 	beq	$r4,$r0,324(0x144) # 1c006b0c <core_state_transition+0x32c>
1c0069cc:	0280b006 	addi.w	$r6,$r0,44(0x2c)
1c0069d0:	028005ee 	addi.w	$r14,$r15,1(0x1)
1c0069d4:	58013c86 	beq	$r4,$r6,316(0x13c) # 1c006b10 <core_state_transition+0x330>
1c0069d8:	288030ad 	ld.w	$r13,$r5,12(0xc)
1c0069dc:	02bf5487 	addi.w	$r7,$r4,-43(0xfd5)
1c0069e0:	0343f4e8 	andi	$r8,$r7,0xfd
1c0069e4:	028005a9 	addi.w	$r9,$r13,1(0x1)
1c0069e8:	298030a9 	st.w	$r9,$r5,12(0xc)
1c0069ec:	58001500 	beq	$r8,$r0,20(0x14) # 1c006a00 <core_state_transition+0x220>
1c0069f0:	2980022e 	st.w	$r14,$r17,0
1c0069f4:	02800404 	addi.w	$r4,$r0,1(0x1)
1c0069f8:	02804063 	addi.w	$r3,$r3,16(0x10)
1c0069fc:	4c000020 	jirl	$r0,$r1,0
1c006a00:	2a0005ea 	ld.bu	$r10,$r15,1(0x1)
1c006a04:	58010140 	beq	$r10,$r0,256(0x100) # 1c006b04 <core_state_transition+0x324>
1c006a08:	028009ee 	addi.w	$r14,$r15,2(0x2)
1c006a0c:	5800f946 	beq	$r10,$r6,248(0xf8) # 1c006b04 <core_state_transition+0x324>
1c006a10:	288060b4 	ld.w	$r20,$r5,24(0x18)
1c006a14:	02bf414b 	addi.w	$r11,$r10,-48(0xfd0)
1c006a18:	2980306b 	st.w	$r11,$r3,12(0xc)
1c006a1c:	2a00306c 	ld.bu	$r12,$r3,12(0xc)
1c006a20:	02800690 	addi.w	$r16,$r20,1(0x1)
1c006a24:	02802412 	addi.w	$r18,$r0,9(0x9)
1c006a28:	298060b0 	st.w	$r16,$r5,24(0x18)
1c006a2c:	6bffc64c 	bltu	$r18,$r12,-60(0x3ffc4) # 1c0069f0 <core_state_transition+0x210>
1c006a30:	2a0009e9 	ld.bu	$r9,$r15,2(0x2)
1c006a34:	5800c920 	beq	$r9,$r0,200(0xc8) # 1c006afc <core_state_transition+0x31c>
1c006a38:	02800dea 	addi.w	$r10,$r15,3(0x3)
1c006a3c:	5800bd26 	beq	$r9,$r6,188(0xbc) # 1c006af8 <core_state_transition+0x318>
1c006a40:	02802413 	addi.w	$r19,$r0,9(0x9)
1c006a44:	0280b004 	addi.w	$r4,$r0,44(0x2c)
1c006a48:	02bf412f 	addi.w	$r15,$r9,-48(0xfd0)
1c006a4c:	2980306f 	st.w	$r15,$r3,12(0xc)
1c006a50:	2a003066 	ld.bu	$r6,$r3,12(0xc)
1c006a54:	02800547 	addi.w	$r7,$r10,1(0x1)
1c006a58:	6c001e66 	bgeu	$r19,$r6,28(0x1c) # 1c006a74 <core_state_transition+0x294>
1c006a5c:	288010a8 	ld.w	$r8,$r5,4(0x4)
1c006a60:	0015014e 	move	$r14,$r10
1c006a64:	02800404 	addi.w	$r4,$r0,1(0x1)
1c006a68:	0280050d 	addi.w	$r13,$r8,1(0x1)
1c006a6c:	298010ad 	st.w	$r13,$r5,4(0x4)
1c006a70:	53fecfff 	b	-308(0xffffecc) # 1c00693c <core_state_transition+0x15c>
1c006a74:	2a0005c9 	ld.bu	$r9,$r14,1(0x1)
1c006a78:	0015014e 	move	$r14,$r10
1c006a7c:	58007d20 	beq	$r9,$r0,124(0x7c) # 1c006af8 <core_state_transition+0x318>
1c006a80:	5800a124 	beq	$r9,$r4,160(0xa0) # 1c006b20 <core_state_transition+0x340>
1c006a84:	001500ea 	move	$r10,$r7
1c006a88:	53ffc3ff 	b	-64(0xfffffc0) # 1c006a48 <core_state_transition+0x268>
1c006a8c:	03400000 	andi	$r0,$r0,0x0
1c006a90:	2a000492 	ld.bu	$r18,$r4,1(0x1)
1c006a94:	028005ee 	addi.w	$r14,$r15,1(0x1)
1c006a98:	001501e4 	move	$r4,$r15
1c006a9c:	58004640 	beq	$r18,$r0,68(0x44) # 1c006ae0 <core_state_transition+0x300>
1c006aa0:	58004648 	beq	$r18,$r8,68(0x44) # 1c006ae4 <core_state_transition+0x304>
1c006aa4:	001501cf 	move	$r15,$r14
1c006aa8:	53fe0fff 	b	-500(0xffffe0c) # 1c0068b4 <core_state_transition+0xd4>
1c006aac:	298000a6 	st.w	$r6,$r5,0
1c006ab0:	2a0005b2 	ld.bu	$r18,$r13,1(0x1)
1c006ab4:	58003240 	beq	$r18,$r0,48(0x30) # 1c006ae4 <core_state_transition+0x304>
1c006ab8:	028009af 	addi.w	$r15,$r13,2(0x2)
1c006abc:	58002650 	beq	$r18,$r16,36(0x24) # 1c006ae0 <core_state_transition+0x300>
1c006ac0:	001501c4 	move	$r4,$r14
1c006ac4:	53fde3ff 	b	-544(0xffffde0) # 1c0068a4 <core_state_transition+0xc4>
1c006ac8:	298020a4 	st.w	$r4,$r5,8(0x8)
1c006acc:	2a0009b2 	ld.bu	$r18,$r13,2(0x2)
1c006ad0:	58001640 	beq	$r18,$r0,20(0x14) # 1c006ae4 <core_state_transition+0x304>
1c006ad4:	0280b00d 	addi.w	$r13,$r0,44(0x2c)
1c006ad8:	028005cf 	addi.w	$r15,$r14,1(0x1)
1c006adc:	5fffe64d 	bne	$r18,$r13,-28(0x3ffe4) # 1c006ac0 <core_state_transition+0x2e0>
1c006ae0:	001501ee 	move	$r14,$r15
1c006ae4:	02801404 	addi.w	$r4,$r0,5(0x5)
1c006ae8:	53fe57ff 	b	-428(0xffffe54) # 1c00693c <core_state_transition+0x15c>
1c006aec:	00150004 	move	$r4,$r0
1c006af0:	2980022e 	st.w	$r14,$r17,0
1c006af4:	4c000020 	jirl	$r0,$r1,0
1c006af8:	0015014e 	move	$r14,$r10
1c006afc:	02801c04 	addi.w	$r4,$r0,7(0x7)
1c006b00:	53fe3fff 	b	-452(0xffffe3c) # 1c00693c <core_state_transition+0x15c>
1c006b04:	02801804 	addi.w	$r4,$r0,6(0x6)
1c006b08:	53fe37ff 	b	-460(0xffffe34) # 1c00693c <core_state_transition+0x15c>
1c006b0c:	001501ee 	move	$r14,$r15
1c006b10:	02800c04 	addi.w	$r4,$r0,3(0x3)
1c006b14:	53fe2bff 	b	-472(0xffffe28) # 1c00693c <core_state_transition+0x15c>
1c006b18:	02800804 	addi.w	$r4,$r0,2(0x2)
1c006b1c:	53fe23ff 	b	-480(0xffffe20) # 1c00693c <core_state_transition+0x15c>
1c006b20:	001500ee 	move	$r14,$r7
1c006b24:	02801c04 	addi.w	$r4,$r0,7(0x7)
1c006b28:	53fe17ff 	b	-492(0xffffe14) # 1c00693c <core_state_transition+0x15c>
1c006b2c:	0015028e 	move	$r14,$r20
1c006b30:	02801004 	addi.w	$r4,$r0,4(0x4)
1c006b34:	53fe0bff 	b	-504(0xffffe08) # 1c00693c <core_state_transition+0x15c>
1c006b38:	03400000 	andi	$r0,$r0,0x0
1c006b3c:	03400000 	andi	$r0,$r0,0x0

1c006b40 <calc_func>:
calc_func():
1c006b40:	2a40008c 	ld.hu	$r12,$r4,0
1c006b44:	02bf4063 	addi.w	$r3,$r3,-48(0xfd0)
1c006b48:	2980b061 	st.w	$r1,$r3,44(0x2c)
1c006b4c:	0040c181 	slli.w	$r1,$r12,0x10
1c006b50:	0048dc2d 	srai.w	$r13,$r1,0x17
1c006b54:	2980a077 	st.w	$r23,$r3,40(0x28)
1c006b58:	29809078 	st.w	$r24,$r3,36(0x24)
1c006b5c:	0048c037 	srai.w	$r23,$r1,0x10
1c006b60:	29808079 	st.w	$r25,$r3,32(0x20)
1c006b64:	2980707a 	st.w	$r26,$r3,28(0x1c)
1c006b68:	034005a6 	andi	$r6,$r13,0x1
1c006b6c:	0341fef0 	andi	$r16,$r23,0x7f
1c006b70:	5c0060c0 	bne	$r6,$r0,96(0x60) # 1c006bd0 <calc_func+0x90>
1c006b74:	00150099 	move	$r25,$r4
1c006b78:	0048cc24 	srai.w	$r4,$r1,0x13
1c006b7c:	03403c87 	andi	$r7,$r4,0xf
1c006b80:	001500b8 	move	$r24,$r5
1c006b84:	03401ee8 	andi	$r8,$r23,0x7
1c006b88:	004090e5 	slli.w	$r5,$r7,0x4
1c006b8c:	00151ca5 	or	$r5,$r5,$r7
1c006b90:	2a40e309 	ld.hu	$r9,$r24,56(0x38)
1c006b94:	58005d00 	beq	$r8,$r0,92(0x5c) # 1c006bf0 <calc_func+0xb0>
1c006b98:	0280040e 	addi.w	$r14,$r0,1(0x1)
1c006b9c:	5800c50e 	beq	$r8,$r14,196(0xc4) # 1c006c60 <calc_func+0x120>
1c006ba0:	29803077 	st.w	$r23,$r3,12(0xc)
1c006ba4:	2a403064 	ld.hu	$r4,$r3,12(0xc)
1c006ba8:	001502fa 	move	$r26,$r23
1c006bac:	00150125 	move	$r5,$r9
1c006bb0:	57e453ff 	bl	-7088(0xfffe450) # 1c005000 <crcu16>
1c006bb4:	02bc0011 	addi.w	$r17,$r0,-256(0xf00)
1c006bb8:	0341ff50 	andi	$r16,$r26,0x7f
1c006bbc:	0014c6f2 	and	$r18,$r23,$r17
1c006bc0:	00154a13 	or	$r19,$r16,$r18
1c006bc4:	2940e304 	st.h	$r4,$r24,56(0x38)
1c006bc8:	03820274 	ori	$r20,$r19,0x80
1c006bcc:	29400334 	st.h	$r20,$r25,0
1c006bd0:	2880b061 	ld.w	$r1,$r3,44(0x2c)
1c006bd4:	2880a077 	ld.w	$r23,$r3,40(0x28)
1c006bd8:	28809078 	ld.w	$r24,$r3,36(0x24)
1c006bdc:	28808079 	ld.w	$r25,$r3,32(0x20)
1c006be0:	2880707a 	ld.w	$r26,$r3,28(0x1c)
1c006be4:	00150204 	move	$r4,$r16
1c006be8:	0280c063 	addi.w	$r3,$r3,48(0x30)
1c006bec:	4c000020 	jirl	$r0,$r1,0
1c006bf0:	0280880a 	addi.w	$r10,$r0,34(0x22)
1c006bf4:	001500ab 	move	$r11,$r5
1c006bf8:	640008aa 	bge	$r5,$r10,8(0x8) # 1c006c00 <calc_func+0xc0>
1c006bfc:	0280880b 	addi.w	$r11,$r0,34(0x22)
1c006c00:	2940306b 	st.h	$r11,$r3,12(0xc)
1c006c04:	2a003068 	ld.bu	$r8,$r3,12(0xc)
1c006c08:	28400b07 	ld.h	$r7,$r24,2(0x2)
1c006c0c:	28400306 	ld.h	$r6,$r24,0
1c006c10:	28805305 	ld.w	$r5,$r24,20(0x14)
1c006c14:	28806304 	ld.w	$r4,$r24,24(0x18)
1c006c18:	57ee5bff 	bl	-4520(0xfffee58) # 1c005a70 <core_bench_state>
1c006c1c:	2a40fb09 	ld.hu	$r9,$r24,62(0x3e)
1c006c20:	29803064 	st.w	$r4,$r3,12(0xc)
1c006c24:	2840307a 	ld.h	$r26,$r3,12(0xc)
1c006c28:	5c000920 	bne	$r9,$r0,8(0x8) # 1c006c30 <calc_func+0xf0>
1c006c2c:	2940fb04 	st.h	$r4,$r24,62(0x3e)
1c006c30:	2a40e309 	ld.hu	$r9,$r24,56(0x38)
1c006c34:	00150125 	move	$r5,$r9
1c006c38:	57e3cbff 	bl	-7224(0xfffe3c8) # 1c005000 <crcu16>
1c006c3c:	02bc0011 	addi.w	$r17,$r0,-256(0xf00)
1c006c40:	0341ff50 	andi	$r16,$r26,0x7f
1c006c44:	0014c6f2 	and	$r18,$r23,$r17
1c006c48:	00154a13 	or	$r19,$r16,$r18
1c006c4c:	2940e304 	st.h	$r4,$r24,56(0x38)
1c006c50:	03820274 	ori	$r20,$r19,0x80
1c006c54:	29400334 	st.h	$r20,$r25,0
1c006c58:	53ff7bff 	b	-136(0xfffff78) # 1c006bd0 <calc_func+0x90>
1c006c5c:	03400000 	andi	$r0,$r0,0x0
1c006c60:	00150126 	move	$r6,$r9
1c006c64:	0280a304 	addi.w	$r4,$r24,40(0x28)
1c006c68:	57a80bff 	bl	-22520(0xfffa808) # 1c001470 <core_bench_matrix>
1c006c6c:	2a40f30f 	ld.hu	$r15,$r24,60(0x3c)
1c006c70:	29803064 	st.w	$r4,$r3,12(0xc)
1c006c74:	2840307a 	ld.h	$r26,$r3,12(0xc)
1c006c78:	2a40e309 	ld.hu	$r9,$r24,56(0x38)
1c006c7c:	5fff31e0 	bne	$r15,$r0,-208(0x3ff30) # 1c006bac <calc_func+0x6c>
1c006c80:	2940f304 	st.h	$r4,$r24,60(0x3c)
1c006c84:	53ff2bff 	b	-216(0xfffff28) # 1c006bac <calc_func+0x6c>
1c006c88:	03400000 	andi	$r0,$r0,0x0
1c006c8c:	03400000 	andi	$r0,$r0,0x0

1c006c90 <cmp_complex>:
cmp_complex():
1c006c90:	2a40008c 	ld.hu	$r12,$r4,0
1c006c94:	02bf4063 	addi.w	$r3,$r3,-48(0xfd0)
1c006c98:	2980a077 	st.w	$r23,$r3,40(0x28)
1c006c9c:	001500b7 	move	$r23,$r5
1c006ca0:	0040c185 	slli.w	$r5,$r12,0x10
1c006ca4:	2980b061 	st.w	$r1,$r3,44(0x2c)
1c006ca8:	0048dca1 	srai.w	$r1,$r5,0x17
1c006cac:	29809078 	st.w	$r24,$r3,36(0x24)
1c006cb0:	29808079 	st.w	$r25,$r3,32(0x20)
1c006cb4:	2980607b 	st.w	$r27,$r3,24(0x18)
1c006cb8:	001500d8 	move	$r24,$r6
1c006cbc:	0048c0b9 	srai.w	$r25,$r5,0x10
1c006cc0:	2980707a 	st.w	$r26,$r3,28(0x1c)
1c006cc4:	03400426 	andi	$r6,$r1,0x1
1c006cc8:	0341ff3b 	andi	$r27,$r25,0x7f
1c006ccc:	5c005cc0 	bne	$r6,$r0,92(0x5c) # 1c006d28 <cmp_complex+0x98>
1c006cd0:	0015009a 	move	$r26,$r4
1c006cd4:	0048cca4 	srai.w	$r4,$r5,0x13
1c006cd8:	03403c87 	andi	$r7,$r4,0xf
1c006cdc:	004090ed 	slli.w	$r13,$r7,0x4
1c006ce0:	03401f28 	andi	$r8,$r25,0x7
1c006ce4:	001534e5 	or	$r5,$r7,$r13
1c006ce8:	2a40e309 	ld.hu	$r9,$r24,56(0x38)
1c006cec:	5800d500 	beq	$r8,$r0,212(0xd4) # 1c006dc0 <cmp_complex+0x130>
1c006cf0:	0280040e 	addi.w	$r14,$r0,1(0x1)
1c006cf4:	5801ad0e 	beq	$r8,$r14,428(0x1ac) # 1c006ea0 <cmp_complex+0x210>
1c006cf8:	29803079 	st.w	$r25,$r3,12(0xc)
1c006cfc:	2a403064 	ld.hu	$r4,$r3,12(0xc)
1c006d00:	0015033b 	move	$r27,$r25
1c006d04:	00150125 	move	$r5,$r9
1c006d08:	57e2fbff 	bl	-7432(0xfffe2f8) # 1c005000 <crcu16>
1c006d0c:	02bc0010 	addi.w	$r16,$r0,-256(0xf00)
1c006d10:	0341ff7b 	andi	$r27,$r27,0x7f
1c006d14:	0014c331 	and	$r17,$r25,$r16
1c006d18:	00154772 	or	$r18,$r27,$r17
1c006d1c:	2940e304 	st.h	$r4,$r24,56(0x38)
1c006d20:	03820253 	ori	$r19,$r18,0x80
1c006d24:	29400353 	st.h	$r19,$r26,0
1c006d28:	2a4002f4 	ld.hu	$r20,$r23,0
1c006d2c:	0040c285 	slli.w	$r5,$r20,0x10
1c006d30:	0048dcac 	srai.w	$r12,$r5,0x17
1c006d34:	0048c0b9 	srai.w	$r25,$r5,0x10
1c006d38:	03400581 	andi	$r1,$r12,0x1
1c006d3c:	0341ff29 	andi	$r9,$r25,0x7f
1c006d40:	5c005820 	bne	$r1,$r0,88(0x58) # 1c006d98 <cmp_complex+0x108>
1c006d44:	0048cca6 	srai.w	$r6,$r5,0x13
1c006d48:	03403cda 	andi	$r26,$r6,0xf
1c006d4c:	00409344 	slli.w	$r4,$r26,0x4
1c006d50:	03401f27 	andi	$r7,$r25,0x7
1c006d54:	00151345 	or	$r5,$r26,$r4
1c006d58:	2a40e309 	ld.hu	$r9,$r24,56(0x38)
1c006d5c:	5800d4e0 	beq	$r7,$r0,212(0xd4) # 1c006e30 <cmp_complex+0x1a0>
1c006d60:	0280040b 	addi.w	$r11,$r0,1(0x1)
1c006d64:	580164eb 	beq	$r7,$r11,356(0x164) # 1c006ec8 <cmp_complex+0x238>
1c006d68:	29803079 	st.w	$r25,$r3,12(0xc)
1c006d6c:	2a403064 	ld.hu	$r4,$r3,12(0xc)
1c006d70:	0015033a 	move	$r26,$r25
1c006d74:	00150125 	move	$r5,$r9
1c006d78:	57e28bff 	bl	-7544(0xfffe288) # 1c005000 <crcu16>
1c006d7c:	02bc000f 	addi.w	$r15,$r0,-256(0xf00)
1c006d80:	0341ff49 	andi	$r9,$r26,0x7f
1c006d84:	0014bf30 	and	$r16,$r25,$r15
1c006d88:	00154131 	or	$r17,$r9,$r16
1c006d8c:	2940e304 	st.h	$r4,$r24,56(0x38)
1c006d90:	03820238 	ori	$r24,$r17,0x80
1c006d94:	294002f8 	st.h	$r24,$r23,0
1c006d98:	2880b061 	ld.w	$r1,$r3,44(0x2c)
1c006d9c:	00112764 	sub.w	$r4,$r27,$r9
1c006da0:	2880a077 	ld.w	$r23,$r3,40(0x28)
1c006da4:	28809078 	ld.w	$r24,$r3,36(0x24)
1c006da8:	28808079 	ld.w	$r25,$r3,32(0x20)
1c006dac:	2880707a 	ld.w	$r26,$r3,28(0x1c)
1c006db0:	2880607b 	ld.w	$r27,$r3,24(0x18)
1c006db4:	0280c063 	addi.w	$r3,$r3,48(0x30)
1c006db8:	4c000020 	jirl	$r0,$r1,0
1c006dbc:	03400000 	andi	$r0,$r0,0x0
1c006dc0:	0280880a 	addi.w	$r10,$r0,34(0x22)
1c006dc4:	001500ab 	move	$r11,$r5
1c006dc8:	640008aa 	bge	$r5,$r10,8(0x8) # 1c006dd0 <cmp_complex+0x140>
1c006dcc:	0280880b 	addi.w	$r11,$r0,34(0x22)
1c006dd0:	2940306b 	st.h	$r11,$r3,12(0xc)
1c006dd4:	2a003068 	ld.bu	$r8,$r3,12(0xc)
1c006dd8:	28400b07 	ld.h	$r7,$r24,2(0x2)
1c006ddc:	28400306 	ld.h	$r6,$r24,0
1c006de0:	28805305 	ld.w	$r5,$r24,20(0x14)
1c006de4:	28806304 	ld.w	$r4,$r24,24(0x18)
1c006de8:	57ec8bff 	bl	-4984(0xfffec88) # 1c005a70 <core_bench_state>
1c006dec:	2a40fb09 	ld.hu	$r9,$r24,62(0x3e)
1c006df0:	29803064 	st.w	$r4,$r3,12(0xc)
1c006df4:	2840307b 	ld.h	$r27,$r3,12(0xc)
1c006df8:	5c000920 	bne	$r9,$r0,8(0x8) # 1c006e00 <cmp_complex+0x170>
1c006dfc:	2940fb04 	st.h	$r4,$r24,62(0x3e)
1c006e00:	2a40e309 	ld.hu	$r9,$r24,56(0x38)
1c006e04:	0341ff7b 	andi	$r27,$r27,0x7f
1c006e08:	00150125 	move	$r5,$r9
1c006e0c:	57e1f7ff 	bl	-7692(0xfffe1f4) # 1c005000 <crcu16>
1c006e10:	02bc0010 	addi.w	$r16,$r0,-256(0xf00)
1c006e14:	0014c331 	and	$r17,$r25,$r16
1c006e18:	00154772 	or	$r18,$r27,$r17
1c006e1c:	2940e304 	st.h	$r4,$r24,56(0x38)
1c006e20:	03820253 	ori	$r19,$r18,0x80
1c006e24:	29400353 	st.h	$r19,$r26,0
1c006e28:	53ff03ff 	b	-256(0xfffff00) # 1c006d28 <cmp_complex+0x98>
1c006e2c:	03400000 	andi	$r0,$r0,0x0
1c006e30:	0280880d 	addi.w	$r13,$r0,34(0x22)
1c006e34:	001500a8 	move	$r8,$r5
1c006e38:	640008ad 	bge	$r5,$r13,8(0x8) # 1c006e40 <cmp_complex+0x1b0>
1c006e3c:	02808808 	addi.w	$r8,$r0,34(0x22)
1c006e40:	29403068 	st.h	$r8,$r3,12(0xc)
1c006e44:	2a003068 	ld.bu	$r8,$r3,12(0xc)
1c006e48:	28400b07 	ld.h	$r7,$r24,2(0x2)
1c006e4c:	28400306 	ld.h	$r6,$r24,0
1c006e50:	28805305 	ld.w	$r5,$r24,20(0x14)
1c006e54:	28806304 	ld.w	$r4,$r24,24(0x18)
1c006e58:	57ec1bff 	bl	-5096(0xfffec18) # 1c005a70 <core_bench_state>
1c006e5c:	2a40fb0a 	ld.hu	$r10,$r24,62(0x3e)
1c006e60:	29803064 	st.w	$r4,$r3,12(0xc)
1c006e64:	2840307a 	ld.h	$r26,$r3,12(0xc)
1c006e68:	5c000940 	bne	$r10,$r0,8(0x8) # 1c006e70 <cmp_complex+0x1e0>
1c006e6c:	2940fb04 	st.h	$r4,$r24,62(0x3e)
1c006e70:	2a40e309 	ld.hu	$r9,$r24,56(0x38)
1c006e74:	00150125 	move	$r5,$r9
1c006e78:	57e18bff 	bl	-7800(0xfffe188) # 1c005000 <crcu16>
1c006e7c:	02bc000f 	addi.w	$r15,$r0,-256(0xf00)
1c006e80:	0341ff49 	andi	$r9,$r26,0x7f
1c006e84:	0014bf30 	and	$r16,$r25,$r15
1c006e88:	00154131 	or	$r17,$r9,$r16
1c006e8c:	2940e304 	st.h	$r4,$r24,56(0x38)
1c006e90:	03820238 	ori	$r24,$r17,0x80
1c006e94:	294002f8 	st.h	$r24,$r23,0
1c006e98:	53ff03ff 	b	-256(0xfffff00) # 1c006d98 <cmp_complex+0x108>
1c006e9c:	03400000 	andi	$r0,$r0,0x0
1c006ea0:	00150126 	move	$r6,$r9
1c006ea4:	0280a304 	addi.w	$r4,$r24,40(0x28)
1c006ea8:	57a5cbff 	bl	-23096(0xfffa5c8) # 1c001470 <core_bench_matrix>
1c006eac:	2a40f30f 	ld.hu	$r15,$r24,60(0x3c)
1c006eb0:	29803064 	st.w	$r4,$r3,12(0xc)
1c006eb4:	2840307b 	ld.h	$r27,$r3,12(0xc)
1c006eb8:	2a40e309 	ld.hu	$r9,$r24,56(0x38)
1c006ebc:	5ffe49e0 	bne	$r15,$r0,-440(0x3fe48) # 1c006d04 <cmp_complex+0x74>
1c006ec0:	2940f304 	st.h	$r4,$r24,60(0x3c)
1c006ec4:	53fe43ff 	b	-448(0xffffe40) # 1c006d04 <cmp_complex+0x74>
1c006ec8:	00150126 	move	$r6,$r9
1c006ecc:	0280a304 	addi.w	$r4,$r24,40(0x28)
1c006ed0:	57a5a3ff 	bl	-23136(0xfffa5a0) # 1c001470 <core_bench_matrix>
1c006ed4:	2a40f30e 	ld.hu	$r14,$r24,60(0x3c)
1c006ed8:	29803064 	st.w	$r4,$r3,12(0xc)
1c006edc:	2840307a 	ld.h	$r26,$r3,12(0xc)
1c006ee0:	2a40e309 	ld.hu	$r9,$r24,56(0x38)
1c006ee4:	5ffe91c0 	bne	$r14,$r0,-368(0x3fe90) # 1c006d74 <cmp_complex+0xe4>
1c006ee8:	2940f304 	st.h	$r4,$r24,60(0x3c)
1c006eec:	53fe8bff 	b	-376(0xffffe88) # 1c006d74 <cmp_complex+0xe4>

1c006ef0 <cmp_idx>:
cmp_idx():
1c006ef0:	580014c0 	beq	$r6,$r0,20(0x14) # 1c006f04 <cmp_idx+0x14>
1c006ef4:	28400884 	ld.h	$r4,$r4,2(0x2)
1c006ef8:	284008a5 	ld.h	$r5,$r5,2(0x2)
1c006efc:	00111484 	sub.w	$r4,$r4,$r5
1c006f00:	4c000020 	jirl	$r0,$r1,0
1c006f04:	2840008d 	ld.h	$r13,$r4,0
1c006f08:	02bc000f 	addi.w	$r15,$r0,-256(0xf00)
1c006f0c:	0040c1ae 	slli.w	$r14,$r13,0x10
1c006f10:	0014bda6 	and	$r6,$r13,$r15
1c006f14:	0044e1c7 	srli.w	$r7,$r14,0x18
1c006f18:	00151cc8 	or	$r8,$r6,$r7
1c006f1c:	29400088 	st.h	$r8,$r4,0
1c006f20:	284000ac 	ld.h	$r12,$r5,0
1c006f24:	28400884 	ld.h	$r4,$r4,2(0x2)
1c006f28:	0040c189 	slli.w	$r9,$r12,0x10
1c006f2c:	0014bd8a 	and	$r10,$r12,$r15
1c006f30:	0044e12b 	srli.w	$r11,$r9,0x18
1c006f34:	00152d50 	or	$r16,$r10,$r11
1c006f38:	294000b0 	st.h	$r16,$r5,0
1c006f3c:	284008a5 	ld.h	$r5,$r5,2(0x2)
1c006f40:	00111484 	sub.w	$r4,$r4,$r5
1c006f44:	4c000020 	jirl	$r0,$r1,0
1c006f48:	03400000 	andi	$r0,$r0,0x0
1c006f4c:	03400000 	andi	$r0,$r0,0x0

1c006f50 <copy_info>:
copy_info():
1c006f50:	284000ad 	ld.h	$r13,$r5,0
1c006f54:	284008ac 	ld.h	$r12,$r5,2(0x2)
1c006f58:	2940008d 	st.h	$r13,$r4,0
1c006f5c:	2940088c 	st.h	$r12,$r4,2(0x2)
1c006f60:	4c000020 	jirl	$r0,$r1,0
1c006f64:	03400000 	andi	$r0,$r0,0x0
1c006f68:	03400000 	andi	$r0,$r0,0x0
1c006f6c:	03400000 	andi	$r0,$r0,0x0

1c006f70 <core_bench_list>:
core_bench_list():
1c006f70:	02bec063 	addi.w	$r3,$r3,-80(0xfb0)
1c006f74:	2980f079 	st.w	$r25,$r3,60(0x3c)
1c006f78:	28401099 	ld.h	$r25,$r4,4(0x4)
1c006f7c:	29812076 	st.w	$r22,$r3,72(0x48)
1c006f80:	2980907f 	st.w	$r31,$r3,36(0x24)
1c006f84:	29813061 	st.w	$r1,$r3,76(0x4c)
1c006f88:	29811077 	st.w	$r23,$r3,68(0x44)
1c006f8c:	29810078 	st.w	$r24,$r3,64(0x40)
1c006f90:	2980e07a 	st.w	$r26,$r3,56(0x38)
1c006f94:	2980d07b 	st.w	$r27,$r3,52(0x34)
1c006f98:	2980c07c 	st.w	$r28,$r3,48(0x30)
1c006f9c:	2980b07d 	st.w	$r29,$r3,44(0x2c)
1c006fa0:	2980a07e 	st.w	$r30,$r3,40(0x28)
1c006fa4:	29804060 	st.w	$r0,$r3,16(0x10)
1c006fa8:	00150096 	move	$r22,$r4
1c006fac:	2880909f 	ld.w	$r31,$r4,36(0x24)
1c006fb0:	640a6419 	bge	$r0,$r25,2660(0xa64) # 1c007a14 <core_bench_list+0xaa4>
1c006fb4:	29802065 	st.w	$r5,$r3,8(0x8)
1c006fb8:	00150013 	move	$r19,$r0
1c006fbc:	00150006 	move	$r6,$r0
1c006fc0:	00150004 	move	$r4,$r0
1c006fc4:	00150007 	move	$r7,$r0
1c006fc8:	29800073 	st.w	$r19,$r3,0
1c006fcc:	2a00006e 	ld.bu	$r14,$r3,0
1c006fd0:	2880206c 	ld.w	$r12,$r3,8(0x8)
1c006fd4:	2980406e 	st.w	$r14,$r3,16(0x10)
1c006fd8:	6004e980 	blt	$r12,$r0,1256(0x4e8) # 1c0074c0 <core_bench_list+0x550>
1c006fdc:	580a4be0 	beq	$r31,$r0,2632(0xa48) # 1c007a24 <core_bench_list+0xab4>
1c006fe0:	288013ef 	ld.w	$r15,$r31,4(0x4)
1c006fe4:	001503f7 	move	$r23,$r31
1c006fe8:	284009f0 	ld.h	$r16,$r15,2(0x2)
1c006fec:	5c001a0c 	bne	$r16,$r12,24(0x18) # 1c007004 <core_bench_list+0x94>
1c006ff0:	50001c00 	b	28(0x1c) # 1c00700c <core_bench_list+0x9c>
1c006ff4:	288012f1 	ld.w	$r17,$r23,4(0x4)
1c006ff8:	28802078 	ld.w	$r24,$r3,8(0x8)
1c006ffc:	28400a32 	ld.h	$r18,$r17,2(0x2)
1c007000:	58000e58 	beq	$r18,$r24,12(0xc) # 1c00700c <core_bench_list+0x9c>
1c007004:	288002f7 	ld.w	$r23,$r23,0
1c007008:	5fffeee0 	bne	$r23,$r0,-20(0x3ffec) # 1c006ff4 <core_bench_list+0x84>
1c00700c:	288003fa 	ld.w	$r26,$r31,0
1c007010:	0015000d 	move	$r13,$r0
1c007014:	298003ed 	st.w	$r13,$r31,0
1c007018:	5800a740 	beq	$r26,$r0,164(0xa4) # 1c0070bc <core_bench_list+0x14c>
1c00701c:	2880035b 	ld.w	$r27,$r26,0
1c007020:	2980035f 	st.w	$r31,$r26,0
1c007024:	001503ed 	move	$r13,$r31
1c007028:	0015035f 	move	$r31,$r26
1c00702c:	58009360 	beq	$r27,$r0,144(0x90) # 1c0070bc <core_bench_list+0x14c>
1c007030:	2880037c 	ld.w	$r28,$r27,0
1c007034:	2980037a 	st.w	$r26,$r27,0
1c007038:	0015034d 	move	$r13,$r26
1c00703c:	0015037f 	move	$r31,$r27
1c007040:	58007f80 	beq	$r28,$r0,124(0x7c) # 1c0070bc <core_bench_list+0x14c>
1c007044:	2880039d 	ld.w	$r29,$r28,0
1c007048:	2980039b 	st.w	$r27,$r28,0
1c00704c:	0015036d 	move	$r13,$r27
1c007050:	0015039f 	move	$r31,$r28
1c007054:	58006ba0 	beq	$r29,$r0,104(0x68) # 1c0070bc <core_bench_list+0x14c>
1c007058:	288003be 	ld.w	$r30,$r29,0
1c00705c:	298003bc 	st.w	$r28,$r29,0
1c007060:	0015038d 	move	$r13,$r28
1c007064:	001503bf 	move	$r31,$r29
1c007068:	580057c0 	beq	$r30,$r0,84(0x54) # 1c0070bc <core_bench_list+0x14c>
1c00706c:	288003ce 	ld.w	$r14,$r30,0
1c007070:	298003dd 	st.w	$r29,$r30,0
1c007074:	001503ad 	move	$r13,$r29
1c007078:	001503df 	move	$r31,$r30
1c00707c:	580041c0 	beq	$r14,$r0,64(0x40) # 1c0070bc <core_bench_list+0x14c>
1c007080:	288001cc 	ld.w	$r12,$r14,0
1c007084:	298001de 	st.w	$r30,$r14,0
1c007088:	001503cd 	move	$r13,$r30
1c00708c:	001501df 	move	$r31,$r14
1c007090:	58002d80 	beq	$r12,$r0,44(0x2c) # 1c0070bc <core_bench_list+0x14c>
1c007094:	28800181 	ld.w	$r1,$r12,0
1c007098:	2980018e 	st.w	$r14,$r12,0
1c00709c:	001501cd 	move	$r13,$r14
1c0070a0:	0015019f 	move	$r31,$r12
1c0070a4:	58001820 	beq	$r1,$r0,24(0x18) # 1c0070bc <core_bench_list+0x14c>
1c0070a8:	0015003f 	move	$r31,$r1
1c0070ac:	288003fa 	ld.w	$r26,$r31,0
1c0070b0:	0015018d 	move	$r13,$r12
1c0070b4:	298003ed 	st.w	$r13,$r31,0
1c0070b8:	5fff6740 	bne	$r26,$r0,-156(0x3ff64) # 1c00701c <core_bench_list+0xac>
1c0070bc:	58043ae0 	beq	$r23,$r0,1080(0x438) # 1c0074f4 <core_bench_list+0x584>
1c0070c0:	288012ed 	ld.w	$r13,$r23,4(0x4)
1c0070c4:	02800494 	addi.w	$r20,$r4,1(0x1)
1c0070c8:	29800074 	st.w	$r20,$r3,0
1c0070cc:	2a4001a8 	ld.hu	$r8,$r13,0
1c0070d0:	2a400064 	ld.hu	$r4,$r3,0
1c0070d4:	03400509 	andi	$r9,$r8,0x1
1c0070d8:	0040c10a 	slli.w	$r10,$r8,0x10
1c0070dc:	58001920 	beq	$r9,$r0,24(0x18) # 1c0070f4 <core_bench_list+0x184>
1c0070e0:	0048e54b 	srai.w	$r11,$r10,0x19
1c0070e4:	0340056f 	andi	$r15,$r11,0x1
1c0070e8:	00103ce7 	add.w	$r7,$r7,$r15
1c0070ec:	29800067 	st.w	$r7,$r3,0
1c0070f0:	2a400067 	ld.hu	$r7,$r3,0
1c0070f4:	288002f1 	ld.w	$r17,$r23,0
1c0070f8:	58001a20 	beq	$r17,$r0,24(0x18) # 1c007110 <core_bench_list+0x1a0>
1c0070fc:	28800230 	ld.w	$r16,$r17,0
1c007100:	298002f0 	st.w	$r16,$r23,0
1c007104:	288003f7 	ld.w	$r23,$r31,0
1c007108:	29800237 	st.w	$r23,$r17,0
1c00710c:	298003f1 	st.w	$r17,$r31,0
1c007110:	2880207d 	ld.w	$r29,$r3,8(0x8)
1c007114:	600017a0 	blt	$r29,$r0,20(0x14) # 1c007128 <core_bench_list+0x1b8>
1c007118:	028007be 	addi.w	$r30,$r29,1(0x1)
1c00711c:	2980007e 	st.w	$r30,$r3,0
1c007120:	2840006e 	ld.h	$r14,$r3,0
1c007124:	2980206e 	st.w	$r14,$r3,8(0x8)
1c007128:	02800673 	addi.w	$r19,$r19,1(0x1)
1c00712c:	29800073 	st.w	$r19,$r3,0
1c007130:	28400073 	ld.h	$r19,$r3,0
1c007134:	5ffe9733 	bne	$r25,$r19,-364(0x3fe94) # 1c006fc8 <core_bench_list+0x58>
1c007138:	00408899 	slli.w	$r25,$r4,0x2
1c00713c:	00111b26 	sub.w	$r6,$r25,$r6
1c007140:	001018ec 	add.w	$r12,$r7,$r6
1c007144:	2980006c 	st.w	$r12,$r3,0
1c007148:	2a400061 	ld.hu	$r1,$r3,0
1c00714c:	29807061 	st.w	$r1,$r3,28(0x1c)
1c007150:	60050405 	blt	$r0,$r5,1284(0x504) # 1c007654 <core_bench_list+0x6e4>
1c007154:	288003f3 	ld.w	$r19,$r31,0
1c007158:	2880206c 	ld.w	$r12,$r3,8(0x8)
1c00715c:	001503f7 	move	$r23,$r31
1c007160:	2880027d 	ld.w	$r29,$r19,0
1c007164:	2880126d 	ld.w	$r13,$r19,4(0x4)
1c007168:	288013b9 	ld.w	$r25,$r29,4(0x4)
1c00716c:	288003a6 	ld.w	$r6,$r29,0
1c007170:	29801279 	st.w	$r25,$r19,4(0x4)
1c007174:	298013ad 	st.w	$r13,$r29,4(0x4)
1c007178:	29800266 	st.w	$r6,$r19,0
1c00717c:	298003a0 	st.w	$r0,$r29,0
1c007180:	6002d580 	blt	$r12,$r0,724(0x2d4) # 1c007454 <core_bench_list+0x4e4>
1c007184:	288012e4 	ld.w	$r4,$r23,4(0x4)
1c007188:	28802069 	ld.w	$r9,$r3,8(0x8)
1c00718c:	28400888 	ld.h	$r8,$r4,2(0x2)
1c007190:	58001509 	beq	$r8,$r9,20(0x14) # 1c0071a4 <core_bench_list+0x234>
1c007194:	288002f7 	ld.w	$r23,$r23,0
1c007198:	5fffeee0 	bne	$r23,$r0,-20(0x3ffec) # 1c007184 <core_bench_list+0x214>
1c00719c:	288003f7 	ld.w	$r23,$r31,0
1c0071a0:	5800eee0 	beq	$r23,$r0,236(0xec) # 1c00728c <core_bench_list+0x31c>
1c0071a4:	288013ea 	ld.w	$r10,$r31,4(0x4)
1c0071a8:	28807065 	ld.w	$r5,$r3,28(0x1c)
1c0071ac:	28400144 	ld.h	$r4,$r10,0
1c0071b0:	57e613ff 	bl	-6640(0xfffe610) # 1c0057c0 <crc16>
1c0071b4:	288002f7 	ld.w	$r23,$r23,0
1c0071b8:	29807064 	st.w	$r4,$r3,28(0x1c)
1c0071bc:	5800cae0 	beq	$r23,$r0,200(0xc8) # 1c007284 <core_bench_list+0x314>
1c0071c0:	288013eb 	ld.w	$r11,$r31,4(0x4)
1c0071c4:	00150085 	move	$r5,$r4
1c0071c8:	28400164 	ld.h	$r4,$r11,0
1c0071cc:	57e5f7ff 	bl	-6668(0xfffe5f4) # 1c0057c0 <crc16>
1c0071d0:	288002fc 	ld.w	$r28,$r23,0
1c0071d4:	29807064 	st.w	$r4,$r3,28(0x1c)
1c0071d8:	5800af80 	beq	$r28,$r0,172(0xac) # 1c007284 <core_bench_list+0x314>
1c0071dc:	288013ef 	ld.w	$r15,$r31,4(0x4)
1c0071e0:	00150085 	move	$r5,$r4
1c0071e4:	284001e4 	ld.h	$r4,$r15,0
1c0071e8:	57e5dbff 	bl	-6696(0xfffe5d8) # 1c0057c0 <crc16>
1c0071ec:	2880039e 	ld.w	$r30,$r28,0
1c0071f0:	29807064 	st.w	$r4,$r3,28(0x1c)
1c0071f4:	580093c0 	beq	$r30,$r0,144(0x90) # 1c007284 <core_bench_list+0x314>
1c0071f8:	288013e7 	ld.w	$r7,$r31,4(0x4)
1c0071fc:	00150085 	move	$r5,$r4
1c007200:	284000e4 	ld.h	$r4,$r7,0
1c007204:	57e5bfff 	bl	-6724(0xfffe5bc) # 1c0057c0 <crc16>
1c007208:	288003d8 	ld.w	$r24,$r30,0
1c00720c:	29807064 	st.w	$r4,$r3,28(0x1c)
1c007210:	58007700 	beq	$r24,$r0,116(0x74) # 1c007284 <core_bench_list+0x314>
1c007214:	288013f1 	ld.w	$r17,$r31,4(0x4)
1c007218:	00150085 	move	$r5,$r4
1c00721c:	28400224 	ld.h	$r4,$r17,0
1c007220:	57e5a3ff 	bl	-6752(0xfffe5a0) # 1c0057c0 <crc16>
1c007224:	2880031a 	ld.w	$r26,$r24,0
1c007228:	29807064 	st.w	$r4,$r3,28(0x1c)
1c00722c:	58005b40 	beq	$r26,$r0,88(0x58) # 1c007284 <core_bench_list+0x314>
1c007230:	288013f0 	ld.w	$r16,$r31,4(0x4)
1c007234:	00150085 	move	$r5,$r4
1c007238:	28400204 	ld.h	$r4,$r16,0
1c00723c:	57e587ff 	bl	-6780(0xfffe584) # 1c0057c0 <crc16>
1c007240:	2880035b 	ld.w	$r27,$r26,0
1c007244:	29807064 	st.w	$r4,$r3,28(0x1c)
1c007248:	58003f60 	beq	$r27,$r0,60(0x3c) # 1c007284 <core_bench_list+0x314>
1c00724c:	288013f2 	ld.w	$r18,$r31,4(0x4)
1c007250:	00150085 	move	$r5,$r4
1c007254:	28400244 	ld.h	$r4,$r18,0
1c007258:	57e56bff 	bl	-6808(0xfffe568) # 1c0057c0 <crc16>
1c00725c:	28800376 	ld.w	$r22,$r27,0
1c007260:	29807064 	st.w	$r4,$r3,28(0x1c)
1c007264:	580022c0 	beq	$r22,$r0,32(0x20) # 1c007284 <core_bench_list+0x314>
1c007268:	288013ee 	ld.w	$r14,$r31,4(0x4)
1c00726c:	00150085 	move	$r5,$r4
1c007270:	284001c4 	ld.h	$r4,$r14,0
1c007274:	57e54fff 	bl	-6836(0xfffe54c) # 1c0057c0 <crc16>
1c007278:	288002d7 	ld.w	$r23,$r22,0
1c00727c:	29807064 	st.w	$r4,$r3,28(0x1c)
1c007280:	5fff26e0 	bne	$r23,$r0,-220(0x3ff24) # 1c0071a4 <core_bench_list+0x234>
1c007284:	288003f7 	ld.w	$r23,$r31,0
1c007288:	288013ad 	ld.w	$r13,$r29,4(0x4)
1c00728c:	288012f3 	ld.w	$r19,$r23,4(0x4)
1c007290:	288002f9 	ld.w	$r25,$r23,0
1c007294:	02800404 	addi.w	$r4,$r0,1(0x1)
1c007298:	00150005 	move	$r5,$r0
1c00729c:	298013b3 	st.w	$r19,$r29,4(0x4)
1c0072a0:	298012ed 	st.w	$r13,$r23,4(0x4)
1c0072a4:	298003b9 	st.w	$r25,$r29,0
1c0072a8:	298002fd 	st.w	$r29,$r23,0
1c0072ac:	0015001e 	move	$r30,$r0
1c0072b0:	00150017 	move	$r23,$r0
1c0072b4:	02bc0006 	addi.w	$r6,$r0,-256(0xf00)
1c0072b8:	02800418 	addi.w	$r24,$r0,1(0x1)
1c0072bc:	03401c81 	andi	$r1,$r4,0x7
1c0072c0:	028007de 	addi.w	$r30,$r30,1(0x1)
1c0072c4:	001503ec 	move	$r12,$r31
1c0072c8:	0015000d 	move	$r13,$r0
1c0072cc:	58008c20 	beq	$r1,$r0,140(0x8c) # 1c007358 <core_bench_list+0x3e8>
1c0072d0:	02800414 	addi.w	$r20,$r0,1(0x1)
1c0072d4:	58007434 	beq	$r1,$r20,116(0x74) # 1c007348 <core_bench_list+0x3d8>
1c0072d8:	02800809 	addi.w	$r9,$r0,2(0x2)
1c0072dc:	58006029 	beq	$r1,$r9,96(0x60) # 1c00733c <core_bench_list+0x3cc>
1c0072e0:	02800c1d 	addi.w	$r29,$r0,3(0x3)
1c0072e4:	58004c3d 	beq	$r1,$r29,76(0x4c) # 1c007330 <core_bench_list+0x3c0>
1c0072e8:	0280100a 	addi.w	$r10,$r0,4(0x4)
1c0072ec:	5800382a 	beq	$r1,$r10,56(0x38) # 1c007324 <core_bench_list+0x3b4>
1c0072f0:	0280140b 	addi.w	$r11,$r0,5(0x5)
1c0072f4:	5800242b 	beq	$r1,$r11,36(0x24) # 1c007318 <core_bench_list+0x3a8>
1c0072f8:	0280181c 	addi.w	$r28,$r0,6(0x6)
1c0072fc:	5800103c 	beq	$r1,$r28,16(0x10) # 1c00730c <core_bench_list+0x39c>
1c007300:	288003ec 	ld.w	$r12,$r31,0
1c007304:	0280040d 	addi.w	$r13,$r0,1(0x1)
1c007308:	5800b580 	beq	$r12,$r0,180(0xb4) # 1c0073bc <core_bench_list+0x44c>
1c00730c:	2880018c 	ld.w	$r12,$r12,0
1c007310:	028005ad 	addi.w	$r13,$r13,1(0x1)
1c007314:	5800a980 	beq	$r12,$r0,168(0xa8) # 1c0073bc <core_bench_list+0x44c>
1c007318:	2880018c 	ld.w	$r12,$r12,0
1c00731c:	028005ad 	addi.w	$r13,$r13,1(0x1)
1c007320:	58009d80 	beq	$r12,$r0,156(0x9c) # 1c0073bc <core_bench_list+0x44c>
1c007324:	2880018c 	ld.w	$r12,$r12,0
1c007328:	028005ad 	addi.w	$r13,$r13,1(0x1)
1c00732c:	58009180 	beq	$r12,$r0,144(0x90) # 1c0073bc <core_bench_list+0x44c>
1c007330:	2880018c 	ld.w	$r12,$r12,0
1c007334:	028005ad 	addi.w	$r13,$r13,1(0x1)
1c007338:	58008580 	beq	$r12,$r0,132(0x84) # 1c0073bc <core_bench_list+0x44c>
1c00733c:	2880018c 	ld.w	$r12,$r12,0
1c007340:	028005ad 	addi.w	$r13,$r13,1(0x1)
1c007344:	58007980 	beq	$r12,$r0,120(0x78) # 1c0073bc <core_bench_list+0x44c>
1c007348:	2880018c 	ld.w	$r12,$r12,0
1c00734c:	028005ad 	addi.w	$r13,$r13,1(0x1)
1c007350:	58006d80 	beq	$r12,$r0,108(0x6c) # 1c0073bc <core_bench_list+0x44c>
1c007354:	580069a4 	beq	$r13,$r4,104(0x68) # 1c0073bc <core_bench_list+0x44c>
1c007358:	2880018c 	ld.w	$r12,$r12,0
1c00735c:	028005ad 	addi.w	$r13,$r13,1(0x1)
1c007360:	001501af 	move	$r15,$r13
1c007364:	58005980 	beq	$r12,$r0,88(0x58) # 1c0073bc <core_bench_list+0x44c>
1c007368:	2880018c 	ld.w	$r12,$r12,0
1c00736c:	028005ad 	addi.w	$r13,$r13,1(0x1)
1c007370:	58004d80 	beq	$r12,$r0,76(0x4c) # 1c0073bc <core_bench_list+0x44c>
1c007374:	2880018c 	ld.w	$r12,$r12,0
1c007378:	028009ed 	addi.w	$r13,$r15,2(0x2)
1c00737c:	58004180 	beq	$r12,$r0,64(0x40) # 1c0073bc <core_bench_list+0x44c>
1c007380:	2880018c 	ld.w	$r12,$r12,0
1c007384:	02800ded 	addi.w	$r13,$r15,3(0x3)
1c007388:	58003580 	beq	$r12,$r0,52(0x34) # 1c0073bc <core_bench_list+0x44c>
1c00738c:	2880018c 	ld.w	$r12,$r12,0
1c007390:	028011ed 	addi.w	$r13,$r15,4(0x4)
1c007394:	58002980 	beq	$r12,$r0,40(0x28) # 1c0073bc <core_bench_list+0x44c>
1c007398:	2880018c 	ld.w	$r12,$r12,0
1c00739c:	028015ed 	addi.w	$r13,$r15,5(0x5)
1c0073a0:	58001d80 	beq	$r12,$r0,28(0x1c) # 1c0073bc <core_bench_list+0x44c>
1c0073a4:	2880018c 	ld.w	$r12,$r12,0
1c0073a8:	028019ed 	addi.w	$r13,$r15,6(0x6)
1c0073ac:	58001180 	beq	$r12,$r0,16(0x10) # 1c0073bc <core_bench_list+0x44c>
1c0073b0:	2880018c 	ld.w	$r12,$r12,0
1c0073b4:	02801ded 	addi.w	$r13,$r15,7(0x7)
1c0073b8:	5fff9d80 	bne	$r12,$r0,-100(0x3ff9c) # 1c007354 <core_bench_list+0x3e4>
1c0073bc:	00150090 	move	$r16,$r4
1c0073c0:	580071a0 	beq	$r13,$r0,112(0x70) # 1c007430 <core_bench_list+0x4c0>
1c0073c4:	5800b600 	beq	$r16,$r0,180(0xb4) # 1c007478 <core_bench_list+0x508>
1c0073c8:	5800b180 	beq	$r12,$r0,176(0xb0) # 1c007478 <core_bench_list+0x508>
1c0073cc:	288013f3 	ld.w	$r19,$r31,4(0x4)
1c0073d0:	28801181 	ld.w	$r1,$r12,4(0x4)
1c0073d4:	2840026a 	ld.h	$r10,$r19,0
1c0073d8:	28400a6b 	ld.h	$r11,$r19,2(0x2)
1c0073dc:	28400829 	ld.h	$r9,$r1,2(0x2)
1c0073e0:	0040c154 	slli.w	$r20,$r10,0x10
1c0073e4:	0014994f 	and	$r15,$r10,$r6
1c0073e8:	0044e288 	srli.w	$r8,$r20,0x18
1c0073ec:	001521fa 	or	$r26,$r15,$r8
1c0073f0:	2940027a 	st.h	$r26,$r19,0
1c0073f4:	28400027 	ld.h	$r7,$r1,0
1c0073f8:	0011257b 	sub.w	$r27,$r11,$r9
1c0073fc:	0040c0f1 	slli.w	$r17,$r7,0x10
1c007400:	001498f6 	and	$r22,$r7,$r6
1c007404:	0044e239 	srli.w	$r25,$r17,0x18
1c007408:	001566d2 	or	$r18,$r22,$r25
1c00740c:	29400032 	st.h	$r18,$r1,0
1c007410:	6400681b 	bge	$r0,$r27,104(0x68) # 1c007478 <core_bench_list+0x508>
1c007414:	0015019d 	move	$r29,$r12
1c007418:	2880018c 	ld.w	$r12,$r12,0
1c00741c:	02bffe10 	addi.w	$r16,$r16,-1(0xfff)
1c007420:	580028a0 	beq	$r5,$r0,40(0x28) # 1c007448 <core_bench_list+0x4d8>
1c007424:	298000bd 	st.w	$r29,$r5,0
1c007428:	001503a5 	move	$r5,$r29
1c00742c:	5fff99a0 	bne	$r13,$r0,-104(0x3ff98) # 1c0073c4 <core_bench_list+0x454>
1c007430:	58005a00 	beq	$r16,$r0,88(0x58) # 1c007488 <core_bench_list+0x518>
1c007434:	58006180 	beq	$r12,$r0,96(0x60) # 1c007494 <core_bench_list+0x524>
1c007438:	0015019d 	move	$r29,$r12
1c00743c:	02bffe10 	addi.w	$r16,$r16,-1(0xfff)
1c007440:	2880018c 	ld.w	$r12,$r12,0
1c007444:	5fffe0a0 	bne	$r5,$r0,-32(0x3ffe0) # 1c007424 <core_bench_list+0x4b4>
1c007448:	001503b7 	move	$r23,$r29
1c00744c:	001503a5 	move	$r5,$r29
1c007450:	53ffdfff 	b	-36(0xfffffdc) # 1c00742c <core_bench_list+0x4bc>
1c007454:	288012e1 	ld.w	$r1,$r23,4(0x4)
1c007458:	28804074 	ld.w	$r20,$r3,16(0x10)
1c00745c:	2a000025 	ld.bu	$r5,$r1,0
1c007460:	5bfd44b4 	beq	$r5,$r20,-700(0x3fd44) # 1c0071a4 <core_bench_list+0x234>
1c007464:	288002f7 	ld.w	$r23,$r23,0
1c007468:	5fffeee0 	bne	$r23,$r0,-20(0x3ffec) # 1c007454 <core_bench_list+0x4e4>
1c00746c:	288003f7 	ld.w	$r23,$r31,0
1c007470:	5ffd36e0 	bne	$r23,$r0,-716(0x3fd34) # 1c0071a4 <core_bench_list+0x234>
1c007474:	53fe1bff 	b	-488(0xffffe18) # 1c00728c <core_bench_list+0x31c>
1c007478:	001503fd 	move	$r29,$r31
1c00747c:	02bffdad 	addi.w	$r13,$r13,-1(0xfff)
1c007480:	288003ff 	ld.w	$r31,$r31,0
1c007484:	53ff9fff 	b	-100(0xfffff9c) # 1c007420 <core_bench_list+0x4b0>
1c007488:	58000d80 	beq	$r12,$r0,12(0xc) # 1c007494 <core_bench_list+0x524>
1c00748c:	0015019f 	move	$r31,$r12
1c007490:	53fe2fff 	b	-468(0xffffe2c) # 1c0072bc <core_bench_list+0x34c>
1c007494:	298000a0 	st.w	$r0,$r5,0
1c007498:	580093d8 	beq	$r30,$r24,144(0x90) # 1c007528 <core_bench_list+0x5b8>
1c00749c:	00408484 	slli.w	$r4,$r4,0x1
1c0074a0:	580082e0 	beq	$r23,$r0,128(0x80) # 1c007520 <core_bench_list+0x5b0>
1c0074a4:	001502ec 	move	$r12,$r23
1c0074a8:	0015001e 	move	$r30,$r0
1c0074ac:	00150005 	move	$r5,$r0
1c0074b0:	00150017 	move	$r23,$r0
1c0074b4:	0015019f 	move	$r31,$r12
1c0074b8:	53fe07ff 	b	-508(0xffffe04) # 1c0072bc <core_bench_list+0x34c>
1c0074bc:	03400000 	andi	$r0,$r0,0x0
1c0074c0:	580567e0 	beq	$r31,$r0,1380(0x564) # 1c007a24 <core_bench_list+0xab4>
1c0074c4:	288013ed 	ld.w	$r13,$r31,4(0x4)
1c0074c8:	001503f7 	move	$r23,$r31
1c0074cc:	2a0001a1 	ld.bu	$r1,$r13,0
1c0074d0:	5c0019c1 	bne	$r14,$r1,24(0x18) # 1c0074e8 <core_bench_list+0x578>
1c0074d4:	53fb3bff 	b	-1224(0xffffb38) # 1c00700c <core_bench_list+0x9c>
1c0074d8:	288012e8 	ld.w	$r8,$r23,4(0x4)
1c0074dc:	2880406a 	ld.w	$r10,$r3,16(0x10)
1c0074e0:	2a000109 	ld.bu	$r9,$r8,0
1c0074e4:	5bfb292a 	beq	$r9,$r10,-1240(0x3fb28) # 1c00700c <core_bench_list+0x9c>
1c0074e8:	288002f7 	ld.w	$r23,$r23,0
1c0074ec:	5fffeee0 	bne	$r23,$r0,-20(0x3ffec) # 1c0074d8 <core_bench_list+0x568>
1c0074f0:	53fb1fff 	b	-1252(0xffffb1c) # 1c00700c <core_bench_list+0x9c>
1c0074f4:	288011b2 	ld.w	$r18,$r13,4(0x4)
1c0074f8:	028004d8 	addi.w	$r24,$r6,1(0x1)
1c0074fc:	29800078 	st.w	$r24,$r3,0
1c007500:	2800065a 	ld.b	$r26,$r18,1(0x1)
1c007504:	2a400066 	ld.hu	$r6,$r3,0
1c007508:	0340075b 	andi	$r27,$r26,0x1
1c00750c:	00106cfc 	add.w	$r28,$r7,$r27
1c007510:	2980007c 	st.w	$r28,$r3,0
1c007514:	2a400067 	ld.hu	$r7,$r3,0
1c007518:	53fbfbff 	b	-1032(0xffffbf8) # 1c007110 <core_bench_list+0x1a0>
1c00751c:	03400000 	andi	$r0,$r0,0x0
1c007520:	298002e0 	st.w	$r0,$r23,0
1c007524:	002a0000 	break	0x0
1c007528:	288002fc 	ld.w	$r28,$r23,0
1c00752c:	5800e780 	beq	$r28,$r0,228(0xe4) # 1c007610 <core_bench_list+0x6a0>
1c007530:	288012ff 	ld.w	$r31,$r23,4(0x4)
1c007534:	28807065 	ld.w	$r5,$r3,28(0x1c)
1c007538:	284003e4 	ld.h	$r4,$r31,0
1c00753c:	57e287ff 	bl	-7548(0xfffe284) # 1c0057c0 <crc16>
1c007540:	2880039e 	ld.w	$r30,$r28,0
1c007544:	29807064 	st.w	$r4,$r3,28(0x1c)
1c007548:	5800cbc0 	beq	$r30,$r0,200(0xc8) # 1c007610 <core_bench_list+0x6a0>
1c00754c:	288012e6 	ld.w	$r6,$r23,4(0x4)
1c007550:	00150085 	move	$r5,$r4
1c007554:	284000c4 	ld.h	$r4,$r6,0
1c007558:	57e26bff 	bl	-7576(0xfffe268) # 1c0057c0 <crc16>
1c00755c:	288003d8 	ld.w	$r24,$r30,0
1c007560:	29807064 	st.w	$r4,$r3,28(0x1c)
1c007564:	5800af00 	beq	$r24,$r0,172(0xac) # 1c007610 <core_bench_list+0x6a0>
1c007568:	288012e8 	ld.w	$r8,$r23,4(0x4)
1c00756c:	00150085 	move	$r5,$r4
1c007570:	28400104 	ld.h	$r4,$r8,0
1c007574:	57e24fff 	bl	-7604(0xfffe24c) # 1c0057c0 <crc16>
1c007578:	2880031a 	ld.w	$r26,$r24,0
1c00757c:	29807064 	st.w	$r4,$r3,28(0x1c)
1c007580:	58009340 	beq	$r26,$r0,144(0x90) # 1c007610 <core_bench_list+0x6a0>
1c007584:	288012e7 	ld.w	$r7,$r23,4(0x4)
1c007588:	00150085 	move	$r5,$r4
1c00758c:	284000e4 	ld.h	$r4,$r7,0
1c007590:	57e233ff 	bl	-7632(0xfffe230) # 1c0057c0 <crc16>
1c007594:	2880035b 	ld.w	$r27,$r26,0
1c007598:	29807064 	st.w	$r4,$r3,28(0x1c)
1c00759c:	58007760 	beq	$r27,$r0,116(0x74) # 1c007610 <core_bench_list+0x6a0>
1c0075a0:	288012f1 	ld.w	$r17,$r23,4(0x4)
1c0075a4:	00150085 	move	$r5,$r4
1c0075a8:	28400224 	ld.h	$r4,$r17,0
1c0075ac:	57e217ff 	bl	-7660(0xfffe214) # 1c0057c0 <crc16>
1c0075b0:	28800376 	ld.w	$r22,$r27,0
1c0075b4:	29807064 	st.w	$r4,$r3,28(0x1c)
1c0075b8:	58005ac0 	beq	$r22,$r0,88(0x58) # 1c007610 <core_bench_list+0x6a0>
1c0075bc:	288012f0 	ld.w	$r16,$r23,4(0x4)
1c0075c0:	00150085 	move	$r5,$r4
1c0075c4:	28400204 	ld.h	$r4,$r16,0
1c0075c8:	57e1fbff 	bl	-7688(0xfffe1f8) # 1c0057c0 <crc16>
1c0075cc:	288002d9 	ld.w	$r25,$r22,0
1c0075d0:	29807064 	st.w	$r4,$r3,28(0x1c)
1c0075d4:	58003f20 	beq	$r25,$r0,60(0x3c) # 1c007610 <core_bench_list+0x6a0>
1c0075d8:	288012f2 	ld.w	$r18,$r23,4(0x4)
1c0075dc:	00150085 	move	$r5,$r4
1c0075e0:	28400244 	ld.h	$r4,$r18,0
1c0075e4:	57e1dfff 	bl	-7716(0xfffe1dc) # 1c0057c0 <crc16>
1c0075e8:	2880033d 	ld.w	$r29,$r25,0
1c0075ec:	29807064 	st.w	$r4,$r3,28(0x1c)
1c0075f0:	580023a0 	beq	$r29,$r0,32(0x20) # 1c007610 <core_bench_list+0x6a0>
1c0075f4:	288012ee 	ld.w	$r14,$r23,4(0x4)
1c0075f8:	00150085 	move	$r5,$r4
1c0075fc:	284001c4 	ld.h	$r4,$r14,0
1c007600:	57e1c3ff 	bl	-7744(0xfffe1c0) # 1c0057c0 <crc16>
1c007604:	288003bc 	ld.w	$r28,$r29,0
1c007608:	29807064 	st.w	$r4,$r3,28(0x1c)
1c00760c:	5fff2780 	bne	$r28,$r0,-220(0x3ff24) # 1c007530 <core_bench_list+0x5c0>
1c007610:	28813061 	ld.w	$r1,$r3,76(0x4c)
1c007614:	28812076 	ld.w	$r22,$r3,72(0x48)
1c007618:	28807064 	ld.w	$r4,$r3,28(0x1c)
1c00761c:	28811077 	ld.w	$r23,$r3,68(0x44)
1c007620:	28810078 	ld.w	$r24,$r3,64(0x40)
1c007624:	2880f079 	ld.w	$r25,$r3,60(0x3c)
1c007628:	2880e07a 	ld.w	$r26,$r3,56(0x38)
1c00762c:	2880d07b 	ld.w	$r27,$r3,52(0x34)
1c007630:	2880c07c 	ld.w	$r28,$r3,48(0x30)
1c007634:	2880b07d 	ld.w	$r29,$r3,44(0x2c)
1c007638:	2880a07e 	ld.w	$r30,$r3,40(0x28)
1c00763c:	2880907f 	ld.w	$r31,$r3,36(0x24)
1c007640:	02814063 	addi.w	$r3,$r3,80(0x50)
1c007644:	4c000020 	jirl	$r0,$r1,0
1c007648:	5802c3e0 	beq	$r31,$r0,704(0x2c0) # 1c007908 <core_bench_list+0x998>
1c00764c:	29802065 	st.w	$r5,$r3,8(0x8)
1c007650:	29807060 	st.w	$r0,$r3,28(0x1c)
1c007654:	02800405 	addi.w	$r5,$r0,1(0x1)
1c007658:	0280a2cd 	addi.w	$r13,$r22,40(0x28)
1c00765c:	29801065 	st.w	$r5,$r3,4(0x4)
1c007660:	2980506d 	st.w	$r13,$r3,20(0x14)
1c007664:	001503fe 	move	$r30,$r31
1c007668:	00150018 	move	$r24,$r0
1c00766c:	0015001f 	move	$r31,$r0
1c007670:	29803060 	st.w	$r0,$r3,12(0xc)
1c007674:	28803068 	ld.w	$r8,$r3,12(0xc)
1c007678:	28801074 	ld.w	$r20,$r3,4(0x4)
1c00767c:	001503dd 	move	$r29,$r30
1c007680:	02800509 	addi.w	$r9,$r8,1(0x1)
1c007684:	03401e84 	andi	$r4,$r20,0x7
1c007688:	29803069 	st.w	$r9,$r3,12(0xc)
1c00768c:	0015001c 	move	$r28,$r0
1c007690:	58009080 	beq	$r4,$r0,144(0x90) # 1c007720 <core_bench_list+0x7b0>
1c007694:	0280040a 	addi.w	$r10,$r0,1(0x1)
1c007698:	5800748a 	beq	$r4,$r10,116(0x74) # 1c00770c <core_bench_list+0x79c>
1c00769c:	0280080b 	addi.w	$r11,$r0,2(0x2)
1c0076a0:	5800608b 	beq	$r4,$r11,96(0x60) # 1c007700 <core_bench_list+0x790>
1c0076a4:	02800c0f 	addi.w	$r15,$r0,3(0x3)
1c0076a8:	58004c8f 	beq	$r4,$r15,76(0x4c) # 1c0076f4 <core_bench_list+0x784>
1c0076ac:	02801007 	addi.w	$r7,$r0,4(0x4)
1c0076b0:	58003887 	beq	$r4,$r7,56(0x38) # 1c0076e8 <core_bench_list+0x778>
1c0076b4:	02801411 	addi.w	$r17,$r0,5(0x5)
1c0076b8:	58002491 	beq	$r4,$r17,36(0x24) # 1c0076dc <core_bench_list+0x76c>
1c0076bc:	02801810 	addi.w	$r16,$r0,6(0x6)
1c0076c0:	58001090 	beq	$r4,$r16,16(0x10) # 1c0076d0 <core_bench_list+0x760>
1c0076c4:	288003dd 	ld.w	$r29,$r30,0
1c0076c8:	0280041c 	addi.w	$r28,$r0,1(0x1)
1c0076cc:	5800bba0 	beq	$r29,$r0,184(0xb8) # 1c007784 <core_bench_list+0x814>
1c0076d0:	288003bd 	ld.w	$r29,$r29,0
1c0076d4:	0280079c 	addi.w	$r28,$r28,1(0x1)
1c0076d8:	5800afa0 	beq	$r29,$r0,172(0xac) # 1c007784 <core_bench_list+0x814>
1c0076dc:	288003bd 	ld.w	$r29,$r29,0
1c0076e0:	0280079c 	addi.w	$r28,$r28,1(0x1)
1c0076e4:	5800a3a0 	beq	$r29,$r0,160(0xa0) # 1c007784 <core_bench_list+0x814>
1c0076e8:	288003bd 	ld.w	$r29,$r29,0
1c0076ec:	0280079c 	addi.w	$r28,$r28,1(0x1)
1c0076f0:	580097a0 	beq	$r29,$r0,148(0x94) # 1c007784 <core_bench_list+0x814>
1c0076f4:	288003bd 	ld.w	$r29,$r29,0
1c0076f8:	0280079c 	addi.w	$r28,$r28,1(0x1)
1c0076fc:	58008ba0 	beq	$r29,$r0,136(0x88) # 1c007784 <core_bench_list+0x814>
1c007700:	288003bd 	ld.w	$r29,$r29,0
1c007704:	0280079c 	addi.w	$r28,$r28,1(0x1)
1c007708:	58007fa0 	beq	$r29,$r0,124(0x7c) # 1c007784 <core_bench_list+0x814>
1c00770c:	288003bd 	ld.w	$r29,$r29,0
1c007710:	0280079c 	addi.w	$r28,$r28,1(0x1)
1c007714:	580073a0 	beq	$r29,$r0,112(0x70) # 1c007784 <core_bench_list+0x814>
1c007718:	28801077 	ld.w	$r23,$r3,4(0x4)
1c00771c:	58006b97 	beq	$r28,$r23,104(0x68) # 1c007784 <core_bench_list+0x814>
1c007720:	288003bd 	ld.w	$r29,$r29,0
1c007724:	0280079c 	addi.w	$r28,$r28,1(0x1)
1c007728:	00150392 	move	$r18,$r28
1c00772c:	58005ba0 	beq	$r29,$r0,88(0x58) # 1c007784 <core_bench_list+0x814>
1c007730:	288003bd 	ld.w	$r29,$r29,0
1c007734:	0280079c 	addi.w	$r28,$r28,1(0x1)
1c007738:	58004fa0 	beq	$r29,$r0,76(0x4c) # 1c007784 <core_bench_list+0x814>
1c00773c:	288003bd 	ld.w	$r29,$r29,0
1c007740:	02800a5c 	addi.w	$r28,$r18,2(0x2)
1c007744:	580043a0 	beq	$r29,$r0,64(0x40) # 1c007784 <core_bench_list+0x814>
1c007748:	288003bd 	ld.w	$r29,$r29,0
1c00774c:	02800e5c 	addi.w	$r28,$r18,3(0x3)
1c007750:	580037a0 	beq	$r29,$r0,52(0x34) # 1c007784 <core_bench_list+0x814>
1c007754:	288003bd 	ld.w	$r29,$r29,0
1c007758:	0280125c 	addi.w	$r28,$r18,4(0x4)
1c00775c:	58002ba0 	beq	$r29,$r0,40(0x28) # 1c007784 <core_bench_list+0x814>
1c007760:	288003bd 	ld.w	$r29,$r29,0
1c007764:	0280165c 	addi.w	$r28,$r18,5(0x5)
1c007768:	58001fa0 	beq	$r29,$r0,28(0x1c) # 1c007784 <core_bench_list+0x814>
1c00776c:	288003bd 	ld.w	$r29,$r29,0
1c007770:	02801a5c 	addi.w	$r28,$r18,6(0x6)
1c007774:	580013a0 	beq	$r29,$r0,16(0x10) # 1c007784 <core_bench_list+0x814>
1c007778:	288003bd 	ld.w	$r29,$r29,0
1c00777c:	02801e5c 	addi.w	$r28,$r18,7(0x7)
1c007780:	5fff9ba0 	bne	$r29,$r0,-104(0x3ff98) # 1c007718 <core_bench_list+0x7a8>
1c007784:	2880107b 	ld.w	$r27,$r3,4(0x4)
1c007788:	58012380 	beq	$r28,$r0,288(0x120) # 1c0078a8 <core_bench_list+0x938>
1c00778c:	58014760 	beq	$r27,$r0,324(0x144) # 1c0078d0 <core_bench_list+0x960>
1c007790:	580143a0 	beq	$r29,$r0,320(0x140) # 1c0078d0 <core_bench_list+0x960>
1c007794:	288013d7 	ld.w	$r23,$r30,4(0x4)
1c007798:	288013b9 	ld.w	$r25,$r29,4(0x4)
1c00779c:	2a4002ec 	ld.hu	$r12,$r23,0
1c0077a0:	0040c18d 	slli.w	$r13,$r12,0x10
1c0077a4:	0048c1b4 	srai.w	$r20,$r13,0x10
1c0077a8:	03420284 	andi	$r4,$r20,0x80
1c0077ac:	0341fe9a 	andi	$r26,$r20,0x7f
1c0077b0:	5c006080 	bne	$r4,$r0,96(0x60) # 1c007810 <core_bench_list+0x8a0>
1c0077b4:	0048cdae 	srai.w	$r14,$r13,0x13
1c0077b8:	03403dc6 	andi	$r6,$r14,0xf
1c0077bc:	004090d3 	slli.w	$r19,$r6,0x4
1c0077c0:	03401e81 	andi	$r1,$r20,0x7
1c0077c4:	00154cc5 	or	$r5,$r6,$r19
1c0077c8:	2a40e2c9 	ld.hu	$r9,$r22,56(0x38)
1c0077cc:	5801f820 	beq	$r1,$r0,504(0x1f8) # 1c0079c4 <core_bench_list+0xa54>
1c0077d0:	0280040f 	addi.w	$r15,$r0,1(0x1)
1c0077d4:	5801c02f 	beq	$r1,$r15,448(0x1c0) # 1c007994 <core_bench_list+0xa24>
1c0077d8:	29800074 	st.w	$r20,$r3,0
1c0077dc:	2a400064 	ld.hu	$r4,$r3,0
1c0077e0:	0015029a 	move	$r26,$r20
1c0077e4:	00150125 	move	$r5,$r9
1c0077e8:	29800074 	st.w	$r20,$r3,0
1c0077ec:	57d817ff 	bl	-10220(0xfffd814) # 1c005000 <crcu16>
1c0077f0:	28800071 	ld.w	$r17,$r3,0
1c0077f4:	02bc0007 	addi.w	$r7,$r0,-256(0xf00)
1c0077f8:	0341ff5a 	andi	$r26,$r26,0x7f
1c0077fc:	00149e32 	and	$r18,$r17,$r7
1c007800:	00154b50 	or	$r16,$r26,$r18
1c007804:	2940e2c4 	st.h	$r4,$r22,56(0x38)
1c007808:	03820205 	ori	$r5,$r16,0x80
1c00780c:	294002e5 	st.h	$r5,$r23,0
1c007810:	2a400337 	ld.hu	$r23,$r25,0
1c007814:	0040c2ec 	slli.w	$r12,$r23,0x10
1c007818:	0048c193 	srai.w	$r19,$r12,0x10
1c00781c:	0342026d 	andi	$r13,$r19,0x80
1c007820:	0341fe74 	andi	$r20,$r19,0x7f
1c007824:	5c0061a0 	bne	$r13,$r0,96(0x60) # 1c007884 <core_bench_list+0x914>
1c007828:	0048cd84 	srai.w	$r4,$r12,0x13
1c00782c:	03403c8e 	andi	$r14,$r4,0xf
1c007830:	004091c6 	slli.w	$r6,$r14,0x4
1c007834:	03401e61 	andi	$r1,$r19,0x7
1c007838:	001519c5 	or	$r5,$r14,$r6
1c00783c:	2a40e2c9 	ld.hu	$r9,$r22,56(0x38)
1c007840:	58010420 	beq	$r1,$r0,260(0x104) # 1c007944 <core_bench_list+0x9d4>
1c007844:	0280040f 	addi.w	$r15,$r0,1(0x1)
1c007848:	5800cc2f 	beq	$r1,$r15,204(0xcc) # 1c007914 <core_bench_list+0x9a4>
1c00784c:	29800073 	st.w	$r19,$r3,0
1c007850:	2a400064 	ld.hu	$r4,$r3,0
1c007854:	00150277 	move	$r23,$r19
1c007858:	00150125 	move	$r5,$r9
1c00785c:	29800073 	st.w	$r19,$r3,0
1c007860:	57d7a3ff 	bl	-10336(0xfffd7a0) # 1c005000 <crcu16>
1c007864:	28800071 	ld.w	$r17,$r3,0
1c007868:	02bc0007 	addi.w	$r7,$r0,-256(0xf00)
1c00786c:	0341fef4 	andi	$r20,$r23,0x7f
1c007870:	00149e32 	and	$r18,$r17,$r7
1c007874:	00154a90 	or	$r16,$r20,$r18
1c007878:	2940e2c4 	st.h	$r4,$r22,56(0x38)
1c00787c:	03820205 	ori	$r5,$r16,0x80
1c007880:	29400325 	st.h	$r5,$r25,0
1c007884:	00115359 	sub.w	$r25,$r26,$r20
1c007888:	64004819 	bge	$r0,$r25,72(0x48) # 1c0078d0 <core_bench_list+0x960>
1c00788c:	001503ba 	move	$r26,$r29
1c007890:	288003bd 	ld.w	$r29,$r29,0
1c007894:	02bfff7b 	addi.w	$r27,$r27,-1(0xfff)
1c007898:	58002b00 	beq	$r24,$r0,40(0x28) # 1c0078c0 <core_bench_list+0x950>
1c00789c:	2980031a 	st.w	$r26,$r24,0
1c0078a0:	00150358 	move	$r24,$r26
1c0078a4:	5ffeeb80 	bne	$r28,$r0,-280(0x3fee8) # 1c00778c <core_bench_list+0x81c>
1c0078a8:	58003b60 	beq	$r27,$r0,56(0x38) # 1c0078e0 <core_bench_list+0x970>
1c0078ac:	58003fa0 	beq	$r29,$r0,60(0x3c) # 1c0078e8 <core_bench_list+0x978>
1c0078b0:	001503ba 	move	$r26,$r29
1c0078b4:	02bfff7b 	addi.w	$r27,$r27,-1(0xfff)
1c0078b8:	288003bd 	ld.w	$r29,$r29,0
1c0078bc:	5fffe300 	bne	$r24,$r0,-32(0x3ffe0) # 1c00789c <core_bench_list+0x92c>
1c0078c0:	0015035f 	move	$r31,$r26
1c0078c4:	00150358 	move	$r24,$r26
1c0078c8:	53ffdfff 	b	-36(0xfffffdc) # 1c0078a4 <core_bench_list+0x934>
1c0078cc:	03400000 	andi	$r0,$r0,0x0
1c0078d0:	001503da 	move	$r26,$r30
1c0078d4:	02bfff9c 	addi.w	$r28,$r28,-1(0xfff)
1c0078d8:	288003de 	ld.w	$r30,$r30,0
1c0078dc:	53ffbfff 	b	-68(0xfffffbc) # 1c007898 <core_bench_list+0x928>
1c0078e0:	001503be 	move	$r30,$r29
1c0078e4:	5ffd93a0 	bne	$r29,$r0,-624(0x3fd90) # 1c007674 <core_bench_list+0x704>
1c0078e8:	2880307a 	ld.w	$r26,$r3,12(0xc)
1c0078ec:	29800300 	st.w	$r0,$r24,0
1c0078f0:	02800418 	addi.w	$r24,$r0,1(0x1)
1c0078f4:	5bf86358 	beq	$r26,$r24,-1952(0x3f860) # 1c007154 <core_bench_list+0x1e4>
1c0078f8:	2880107b 	ld.w	$r27,$r3,4(0x4)
1c0078fc:	0040876e 	slli.w	$r14,$r27,0x1
1c007900:	2980106e 	st.w	$r14,$r3,4(0x4)
1c007904:	5ffd63e0 	bne	$r31,$r0,-672(0x3fd60) # 1c007664 <core_bench_list+0x6f4>
1c007908:	00150016 	move	$r22,$r0
1c00790c:	298002c0 	st.w	$r0,$r22,0
1c007910:	002a0000 	break	0x0
1c007914:	28805064 	ld.w	$r4,$r3,20(0x14)
1c007918:	00150126 	move	$r6,$r9
1c00791c:	29806073 	st.w	$r19,$r3,24(0x18)
1c007920:	579b53ff 	bl	-25776(0xfff9b50) # 1c001470 <core_bench_matrix>
1c007924:	2a40f2c8 	ld.hu	$r8,$r22,60(0x3c)
1c007928:	29800064 	st.w	$r4,$r3,0
1c00792c:	28400077 	ld.h	$r23,$r3,0
1c007930:	28806073 	ld.w	$r19,$r3,24(0x18)
1c007934:	2a40e2c9 	ld.hu	$r9,$r22,56(0x38)
1c007938:	5fff2100 	bne	$r8,$r0,-224(0x3ff20) # 1c007858 <core_bench_list+0x8e8>
1c00793c:	2940f2c4 	st.h	$r4,$r22,60(0x3c)
1c007940:	53ff1bff 	b	-232(0xfffff18) # 1c007858 <core_bench_list+0x8e8>
1c007944:	0280880a 	addi.w	$r10,$r0,34(0x22)
1c007948:	001500ab 	move	$r11,$r5
1c00794c:	640008aa 	bge	$r5,$r10,8(0x8) # 1c007954 <core_bench_list+0x9e4>
1c007950:	0280880b 	addi.w	$r11,$r0,34(0x22)
1c007954:	2940006b 	st.h	$r11,$r3,0
1c007958:	2a000068 	ld.bu	$r8,$r3,0
1c00795c:	28400ac7 	ld.h	$r7,$r22,2(0x2)
1c007960:	284002c6 	ld.h	$r6,$r22,0
1c007964:	288052c5 	ld.w	$r5,$r22,20(0x14)
1c007968:	288062c4 	ld.w	$r4,$r22,24(0x18)
1c00796c:	29806073 	st.w	$r19,$r3,24(0x18)
1c007970:	57e103ff 	bl	-7936(0xfffe100) # 1c005a70 <core_bench_state>
1c007974:	2a40fac9 	ld.hu	$r9,$r22,62(0x3e)
1c007978:	29800064 	st.w	$r4,$r3,0
1c00797c:	28400077 	ld.h	$r23,$r3,0
1c007980:	28806073 	ld.w	$r19,$r3,24(0x18)
1c007984:	5c000920 	bne	$r9,$r0,8(0x8) # 1c00798c <core_bench_list+0xa1c>
1c007988:	2940fac4 	st.h	$r4,$r22,62(0x3e)
1c00798c:	2a40e2c9 	ld.hu	$r9,$r22,56(0x38)
1c007990:	53fecbff 	b	-312(0xffffec8) # 1c007858 <core_bench_list+0x8e8>
1c007994:	28805064 	ld.w	$r4,$r3,20(0x14)
1c007998:	00150126 	move	$r6,$r9
1c00799c:	29806074 	st.w	$r20,$r3,24(0x18)
1c0079a0:	579ad3ff 	bl	-25904(0xfff9ad0) # 1c001470 <core_bench_matrix>
1c0079a4:	2a40f2c8 	ld.hu	$r8,$r22,60(0x3c)
1c0079a8:	29800064 	st.w	$r4,$r3,0
1c0079ac:	2840007a 	ld.h	$r26,$r3,0
1c0079b0:	28806074 	ld.w	$r20,$r3,24(0x18)
1c0079b4:	2a40e2c9 	ld.hu	$r9,$r22,56(0x38)
1c0079b8:	5ffe2d00 	bne	$r8,$r0,-468(0x3fe2c) # 1c0077e4 <core_bench_list+0x874>
1c0079bc:	2940f2c4 	st.h	$r4,$r22,60(0x3c)
1c0079c0:	53fe27ff 	b	-476(0xffffe24) # 1c0077e4 <core_bench_list+0x874>
1c0079c4:	0280880a 	addi.w	$r10,$r0,34(0x22)
1c0079c8:	001500ab 	move	$r11,$r5
1c0079cc:	640008aa 	bge	$r5,$r10,8(0x8) # 1c0079d4 <core_bench_list+0xa64>
1c0079d0:	0280880b 	addi.w	$r11,$r0,34(0x22)
1c0079d4:	2940006b 	st.h	$r11,$r3,0
1c0079d8:	2a000068 	ld.bu	$r8,$r3,0
1c0079dc:	28400ac7 	ld.h	$r7,$r22,2(0x2)
1c0079e0:	284002c6 	ld.h	$r6,$r22,0
1c0079e4:	288052c5 	ld.w	$r5,$r22,20(0x14)
1c0079e8:	288062c4 	ld.w	$r4,$r22,24(0x18)
1c0079ec:	29806074 	st.w	$r20,$r3,24(0x18)
1c0079f0:	57e083ff 	bl	-8064(0xfffe080) # 1c005a70 <core_bench_state>
1c0079f4:	2a40fac9 	ld.hu	$r9,$r22,62(0x3e)
1c0079f8:	29800064 	st.w	$r4,$r3,0
1c0079fc:	2840007a 	ld.h	$r26,$r3,0
1c007a00:	28806074 	ld.w	$r20,$r3,24(0x18)
1c007a04:	5c000920 	bne	$r9,$r0,8(0x8) # 1c007a0c <core_bench_list+0xa9c>
1c007a08:	2940fac4 	st.h	$r4,$r22,62(0x3e)
1c007a0c:	2a40e2c9 	ld.hu	$r9,$r22,56(0x38)
1c007a10:	53fdd7ff 	b	-556(0xffffdd4) # 1c0077e4 <core_bench_list+0x874>
1c007a14:	63fc3405 	blt	$r0,$r5,-972(0x3fc34) # 1c007648 <core_bench_list+0x6d8>
1c007a18:	29802065 	st.w	$r5,$r3,8(0x8)
1c007a1c:	29807060 	st.w	$r0,$r3,28(0x1c)
1c007a20:	53f737ff 	b	-2252(0xffff734) # 1c007154 <core_bench_list+0x1e4>
1c007a24:	00150004 	move	$r4,$r0
1c007a28:	2880008c 	ld.w	$r12,$r4,0
1c007a2c:	002a0000 	break	0x0

1c007a30 <core_list_init>:
core_list_init():
1c007a30:	0280500c 	addi.w	$r12,$r0,20(0x14)
1c007a34:	0021308d 	div.wu	$r13,$r4,$r12
1c007a38:	5c000980 	bne	$r12,$r0,8(0x8) # 1c007a40 <core_list_init+0x10>
1c007a3c:	002a0007 	break	0x7
1c007a40:	02bff9a4 	addi.w	$r4,$r13,-2(0xffe)
1c007a44:	00408c90 	slli.w	$r16,$r4,0x3
1c007a48:	001040a9 	add.w	$r9,$r5,$r16
1c007a4c:	15ffff07 	lu12i.w	$r7,-8(0xffff8)
1c007a50:	298000a0 	st.w	$r0,$r5,0
1c007a54:	298010a9 	st.w	$r9,$r5,4(0x4)
1c007a58:	038200e8 	ori	$r8,$r7,0x80
1c007a5c:	00408891 	slli.w	$r17,$r4,0x2
1c007a60:	29400920 	st.h	$r0,$r9,2(0x2)
1c007a64:	29400128 	st.h	$r8,$r9,0
1c007a68:	028040ad 	addi.w	$r13,$r5,16(0x10)
1c007a6c:	02bfc063 	addi.w	$r3,$r3,-16(0xff0)
1c007a70:	0010452a 	add.w	$r10,$r9,$r17
1c007a74:	028020ac 	addi.w	$r12,$r5,8(0x8)
1c007a78:	0280112f 	addi.w	$r15,$r9,4(0x4)
1c007a7c:	6c0525a9 	bgeu	$r13,$r9,1316(0x524) # 1c007fa0 <core_list_init+0x570>
1c007a80:	0280212e 	addi.w	$r14,$r9,8(0x8)
1c007a84:	6c051dca 	bgeu	$r14,$r10,1308(0x51c) # 1c007fa0 <core_list_init+0x570>
1c007a88:	140000f2 	lu12i.w	$r18,7(0x7)
1c007a8c:	298020a0 	st.w	$r0,$r5,8(0x8)
1c007a90:	298000ac 	st.w	$r12,$r5,0
1c007a94:	298030af 	st.w	$r15,$r5,12(0xc)
1c007a98:	02bffc0b 	addi.w	$r11,$r0,-1(0xfff)
1c007a9c:	03bffe53 	ori	$r19,$r18,0xfff
1c007aa0:	2940112b 	st.h	$r11,$r9,4(0x4)
1c007aa4:	29401933 	st.h	$r19,$r9,6(0x6)
1c007aa8:	58028c80 	beq	$r4,$r0,652(0x28c) # 1c007d34 <core_list_init+0x304>
1c007aac:	29803066 	st.w	$r6,$r3,12(0xc)
1c007ab0:	140000f1 	lu12i.w	$r17,7(0x7)
1c007ab4:	03400c94 	andi	$r20,$r4,0x3
1c007ab8:	2a403070 	ld.hu	$r16,$r3,12(0xc)
1c007abc:	0015000f 	move	$r15,$r0
1c007ac0:	03bffe2b 	ori	$r11,$r17,0xfff
1c007ac4:	58010e80 	beq	$r20,$r0,268(0x10c) # 1c007bd0 <core_list_init+0x1a0>
1c007ac8:	02800407 	addi.w	$r7,$r0,1(0x1)
1c007acc:	5800aa87 	beq	$r20,$r7,168(0xa8) # 1c007b74 <core_list_init+0x144>
1c007ad0:	02800808 	addi.w	$r8,$r0,2(0x2)
1c007ad4:	58004a88 	beq	$r20,$r8,72(0x48) # 1c007b1c <core_list_init+0xec>
1c007ad8:	028021b2 	addi.w	$r18,$r13,8(0x8)
1c007adc:	6c003e49 	bgeu	$r18,$r9,60(0x3c) # 1c007b18 <core_list_init+0xe8>
1c007ae0:	028011d3 	addi.w	$r19,$r14,4(0x4)
1c007ae4:	6c00366a 	bgeu	$r19,$r10,52(0x34) # 1c007b18 <core_list_init+0xe8>
1c007ae8:	00408e0f 	slli.w	$r15,$r16,0x3
1c007aec:	298001ac 	st.w	$r12,$r13,0
1c007af0:	0341e1ec 	andi	$r12,$r15,0x78
1c007af4:	298000ad 	st.w	$r13,$r5,0
1c007af8:	0040a194 	slli.w	$r20,$r12,0x8
1c007afc:	298011ae 	st.w	$r14,$r13,4(0x4)
1c007b00:	00153291 	or	$r17,$r20,$r12
1c007b04:	294001d1 	st.h	$r17,$r14,0
1c007b08:	294009cb 	st.h	$r11,$r14,2(0x2)
1c007b0c:	001501ac 	move	$r12,$r13
1c007b10:	0015026e 	move	$r14,$r19
1c007b14:	0015024d 	move	$r13,$r18
1c007b18:	0280040f 	addi.w	$r15,$r0,1(0x1)
1c007b1c:	028021a7 	addi.w	$r7,$r13,8(0x8)
1c007b20:	6c0050e9 	bgeu	$r7,$r9,80(0x50) # 1c007b70 <core_list_init+0x140>
1c007b24:	028011c8 	addi.w	$r8,$r14,4(0x4)
1c007b28:	6c00490a 	bgeu	$r8,$r10,72(0x48) # 1c007b70 <core_list_init+0x140>
1c007b2c:	2980306f 	st.w	$r15,$r3,12(0xc)
1c007b30:	2a403072 	ld.hu	$r18,$r3,12(0xc)
1c007b34:	298001ac 	st.w	$r12,$r13,0
1c007b38:	298000ad 	st.w	$r13,$r5,0
1c007b3c:	0015c253 	xor	$r19,$r18,$r16
1c007b40:	00408e6c 	slli.w	$r12,$r19,0x3
1c007b44:	0341e191 	andi	$r17,$r12,0x78
1c007b48:	03401e54 	andi	$r20,$r18,0x7
1c007b4c:	00155232 	or	$r18,$r17,$r20
1c007b50:	0040a253 	slli.w	$r19,$r18,0x8
1c007b54:	298011ae 	st.w	$r14,$r13,4(0x4)
1c007b58:	00154a6c 	or	$r12,$r19,$r18
1c007b5c:	294001cc 	st.h	$r12,$r14,0
1c007b60:	294009cb 	st.h	$r11,$r14,2(0x2)
1c007b64:	001501ac 	move	$r12,$r13
1c007b68:	0015010e 	move	$r14,$r8
1c007b6c:	001500ed 	move	$r13,$r7
1c007b70:	028005ef 	addi.w	$r15,$r15,1(0x1)
1c007b74:	028021a7 	addi.w	$r7,$r13,8(0x8)
1c007b78:	6c0050e9 	bgeu	$r7,$r9,80(0x50) # 1c007bc8 <core_list_init+0x198>
1c007b7c:	028011c8 	addi.w	$r8,$r14,4(0x4)
1c007b80:	6c00490a 	bgeu	$r8,$r10,72(0x48) # 1c007bc8 <core_list_init+0x198>
1c007b84:	2980306f 	st.w	$r15,$r3,12(0xc)
1c007b88:	2a403071 	ld.hu	$r17,$r3,12(0xc)
1c007b8c:	298001ac 	st.w	$r12,$r13,0
1c007b90:	298000ad 	st.w	$r13,$r5,0
1c007b94:	0015c234 	xor	$r20,$r17,$r16
1c007b98:	00408e92 	slli.w	$r18,$r20,0x3
1c007b9c:	0341e253 	andi	$r19,$r18,0x78
1c007ba0:	03401e2c 	andi	$r12,$r17,0x7
1c007ba4:	00153271 	or	$r17,$r19,$r12
1c007ba8:	0040a234 	slli.w	$r20,$r17,0x8
1c007bac:	298011ae 	st.w	$r14,$r13,4(0x4)
1c007bb0:	00154692 	or	$r18,$r20,$r17
1c007bb4:	294001d2 	st.h	$r18,$r14,0
1c007bb8:	294009cb 	st.h	$r11,$r14,2(0x2)
1c007bbc:	001501ac 	move	$r12,$r13
1c007bc0:	0015010e 	move	$r14,$r8
1c007bc4:	001500ed 	move	$r13,$r7
1c007bc8:	028005ef 	addi.w	$r15,$r15,1(0x1)
1c007bcc:	5801688f 	beq	$r4,$r15,360(0x168) # 1c007d34 <core_list_init+0x304>
1c007bd0:	028021a7 	addi.w	$r7,$r13,8(0x8)
1c007bd4:	6c0050e9 	bgeu	$r7,$r9,80(0x50) # 1c007c24 <core_list_init+0x1f4>
1c007bd8:	028011c8 	addi.w	$r8,$r14,4(0x4)
1c007bdc:	6c00490a 	bgeu	$r8,$r10,72(0x48) # 1c007c24 <core_list_init+0x1f4>
1c007be0:	2980306f 	st.w	$r15,$r3,12(0xc)
1c007be4:	2a403073 	ld.hu	$r19,$r3,12(0xc)
1c007be8:	298001ac 	st.w	$r12,$r13,0
1c007bec:	298000ad 	st.w	$r13,$r5,0
1c007bf0:	0015c26c 	xor	$r12,$r19,$r16
1c007bf4:	00408d91 	slli.w	$r17,$r12,0x3
1c007bf8:	0341e232 	andi	$r18,$r17,0x78
1c007bfc:	03401e74 	andi	$r20,$r19,0x7
1c007c00:	00155253 	or	$r19,$r18,$r20
1c007c04:	0040a26c 	slli.w	$r12,$r19,0x8
1c007c08:	298011ae 	st.w	$r14,$r13,4(0x4)
1c007c0c:	00154d91 	or	$r17,$r12,$r19
1c007c10:	294001d1 	st.h	$r17,$r14,0
1c007c14:	294009cb 	st.h	$r11,$r14,2(0x2)
1c007c18:	001501ac 	move	$r12,$r13
1c007c1c:	0015010e 	move	$r14,$r8
1c007c20:	001500ed 	move	$r13,$r7
1c007c24:	028021a7 	addi.w	$r7,$r13,8(0x8)
1c007c28:	028005ef 	addi.w	$r15,$r15,1(0x1)
1c007c2c:	6c0050e9 	bgeu	$r7,$r9,80(0x50) # 1c007c7c <core_list_init+0x24c>
1c007c30:	028011c8 	addi.w	$r8,$r14,4(0x4)
1c007c34:	6c00490a 	bgeu	$r8,$r10,72(0x48) # 1c007c7c <core_list_init+0x24c>
1c007c38:	2980306f 	st.w	$r15,$r3,12(0xc)
1c007c3c:	2a403072 	ld.hu	$r18,$r3,12(0xc)
1c007c40:	298001ac 	st.w	$r12,$r13,0
1c007c44:	298000ad 	st.w	$r13,$r5,0
1c007c48:	0015c254 	xor	$r20,$r18,$r16
1c007c4c:	00408e93 	slli.w	$r19,$r20,0x3
1c007c50:	0341e26c 	andi	$r12,$r19,0x78
1c007c54:	03401e51 	andi	$r17,$r18,0x7
1c007c58:	00154592 	or	$r18,$r12,$r17
1c007c5c:	0040a254 	slli.w	$r20,$r18,0x8
1c007c60:	298011ae 	st.w	$r14,$r13,4(0x4)
1c007c64:	00154a93 	or	$r19,$r20,$r18
1c007c68:	294001d3 	st.h	$r19,$r14,0
1c007c6c:	294009cb 	st.h	$r11,$r14,2(0x2)
1c007c70:	001501ac 	move	$r12,$r13
1c007c74:	0015010e 	move	$r14,$r8
1c007c78:	001500ed 	move	$r13,$r7
1c007c7c:	028021a7 	addi.w	$r7,$r13,8(0x8)
1c007c80:	028005f1 	addi.w	$r17,$r15,1(0x1)
1c007c84:	6c0050e9 	bgeu	$r7,$r9,80(0x50) # 1c007cd4 <core_list_init+0x2a4>
1c007c88:	028011c8 	addi.w	$r8,$r14,4(0x4)
1c007c8c:	6c00490a 	bgeu	$r8,$r10,72(0x48) # 1c007cd4 <core_list_init+0x2a4>
1c007c90:	29803071 	st.w	$r17,$r3,12(0xc)
1c007c94:	2a403072 	ld.hu	$r18,$r3,12(0xc)
1c007c98:	298001ac 	st.w	$r12,$r13,0
1c007c9c:	298000ad 	st.w	$r13,$r5,0
1c007ca0:	0015c24c 	xor	$r12,$r18,$r16
1c007ca4:	00408d94 	slli.w	$r20,$r12,0x3
1c007ca8:	0341e293 	andi	$r19,$r20,0x78
1c007cac:	03401e51 	andi	$r17,$r18,0x7
1c007cb0:	00154672 	or	$r18,$r19,$r17
1c007cb4:	0040a24c 	slli.w	$r12,$r18,0x8
1c007cb8:	298011ae 	st.w	$r14,$r13,4(0x4)
1c007cbc:	00154994 	or	$r20,$r12,$r18
1c007cc0:	294001d4 	st.h	$r20,$r14,0
1c007cc4:	294009cb 	st.h	$r11,$r14,2(0x2)
1c007cc8:	001501ac 	move	$r12,$r13
1c007ccc:	0015010e 	move	$r14,$r8
1c007cd0:	001500ed 	move	$r13,$r7
1c007cd4:	028021a7 	addi.w	$r7,$r13,8(0x8)
1c007cd8:	028009f3 	addi.w	$r19,$r15,2(0x2)
1c007cdc:	6c0050e9 	bgeu	$r7,$r9,80(0x50) # 1c007d2c <core_list_init+0x2fc>
1c007ce0:	028011c8 	addi.w	$r8,$r14,4(0x4)
1c007ce4:	6c00490a 	bgeu	$r8,$r10,72(0x48) # 1c007d2c <core_list_init+0x2fc>
1c007ce8:	29803073 	st.w	$r19,$r3,12(0xc)
1c007cec:	2a403071 	ld.hu	$r17,$r3,12(0xc)
1c007cf0:	298001ac 	st.w	$r12,$r13,0
1c007cf4:	298000ad 	st.w	$r13,$r5,0
1c007cf8:	0015c232 	xor	$r18,$r17,$r16
1c007cfc:	00408e4c 	slli.w	$r12,$r18,0x3
1c007d00:	0341e193 	andi	$r19,$r12,0x78
1c007d04:	03401e34 	andi	$r20,$r17,0x7
1c007d08:	00155271 	or	$r17,$r19,$r20
1c007d0c:	0040a232 	slli.w	$r18,$r17,0x8
1c007d10:	298011ae 	st.w	$r14,$r13,4(0x4)
1c007d14:	0015464c 	or	$r12,$r18,$r17
1c007d18:	294001cc 	st.h	$r12,$r14,0
1c007d1c:	294009cb 	st.h	$r11,$r14,2(0x2)
1c007d20:	001501ac 	move	$r12,$r13
1c007d24:	0015010e 	move	$r14,$r8
1c007d28:	001500ed 	move	$r13,$r7
1c007d2c:	02800def 	addi.w	$r15,$r15,3(0x3)
1c007d30:	5ffea08f 	bne	$r4,$r15,-352(0x3fea0) # 1c007bd0 <core_list_init+0x1a0>
1c007d34:	28800189 	ld.w	$r9,$r12,0
1c007d38:	58003d20 	beq	$r9,$r0,60(0x3c) # 1c007d74 <core_list_init+0x344>
1c007d3c:	0280140a 	addi.w	$r10,$r0,5(0x5)
1c007d40:	0021288b 	div.wu	$r11,$r4,$r10
1c007d44:	5c000940 	bne	$r10,$r0,8(0x8) # 1c007d4c <core_list_init+0x31c>
1c007d48:	002a0007 	break	0x7
1c007d4c:	14000064 	lu12i.w	$r4,3(0x3)
1c007d50:	02800414 	addi.w	$r20,$r0,1(0x1)
1c007d54:	03bffc87 	ori	$r7,$r4,0xfff
1c007d58:	28801190 	ld.w	$r16,$r12,4(0x4)
1c007d5c:	2880018c 	ld.w	$r12,$r12,0
1c007d60:	6c02028b 	bgeu	$r20,$r11,512(0x200) # 1c007f60 <core_list_init+0x530>
1c007d64:	2880018a 	ld.w	$r10,$r12,0
1c007d68:	29400a14 	st.h	$r20,$r16,2(0x2)
1c007d6c:	02800694 	addi.w	$r20,$r20,1(0x1)
1c007d70:	5fffe940 	bne	$r10,$r0,-24(0x3ffe8) # 1c007d58 <core_list_init+0x328>
1c007d74:	02800411 	addi.w	$r17,$r0,1(0x1)
1c007d78:	02bc0008 	addi.w	$r8,$r0,-256(0xf00)
1c007d7c:	02800409 	addi.w	$r9,$r0,1(0x1)
1c007d80:	001500ae 	move	$r14,$r5
1c007d84:	00150012 	move	$r18,$r0
1c007d88:	00150005 	move	$r5,$r0
1c007d8c:	00150007 	move	$r7,$r0
1c007d90:	03401e26 	andi	$r6,$r17,0x7
1c007d94:	028004e7 	addi.w	$r7,$r7,1(0x1)
1c007d98:	001501cc 	move	$r12,$r14
1c007d9c:	0015000d 	move	$r13,$r0
1c007da0:	58008cc0 	beq	$r6,$r0,140(0x8c) # 1c007e2c <core_list_init+0x3fc>
1c007da4:	0280040b 	addi.w	$r11,$r0,1(0x1)
1c007da8:	580074cb 	beq	$r6,$r11,116(0x74) # 1c007e1c <core_list_init+0x3ec>
1c007dac:	02800804 	addi.w	$r4,$r0,2(0x2)
1c007db0:	580060c4 	beq	$r6,$r4,96(0x60) # 1c007e10 <core_list_init+0x3e0>
1c007db4:	02800c10 	addi.w	$r16,$r0,3(0x3)
1c007db8:	58004cd0 	beq	$r6,$r16,76(0x4c) # 1c007e04 <core_list_init+0x3d4>
1c007dbc:	02801013 	addi.w	$r19,$r0,4(0x4)
1c007dc0:	580038d3 	beq	$r6,$r19,56(0x38) # 1c007df8 <core_list_init+0x3c8>
1c007dc4:	02801414 	addi.w	$r20,$r0,5(0x5)
1c007dc8:	580024d4 	beq	$r6,$r20,36(0x24) # 1c007dec <core_list_init+0x3bc>
1c007dcc:	0280180f 	addi.w	$r15,$r0,6(0x6)
1c007dd0:	580010cf 	beq	$r6,$r15,16(0x10) # 1c007de0 <core_list_init+0x3b0>
1c007dd4:	288001cc 	ld.w	$r12,$r14,0
1c007dd8:	0280040d 	addi.w	$r13,$r0,1(0x1)
1c007ddc:	5800b580 	beq	$r12,$r0,180(0xb4) # 1c007e90 <core_list_init+0x460>
1c007de0:	2880018c 	ld.w	$r12,$r12,0
1c007de4:	028005ad 	addi.w	$r13,$r13,1(0x1)
1c007de8:	5800a980 	beq	$r12,$r0,168(0xa8) # 1c007e90 <core_list_init+0x460>
1c007dec:	2880018c 	ld.w	$r12,$r12,0
1c007df0:	028005ad 	addi.w	$r13,$r13,1(0x1)
1c007df4:	58009d80 	beq	$r12,$r0,156(0x9c) # 1c007e90 <core_list_init+0x460>
1c007df8:	2880018c 	ld.w	$r12,$r12,0
1c007dfc:	028005ad 	addi.w	$r13,$r13,1(0x1)
1c007e00:	58009180 	beq	$r12,$r0,144(0x90) # 1c007e90 <core_list_init+0x460>
1c007e04:	2880018c 	ld.w	$r12,$r12,0
1c007e08:	028005ad 	addi.w	$r13,$r13,1(0x1)
1c007e0c:	58008580 	beq	$r12,$r0,132(0x84) # 1c007e90 <core_list_init+0x460>
1c007e10:	2880018c 	ld.w	$r12,$r12,0
1c007e14:	028005ad 	addi.w	$r13,$r13,1(0x1)
1c007e18:	58007980 	beq	$r12,$r0,120(0x78) # 1c007e90 <core_list_init+0x460>
1c007e1c:	2880018c 	ld.w	$r12,$r12,0
1c007e20:	028005ad 	addi.w	$r13,$r13,1(0x1)
1c007e24:	58006d80 	beq	$r12,$r0,108(0x6c) # 1c007e90 <core_list_init+0x460>
1c007e28:	580069b1 	beq	$r13,$r17,104(0x68) # 1c007e90 <core_list_init+0x460>
1c007e2c:	2880018c 	ld.w	$r12,$r12,0
1c007e30:	028005ad 	addi.w	$r13,$r13,1(0x1)
1c007e34:	001501aa 	move	$r10,$r13
1c007e38:	58005980 	beq	$r12,$r0,88(0x58) # 1c007e90 <core_list_init+0x460>
1c007e3c:	2880018c 	ld.w	$r12,$r12,0
1c007e40:	028005ad 	addi.w	$r13,$r13,1(0x1)
1c007e44:	58004d80 	beq	$r12,$r0,76(0x4c) # 1c007e90 <core_list_init+0x460>
1c007e48:	2880018c 	ld.w	$r12,$r12,0
1c007e4c:	0280094d 	addi.w	$r13,$r10,2(0x2)
1c007e50:	58004180 	beq	$r12,$r0,64(0x40) # 1c007e90 <core_list_init+0x460>
1c007e54:	2880018c 	ld.w	$r12,$r12,0
1c007e58:	02800d4d 	addi.w	$r13,$r10,3(0x3)
1c007e5c:	58003580 	beq	$r12,$r0,52(0x34) # 1c007e90 <core_list_init+0x460>
1c007e60:	2880018c 	ld.w	$r12,$r12,0
1c007e64:	0280114d 	addi.w	$r13,$r10,4(0x4)
1c007e68:	58002980 	beq	$r12,$r0,40(0x28) # 1c007e90 <core_list_init+0x460>
1c007e6c:	2880018c 	ld.w	$r12,$r12,0
1c007e70:	0280154d 	addi.w	$r13,$r10,5(0x5)
1c007e74:	58001d80 	beq	$r12,$r0,28(0x1c) # 1c007e90 <core_list_init+0x460>
1c007e78:	2880018c 	ld.w	$r12,$r12,0
1c007e7c:	0280194d 	addi.w	$r13,$r10,6(0x6)
1c007e80:	58001180 	beq	$r12,$r0,16(0x10) # 1c007e90 <core_list_init+0x460>
1c007e84:	2880018c 	ld.w	$r12,$r12,0
1c007e88:	02801d4d 	addi.w	$r13,$r10,7(0x7)
1c007e8c:	5fff9d80 	bne	$r12,$r0,-100(0x3ff9c) # 1c007e28 <core_list_init+0x3f8>
1c007e90:	001501cb 	move	$r11,$r14
1c007e94:	00150230 	move	$r16,$r17
1c007e98:	0015018e 	move	$r14,$r12
1c007e9c:	580071a0 	beq	$r13,$r0,112(0x70) # 1c007f0c <core_list_init+0x4dc>
1c007ea0:	58009200 	beq	$r16,$r0,144(0x90) # 1c007f30 <core_list_init+0x500>
1c007ea4:	58008dc0 	beq	$r14,$r0,140(0x8c) # 1c007f30 <core_list_init+0x500>
1c007ea8:	28801164 	ld.w	$r4,$r11,4(0x4)
1c007eac:	288011d4 	ld.w	$r20,$r14,4(0x4)
1c007eb0:	2840008f 	ld.h	$r15,$r4,0
1c007eb4:	28400893 	ld.h	$r19,$r4,2(0x2)
1c007eb8:	28400a8a 	ld.h	$r10,$r20,2(0x2)
1c007ebc:	0040c1e6 	slli.w	$r6,$r15,0x10
1c007ec0:	0014a1ec 	and	$r12,$r15,$r8
1c007ec4:	0044e0cf 	srli.w	$r15,$r6,0x18
1c007ec8:	00153d86 	or	$r6,$r12,$r15
1c007ecc:	29400086 	st.h	$r6,$r4,0
1c007ed0:	2840028c 	ld.h	$r12,$r20,0
1c007ed4:	00112a73 	sub.w	$r19,$r19,$r10
1c007ed8:	0040c184 	slli.w	$r4,$r12,0x10
1c007edc:	0014a18a 	and	$r10,$r12,$r8
1c007ee0:	0044e08f 	srli.w	$r15,$r4,0x18
1c007ee4:	00153d46 	or	$r6,$r10,$r15
1c007ee8:	29400286 	st.h	$r6,$r20,0
1c007eec:	64004413 	bge	$r0,$r19,68(0x44) # 1c007f30 <core_list_init+0x500>
1c007ef0:	001501d4 	move	$r20,$r14
1c007ef4:	288001ce 	ld.w	$r14,$r14,0
1c007ef8:	02bffe10 	addi.w	$r16,$r16,-1(0xfff)
1c007efc:	58002a40 	beq	$r18,$r0,40(0x28) # 1c007f24 <core_list_init+0x4f4>
1c007f00:	29800254 	st.w	$r20,$r18,0
1c007f04:	00150292 	move	$r18,$r20
1c007f08:	5fff99a0 	bne	$r13,$r0,-104(0x3ff98) # 1c007ea0 <core_list_init+0x470>
1c007f0c:	58003600 	beq	$r16,$r0,52(0x34) # 1c007f40 <core_list_init+0x510>
1c007f10:	580035c0 	beq	$r14,$r0,52(0x34) # 1c007f44 <core_list_init+0x514>
1c007f14:	001501d4 	move	$r20,$r14
1c007f18:	02bffe10 	addi.w	$r16,$r16,-1(0xfff)
1c007f1c:	288001ce 	ld.w	$r14,$r14,0
1c007f20:	5fffe240 	bne	$r18,$r0,-32(0x3ffe0) # 1c007f00 <core_list_init+0x4d0>
1c007f24:	00150285 	move	$r5,$r20
1c007f28:	00150292 	move	$r18,$r20
1c007f2c:	53ffdfff 	b	-36(0xfffffdc) # 1c007f08 <core_list_init+0x4d8>
1c007f30:	00150174 	move	$r20,$r11
1c007f34:	02bffdad 	addi.w	$r13,$r13,-1(0xfff)
1c007f38:	2880016b 	ld.w	$r11,$r11,0
1c007f3c:	53ffc3ff 	b	-64(0xfffffc0) # 1c007efc <core_list_init+0x4cc>
1c007f40:	5ffe51c0 	bne	$r14,$r0,-432(0x3fe50) # 1c007d90 <core_list_init+0x360>
1c007f44:	29800240 	st.w	$r0,$r18,0
1c007f48:	58004ce9 	beq	$r7,$r9,76(0x4c) # 1c007f94 <core_list_init+0x564>
1c007f4c:	00408631 	slli.w	$r17,$r17,0x1
1c007f50:	5ffe30a0 	bne	$r5,$r0,-464(0x3fe30) # 1c007d80 <core_list_init+0x350>
1c007f54:	298000a0 	st.w	$r0,$r5,0
1c007f58:	002a0000 	break	0x0
1c007f5c:	03400000 	andi	$r0,$r0,0x0
1c007f60:	29803074 	st.w	$r20,$r3,12(0xc)
1c007f64:	2a403068 	ld.hu	$r8,$r3,12(0xc)
1c007f68:	2880018f 	ld.w	$r15,$r12,0
1c007f6c:	02800694 	addi.w	$r20,$r20,1(0x1)
1c007f70:	02800513 	addi.w	$r19,$r8,1(0x1)
1c007f74:	0040a271 	slli.w	$r17,$r19,0x8
1c007f78:	035c0232 	andi	$r18,$r17,0x700
1c007f7c:	0015990e 	xor	$r14,$r8,$r6
1c007f80:	00153a4d 	or	$r13,$r18,$r14
1c007f84:	00149da9 	and	$r9,$r13,$r7
1c007f88:	29400a09 	st.h	$r9,$r16,2(0x2)
1c007f8c:	5ffdcde0 	bne	$r15,$r0,-564(0x3fdcc) # 1c007d58 <core_list_init+0x328>
1c007f90:	53fde7ff 	b	-540(0xffffde4) # 1c007d74 <core_list_init+0x344>
1c007f94:	001500a4 	move	$r4,$r5
1c007f98:	02804063 	addi.w	$r3,$r3,16(0x10)
1c007f9c:	4c000020 	jirl	$r0,$r1,0
1c007fa0:	0015018d 	move	$r13,$r12
1c007fa4:	001501ee 	move	$r14,$r15
1c007fa8:	0015000c 	move	$r12,$r0
1c007fac:	53faffff 	b	-1284(0xffffafc) # 1c007aa8 <core_list_init+0x78>

1c007fb0 <core_list_insert_new>:
core_list_insert_new():
1c007fb0:	288000cc 	ld.w	$r12,$r6,0
1c007fb4:	0280218d 	addi.w	$r13,$r12,8(0x8)
1c007fb8:	6c004da8 	bgeu	$r13,$r8,76(0x4c) # 1c008004 <core_list_insert_new+0x54>
1c007fbc:	288000ee 	ld.w	$r14,$r7,0
1c007fc0:	028011cf 	addi.w	$r15,$r14,4(0x4)
1c007fc4:	6c0041e9 	bgeu	$r15,$r9,64(0x40) # 1c008004 <core_list_insert_new+0x54>
1c007fc8:	298000cd 	st.w	$r13,$r6,0
1c007fcc:	28800086 	ld.w	$r6,$r4,0
1c007fd0:	284000b0 	ld.h	$r16,$r5,0
1c007fd4:	284008a5 	ld.h	$r5,$r5,2(0x2)
1c007fd8:	29800186 	st.w	$r6,$r12,0
1c007fdc:	2980008c 	st.w	$r12,$r4,0
1c007fe0:	2980118e 	st.w	$r14,$r12,4(0x4)
1c007fe4:	288000e4 	ld.w	$r4,$r7,0
1c007fe8:	02801088 	addi.w	$r8,$r4,4(0x4)
1c007fec:	298000e8 	st.w	$r8,$r7,0
1c007ff0:	28801187 	ld.w	$r7,$r12,4(0x4)
1c007ff4:	00150184 	move	$r4,$r12
1c007ff8:	294000f0 	st.h	$r16,$r7,0
1c007ffc:	294008e5 	st.h	$r5,$r7,2(0x2)
1c008000:	4c000020 	jirl	$r0,$r1,0
1c008004:	0015000c 	move	$r12,$r0
1c008008:	00150184 	move	$r4,$r12
1c00800c:	4c000020 	jirl	$r0,$r1,0

1c008010 <core_list_remove>:
core_list_remove():
1c008010:	2880008c 	ld.w	$r12,$r4,0
1c008014:	2880108f 	ld.w	$r15,$r4,4(0x4)
1c008018:	0015008d 	move	$r13,$r4
1c00801c:	28801190 	ld.w	$r16,$r12,4(0x4)
1c008020:	2880018e 	ld.w	$r14,$r12,0
1c008024:	00150184 	move	$r4,$r12
1c008028:	298011b0 	st.w	$r16,$r13,4(0x4)
1c00802c:	2980118f 	st.w	$r15,$r12,4(0x4)
1c008030:	298001ae 	st.w	$r14,$r13,0
1c008034:	29800180 	st.w	$r0,$r12,0
1c008038:	4c000020 	jirl	$r0,$r1,0
1c00803c:	03400000 	andi	$r0,$r0,0x0

1c008040 <core_list_undo_remove>:
core_list_undo_remove():
1c008040:	288010af 	ld.w	$r15,$r5,4(0x4)
1c008044:	2880108e 	ld.w	$r14,$r4,4(0x4)
1c008048:	288000ad 	ld.w	$r13,$r5,0
1c00804c:	2980108f 	st.w	$r15,$r4,4(0x4)
1c008050:	298010ae 	st.w	$r14,$r5,4(0x4)
1c008054:	2980008d 	st.w	$r13,$r4,0
1c008058:	298000a4 	st.w	$r4,$r5,0
1c00805c:	4c000020 	jirl	$r0,$r1,0

1c008060 <core_list_find>:
core_list_find():
1c008060:	284008ad 	ld.h	$r13,$r5,2(0x2)
1c008064:	600035a0 	blt	$r13,$r0,52(0x34) # 1c008098 <core_list_find+0x38>
1c008068:	58002c80 	beq	$r4,$r0,44(0x2c) # 1c008094 <core_list_find+0x34>
1c00806c:	28801089 	ld.w	$r9,$r4,4(0x4)
1c008070:	2840092a 	ld.h	$r10,$r9,2(0x2)
1c008074:	5c00194d 	bne	$r10,$r13,24(0x18) # 1c00808c <core_list_find+0x2c>
1c008078:	50005400 	b	84(0x54) # 1c0080cc <core_list_find+0x6c>
1c00807c:	03400000 	andi	$r0,$r0,0x0
1c008080:	2880108b 	ld.w	$r11,$r4,4(0x4)
1c008084:	2840096e 	ld.h	$r14,$r11,2(0x2)
1c008088:	58000dcd 	beq	$r14,$r13,12(0xc) # 1c008094 <core_list_find+0x34>
1c00808c:	28800084 	ld.w	$r4,$r4,0
1c008090:	5ffff080 	bne	$r4,$r0,-16(0x3fff0) # 1c008080 <core_list_find+0x20>
1c008094:	4c000020 	jirl	$r0,$r1,0
1c008098:	5bfffc80 	beq	$r4,$r0,-4(0x3fffc) # 1c008094 <core_list_find+0x34>
1c00809c:	2880108c 	ld.w	$r12,$r4,4(0x4)
1c0080a0:	284000a5 	ld.h	$r5,$r5,0
1c0080a4:	2a000186 	ld.bu	$r6,$r12,0
1c0080a8:	5c0014c5 	bne	$r6,$r5,20(0x14) # 1c0080bc <core_list_find+0x5c>
1c0080ac:	50002400 	b	36(0x24) # 1c0080d0 <core_list_find+0x70>
1c0080b0:	28801087 	ld.w	$r7,$r4,4(0x4)
1c0080b4:	2a0000e8 	ld.bu	$r8,$r7,0
1c0080b8:	58001105 	beq	$r8,$r5,16(0x10) # 1c0080c8 <core_list_find+0x68>
1c0080bc:	28800084 	ld.w	$r4,$r4,0
1c0080c0:	5ffff080 	bne	$r4,$r0,-16(0x3fff0) # 1c0080b0 <core_list_find+0x50>
1c0080c4:	53ffd3ff 	b	-48(0xfffffd0) # 1c008094 <core_list_find+0x34>
1c0080c8:	4c000020 	jirl	$r0,$r1,0
1c0080cc:	4c000020 	jirl	$r0,$r1,0
1c0080d0:	4c000020 	jirl	$r0,$r1,0
1c0080d4:	03400000 	andi	$r0,$r0,0x0
1c0080d8:	03400000 	andi	$r0,$r0,0x0
1c0080dc:	03400000 	andi	$r0,$r0,0x0

1c0080e0 <core_list_reverse>:
core_list_reverse():
1c0080e0:	5800a080 	beq	$r4,$r0,160(0xa0) # 1c008180 <core_list_reverse+0xa0>
1c0080e4:	2880008c 	ld.w	$r12,$r4,0
1c0080e8:	0015000a 	move	$r10,$r0
1c0080ec:	2980008a 	st.w	$r10,$r4,0
1c0080f0:	0015008e 	move	$r14,$r4
1c0080f4:	58008d80 	beq	$r12,$r0,140(0x8c) # 1c008180 <core_list_reverse+0xa0>
1c0080f8:	2880018d 	ld.w	$r13,$r12,0
1c0080fc:	2980018e 	st.w	$r14,$r12,0
1c008100:	00150184 	move	$r4,$r12
1c008104:	580081a0 	beq	$r13,$r0,128(0x80) # 1c008184 <core_list_reverse+0xa4>
1c008108:	288001a5 	ld.w	$r5,$r13,0
1c00810c:	298001ac 	st.w	$r12,$r13,0
1c008110:	001501a4 	move	$r4,$r13
1c008114:	58006ca0 	beq	$r5,$r0,108(0x6c) # 1c008180 <core_list_reverse+0xa0>
1c008118:	288000a6 	ld.w	$r6,$r5,0
1c00811c:	298000ad 	st.w	$r13,$r5,0
1c008120:	001500a4 	move	$r4,$r5
1c008124:	58005cc0 	beq	$r6,$r0,92(0x5c) # 1c008180 <core_list_reverse+0xa0>
1c008128:	288000c7 	ld.w	$r7,$r6,0
1c00812c:	298000c5 	st.w	$r5,$r6,0
1c008130:	001500c4 	move	$r4,$r6
1c008134:	58004ce0 	beq	$r7,$r0,76(0x4c) # 1c008180 <core_list_reverse+0xa0>
1c008138:	288000e8 	ld.w	$r8,$r7,0
1c00813c:	298000e6 	st.w	$r6,$r7,0
1c008140:	001500e4 	move	$r4,$r7
1c008144:	58003d00 	beq	$r8,$r0,60(0x3c) # 1c008180 <core_list_reverse+0xa0>
1c008148:	28800109 	ld.w	$r9,$r8,0
1c00814c:	29800107 	st.w	$r7,$r8,0
1c008150:	00150104 	move	$r4,$r8
1c008154:	58002d20 	beq	$r9,$r0,44(0x2c) # 1c008180 <core_list_reverse+0xa0>
1c008158:	2880012f 	ld.w	$r15,$r9,0
1c00815c:	29800128 	st.w	$r8,$r9,0
1c008160:	00150124 	move	$r4,$r9
1c008164:	0015012a 	move	$r10,$r9
1c008168:	580019e0 	beq	$r15,$r0,24(0x18) # 1c008180 <core_list_reverse+0xa0>
1c00816c:	001501e4 	move	$r4,$r15
1c008170:	2880008c 	ld.w	$r12,$r4,0
1c008174:	2980008a 	st.w	$r10,$r4,0
1c008178:	0015008e 	move	$r14,$r4
1c00817c:	5fff7d80 	bne	$r12,$r0,-132(0x3ff7c) # 1c0080f8 <core_list_reverse+0x18>
1c008180:	4c000020 	jirl	$r0,$r1,0
1c008184:	4c000020 	jirl	$r0,$r1,0
1c008188:	03400000 	andi	$r0,$r0,0x0
1c00818c:	03400000 	andi	$r0,$r0,0x0

1c008190 <core_list_mergesort>:
core_list_mergesort():
1c008190:	58022880 	beq	$r4,$r0,552(0x228) # 1c0083b8 <core_list_mergesort+0x228>
1c008194:	02bf4063 	addi.w	$r3,$r3,-48(0xfd0)
1c008198:	2980607a 	st.w	$r26,$r3,24(0x18)
1c00819c:	2980507b 	st.w	$r27,$r3,20(0x14)
1c0081a0:	2980407c 	st.w	$r28,$r3,16(0x10)
1c0081a4:	2980307d 	st.w	$r29,$r3,12(0xc)
1c0081a8:	2980b061 	st.w	$r1,$r3,44(0x2c)
1c0081ac:	2980a076 	st.w	$r22,$r3,40(0x28)
1c0081b0:	29809077 	st.w	$r23,$r3,36(0x24)
1c0081b4:	29808078 	st.w	$r24,$r3,32(0x20)
1c0081b8:	29807079 	st.w	$r25,$r3,28(0x1c)
1c0081bc:	2980207e 	st.w	$r30,$r3,8(0x8)
1c0081c0:	2980107f 	st.w	$r31,$r3,4(0x4)
1c0081c4:	0015009a 	move	$r26,$r4
1c0081c8:	001500bb 	move	$r27,$r5
1c0081cc:	001500dc 	move	$r28,$r6
1c0081d0:	0280041d 	addi.w	$r29,$r0,1(0x1)
1c0081d4:	0015035f 	move	$r31,$r26
1c0081d8:	0015001e 	move	$r30,$r0
1c0081dc:	00150018 	move	$r24,$r0
1c0081e0:	0015001a 	move	$r26,$r0
1c0081e4:	03401fa1 	andi	$r1,$r29,0x7
1c0081e8:	028007de 	addi.w	$r30,$r30,1(0x1)
1c0081ec:	001503f7 	move	$r23,$r31
1c0081f0:	00150019 	move	$r25,$r0
1c0081f4:	58008c20 	beq	$r1,$r0,140(0x8c) # 1c008280 <core_list_mergesort+0xf0>
1c0081f8:	0280040e 	addi.w	$r14,$r0,1(0x1)
1c0081fc:	5800742e 	beq	$r1,$r14,116(0x74) # 1c008270 <core_list_mergesort+0xe0>
1c008200:	02800804 	addi.w	$r4,$r0,2(0x2)
1c008204:	58006024 	beq	$r1,$r4,96(0x60) # 1c008264 <core_list_mergesort+0xd4>
1c008208:	02800c05 	addi.w	$r5,$r0,3(0x3)
1c00820c:	58004c25 	beq	$r1,$r5,76(0x4c) # 1c008258 <core_list_mergesort+0xc8>
1c008210:	02801006 	addi.w	$r6,$r0,4(0x4)
1c008214:	58003826 	beq	$r1,$r6,56(0x38) # 1c00824c <core_list_mergesort+0xbc>
1c008218:	02801407 	addi.w	$r7,$r0,5(0x5)
1c00821c:	58002427 	beq	$r1,$r7,36(0x24) # 1c008240 <core_list_mergesort+0xb0>
1c008220:	02801808 	addi.w	$r8,$r0,6(0x6)
1c008224:	58001028 	beq	$r1,$r8,16(0x10) # 1c008234 <core_list_mergesort+0xa4>
1c008228:	288003f7 	ld.w	$r23,$r31,0
1c00822c:	02800419 	addi.w	$r25,$r0,1(0x1)
1c008230:	5800b6e0 	beq	$r23,$r0,180(0xb4) # 1c0082e4 <core_list_mergesort+0x154>
1c008234:	288002f7 	ld.w	$r23,$r23,0
1c008238:	02800739 	addi.w	$r25,$r25,1(0x1)
1c00823c:	5800aae0 	beq	$r23,$r0,168(0xa8) # 1c0082e4 <core_list_mergesort+0x154>
1c008240:	288002f7 	ld.w	$r23,$r23,0
1c008244:	02800739 	addi.w	$r25,$r25,1(0x1)
1c008248:	58009ee0 	beq	$r23,$r0,156(0x9c) # 1c0082e4 <core_list_mergesort+0x154>
1c00824c:	288002f7 	ld.w	$r23,$r23,0
1c008250:	02800739 	addi.w	$r25,$r25,1(0x1)
1c008254:	580092e0 	beq	$r23,$r0,144(0x90) # 1c0082e4 <core_list_mergesort+0x154>
1c008258:	288002f7 	ld.w	$r23,$r23,0
1c00825c:	02800739 	addi.w	$r25,$r25,1(0x1)
1c008260:	580086e0 	beq	$r23,$r0,132(0x84) # 1c0082e4 <core_list_mergesort+0x154>
1c008264:	288002f7 	ld.w	$r23,$r23,0
1c008268:	02800739 	addi.w	$r25,$r25,1(0x1)
1c00826c:	58007ae0 	beq	$r23,$r0,120(0x78) # 1c0082e4 <core_list_mergesort+0x154>
1c008270:	288002f7 	ld.w	$r23,$r23,0
1c008274:	02800739 	addi.w	$r25,$r25,1(0x1)
1c008278:	58006ee0 	beq	$r23,$r0,108(0x6c) # 1c0082e4 <core_list_mergesort+0x154>
1c00827c:	58006b3d 	beq	$r25,$r29,104(0x68) # 1c0082e4 <core_list_mergesort+0x154>
1c008280:	288002f7 	ld.w	$r23,$r23,0
1c008284:	02800739 	addi.w	$r25,$r25,1(0x1)
1c008288:	00150329 	move	$r9,$r25
1c00828c:	58005ae0 	beq	$r23,$r0,88(0x58) # 1c0082e4 <core_list_mergesort+0x154>
1c008290:	288002f7 	ld.w	$r23,$r23,0
1c008294:	02800739 	addi.w	$r25,$r25,1(0x1)
1c008298:	58004ee0 	beq	$r23,$r0,76(0x4c) # 1c0082e4 <core_list_mergesort+0x154>
1c00829c:	288002f7 	ld.w	$r23,$r23,0
1c0082a0:	02800939 	addi.w	$r25,$r9,2(0x2)
1c0082a4:	580042e0 	beq	$r23,$r0,64(0x40) # 1c0082e4 <core_list_mergesort+0x154>
1c0082a8:	288002f7 	ld.w	$r23,$r23,0
1c0082ac:	02800d39 	addi.w	$r25,$r9,3(0x3)
1c0082b0:	580036e0 	beq	$r23,$r0,52(0x34) # 1c0082e4 <core_list_mergesort+0x154>
1c0082b4:	288002f7 	ld.w	$r23,$r23,0
1c0082b8:	02801139 	addi.w	$r25,$r9,4(0x4)
1c0082bc:	58002ae0 	beq	$r23,$r0,40(0x28) # 1c0082e4 <core_list_mergesort+0x154>
1c0082c0:	288002f7 	ld.w	$r23,$r23,0
1c0082c4:	02801539 	addi.w	$r25,$r9,5(0x5)
1c0082c8:	58001ee0 	beq	$r23,$r0,28(0x1c) # 1c0082e4 <core_list_mergesort+0x154>
1c0082cc:	288002f7 	ld.w	$r23,$r23,0
1c0082d0:	02801939 	addi.w	$r25,$r9,6(0x6)
1c0082d4:	580012e0 	beq	$r23,$r0,16(0x10) # 1c0082e4 <core_list_mergesort+0x154>
1c0082d8:	288002f7 	ld.w	$r23,$r23,0
1c0082dc:	02801d39 	addi.w	$r25,$r9,7(0x7)
1c0082e0:	5fff9ee0 	bne	$r23,$r0,-100(0x3ff9c) # 1c00827c <core_list_mergesort+0xec>
1c0082e4:	001503b6 	move	$r22,$r29
1c0082e8:	58003f20 	beq	$r25,$r0,60(0x3c) # 1c008324 <core_list_mergesort+0x194>
1c0082ec:	58005ec0 	beq	$r22,$r0,92(0x5c) # 1c008348 <core_list_mergesort+0x1b8>
1c0082f0:	58005ae0 	beq	$r23,$r0,88(0x58) # 1c008348 <core_list_mergesort+0x1b8>
1c0082f4:	288012e5 	ld.w	$r5,$r23,4(0x4)
1c0082f8:	288013e4 	ld.w	$r4,$r31,4(0x4)
1c0082fc:	00150386 	move	$r6,$r28
1c008300:	4c000361 	jirl	$r1,$r27,0
1c008304:	64004404 	bge	$r0,$r4,68(0x44) # 1c008348 <core_list_mergesort+0x1b8>
1c008308:	001502ed 	move	$r13,$r23
1c00830c:	288002f7 	ld.w	$r23,$r23,0
1c008310:	02bffed6 	addi.w	$r22,$r22,-1(0xfff)
1c008314:	58002b00 	beq	$r24,$r0,40(0x28) # 1c00833c <core_list_mergesort+0x1ac>
1c008318:	2980030d 	st.w	$r13,$r24,0
1c00831c:	001501b8 	move	$r24,$r13
1c008320:	5fffcf20 	bne	$r25,$r0,-52(0x3ffcc) # 1c0082ec <core_list_mergesort+0x15c>
1c008324:	580036c0 	beq	$r22,$r0,52(0x34) # 1c008358 <core_list_mergesort+0x1c8>
1c008328:	58003ae0 	beq	$r23,$r0,56(0x38) # 1c008360 <core_list_mergesort+0x1d0>
1c00832c:	001502ed 	move	$r13,$r23
1c008330:	02bffed6 	addi.w	$r22,$r22,-1(0xfff)
1c008334:	288002f7 	ld.w	$r23,$r23,0
1c008338:	5fffe300 	bne	$r24,$r0,-32(0x3ffe0) # 1c008318 <core_list_mergesort+0x188>
1c00833c:	001501ba 	move	$r26,$r13
1c008340:	001501b8 	move	$r24,$r13
1c008344:	53ffdfff 	b	-36(0xfffffdc) # 1c008320 <core_list_mergesort+0x190>
1c008348:	001503ed 	move	$r13,$r31
1c00834c:	02bfff39 	addi.w	$r25,$r25,-1(0xfff)
1c008350:	288003ff 	ld.w	$r31,$r31,0
1c008354:	53ffc3ff 	b	-64(0xfffffc0) # 1c008314 <core_list_mergesort+0x184>
1c008358:	001502ff 	move	$r31,$r23
1c00835c:	5ffe8ae0 	bne	$r23,$r0,-376(0x3fe88) # 1c0081e4 <core_list_mergesort+0x54>
1c008360:	29800300 	st.w	$r0,$r24,0
1c008364:	0280040a 	addi.w	$r10,$r0,1(0x1)
1c008368:	58001bca 	beq	$r30,$r10,24(0x18) # 1c008380 <core_list_mergesort+0x1f0>
1c00836c:	004087bd 	slli.w	$r29,$r29,0x1
1c008370:	5ffe6740 	bne	$r26,$r0,-412(0x3fe64) # 1c0081d4 <core_list_mergesort+0x44>
1c008374:	0015000b 	move	$r11,$r0
1c008378:	29800160 	st.w	$r0,$r11,0
1c00837c:	002a0000 	break	0x0
1c008380:	2880b061 	ld.w	$r1,$r3,44(0x2c)
1c008384:	2880a076 	ld.w	$r22,$r3,40(0x28)
1c008388:	00150344 	move	$r4,$r26
1c00838c:	28809077 	ld.w	$r23,$r3,36(0x24)
1c008390:	28808078 	ld.w	$r24,$r3,32(0x20)
1c008394:	28807079 	ld.w	$r25,$r3,28(0x1c)
1c008398:	2880607a 	ld.w	$r26,$r3,24(0x18)
1c00839c:	2880507b 	ld.w	$r27,$r3,20(0x14)
1c0083a0:	2880407c 	ld.w	$r28,$r3,16(0x10)
1c0083a4:	2880307d 	ld.w	$r29,$r3,12(0xc)
1c0083a8:	2880207e 	ld.w	$r30,$r3,8(0x8)
1c0083ac:	2880107f 	ld.w	$r31,$r3,4(0x4)
1c0083b0:	0280c063 	addi.w	$r3,$r3,48(0x30)
1c0083b4:	4c000020 	jirl	$r0,$r1,0
1c0083b8:	0015000c 	move	$r12,$r0
1c0083bc:	29800180 	st.w	$r0,$r12,0
1c0083c0:	002a0000 	break	0x0
1c0083c4:	03400000 	andi	$r0,$r0,0x0
1c0083c8:	03400000 	andi	$r0,$r0,0x0
1c0083cc:	03400000 	andi	$r0,$r0,0x0

1c0083d0 <portable_malloc>:
portable_malloc():
1c0083d0:	00150004 	move	$r4,$r0
1c0083d4:	4c000020 	jirl	$r0,$r1,0
1c0083d8:	03400000 	andi	$r0,$r0,0x0
1c0083dc:	03400000 	andi	$r0,$r0,0x0

1c0083e0 <portable_free>:
portable_free():
1c0083e0:	4c000020 	jirl	$r0,$r1,0
1c0083e4:	03400000 	andi	$r0,$r0,0x0
1c0083e8:	03400000 	andi	$r0,$r0,0x0
1c0083ec:	03400000 	andi	$r0,$r0,0x0

1c0083f0 <start_time>:
start_time():
1c0083f0:	1c000045 	pcaddu12i	$r5,2(0x2)
1c0083f4:	02b6d0a5 	addi.w	$r5,$r5,-588(0xdb4)
1c0083f8:	00150004 	move	$r4,$r0
1c0083fc:	50073c00 	b	1852(0x73c) # 1c008b38 <clock_gettime>

1c008400 <stop_time>:
stop_time():
1c008400:	1c000045 	pcaddu12i	$r5,2(0x2)
1c008404:	02b650a5 	addi.w	$r5,$r5,-620(0xd94)
1c008408:	00150004 	move	$r4,$r0
1c00840c:	50072c00 	b	1836(0x72c) # 1c008b38 <clock_gettime>

1c008410 <get_time>:
get_time():
1c008410:	1c00004e 	pcaddu12i	$r14,2(0x2)
1c008414:	02b611ce 	addi.w	$r14,$r14,-636(0xd84)
1c008418:	1c00004d 	pcaddu12i	$r13,2(0x2)
1c00841c:	02b631ad 	addi.w	$r13,$r13,-628(0xd8c)
1c008420:	288001a4 	ld.w	$r4,$r13,0
1c008424:	288001cc 	ld.w	$r12,$r14,0
1c008428:	028fa007 	addi.w	$r7,$r0,1000(0x3e8)
1c00842c:	288011c5 	ld.w	$r5,$r14,4(0x4)
1c008430:	00111186 	sub.w	$r6,$r12,$r4
1c008434:	001c1cc8 	mul.w	$r8,$r6,$r7
1c008438:	288011a9 	ld.w	$r9,$r13,4(0x4)
1c00843c:	14001e8b 	lu12i.w	$r11,244(0xf4)
1c008440:	0389016f 	ori	$r15,$r11,0x240
1c008444:	001124aa 	sub.w	$r10,$r5,$r9
1c008448:	00213d50 	div.wu	$r16,$r10,$r15
1c00844c:	5c0009e0 	bne	$r15,$r0,8(0x8) # 1c008454 <get_time+0x44>
1c008450:	002a0007 	break	0x7
1c008454:	00104104 	add.w	$r4,$r8,$r16
1c008458:	4c000020 	jirl	$r0,$r1,0
1c00845c:	03400000 	andi	$r0,$r0,0x0

1c008460 <time_in_secs>:
time_in_secs():
1c008460:	028fa00c 	addi.w	$r12,$r0,1000(0x3e8)
1c008464:	0015008d 	move	$r13,$r4
1c008468:	002131a4 	div.wu	$r4,$r13,$r12
1c00846c:	5c000980 	bne	$r12,$r0,8(0x8) # 1c008474 <time_in_secs+0x14>
1c008470:	002a0007 	break	0x7
1c008474:	4c000020 	jirl	$r0,$r1,0
1c008478:	03400000 	andi	$r0,$r0,0x0
1c00847c:	03400000 	andi	$r0,$r0,0x0

1c008480 <portable_init>:
portable_init():
1c008480:	0280040c 	addi.w	$r12,$r0,1(0x1)
1c008484:	2900008c 	st.b	$r12,$r4,0
1c008488:	4c000020 	jirl	$r0,$r1,0
1c00848c:	03400000 	andi	$r0,$r0,0x0

1c008490 <portable_fini>:
portable_fini():
1c008490:	29000080 	st.b	$r0,$r4,0
1c008494:	4c000020 	jirl	$r0,$r1,0
1c008498:	03400000 	andi	$r0,$r0,0x0
1c00849c:	03400000 	andi	$r0,$r0,0x0

1c0084a0 <printf>:
printf():
/home/wwt/work/perf_func/lib/printf.c:2
1c0084a0:	02be8063 	addi.w	$r3,$r3,-96(0xfa0)
1c0084a4:	2980b07a 	st.w	$r26,$r3,44(0x2c)
1c0084a8:	2980f061 	st.w	$r1,$r3,60(0x3c)
1c0084ac:	2980e077 	st.w	$r23,$r3,56(0x38)
1c0084b0:	2980d078 	st.w	$r24,$r3,52(0x34)
1c0084b4:	2980c079 	st.w	$r25,$r3,48(0x30)
1c0084b8:	2980a07b 	st.w	$r27,$r3,40(0x28)
1c0084bc:	2980907c 	st.w	$r28,$r3,36(0x24)
/home/wwt/work/perf_func/lib/printf.c:10
1c0084c0:	28000097 	ld.b	$r23,$r4,0
/home/wwt/work/perf_func/lib/printf.c:8
1c0084c4:	0281107a 	addi.w	$r26,$r3,68(0x44)
/home/wwt/work/perf_func/lib/printf.c:2
1c0084c8:	29811065 	st.w	$r5,$r3,68(0x44)
1c0084cc:	29812066 	st.w	$r6,$r3,72(0x48)
1c0084d0:	29813067 	st.w	$r7,$r3,76(0x4c)
1c0084d4:	29814068 	st.w	$r8,$r3,80(0x50)
1c0084d8:	29815069 	st.w	$r9,$r3,84(0x54)
1c0084dc:	2981606a 	st.w	$r10,$r3,88(0x58)
1c0084e0:	2981706b 	st.w	$r11,$r3,92(0x5c)
/home/wwt/work/perf_func/lib/printf.c:8
1c0084e4:	2980707a 	st.w	$r26,$r3,28(0x1c)
/home/wwt/work/perf_func/lib/printf.c:10
1c0084e8:	580086e0 	beq	$r23,$r0,132(0x84) # 1c00856c <printf+0xcc>
1c0084ec:	00150099 	move	$r25,$r4
1c0084f0:	00150018 	move	$r24,$r0
1c0084f4:	1c00003c 	pcaddu12i	$r28,1(0x1)
1c0084f8:	02b7639c 	addi.w	$r28,$r28,-552(0xdd8)
1c0084fc:	0280201b 	addi.w	$r27,$r0,8(0x8)
1c008500:	50001c00 	b	28(0x1c) # 1c00851c <printf+0x7c>
/home/wwt/work/perf_func/lib/printf.c:80
1c008504:	001502e4 	move	$r4,$r23
1c008508:	5401c400 	bl	452(0x1c4) # 1c0086cc <putchar>
/home/wwt/work/perf_func/lib/printf.c:10 (discriminator 2)
1c00850c:	02800718 	addi.w	$r24,$r24,1(0x1)
/home/wwt/work/perf_func/lib/printf.c:10
1c008510:	0010632c 	add.w	$r12,$r25,$r24
1c008514:	28000197 	ld.b	$r23,$r12,0
1c008518:	580056e0 	beq	$r23,$r0,84(0x54) # 1c00856c <printf+0xcc>
/home/wwt/work/perf_func/lib/printf.c:13
1c00851c:	0280940c 	addi.w	$r12,$r0,37(0x25)
1c008520:	58001aec 	beq	$r23,$r12,24(0x18) # 1c008538 <printf+0x98>
/home/wwt/work/perf_func/lib/printf.c:79
1c008524:	0280280c 	addi.w	$r12,$r0,10(0xa)
1c008528:	5fffdeec 	bne	$r23,$r12,-36(0x3ffdc) # 1c008504 <printf+0x64>
/home/wwt/work/perf_func/lib/printf.c:79 (discriminator 1)
1c00852c:	02803404 	addi.w	$r4,$r0,13(0xd)
1c008530:	54019c00 	bl	412(0x19c) # 1c0086cc <putchar>
1c008534:	53ffd3ff 	b	-48(0xfffffd0) # 1c008504 <printf+0x64>
1c008538:	0010632c 	add.w	$r12,$r25,$r24
1c00853c:	2800058d 	ld.b	$r13,$r12,1(0x1)
/home/wwt/work/perf_func/lib/printf.c:15
1c008540:	02800405 	addi.w	$r5,$r0,1(0x1)
/home/wwt/work/perf_func/lib/printf.c:17
1c008544:	02814c10 	addi.w	$r16,$r0,83(0x53)
/home/wwt/work/perf_func/lib/printf.c:68
1c008548:	0280280f 	addi.w	$r15,$r0,10(0xa)
/home/wwt/work/perf_func/lib/printf.c:17
1c00854c:	02bf6dac 	addi.w	$r12,$r13,-37(0xfdb)
1c008550:	2980306c 	st.w	$r12,$r3,12(0xc)
1c008554:	2a00306c 	ld.bu	$r12,$r3,12(0xc)
1c008558:	68016a0c 	bltu	$r16,$r12,360(0x168) # 1c0086c0 <printf+0x220>
1c00855c:	0040898c 	slli.w	$r12,$r12,0x2
1c008560:	0010338c 	add.w	$r12,$r28,$r12
1c008564:	2880018c 	ld.w	$r12,$r12,0
1c008568:	4c000180 	jirl	$r0,$r12,0
/home/wwt/work/perf_func/lib/printf.c:84
1c00856c:	2880f061 	ld.w	$r1,$r3,60(0x3c)
1c008570:	2880e077 	ld.w	$r23,$r3,56(0x38)
1c008574:	2880d078 	ld.w	$r24,$r3,52(0x34)
1c008578:	2880c079 	ld.w	$r25,$r3,48(0x30)
1c00857c:	2880b07a 	ld.w	$r26,$r3,44(0x2c)
1c008580:	2880a07b 	ld.w	$r27,$r3,40(0x28)
1c008584:	2880907c 	ld.w	$r28,$r3,36(0x24)
1c008588:	00150004 	move	$r4,$r0
1c00858c:	02818063 	addi.w	$r3,$r3,96(0x60)
1c008590:	4c000020 	jirl	$r0,$r1,0
/home/wwt/work/perf_func/lib/printf.c:65
1c008594:	0010632c 	add.w	$r12,$r25,$r24
1c008598:	2800098d 	ld.b	$r13,$r12,2(0x2)
1c00859c:	02800718 	addi.w	$r24,$r24,1(0x1)
/home/wwt/work/perf_func/lib/printf.c:67 (discriminator 1)
1c0085a0:	02bf3dac 	addi.w	$r12,$r13,-49(0xfcf)
/home/wwt/work/perf_func/lib/printf.c:67
1c0085a4:	2980306c 	st.w	$r12,$r3,12(0xc)
1c0085a8:	2a00306c 	ld.bu	$r12,$r3,12(0xc)
1c0085ac:	00150005 	move	$r5,$r0
1c0085b0:	6bff9f6c 	bltu	$r27,$r12,-100(0x3ff9c) # 1c00854c <printf+0xac>
/home/wwt/work/perf_func/lib/printf.c:68
1c0085b4:	001c3ca5 	mul.w	$r5,$r5,$r15
/home/wwt/work/perf_func/lib/printf.c:67
1c0085b8:	02800718 	addi.w	$r24,$r24,1(0x1)
1c0085bc:	0010632c 	add.w	$r12,$r25,$r24
/home/wwt/work/perf_func/lib/printf.c:68
1c0085c0:	02bf41ae 	addi.w	$r14,$r13,-48(0xfd0)
/home/wwt/work/perf_func/lib/printf.c:67
1c0085c4:	2800058d 	ld.b	$r13,$r12,1(0x1)
1c0085c8:	02bf3dac 	addi.w	$r12,$r13,-49(0xfcf)
1c0085cc:	2980306c 	st.w	$r12,$r3,12(0xc)
1c0085d0:	2a00306c 	ld.bu	$r12,$r3,12(0xc)
/home/wwt/work/perf_func/lib/printf.c:68
1c0085d4:	001015c5 	add.w	$r5,$r14,$r5
/home/wwt/work/perf_func/lib/printf.c:67
1c0085d8:	6fffdf6c 	bgeu	$r27,$r12,-36(0x3ffdc) # 1c0085b4 <printf+0x114>
1c0085dc:	53ff73ff 	b	-144(0xfffff70) # 1c00854c <printf+0xac>
/home/wwt/work/perf_func/lib/printf.c:50
1c0085e0:	28800344 	ld.w	$r4,$r26,0
1c0085e4:	00150007 	move	$r7,$r0
1c0085e8:	02800806 	addi.w	$r6,$r0,2(0x2)
1c0085ec:	5401cc00 	bl	460(0x1cc) # 1c0087b8 <printbase>
/home/wwt/work/perf_func/lib/printf.c:51
1c0085f0:	0280135a 	addi.w	$r26,$r26,4(0x4)
/home/wwt/work/perf_func/lib/printf.c:52
1c0085f4:	02800718 	addi.w	$r24,$r24,1(0x1)
/home/wwt/work/perf_func/lib/printf.c:53
1c0085f8:	53ff17ff 	b	-236(0xfffff14) # 1c00850c <printf+0x6c>
/home/wwt/work/perf_func/lib/printf.c:25
1c0085fc:	28800344 	ld.w	$r4,$r26,0
/home/wwt/work/perf_func/lib/printf.c:27
1c008600:	02800718 	addi.w	$r24,$r24,1(0x1)
/home/wwt/work/perf_func/lib/printf.c:26
1c008604:	0280135a 	addi.w	$r26,$r26,4(0x4)
/home/wwt/work/perf_func/lib/printf.c:25
1c008608:	5400c400 	bl	196(0xc4) # 1c0086cc <putchar>
/home/wwt/work/perf_func/lib/printf.c:28
1c00860c:	53ff03ff 	b	-256(0xfffff00) # 1c00850c <printf+0x6c>
/home/wwt/work/perf_func/lib/printf.c:35
1c008610:	28800344 	ld.w	$r4,$r26,0
1c008614:	02800407 	addi.w	$r7,$r0,1(0x1)
1c008618:	02802806 	addi.w	$r6,$r0,10(0xa)
1c00861c:	54019c00 	bl	412(0x19c) # 1c0087b8 <printbase>
/home/wwt/work/perf_func/lib/printf.c:36
1c008620:	0280135a 	addi.w	$r26,$r26,4(0x4)
/home/wwt/work/perf_func/lib/printf.c:37
1c008624:	02800718 	addi.w	$r24,$r24,1(0x1)
/home/wwt/work/perf_func/lib/printf.c:38
1c008628:	53fee7ff 	b	-284(0xffffee4) # 1c00850c <printf+0x6c>
/home/wwt/work/perf_func/lib/printf.c:40
1c00862c:	28800344 	ld.w	$r4,$r26,0
1c008630:	00150007 	move	$r7,$r0
1c008634:	02802806 	addi.w	$r6,$r0,10(0xa)
1c008638:	54018000 	bl	384(0x180) # 1c0087b8 <printbase>
/home/wwt/work/perf_func/lib/printf.c:41
1c00863c:	0280135a 	addi.w	$r26,$r26,4(0x4)
/home/wwt/work/perf_func/lib/printf.c:42
1c008640:	02800b18 	addi.w	$r24,$r24,2(0x2)
/home/wwt/work/perf_func/lib/printf.c:43
1c008644:	53fecbff 	b	-312(0xffffec8) # 1c00850c <printf+0x6c>
/home/wwt/work/perf_func/lib/printf.c:45
1c008648:	28800344 	ld.w	$r4,$r26,0
1c00864c:	00150007 	move	$r7,$r0
1c008650:	02802006 	addi.w	$r6,$r0,8(0x8)
1c008654:	54016400 	bl	356(0x164) # 1c0087b8 <printbase>
/home/wwt/work/perf_func/lib/printf.c:46
1c008658:	0280135a 	addi.w	$r26,$r26,4(0x4)
/home/wwt/work/perf_func/lib/printf.c:47
1c00865c:	02800718 	addi.w	$r24,$r24,1(0x1)
/home/wwt/work/perf_func/lib/printf.c:48
1c008660:	53feafff 	b	-340(0xffffeac) # 1c00850c <printf+0x6c>
/home/wwt/work/perf_func/lib/printf.c:56
1c008664:	28800344 	ld.w	$r4,$r26,0
1c008668:	00150007 	move	$r7,$r0
1c00866c:	02804006 	addi.w	$r6,$r0,16(0x10)
1c008670:	54014800 	bl	328(0x148) # 1c0087b8 <printbase>
/home/wwt/work/perf_func/lib/printf.c:57
1c008674:	0280135a 	addi.w	$r26,$r26,4(0x4)
/home/wwt/work/perf_func/lib/printf.c:58
1c008678:	02800718 	addi.w	$r24,$r24,1(0x1)
/home/wwt/work/perf_func/lib/printf.c:59
1c00867c:	53fe93ff 	b	-368(0xffffe90) # 1c00850c <printf+0x6c>
/home/wwt/work/perf_func/lib/printf.c:20
1c008680:	28800344 	ld.w	$r4,$r26,0
/home/wwt/work/perf_func/lib/printf.c:22
1c008684:	02800718 	addi.w	$r24,$r24,1(0x1)
/home/wwt/work/perf_func/lib/printf.c:21
1c008688:	0280135a 	addi.w	$r26,$r26,4(0x4)
/home/wwt/work/perf_func/lib/printf.c:20
1c00868c:	54008c00 	bl	140(0x8c) # 1c008718 <putstring>
/home/wwt/work/perf_func/lib/printf.c:23
1c008690:	53fe7fff 	b	-388(0xffffe7c) # 1c00850c <printf+0x6c>
/home/wwt/work/perf_func/lib/printf.c:30
1c008694:	28800344 	ld.w	$r4,$r26,0
1c008698:	00150007 	move	$r7,$r0
1c00869c:	02802806 	addi.w	$r6,$r0,10(0xa)
1c0086a0:	54011800 	bl	280(0x118) # 1c0087b8 <printbase>
/home/wwt/work/perf_func/lib/printf.c:31
1c0086a4:	0280135a 	addi.w	$r26,$r26,4(0x4)
/home/wwt/work/perf_func/lib/printf.c:32
1c0086a8:	02800718 	addi.w	$r24,$r24,1(0x1)
/home/wwt/work/perf_func/lib/printf.c:33
1c0086ac:	53fe63ff 	b	-416(0xffffe60) # 1c00850c <printf+0x6c>
/home/wwt/work/perf_func/lib/printf.c:61
1c0086b0:	02809404 	addi.w	$r4,$r0,37(0x25)
1c0086b4:	54001800 	bl	24(0x18) # 1c0086cc <putchar>
/home/wwt/work/perf_func/lib/printf.c:62
1c0086b8:	02800718 	addi.w	$r24,$r24,1(0x1)
/home/wwt/work/perf_func/lib/printf.c:63
1c0086bc:	53fe53ff 	b	-432(0xffffe50) # 1c00850c <printf+0x6c>
/home/wwt/work/perf_func/lib/printf.c:73
1c0086c0:	02809404 	addi.w	$r4,$r0,37(0x25)
1c0086c4:	54000800 	bl	8(0x8) # 1c0086cc <putchar>
/home/wwt/work/perf_func/lib/printf.c:74
1c0086c8:	53fe47ff 	b	-444(0xffffe44) # 1c00850c <printf+0x6c>

1c0086cc <putchar>:
putchar():
/home/wwt/work/perf_func/lib/putchar.c:2
1c0086cc:	02bfc063 	addi.w	$r3,$r3,-16(0xff0)
1c0086d0:	29803079 	st.w	$r25,$r3,12(0xc)
/home/wwt/work/perf_func/lib/putchar.c:9
1c0086d4:	157f5ff9 	lu12i.w	$r25,-263425(0xbfaff)
1c0086d8:	03bc4339 	ori	$r25,$r25,0xf10
1c0086dc:	29000324 	st.b	$r4,$r25,0
1c0086e0:	03400000 	andi	$r0,$r0,0x0
/home/wwt/work/perf_func/lib/putchar.c:5
1c0086e4:	00150004 	move	$r4,$r0
1c0086e8:	28803079 	ld.w	$r25,$r3,12(0xc)
1c0086ec:	02804063 	addi.w	$r3,$r3,16(0x10)
1c0086f0:	4c000020 	jirl	$r0,$r1,0

1c0086f4 <tgt_putchar>:
tgt_putchar():
/home/wwt/work/perf_func/lib/putchar.c:8
1c0086f4:	02bfc063 	addi.w	$r3,$r3,-16(0xff0)
1c0086f8:	29803079 	st.w	$r25,$r3,12(0xc)
/home/wwt/work/perf_func/lib/putchar.c:9
1c0086fc:	157f5ff9 	lu12i.w	$r25,-263425(0xbfaff)
1c008700:	03bc4339 	ori	$r25,$r25,0xf10
1c008704:	29000324 	st.b	$r4,$r25,0
1c008708:	03400000 	andi	$r0,$r0,0x0
/home/wwt/work/perf_func/lib/putchar.c:16
1c00870c:	28803079 	ld.w	$r25,$r3,12(0xc)
1c008710:	02804063 	addi.w	$r3,$r3,16(0x10)
1c008714:	4c000020 	jirl	$r0,$r1,0

1c008718 <putstring>:
putstring():
/home/wwt/work/perf_func/lib/puts.c:2
1c008718:	02bfc063 	addi.w	$r3,$r3,-16(0xff0)
1c00871c:	29803061 	st.w	$r1,$r3,12(0xc)
1c008720:	29802077 	st.w	$r23,$r3,8(0x8)
1c008724:	29801078 	st.w	$r24,$r3,4(0x4)
1c008728:	29800079 	st.w	$r25,$r3,0
/home/wwt/work/perf_func/lib/puts.c:4
1c00872c:	28000097 	ld.b	$r23,$r4,0
1c008730:	580042e0 	beq	$r23,$r0,64(0x40) # 1c008770 <putstring+0x58>
1c008734:	00150098 	move	$r24,$r4
/home/wwt/work/perf_func/lib/puts.c:6
1c008738:	02802819 	addi.w	$r25,$r0,10(0xa)
1c00873c:	50001400 	b	20(0x14) # 1c008750 <putstring+0x38>
/home/wwt/work/perf_func/lib/puts.c:7
1c008740:	001502e4 	move	$r4,$r23
1c008744:	57ff8bff 	bl	-120(0xfffff88) # 1c0086cc <putchar>
/home/wwt/work/perf_func/lib/puts.c:4
1c008748:	28000317 	ld.b	$r23,$r24,0
1c00874c:	580026e0 	beq	$r23,$r0,36(0x24) # 1c008770 <putstring+0x58>
/home/wwt/work/perf_func/lib/puts.c:8
1c008750:	02800718 	addi.w	$r24,$r24,1(0x1)
/home/wwt/work/perf_func/lib/puts.c:6
1c008754:	5fffeef9 	bne	$r23,$r25,-20(0x3ffec) # 1c008740 <putstring+0x28>
/home/wwt/work/perf_func/lib/puts.c:6 (discriminator 1)
1c008758:	02803404 	addi.w	$r4,$r0,13(0xd)
1c00875c:	57ff73ff 	bl	-144(0xfffff70) # 1c0086cc <putchar>
/home/wwt/work/perf_func/lib/puts.c:7
1c008760:	001502e4 	move	$r4,$r23
1c008764:	57ff6bff 	bl	-152(0xfffff68) # 1c0086cc <putchar>
/home/wwt/work/perf_func/lib/puts.c:4
1c008768:	28000317 	ld.b	$r23,$r24,0
1c00876c:	5fffe6e0 	bne	$r23,$r0,-28(0x3ffe4) # 1c008750 <putstring+0x38>
/home/wwt/work/perf_func/lib/puts.c:11
1c008770:	28803061 	ld.w	$r1,$r3,12(0xc)
1c008774:	28802077 	ld.w	$r23,$r3,8(0x8)
1c008778:	28801078 	ld.w	$r24,$r3,4(0x4)
1c00877c:	28800079 	ld.w	$r25,$r3,0
1c008780:	00150004 	move	$r4,$r0
1c008784:	02804063 	addi.w	$r3,$r3,16(0x10)
1c008788:	4c000020 	jirl	$r0,$r1,0

1c00878c <puts>:
puts():
/home/wwt/work/perf_func/lib/puts.c:15
1c00878c:	02bfc063 	addi.w	$r3,$r3,-16(0xff0)
1c008790:	29803061 	st.w	$r1,$r3,12(0xc)
/home/wwt/work/perf_func/lib/puts.c:16
1c008794:	57ff87ff 	bl	-124(0xfffff84) # 1c008718 <putstring>
/home/wwt/work/perf_func/lib/puts.c:17
1c008798:	02803404 	addi.w	$r4,$r0,13(0xd)
1c00879c:	57ff33ff 	bl	-208(0xfffff30) # 1c0086cc <putchar>
/home/wwt/work/perf_func/lib/puts.c:18
1c0087a0:	02802804 	addi.w	$r4,$r0,10(0xa)
1c0087a4:	57ff2bff 	bl	-216(0xfffff28) # 1c0086cc <putchar>
/home/wwt/work/perf_func/lib/puts.c:20
1c0087a8:	28803061 	ld.w	$r1,$r3,12(0xc)
1c0087ac:	00150004 	move	$r4,$r0
1c0087b0:	02804063 	addi.w	$r3,$r3,16(0x10)
1c0087b4:	4c000020 	jirl	$r0,$r1,0

1c0087b8 <printbase>:
printbase():
/home/wwt/work/perf_func/lib/printbase.c:2
1c0087b8:	02be8063 	addi.w	$r3,$r3,-96(0xfa0)
1c0087bc:	29816077 	st.w	$r23,$r3,88(0x58)
1c0087c0:	29817061 	st.w	$r1,$r3,92(0x5c)
1c0087c4:	29815078 	st.w	$r24,$r3,84(0x54)
1c0087c8:	29814079 	st.w	$r25,$r3,80(0x50)
1c0087cc:	00150097 	move	$r23,$r4
/home/wwt/work/perf_func/lib/printbase.c:7
1c0087d0:	580008e0 	beq	$r7,$r0,8(0x8) # 1c0087d8 <printbase+0x20>
/home/wwt/work/perf_func/lib/printbase.c:7 (discriminator 1)
1c0087d4:	6000a080 	blt	$r4,$r0,160(0xa0) # 1c008874 <printbase+0xbc>
/home/wwt/work/perf_func/lib/printbase.c:14
1c0087d8:	5800bee0 	beq	$r23,$r0,188(0xbc) # 1c008894 <printbase+0xdc>
1c0087dc:	0280406c 	addi.w	$r12,$r3,16(0x10)
1c0087e0:	0280040e 	addi.w	$r14,$r0,1(0x1)
1c0087e4:	001131ce 	sub.w	$r14,$r14,$r12
1c0087e8:	50000800 	b	8(0x8) # 1c0087f0 <printbase+0x38>
/home/wwt/work/perf_func/lib/printbase.c:17
1c0087ec:	001501b7 	move	$r23,$r13
/home/wwt/work/perf_func/lib/printbase.c:16
1c0087f0:	00219aed 	mod.wu	$r13,$r23,$r6
1c0087f4:	5c0008c0 	bne	$r6,$r0,8(0x8) # 1c0087fc <printbase+0x44>
1c0087f8:	002a0007 	break	0x7
1c0087fc:	2900018d 	st.b	$r13,$r12,0
/home/wwt/work/perf_func/lib/printbase.c:17
1c008800:	001031d8 	add.w	$r24,$r14,$r12
1c008804:	00211aed 	div.wu	$r13,$r23,$r6
1c008808:	5c0008c0 	bne	$r6,$r0,8(0x8) # 1c008810 <printbase+0x58>
1c00880c:	002a0007 	break	0x7
1c008810:	0280058c 	addi.w	$r12,$r12,1(0x1)
/home/wwt/work/perf_func/lib/printbase.c:14
1c008814:	6fffdae6 	bgeu	$r23,$r6,-40(0x3ffd8) # 1c0087ec <printbase+0x34>
/home/wwt/work/perf_func/lib/printbase.c:22
1c008818:	600054b8 	blt	$r5,$r24,84(0x54) # 1c00886c <printbase+0xb4>
1c00881c:	001500b7 	move	$r23,$r5
/home/wwt/work/perf_func/lib/printbase.c:25
1c008820:	02802419 	addi.w	$r25,$r0,9(0x9)
/home/wwt/work/perf_func/lib/printbase.c:24
1c008824:	0280406c 	addi.w	$r12,$r3,16(0x10)
1c008828:	00105d8c 	add.w	$r12,$r12,$r23
1c00882c:	0280c004 	addi.w	$r4,$r0,48(0x30)
1c008830:	60001717 	blt	$r24,$r23,20(0x14) # 1c008844 <printbase+0x8c>
1c008834:	283ffd8c 	ld.b	$r12,$r12,-1(0xfff)
/home/wwt/work/perf_func/lib/printbase.c:25 (discriminator 1)
1c008838:	02815d84 	addi.w	$r4,$r12,87(0x57)
1c00883c:	60000b2c 	blt	$r25,$r12,8(0x8) # 1c008844 <printbase+0x8c>
1c008840:	0280c184 	addi.w	$r4,$r12,48(0x30)
1c008844:	02bffef7 	addi.w	$r23,$r23,-1(0xfff)
1c008848:	57fe87ff 	bl	-380(0xffffe84) # 1c0086cc <putchar>
/home/wwt/work/perf_func/lib/printbase.c:22 (discriminator 4)
1c00884c:	5fffdae0 	bne	$r23,$r0,-40(0x3ffd8) # 1c008824 <printbase+0x6c>
/home/wwt/work/perf_func/lib/printbase.c:28
1c008850:	28817061 	ld.w	$r1,$r3,92(0x5c)
1c008854:	28816077 	ld.w	$r23,$r3,88(0x58)
1c008858:	28815078 	ld.w	$r24,$r3,84(0x54)
1c00885c:	28814079 	ld.w	$r25,$r3,80(0x50)
1c008860:	00150004 	move	$r4,$r0
1c008864:	02818063 	addi.w	$r3,$r3,96(0x60)
1c008868:	4c000020 	jirl	$r0,$r1,0
/home/wwt/work/perf_func/lib/printbase.c:22
1c00886c:	00150305 	move	$r5,$r24
1c008870:	53ffafff 	b	-84(0xfffffac) # 1c00881c <printbase+0x64>
/home/wwt/work/perf_func/lib/printbase.c:10
1c008874:	0280b404 	addi.w	$r4,$r0,45(0x2d)
1c008878:	29803066 	st.w	$r6,$r3,12(0xc)
1c00887c:	29802065 	st.w	$r5,$r3,8(0x8)
1c008880:	57fe4fff 	bl	-436(0xffffe4c) # 1c0086cc <putchar>
/home/wwt/work/perf_func/lib/printbase.c:9
1c008884:	00115c17 	sub.w	$r23,$r0,$r23
/home/wwt/work/perf_func/lib/printbase.c:10
1c008888:	28802065 	ld.w	$r5,$r3,8(0x8)
1c00888c:	28803066 	ld.w	$r6,$r3,12(0xc)
1c008890:	53ff4fff 	b	-180(0xfffff4c) # 1c0087dc <printbase+0x24>
/home/wwt/work/perf_func/lib/printbase.c:22
1c008894:	67ffbc05 	bge	$r0,$r5,-68(0x3ffbc) # 1c008850 <printbase+0x98>
1c008898:	00150018 	move	$r24,$r0
1c00889c:	53ff83ff 	b	-128(0xfffff80) # 1c00881c <printbase+0x64>

1c0088a0 <strlen>:
strlen():
/home/wwt/work/perf_func/lib/string.c:14
1c0088a0:	2800008c 	ld.b	$r12,$r4,0
1c0088a4:	58002180 	beq	$r12,$r0,32(0x20) # 1c0088c4 <strlen+0x24>
/home/wwt/work/perf_func/lib/string.c:13
1c0088a8:	0015000c 	move	$r12,$r0
/home/wwt/work/perf_func/lib/string.c:15
1c0088ac:	0280058c 	addi.w	$r12,$r12,1(0x1)
/home/wwt/work/perf_func/lib/string.c:14
1c0088b0:	0010308d 	add.w	$r13,$r4,$r12
1c0088b4:	280001ad 	ld.b	$r13,$r13,0
1c0088b8:	5ffff5a0 	bne	$r13,$r0,-12(0x3fff4) # 1c0088ac <strlen+0xc>
/home/wwt/work/perf_func/lib/string.c:18
1c0088bc:	00150184 	move	$r4,$r12
1c0088c0:	4c000020 	jirl	$r0,$r1,0
/home/wwt/work/perf_func/lib/string.c:13
1c0088c4:	0015000c 	move	$r12,$r0
/home/wwt/work/perf_func/lib/string.c:18
1c0088c8:	00150184 	move	$r4,$r12
1c0088cc:	4c000020 	jirl	$r0,$r1,0

1c0088d0 <strnlen>:
strnlen():
/home/wwt/work/perf_func/lib/string.c:36
1c0088d0:	580030a0 	beq	$r5,$r0,48(0x30) # 1c008900 <strnlen+0x30>
1c0088d4:	2800008c 	ld.b	$r12,$r4,0
1c0088d8:	58002980 	beq	$r12,$r0,40(0x28) # 1c008900 <strnlen+0x30>
/home/wwt/work/perf_func/lib/string.c:35
1c0088dc:	0015000c 	move	$r12,$r0
1c0088e0:	50000c00 	b	12(0xc) # 1c0088ec <strnlen+0x1c>
/home/wwt/work/perf_func/lib/string.c:36 (discriminator 1)
1c0088e4:	280001ad 	ld.b	$r13,$r13,0
1c0088e8:	580011a0 	beq	$r13,$r0,16(0x10) # 1c0088f8 <strnlen+0x28>
/home/wwt/work/perf_func/lib/string.c:37
1c0088ec:	0280058c 	addi.w	$r12,$r12,1(0x1)
/home/wwt/work/perf_func/lib/string.c:36
1c0088f0:	0010308d 	add.w	$r13,$r4,$r12
1c0088f4:	5ffff0ac 	bne	$r5,$r12,-16(0x3fff0) # 1c0088e4 <strnlen+0x14>
/home/wwt/work/perf_func/lib/string.c:40
1c0088f8:	00150184 	move	$r4,$r12
1c0088fc:	4c000020 	jirl	$r0,$r1,0
/home/wwt/work/perf_func/lib/string.c:35
1c008900:	0015000c 	move	$r12,$r0
/home/wwt/work/perf_func/lib/string.c:40
1c008904:	00150184 	move	$r4,$r12
1c008908:	4c000020 	jirl	$r0,$r1,0

1c00890c <strcpy>:
strcpy():
/home/wwt/work/perf_func/lib/string.c:59
1c00890c:	0015008c 	move	$r12,$r4
/home/wwt/work/perf_func/lib/string.c:60
1c008910:	028004a5 	addi.w	$r5,$r5,1(0x1)
1c008914:	283ffcad 	ld.b	$r13,$r5,-1(0xfff)
1c008918:	0280058c 	addi.w	$r12,$r12,1(0x1)
1c00891c:	293ffd8d 	st.b	$r13,$r12,-1(0xfff)
1c008920:	5ffff1a0 	bne	$r13,$r0,-16(0x3fff0) # 1c008910 <strcpy+0x4>
/home/wwt/work/perf_func/lib/string.c:64
1c008924:	4c000020 	jirl	$r0,$r1,0

1c008928 <strncpy>:
strncpy():
/home/wwt/work/perf_func/lib/string.c:79
1c008928:	580024c0 	beq	$r6,$r0,36(0x24) # 1c00894c <strncpy+0x24>
1c00892c:	00101886 	add.w	$r6,$r4,$r6
/home/wwt/work/perf_func/lib/string.c:78
1c008930:	0015008d 	move	$r13,$r4
/home/wwt/work/perf_func/lib/string.c:80
1c008934:	280000ac 	ld.b	$r12,$r5,0
/home/wwt/work/perf_func/lib/string.c:83
1c008938:	028005ad 	addi.w	$r13,$r13,1(0x1)
/home/wwt/work/perf_func/lib/string.c:80
1c00893c:	293ffdac 	st.b	$r12,$r13,-1(0xfff)
/home/wwt/work/perf_func/lib/string.c:81
1c008940:	0012b00c 	sltu	$r12,$r0,$r12
1c008944:	001030a5 	add.w	$r5,$r5,$r12
/home/wwt/work/perf_func/lib/string.c:79
1c008948:	5fffeda6 	bne	$r13,$r6,-20(0x3ffec) # 1c008934 <strncpy+0xc>
/home/wwt/work/perf_func/lib/string.c:86
1c00894c:	4c000020 	jirl	$r0,$r1,0

1c008950 <strncmp>:
strncmp():
/home/wwt/work/perf_func/lib/string.c:101
1c008950:	58003cc0 	beq	$r6,$r0,60(0x3c) # 1c00898c <strncmp+0x3c>
1c008954:	2800008d 	ld.b	$r13,$r4,0
1c008958:	280000ae 	ld.b	$r14,$r5,0
1c00895c:	58003da0 	beq	$r13,$r0,60(0x3c) # 1c008998 <strncmp+0x48>
1c008960:	5c0039ae 	bne	$r13,$r14,56(0x38) # 1c008998 <strncmp+0x48>
1c008964:	001018a6 	add.w	$r6,$r5,$r6
1c008968:	50001800 	b	24(0x18) # 1c008980 <strncmp+0x30>
/home/wwt/work/perf_func/lib/string.c:101 (discriminator 1)
1c00896c:	2800008d 	ld.b	$r13,$r4,0
/home/wwt/work/perf_func/lib/string.c:101
1c008970:	580025a0 	beq	$r13,$r0,36(0x24) # 1c008994 <strncmp+0x44>
/home/wwt/work/perf_func/lib/string.c:101 (discriminator 2)
1c008974:	2800018e 	ld.b	$r14,$r12,0
1c008978:	00150185 	move	$r5,$r12
/home/wwt/work/perf_func/lib/string.c:101
1c00897c:	5c001dae 	bne	$r13,$r14,28(0x1c) # 1c008998 <strncmp+0x48>
/home/wwt/work/perf_func/lib/string.c:102
1c008980:	028004ac 	addi.w	$r12,$r5,1(0x1)
1c008984:	02800484 	addi.w	$r4,$r4,1(0x1)
/home/wwt/work/perf_func/lib/string.c:101
1c008988:	5fffe586 	bne	$r12,$r6,-28(0x3ffe4) # 1c00896c <strncmp+0x1c>
/home/wwt/work/perf_func/lib/string.c:104
1c00898c:	00150004 	move	$r4,$r0
/home/wwt/work/perf_func/lib/string.c:105
1c008990:	4c000020 	jirl	$r0,$r1,0
1c008994:	280004ae 	ld.b	$r14,$r5,1(0x1)
/home/wwt/work/perf_func/lib/string.c:100
1c008998:	02bfc063 	addi.w	$r3,$r3,-16(0xff0)
/home/wwt/work/perf_func/lib/string.c:104
1c00899c:	2980306d 	st.w	$r13,$r3,12(0xc)
1c0089a0:	2a00306d 	ld.bu	$r13,$r3,12(0xc)
1c0089a4:	2980306e 	st.w	$r14,$r3,12(0xc)
1c0089a8:	2a003064 	ld.bu	$r4,$r3,12(0xc)
/home/wwt/work/perf_func/lib/string.c:105
1c0089ac:	02804063 	addi.w	$r3,$r3,16(0x10)
/home/wwt/work/perf_func/lib/string.c:104
1c0089b0:	001111a4 	sub.w	$r4,$r13,$r4
/home/wwt/work/perf_func/lib/string.c:105
1c0089b4:	4c000020 	jirl	$r0,$r1,0

1c0089b8 <strchr>:
strchr():
/home/wwt/work/perf_func/lib/string.c:117
1c0089b8:	2800008c 	ld.b	$r12,$r4,0
1c0089bc:	58001d80 	beq	$r12,$r0,28(0x1c) # 1c0089d8 <strchr+0x20>
/home/wwt/work/perf_func/lib/string.c:118
1c0089c0:	5c000d85 	bne	$r12,$r5,12(0xc) # 1c0089cc <strchr+0x14>
1c0089c4:	50001c00 	b	28(0x1c) # 1c0089e0 <strchr+0x28>
1c0089c8:	58001585 	beq	$r12,$r5,20(0x14) # 1c0089dc <strchr+0x24>
/home/wwt/work/perf_func/lib/string.c:121
1c0089cc:	02800484 	addi.w	$r4,$r4,1(0x1)
/home/wwt/work/perf_func/lib/string.c:117
1c0089d0:	2800008c 	ld.b	$r12,$r4,0
1c0089d4:	5ffff580 	bne	$r12,$r0,-12(0x3fff4) # 1c0089c8 <strchr+0x10>
/home/wwt/work/perf_func/lib/string.c:123
1c0089d8:	00150004 	move	$r4,$r0
/home/wwt/work/perf_func/lib/string.c:124
1c0089dc:	4c000020 	jirl	$r0,$r1,0
1c0089e0:	4c000020 	jirl	$r0,$r1,0

1c0089e4 <strfind>:
strfind():
/home/wwt/work/perf_func/lib/string.c:137
1c0089e4:	2800008c 	ld.b	$r12,$r4,0
1c0089e8:	58001d80 	beq	$r12,$r0,28(0x1c) # 1c008a04 <strfind+0x20>
/home/wwt/work/perf_func/lib/string.c:138
1c0089ec:	5c000cac 	bne	$r5,$r12,12(0xc) # 1c0089f8 <strfind+0x14>
1c0089f0:	50001800 	b	24(0x18) # 1c008a08 <strfind+0x24>
1c0089f4:	58001185 	beq	$r12,$r5,16(0x10) # 1c008a04 <strfind+0x20>
/home/wwt/work/perf_func/lib/string.c:141
1c0089f8:	02800484 	addi.w	$r4,$r4,1(0x1)
/home/wwt/work/perf_func/lib/string.c:137
1c0089fc:	2800008c 	ld.b	$r12,$r4,0
1c008a00:	5ffff580 	bne	$r12,$r0,-12(0x3fff4) # 1c0089f4 <strfind+0x10>
/home/wwt/work/perf_func/lib/string.c:144
1c008a04:	4c000020 	jirl	$r0,$r1,0
1c008a08:	4c000020 	jirl	$r0,$r1,0

1c008a0c <memset>:
memset():
/home/wwt/work/perf_func/lib/string.c:251
1c008a0c:	580018c0 	beq	$r6,$r0,24(0x18) # 1c008a24 <memset+0x18>
1c008a10:	00101886 	add.w	$r6,$r4,$r6
/home/wwt/work/perf_func/lib/string.c:250
1c008a14:	0015008c 	move	$r12,$r4
/home/wwt/work/perf_func/lib/string.c:252
1c008a18:	0280058c 	addi.w	$r12,$r12,1(0x1)
1c008a1c:	293ffd85 	st.b	$r5,$r12,-1(0xfff)
/home/wwt/work/perf_func/lib/string.c:251
1c008a20:	5ffff986 	bne	$r12,$r6,-8(0x3fff8) # 1c008a18 <memset+0xc>
/home/wwt/work/perf_func/lib/string.c:256
1c008a24:	4c000020 	jirl	$r0,$r1,0

1c008a28 <memcpy>:
memcpy():
/home/wwt/work/perf_func/lib/string.c:279
1c008a28:	580020c0 	beq	$r6,$r0,32(0x20) # 1c008a48 <memcpy+0x20>
1c008a2c:	001018a6 	add.w	$r6,$r5,$r6
/home/wwt/work/perf_func/lib/string.c:278
1c008a30:	0015008c 	move	$r12,$r4
/home/wwt/work/perf_func/lib/string.c:280
1c008a34:	028004a5 	addi.w	$r5,$r5,1(0x1)
1c008a38:	283ffcad 	ld.b	$r13,$r5,-1(0xfff)
1c008a3c:	0280058c 	addi.w	$r12,$r12,1(0x1)
1c008a40:	293ffd8d 	st.b	$r13,$r12,-1(0xfff)
/home/wwt/work/perf_func/lib/string.c:279
1c008a44:	5ffff0a6 	bne	$r5,$r6,-16(0x3fff0) # 1c008a34 <memcpy+0xc>
/home/wwt/work/perf_func/lib/string.c:284
1c008a48:	4c000020 	jirl	$r0,$r1,0

1c008a4c <memmove>:
memmove():
/home/wwt/work/perf_func/lib/string.c:302
1c008a4c:	6c002ca4 	bgeu	$r5,$r4,44(0x2c) # 1c008a78 <memmove+0x2c>
/home/wwt/work/perf_func/lib/string.c:302 (discriminator 1)
1c008a50:	001018ac 	add.w	$r12,$r5,$r6
/home/wwt/work/perf_func/lib/string.c:302
1c008a54:	6c00248c 	bgeu	$r4,$r12,36(0x24) # 1c008a78 <memmove+0x2c>
/home/wwt/work/perf_func/lib/string.c:303
1c008a58:	0010188d 	add.w	$r13,$r4,$r6
/home/wwt/work/perf_func/lib/string.c:304
1c008a5c:	58003cc0 	beq	$r6,$r0,60(0x3c) # 1c008a98 <memmove+0x4c>
/home/wwt/work/perf_func/lib/string.c:305
1c008a60:	02bffd8c 	addi.w	$r12,$r12,-1(0xfff)
1c008a64:	2800018e 	ld.b	$r14,$r12,0
1c008a68:	02bffdad 	addi.w	$r13,$r13,-1(0xfff)
1c008a6c:	290001ae 	st.b	$r14,$r13,0
/home/wwt/work/perf_func/lib/string.c:304
1c008a70:	5ffff0ac 	bne	$r5,$r12,-16(0x3fff0) # 1c008a60 <memmove+0x14>
1c008a74:	4c000020 	jirl	$r0,$r1,0
1c008a78:	001018ae 	add.w	$r14,$r5,$r6
/home/wwt/work/perf_func/lib/string.c:308
1c008a7c:	0015008c 	move	$r12,$r4
1c008a80:	58001cc0 	beq	$r6,$r0,28(0x1c) # 1c008a9c <memmove+0x50>
/home/wwt/work/perf_func/lib/string.c:309
1c008a84:	028004a5 	addi.w	$r5,$r5,1(0x1)
1c008a88:	283ffcad 	ld.b	$r13,$r5,-1(0xfff)
1c008a8c:	0280058c 	addi.w	$r12,$r12,1(0x1)
1c008a90:	293ffd8d 	st.b	$r13,$r12,-1(0xfff)
/home/wwt/work/perf_func/lib/string.c:308
1c008a94:	5ffff0ae 	bne	$r5,$r14,-16(0x3fff0) # 1c008a84 <memmove+0x38>
/home/wwt/work/perf_func/lib/string.c:314
1c008a98:	4c000020 	jirl	$r0,$r1,0
1c008a9c:	4c000020 	jirl	$r0,$r1,0

1c008aa0 <memcmp>:
memcmp():
/home/wwt/work/perf_func/lib/string.c:334
1c008aa0:	580030c0 	beq	$r6,$r0,48(0x30) # 1c008ad0 <memcmp+0x30>
/home/wwt/work/perf_func/lib/string.c:335
1c008aa4:	2800008c 	ld.b	$r12,$r4,0
1c008aa8:	280000ad 	ld.b	$r13,$r5,0
1c008aac:	00101886 	add.w	$r6,$r4,$r6
1c008ab0:	580015ac 	beq	$r13,$r12,20(0x14) # 1c008ac4 <memcmp+0x24>
1c008ab4:	50002400 	b	36(0x24) # 1c008ad8 <memcmp+0x38>
1c008ab8:	2800008c 	ld.b	$r12,$r4,0
1c008abc:	280000ad 	ld.b	$r13,$r5,0
1c008ac0:	5c00198d 	bne	$r12,$r13,24(0x18) # 1c008ad8 <memcmp+0x38>
/home/wwt/work/perf_func/lib/string.c:338
1c008ac4:	02800484 	addi.w	$r4,$r4,1(0x1)
1c008ac8:	028004a5 	addi.w	$r5,$r5,1(0x1)
/home/wwt/work/perf_func/lib/string.c:334
1c008acc:	5fffec86 	bne	$r4,$r6,-20(0x3ffec) # 1c008ab8 <memcmp+0x18>
/home/wwt/work/perf_func/lib/string.c:340
1c008ad0:	00150004 	move	$r4,$r0
/home/wwt/work/perf_func/lib/string.c:341
1c008ad4:	4c000020 	jirl	$r0,$r1,0
/home/wwt/work/perf_func/lib/string.c:331
1c008ad8:	02bfc063 	addi.w	$r3,$r3,-16(0xff0)
/home/wwt/work/perf_func/lib/string.c:336
1c008adc:	2980306c 	st.w	$r12,$r3,12(0xc)
1c008ae0:	2a00306c 	ld.bu	$r12,$r3,12(0xc)
1c008ae4:	2980306d 	st.w	$r13,$r3,12(0xc)
1c008ae8:	2a003064 	ld.bu	$r4,$r3,12(0xc)
/home/wwt/work/perf_func/lib/string.c:341
1c008aec:	02804063 	addi.w	$r3,$r3,16(0x10)
/home/wwt/work/perf_func/lib/string.c:336
1c008af0:	00111184 	sub.w	$r4,$r12,$r4
/home/wwt/work/perf_func/lib/string.c:341
1c008af4:	4c000020 	jirl	$r0,$r1,0

1c008af8 <bzero>:
memset():
/home/wwt/work/perf_func/lib/string.c:251
1c008af8:	580014a0 	beq	$r5,$r0,20(0x14) # 1c008b0c <bzero+0x14>
1c008afc:	00101485 	add.w	$r5,$r4,$r5
/home/wwt/work/perf_func/lib/string.c:252
1c008b00:	02800484 	addi.w	$r4,$r4,1(0x1)
1c008b04:	293ffc80 	st.b	$r0,$r4,-1(0xfff)
/home/wwt/work/perf_func/lib/string.c:251
1c008b08:	5ffff885 	bne	$r4,$r5,-8(0x3fff8) # 1c008b00 <bzero+0x8>
bzero():
/home/wwt/work/perf_func/lib/string.c:345
1c008b0c:	4c000020 	jirl	$r0,$r1,0

1c008b10 <get_count>:
get_count():
/home/wwt/work/perf_func/lib/time.c:18
1c008b10:	02bfc063 	addi.w	$r3,$r3,-16(0xff0)
1c008b14:	29803079 	st.w	$r25,$r3,12(0xc)
/home/wwt/work/perf_func/lib/time.c:7
1c008b18:	157f5fd9 	lu12i.w	$r25,-263426(0xbfafe)
1c008b1c:	28800324 	ld.w	$r4,$r25,0
/home/wwt/work/perf_func/lib/time.c:20
1c008b20:	28803079 	ld.w	$r25,$r3,12(0xc)
1c008b24:	02804063 	addi.w	$r3,$r3,16(0x10)
1c008b28:	4c000020 	jirl	$r0,$r1,0

1c008b2c <_get_count>:
_get_count():
/home/wwt/work/perf_func/lib/time.c:20
1c008b2c:	53ffe7ff 	b	-28(0xfffffe4) # 1c008b10 <get_count>

1c008b30 <get_count_my>:
get_count_my():
/home/wwt/work/perf_func/lib/time.c:25
1c008b30:	00006004 	rdtimel.w	$r4,$r0
/home/wwt/work/perf_func/lib/time.c:30
1c008b34:	4c000020 	jirl	$r0,$r1,0

1c008b38 <clock_gettime>:
clock_gettime():
/home/wwt/work/perf_func/lib/time.c:33
1c008b38:	02bfc063 	addi.w	$r3,$r3,-16(0xff0)
1c008b3c:	29803079 	st.w	$r25,$r3,12(0xc)
_get_count():
/home/wwt/work/perf_func/lib/time.c:7
1c008b40:	157f5fd9 	lu12i.w	$r25,-263426(0xbfafe)
1c008b44:	2880032f 	ld.w	$r15,$r25,0
clock_gettime():
/home/wwt/work/perf_func/lib/time.c:36
1c008b48:	0280280d 	addi.w	$r13,$r0,10(0xa)
1c008b4c:	001c35ed 	mul.w	$r13,$r15,$r13
/home/wwt/work/perf_func/lib/time.c:37
1c008b50:	02819010 	addi.w	$r16,$r0,100(0x64)
/home/wwt/work/perf_func/lib/time.c:36
1c008b54:	028fa00c 	addi.w	$r12,$r0,1000(0x3e8)
/home/wwt/work/perf_func/lib/time.c:37
1c008b58:	002141ee 	div.wu	$r14,$r15,$r16
1c008b5c:	5c000a00 	bne	$r16,$r0,8(0x8) # 1c008b64 <clock_gettime+0x2c>
1c008b60:	002a0007 	break	0x7
1c008b64:	0021b1d1 	mod.wu	$r17,$r14,$r12
1c008b68:	5c000980 	bne	$r12,$r0,8(0x8) # 1c008b70 <clock_gettime+0x38>
1c008b6c:	002a0007 	break	0x7
/home/wwt/work/perf_func/lib/time.c:38
1c008b70:	1400030e 	lu12i.w	$r14,24(0x18)
1c008b74:	039a81ce 	ori	$r14,$r14,0x6a0
1c008b78:	002139f0 	div.wu	$r16,$r15,$r14
1c008b7c:	5c0009c0 	bne	$r14,$r0,8(0x8) # 1c008b84 <clock_gettime+0x4c>
1c008b80:	002a0007 	break	0x7
1c008b84:	0021b20e 	mod.wu	$r14,$r16,$r12
1c008b88:	5c000980 	bne	$r12,$r0,8(0x8) # 1c008b90 <clock_gettime+0x58>
1c008b8c:	002a0007 	break	0x7
/home/wwt/work/perf_func/lib/time.c:37
1c008b90:	298020b1 	st.w	$r17,$r5,8(0x8)
/home/wwt/work/perf_func/lib/time.c:38
1c008b94:	298030ae 	st.w	$r14,$r5,12(0xc)
/home/wwt/work/perf_func/lib/time.c:39
1c008b98:	298000a0 	st.w	$r0,$r5,0
/home/wwt/work/perf_func/lib/time.c:42
1c008b9c:	28803079 	ld.w	$r25,$r3,12(0xc)
1c008ba0:	00150004 	move	$r4,$r0
/home/wwt/work/perf_func/lib/time.c:36
1c008ba4:	0021b1ae 	mod.wu	$r14,$r13,$r12
1c008ba8:	5c000980 	bne	$r12,$r0,8(0x8) # 1c008bb0 <clock_gettime+0x78>
1c008bac:	002a0007 	break	0x7
1c008bb0:	298010ae 	st.w	$r14,$r5,4(0x4)
/home/wwt/work/perf_func/lib/time.c:42
1c008bb4:	02804063 	addi.w	$r3,$r3,16(0x10)
1c008bb8:	4c000020 	jirl	$r0,$r1,0

1c008bbc <get_clock>:
get_clock():
/home/wwt/work/perf_func/lib/time.c:42
1c008bbc:	53ff57ff 	b	-172(0xfffff54) # 1c008b10 <get_count>

1c008bc0 <get_ns>:
get_ns():
/home/wwt/work/perf_func/lib/time.c:52
1c008bc0:	02bfc063 	addi.w	$r3,$r3,-16(0xff0)
1c008bc4:	29803079 	st.w	$r25,$r3,12(0xc)
_get_count():
/home/wwt/work/perf_func/lib/time.c:7
1c008bc8:	157f5fd9 	lu12i.w	$r25,-263426(0xbfafe)
1c008bcc:	28800324 	ld.w	$r4,$r25,0
get_ns():
/home/wwt/work/perf_func/lib/time.c:55
1c008bd0:	0280280c 	addi.w	$r12,$r0,10(0xa)
/home/wwt/work/perf_func/lib/time.c:57
1c008bd4:	28803079 	ld.w	$r25,$r3,12(0xc)
1c008bd8:	001c3084 	mul.w	$r4,$r4,$r12
1c008bdc:	02804063 	addi.w	$r3,$r3,16(0x10)
1c008be0:	4c000020 	jirl	$r0,$r1,0

1c008be4 <get_us>:
get_us():
/home/wwt/work/perf_func/lib/time.c:61
1c008be4:	02bfc063 	addi.w	$r3,$r3,-16(0xff0)
1c008be8:	29803079 	st.w	$r25,$r3,12(0xc)
_get_count():
/home/wwt/work/perf_func/lib/time.c:7
1c008bec:	157f5fd9 	lu12i.w	$r25,-263426(0xbfafe)
1c008bf0:	28800324 	ld.w	$r4,$r25,0
get_us():
/home/wwt/work/perf_func/lib/time.c:64
1c008bf4:	0281900c 	addi.w	$r12,$r0,100(0x64)
/home/wwt/work/perf_func/lib/time.c:66
1c008bf8:	28803079 	ld.w	$r25,$r3,12(0xc)
1c008bfc:	0021308d 	div.wu	$r13,$r4,$r12
1c008c00:	5c000980 	bne	$r12,$r0,8(0x8) # 1c008c08 <get_us+0x24>
1c008c04:	002a0007 	break	0x7
1c008c08:	001501a4 	move	$r4,$r13
1c008c0c:	02804063 	addi.w	$r3,$r3,16(0x10)
1c008c10:	4c000020 	jirl	$r0,$r1,0

Disassembly of section .data:

1c008c14 <errpat-0x5f8>:
1c008c14:	65726f63 	bge	$r27,$r3,94828(0x1726c) # 1c01fe80 <_stack+0x6a84>
1c008c18:	6b72616d 	bltu	$r11,$r13,-36256(0x37260) # 1bfffe78 <data_size+0x1bfff644>
1c008c1c:	73657420 	vssrani.wu.d	$vr0,$vr1,0x1d
1c008c20:	65622074 	bge	$r3,$r20,90656(0x16220) # 1c01ee40 <_stack+0x5a44>
1c008c24:	2e6e6967 	0x2e6e6967
1c008c28:	00000000 	0x00000000
1c008c2c:	65726f63 	bge	$r27,$r3,94828(0x1726c) # 1c01fe98 <_stack+0x6a9c>
1c008c30:	6b72616d 	bltu	$r11,$r13,-36256(0x37260) # 1bfffe90 <data_size+0x1bfff65c>
1c008c34:	53415020 	b	8601936(0x834150) # 1c83cd84 <_stack+0x823988>
1c008c38:	00002153 	clo.d	$r19,$r10
1c008c3c:	65726f63 	bge	$r27,$r3,94828(0x1726c) # 1c01fea8 <_stack+0x6aac>
1c008c40:	6b72616d 	bltu	$r11,$r13,-36256(0x37260) # 1bfffea0 <data_size+0x1bfff66c>
1c008c44:	52524520 	b	75649604(0x4825244) # 2082de88 <_stack+0x4814a8c>
1c008c48:	2121524f 	sc.w	$r15,$r18,8528(0x2150)
1c008c4c:	00000021 	0x00000021
1c008c50:	65726f63 	bge	$r27,$r3,94828(0x1726c) # 1c01febc <_stack+0x6ac0>
1c008c54:	6b72616d 	bltu	$r11,$r13,-36256(0x37260) # 1bfffeb4 <data_size+0x1bfff680>
1c008c58:	6f54203a 	bgeu	$r1,$r26,-44000(0x35420) # 1bffe078 <data_size+0x1bffd844>
1c008c5c:	206c6174 	ll.w	$r20,$r11,27744(0x6c60)
1c008c60:	6e756f43 	bgeu	$r26,$r3,-101012(0x2756c) # 1bff01cc <data_size+0x1bfef998>
1c008c64:	6f532874 	bgeu	$r3,$r20,-44248(0x35328) # 1bffdf8c <data_size+0x1bffd758>
1c008c68:	6f632043 	bgeu	$r2,$r3,-40160(0x36320) # 1bffef88 <data_size+0x1bffe754>
1c008c6c:	29746e75 	st.h	$r21,$r19,-741(0xd1b)
1c008c70:	30203d20 	vldrepl.w	$vr0,$r9,60(0x3c)
1c008c74:	0a782578 	0x0a782578
1c008c78:	00000000 	0x00000000
1c008c7c:	65726f63 	bge	$r27,$r3,94828(0x1726c) # 1c01fee8 <_stack+0x6aec>
1c008c80:	6b72616d 	bltu	$r11,$r13,-36256(0x37260) # 1bfffee0 <data_size+0x1bfff6ac>
1c008c84:	6f54203a 	bgeu	$r1,$r26,-44000(0x35420) # 1bffe0a4 <data_size+0x1bffd870>
1c008c88:	206c6174 	ll.w	$r20,$r11,27744(0x6c60)
1c008c8c:	6e756f43 	bgeu	$r26,$r3,-101012(0x2756c) # 1bff01f8 <data_size+0x1bfef9c4>
1c008c90:	50432874 	b	30425896(0x1d04328) # 1dd0cfb8 <_stack+0x1cf3bbc>
1c008c94:	6f632055 	bgeu	$r2,$r21,-40160(0x36320) # 1bffefb4 <data_size+0x1bffe780>
1c008c98:	29746e75 	st.h	$r21,$r19,-741(0xd1b)
1c008c9c:	30203d20 	vldrepl.w	$vr0,$r9,60(0x3c)
1c008ca0:	0a782578 	0x0a782578
1c008ca4:	00000000 	0x00000000
1c008ca8:	20677261 	ll.w	$r1,$r19,26480(0x6770)
1c008cac:	6c25203a 	bgeu	$r1,$r26,9504(0x2520) # 1c00b1cc <_heap+0xfcc>
1c008cb0:	25202c64 	stptr.w	$r4,$r3,8236(0x202c)
1c008cb4:	202c646c 	ll.w	$r12,$r3,11364(0x2c64)
1c008cb8:	2c646c25 	vst	$vr5,$r1,-1765(0x91b)
1c008cbc:	646c2520 	bge	$r9,$r0,27684(0x6c24) # 1c00f8e0 <_heap+0x56e0>
1c008cc0:	6c25202c 	bgeu	$r1,$r12,9504(0x2520) # 1c00b1e0 <_heap+0xfe0>
1c008cc4:	25202c64 	stptr.w	$r4,$r3,8236(0x202c)
1c008cc8:	202c646c 	ll.w	$r12,$r3,11364(0x2c64)
1c008ccc:	20646c25 	ll.w	$r5,$r1,25708(0x646c)
1c008cd0:	0000000a 	0x0000000a
1c008cd4:	74736574 	xvmin.w	$xr20,$xr11,$xr25
1c008cd8:	61747320 	blt	$r25,$r0,95344(0x17470) # 1c020148 <_stack+0x6d4c>
1c008cdc:	00007472 	0x00007472
1c008ce0:	706d6f63 	0x706d6f63
1c008ce4:	74617475 	xvabsd.w	$xr21,$xr3,$xr29
1c008ce8:	206e6f69 	ll.w	$r9,$r27,28268(0x6e6c)
1c008cec:	656e6f64 	bge	$r27,$r4,93804(0x16e6c) # 1c01fb58 <_stack+0x675c>
1c008cf0:	00000020 	0x00000020
1c008cf4:	70206b36 	vsubwev.h.b	$vr22,$vr25,$vr26
1c008cf8:	6f667265 	bgeu	$r19,$r5,-39312(0x36670) # 1bfff368 <data_size+0x1bffeb34>
1c008cfc:	6e616d72 	bgeu	$r11,$r18,-106132(0x2616c) # 1bfeee68 <data_size+0x1bfee634>
1c008d00:	72206563 	0x72206563
1c008d04:	70206e75 	vsubwev.h.b	$vr21,$vr19,$vr27
1c008d08:	6d617261 	bgeu	$r19,$r1,90480(0x16170) # 1c01ee78 <_stack+0x5a7c>
1c008d0c:	72657465 	0x72657465
1c008d10:	6f662073 	bgeu	$r3,$r19,-39392(0x36620) # 1bfff330 <data_size+0x1bffeafc>
1c008d14:	6f632072 	bgeu	$r3,$r18,-40160(0x36320) # 1bfff034 <data_size+0x1bffe800>
1c008d18:	616d6572 	blt	$r11,$r18,93540(0x16d64) # 1c01fa7c <_stack+0x6680>
1c008d1c:	002e6b72 	0x002e6b72
1c008d20:	76206b36 	0x76206b36
1c008d24:	64696c61 	bge	$r3,$r1,26988(0x696c) # 1c00f690 <_heap+0x5490>
1c008d28:	6f697461 	bgeu	$r3,$r1,-38540(0x36974) # 1bfff69c <data_size+0x1bffee68>
1c008d2c:	7572206e 	0x7572206e
1c008d30:	6170206e 	blt	$r3,$r14,94240(0x17020) # 1c01fd50 <_stack+0x6954>
1c008d34:	656d6172 	bge	$r11,$r18,93536(0x16d60) # 1c01fa94 <_stack+0x6698>
1c008d38:	73726574 	0x73726574
1c008d3c:	726f6620 	0x726f6620
1c008d40:	726f6320 	0x726f6320
1c008d44:	72616d65 	0x72616d65
1c008d48:	00002e6b 	ctz.d	$r11,$r19
1c008d4c:	666f7250 	bge	$r18,$r16,-102544(0x26f70) # 1bfefcbc <data_size+0x1bfef488>
1c008d50:	20656c69 	ll.w	$r9,$r3,25964(0x656c)
1c008d54:	656e6567 	bge	$r11,$r7,93796(0x16e64) # 1c01fbb8 <_stack+0x67bc>
1c008d58:	69746172 	bltu	$r11,$r18,95328(0x17460) # 1c0201b8 <_stack+0x6dbc>
1c008d5c:	72206e6f 	0x72206e6f
1c008d60:	70206e75 	vsubwev.h.b	$vr21,$vr19,$vr27
1c008d64:	6d617261 	bgeu	$r19,$r1,90480(0x16170) # 1c01eed4 <_stack+0x5ad8>
1c008d68:	72657465 	0x72657465
1c008d6c:	6f662073 	bgeu	$r3,$r19,-39392(0x36620) # 1bfff38c <data_size+0x1bffeb58>
1c008d70:	6f632072 	bgeu	$r3,$r18,-40160(0x36320) # 1bfff090 <data_size+0x1bffe85c>
1c008d74:	616d6572 	blt	$r11,$r18,93540(0x16d64) # 1c01fad8 <_stack+0x66dc>
1c008d78:	002e6b72 	0x002e6b72
1c008d7c:	70204b32 	vsubwev.h.b	$vr18,$vr25,$vr18
1c008d80:	6f667265 	bgeu	$r19,$r5,-39312(0x36670) # 1bfff3f0 <data_size+0x1bffebbc>
1c008d84:	6e616d72 	bgeu	$r11,$r18,-106132(0x2616c) # 1bfeeef0 <data_size+0x1bfee6bc>
1c008d88:	72206563 	0x72206563
1c008d8c:	70206e75 	vsubwev.h.b	$vr21,$vr19,$vr27
1c008d90:	6d617261 	bgeu	$r19,$r1,90480(0x16170) # 1c01ef00 <_stack+0x5b04>
1c008d94:	72657465 	0x72657465
1c008d98:	6f662073 	bgeu	$r3,$r19,-39392(0x36620) # 1bfff3b8 <data_size+0x1bffeb84>
1c008d9c:	6f632072 	bgeu	$r3,$r18,-40160(0x36320) # 1bfff0bc <data_size+0x1bffe888>
1c008da0:	616d6572 	blt	$r11,$r18,93540(0x16d64) # 1c01fb04 <_stack+0x6708>
1c008da4:	002e6b72 	0x002e6b72
1c008da8:	76204b32 	0x76204b32
1c008dac:	64696c61 	bge	$r3,$r1,26988(0x696c) # 1c00f718 <_heap+0x5518>
1c008db0:	6f697461 	bgeu	$r3,$r1,-38540(0x36974) # 1bfff724 <data_size+0x1bffeef0>
1c008db4:	7572206e 	0x7572206e
1c008db8:	6170206e 	blt	$r3,$r14,94240(0x17020) # 1c01fdd8 <_stack+0x69dc>
1c008dbc:	656d6172 	bge	$r11,$r18,93536(0x16d60) # 1c01fb1c <_stack+0x6720>
1c008dc0:	73726574 	0x73726574
1c008dc4:	726f6620 	0x726f6620
1c008dc8:	726f6320 	0x726f6320
1c008dcc:	72616d65 	0x72616d65
1c008dd0:	00002e6b 	ctz.d	$r11,$r19
1c008dd4:	5d75255b 	bne	$r10,$r27,95524(0x17524) # 1c0202f8 <_stack+0x6efc>
1c008dd8:	4f525245 	jirl	$r5,$r18,-44464(0x35250)
1c008ddc:	6c202152 	bgeu	$r10,$r18,8224(0x2020) # 1c00adfc <_heap+0xbfc>
1c008de0:	20747369 	ll.w	$r9,$r27,29808(0x7470)
1c008de4:	20637263 	ll.w	$r3,$r19,25456(0x6370)
1c008de8:	30257830 	vldrepl.w	$vr16,$r1,1400(0x578)
1c008dec:	2d207834 	0x2d207834
1c008df0:	6f687320 	bgeu	$r25,$r0,-38800(0x36870) # 1bfff660 <data_size+0x1bffee2c>
1c008df4:	20646c75 	ll.w	$r21,$r3,25708(0x646c)
1c008df8:	30206562 	vldrepl.w	$vr2,$r11,100(0x64)
1c008dfc:	34302578 	0x34302578
1c008e00:	00000a78 	0x00000a78
1c008e04:	5d75255b 	bne	$r10,$r27,95524(0x17524) # 1c020328 <_stack+0x6f2c>
1c008e08:	4f525245 	jirl	$r5,$r18,-44464(0x35250)
1c008e0c:	6d202152 	bgeu	$r10,$r18,73760(0x12020) # 1c01ae2c <_stack+0x1a30>
1c008e10:	69727461 	bltu	$r3,$r1,94836(0x17274) # 1c020084 <_stack+0x6c88>
1c008e14:	72632078 	0x72632078
1c008e18:	78302063 	0x78302063
1c008e1c:	78343025 	0x78343025
1c008e20:	73202d20 	0x73202d20
1c008e24:	6c756f68 	bgeu	$r27,$r8,30060(0x756c) # 1c010390 <_heap+0x6190>
1c008e28:	65622064 	bge	$r3,$r4,90656(0x16220) # 1c01f048 <_stack+0x5c4c>
1c008e2c:	25783020 	stptr.w	$r0,$r1,30768(0x7830)
1c008e30:	0a783430 	0x0a783430
1c008e34:	00000000 	0x00000000
1c008e38:	5d75255b 	bne	$r10,$r27,95524(0x17524) # 1c02035c <_stack+0x6f60>
1c008e3c:	4f525245 	jirl	$r5,$r18,-44464(0x35250)
1c008e40:	73202152 	0x73202152
1c008e44:	65746174 	bge	$r11,$r20,95328(0x17460) # 1c0202a4 <_stack+0x6ea8>
1c008e48:	63726320 	blt	$r25,$r0,-36256(0x37260) # 1c0000a8 <_ftext+0xa8>
1c008e4c:	25783020 	stptr.w	$r0,$r1,30768(0x7830)
1c008e50:	20783430 	ll.w	$r16,$r1,30772(0x7834)
1c008e54:	6873202d 	bltu	$r1,$r13,29472(0x7320) # 1c010174 <_heap+0x5f74>
1c008e58:	646c756f 	bge	$r11,$r15,27764(0x6c74) # 1c00facc <_heap+0x58cc>
1c008e5c:	20656220 	ll.w	$r0,$r17,25952(0x6560)
1c008e60:	30257830 	vldrepl.w	$vr16,$r1,1400(0x578)
1c008e64:	000a7834 	0x000a7834
1c008e68:	65726f43 	bge	$r26,$r3,94828(0x1726c) # 1c0200d4 <_stack+0x6cd8>
1c008e6c:	6b72614d 	bltu	$r10,$r13,-36256(0x37260) # 1c0000cc <_ftext+0xcc>
1c008e70:	7a695320 	0x7a695320
1c008e74:	20202065 	ll.w	$r5,$r3,8224(0x2020)
1c008e78:	25203a20 	stptr.w	$r0,$r17,8248(0x2038)
1c008e7c:	000a756c 	0x000a756c
1c008e80:	61746f54 	blt	$r26,$r20,95340(0x1746c) # 1c0202ec <_stack+0x6ef0>
1c008e84:	736e206c 	vssrarni.du.q	$vr12,$vr3,0x8
1c008e88:	25203a20 	stptr.w	$r0,$r17,8248(0x2038)
1c008e8c:	000a756c 	0x000a756c
1c008e90:	72657449 	0x72657449
1c008e94:	6f697461 	bgeu	$r3,$r1,-38540(0x36974) # 1bfff808 <data_size+0x1bffefd4>
1c008e98:	532f736e 	b	-38064272(0xdbb2f70) # 19bbbe08 <data_size+0x19bbb5d4>
1c008e9c:	3a206365 	0x3a206365
1c008ea0:	756c2520 	0x756c2520
1c008ea4:	0000000a 	0x0000000a
1c008ea8:	45524f43 	bnez	$r26,873036(0xd524c) # 1c0de0f4 <_stack+0xc4cf8>
1c008eac:	4b52414d 	bcnez	$fcc2,3625536(0x375240) # 1c37e0ec <_stack+0x364cf0>
1c008eb0:	5a484d2f 	beq	$r9,$r15,-112564(0x2484c) # 1bfed6fc <data_size+0x1bfecec8>
1c008eb4:	28203d20 	ld.b	$r0,$r9,-2033(0x80f)
1c008eb8:	30303031 	0x30303031
1c008ebc:	2e303030 	0x2e303030
1c008ec0:	50432f30 	b	-54508756(0xcc0432c) # 18c0d1ec <data_size+0x18c0c9b8>
1c008ec4:	4f435f55 	jirl	$r21,$r26,-48292(0x3435c)
1c008ec8:	5f544e55 	bne	$r18,$r21,-43956(0x3544c) # 1bffe314 <data_size+0x1bffdae0>
1c008ecc:	5f524550 	bne	$r10,$r16,-44476(0x35244) # 1bffe110 <data_size+0x1bffd8dc>
1c008ed0:	2a295355 	ld.bu	$r21,$r26,-1452(0xa54)
1c008ed4:	4345534e 	beqz	$r26,3884368(0x3b4550) # 1c3bd424 <_stack+0x3a4028>
1c008ed8:	5245505f 	b	25052496(0x17e4550) # 1d7ed428 <_stack+0x17d402c>
1c008edc:	4553555f 	bnez	$r10,-175276(0x7d5354) # 1bfde230 <data_size+0x1bfdd9fc>
1c008ee0:	65722a43 	bge	$r18,$r3,94760(0x17228) # 1c020108 <_stack+0x6d0c>
1c008ee4:	746c7573 	0x746c7573
1c008ee8:	5d305b73 	bne	$r27,$r19,77912(0x13058) # 1c01bf40 <_stack+0x2b44>
1c008eec:	6574692e 	bge	$r9,$r14,95336(0x17468) # 1c020354 <_stack+0x6f58>
1c008ef0:	69746172 	bltu	$r11,$r18,95328(0x17460) # 1c020350 <_stack+0x6f54>
1c008ef4:	2f736e6f 	0x2f736e6f
1c008ef8:	61746f74 	blt	$r27,$r20,95340(0x1746c) # 1c020364 <_stack+0x6f68>
1c008efc:	736e5f6c 	vssrarni.du.q	$vr12,$vr27,0x17
1c008f00:	00000000 	0x00000000
1c008f04:	65207449 	bge	$r2,$r9,73844(0x12074) # 1c01af78 <_stack+0x1b7c>
1c008f08:	6c617571 	bgeu	$r11,$r17,24948(0x6174) # 1c00f07c <_heap+0x4e7c>
1c008f0c:	6f742073 	bgeu	$r3,$r19,-35808(0x37420) # 1c00032c <test_finish+0x22c>
1c008f10:	30303120 	0x30303120
1c008f14:	30312a30 	0x30312a30
1c008f18:	692a3030 	bltu	$r1,$r16,76336(0x12a30) # 1c01b948 <_stack+0x254c>
1c008f1c:	61726574 	blt	$r11,$r20,94820(0x17264) # 1c020180 <_stack+0x6d84>
1c008f20:	6e6f6974 	bgeu	$r11,$r20,-102552(0x26f68) # 1bfefe88 <data_size+0x1bfef654>
1c008f24:	746f742f 	0x746f742f
1c008f28:	6e5f6c61 	bgeu	$r3,$r1,-106644(0x25f6c) # 1bfeee94 <data_size+0x1bfee660>
1c008f2c:	00000073 	0x00000073
1c008f30:	74206e49 	xvsubwev.h.b	$xr9,$xr18,$xr27
1c008f34:	20736968 	ll.w	$r8,$r11,29544(0x7368)
1c008f38:	2c6e7572 	vst	$vr18,$r11,-1123(0xb9d)
1c008f3c:	65746920 	bge	$r9,$r0,95336(0x17468) # 1c0203a4 <_stack+0x6fa8>
1c008f40:	65746172 	bge	$r11,$r18,95328(0x17460) # 1c0203a0 <_stack+0x6fa4>
1c008f44:	756c253d 	0x756c253d
1c008f48:	6f74202c 	bgeu	$r1,$r12,-35808(0x37420) # 1c000368 <test_finish+0x268>
1c008f4c:	5f6c6174 	bne	$r11,$r20,-37792(0x36c60) # 1bfffbac <data_size+0x1bfff378>
1c008f50:	253d736e 	stptr.w	$r14,$r27,15728(0x3d70)
1c008f54:	0a0a756c 	0x0a0a756c
1c008f58:	00000000 	0x00000000
1c008f5c:	61746f54 	blt	$r26,$r20,95340(0x1746c) # 1c0203c8 <_stack+0x6fcc>
1c008f60:	6974206c 	bltu	$r3,$r12,95264(0x17420) # 1c020380 <_stack+0x6f84>
1c008f64:	20736b63 	ll.w	$r3,$r27,29544(0x7368)
1c008f68:	20202020 	ll.w	$r0,$r1,8224(0x2020)
1c008f6c:	25203a20 	stptr.w	$r0,$r17,8248(0x2038)
1c008f70:	000a756c 	0x000a756c
1c008f74:	61746f54 	blt	$r26,$r20,95340(0x1746c) # 1c0203e0 <_stack+0x6fe4>
1c008f78:	6974206c 	bltu	$r3,$r12,95264(0x17420) # 1c020398 <_stack+0x6f9c>
1c008f7c:	2820656d 	ld.b	$r13,$r11,-2023(0x819)
1c008f80:	73636573 	vssrani.d.q	$vr19,$vr11,0x59
1c008f84:	25203a29 	stptr.w	$r9,$r17,8248(0x2038)
1c008f88:	00000a64 	0x00000a64
1c008f8c:	72657449 	0x72657449
1c008f90:	6f697461 	bgeu	$r3,$r1,-38540(0x36974) # 1bfff904 <data_size+0x1bfff0d0>
1c008f94:	532f736e 	b	-38064272(0xdbb2f70) # 19bbbf04 <data_size+0x19bbb6d0>
1c008f98:	20206365 	ll.w	$r5,$r27,8288(0x2060)
1c008f9c:	25203a20 	stptr.w	$r0,$r17,8248(0x2038)
1c008fa0:	00000a64 	0x00000a64
1c008fa4:	72657449 	0x72657449
1c008fa8:	6f697461 	bgeu	$r3,$r1,-38540(0x36974) # 1bfff91c <data_size+0x1bfff0e8>
1c008fac:	2020736e 	ll.w	$r14,$r27,8304(0x2070)
1c008fb0:	20202020 	ll.w	$r0,$r1,8224(0x2020)
1c008fb4:	25203a20 	stptr.w	$r0,$r17,8248(0x2038)
1c008fb8:	000a756c 	0x000a756c
1c008fbc:	38434347 	0x38434347
1c008fc0:	302e332e 	vldrepl.w	$vr14,$r25,-464(0xe30)
1c008fc4:	00000000 	0x00000000
1c008fc8:	706d6f43 	0x706d6f43
1c008fcc:	72656c69 	0x72656c69
1c008fd0:	72657620 	0x72657620
1c008fd4:	6e6f6973 	bgeu	$r11,$r19,-102552(0x26f68) # 1bfeff3c <data_size+0x1bfef708>
1c008fd8:	25203a20 	stptr.w	$r0,$r17,8248(0x2038)
1c008fdc:	00000a73 	0x00000a73
1c008fe0:	00000000 	0x00000000
1c008fe4:	706d6f43 	0x706d6f43
1c008fe8:	72656c69 	0x72656c69
1c008fec:	616c6620 	blt	$r17,$r0,93284(0x16c64) # 1c01fc50 <_stack+0x6854>
1c008ff0:	20207367 	ll.w	$r7,$r27,8304(0x2070)
1c008ff4:	25203a20 	stptr.w	$r0,$r17,8248(0x2038)
1c008ff8:	00000a73 	0x00000a73
1c008ffc:	61656c50 	blt	$r2,$r16,91500(0x1656c) # 1c01f568 <_stack+0x616c>
1c009000:	70206573 	vsubwev.h.b	$vr19,$vr11,$vr25
1c009004:	64207475 	bge	$r3,$r21,8308(0x2074) # 1c00b078 <_heap+0xe78>
1c009008:	20617461 	ll.w	$r1,$r3,24948(0x6174)
1c00900c:	6f6d656d 	bgeu	$r11,$r13,-37532(0x36d64) # 1bfffd70 <data_size+0x1bfff53c>
1c009010:	6c207972 	bgeu	$r11,$r18,8312(0x2078) # 1c00b088 <_heap+0xe88>
1c009014:	7461636f 	xvabsd.w	$xr15,$xr27,$xr24
1c009018:	206e6f69 	ll.w	$r9,$r27,28268(0x6e6c)
1c00901c:	65726568 	bge	$r11,$r8,94820(0x17264) # 1c020280 <_stack+0x6e84>
1c009020:	0909090a 	0x0909090a
1c009024:	672e6528 	bge	$r9,$r8,-53660(0x32e64) # 1bffbe88 <data_size+0x1bffb654>
1c009028:	6f63202e 	bgeu	$r1,$r14,-40160(0x36320) # 1bfff348 <data_size+0x1bffeb14>
1c00902c:	69206564 	bltu	$r11,$r4,73828(0x12064) # 1c01b090 <_stack+0x1c94>
1c009030:	6c66206e 	bgeu	$r3,$r14,26144(0x6620) # 1c00f650 <_heap+0x5450>
1c009034:	2c687361 	vst	$vr1,$r27,-1508(0xa1c)
1c009038:	74616420 	xvabsd.w	$xr0,$xr1,$xr25
1c00903c:	6e6f2061 	bgeu	$r3,$r1,-102624(0x26f20) # 1bfeff5c <data_size+0x1bfef728>
1c009040:	61656820 	blt	$r1,$r0,91496(0x16568) # 1c01f5a8 <_stack+0x61ac>
1c009044:	74652070 	xvavg.w	$xr16,$xr3,$xr8
1c009048:	00002963 	cto.d	$r3,$r11
1c00904c:	6f6d654d 	bgeu	$r10,$r13,-37532(0x36d64) # 1bfffdb0 <data_size+0x1bfff57c>
1c009050:	6c207972 	bgeu	$r11,$r18,8312(0x2078) # 1c00b0c8 <_heap+0xec8>
1c009054:	7461636f 	xvabsd.w	$xr15,$xr27,$xr24
1c009058:	206e6f69 	ll.w	$r9,$r27,28268(0x6e6c)
1c00905c:	25203a20 	stptr.w	$r0,$r17,8248(0x2038)
1c009060:	00000a73 	0x00000a73
1c009064:	64656573 	bge	$r11,$r19,25956(0x6564) # 1c00f5c8 <_heap+0x53c8>
1c009068:	20637263 	ll.w	$r3,$r19,25456(0x6370)
1c00906c:	20202020 	ll.w	$r0,$r1,8224(0x2020)
1c009070:	20202020 	ll.w	$r0,$r1,8224(0x2020)
1c009074:	30203a20 	vldrepl.w	$vr0,$r17,56(0x38)
1c009078:	34302578 	0x34302578
1c00907c:	00000a78 	0x00000a78
1c009080:	5d64255b 	bne	$r10,$r27,91172(0x16424) # 1c01f4a4 <_stack+0x60a8>
1c009084:	6c637263 	bgeu	$r19,$r3,25456(0x6370) # 1c00f3f4 <_heap+0x51f4>
1c009088:	20747369 	ll.w	$r9,$r27,29808(0x7470)
1c00908c:	20202020 	ll.w	$r0,$r1,8224(0x2020)
1c009090:	203a2020 	ll.w	$r0,$r1,14880(0x3a20)
1c009094:	30257830 	vldrepl.w	$vr16,$r1,1400(0x578)
1c009098:	000a7834 	0x000a7834
1c00909c:	5d64255b 	bne	$r10,$r27,91172(0x16424) # 1c01f4c0 <_stack+0x60c4>
1c0090a0:	6d637263 	bgeu	$r19,$r3,90992(0x16370) # 1c01f410 <_stack+0x6014>
1c0090a4:	69727461 	bltu	$r3,$r1,94836(0x17274) # 1c020318 <_stack+0x6f1c>
1c0090a8:	20202078 	ll.w	$r24,$r3,8224(0x2020)
1c0090ac:	203a2020 	ll.w	$r0,$r1,14880(0x3a20)
1c0090b0:	30257830 	vldrepl.w	$vr16,$r1,1400(0x578)
1c0090b4:	000a7834 	0x000a7834
1c0090b8:	5d64255b 	bne	$r10,$r27,91172(0x16424) # 1c01f4dc <_stack+0x60e0>
1c0090bc:	73637263 	vssrani.d.q	$vr3,$vr19,0x5c
1c0090c0:	65746174 	bge	$r11,$r20,95328(0x17460) # 1c020520 <_stack+0x7124>
1c0090c4:	20202020 	ll.w	$r0,$r1,8224(0x2020)
1c0090c8:	203a2020 	ll.w	$r0,$r1,14880(0x3a20)
1c0090cc:	30257830 	vldrepl.w	$vr16,$r1,1400(0x578)
1c0090d0:	000a7834 	0x000a7834
1c0090d4:	5d64255b 	bne	$r10,$r27,91172(0x16424) # 1c01f4f8 <_stack+0x60fc>
1c0090d8:	66637263 	bge	$r19,$r3,-105616(0x26370) # 1bfef448 <data_size+0x1bfeec14>
1c0090dc:	6c616e69 	bgeu	$r19,$r9,24940(0x616c) # 1c00f248 <_heap+0x5048>
1c0090e0:	20202020 	ll.w	$r0,$r1,8224(0x2020)
1c0090e4:	203a2020 	ll.w	$r0,$r1,14880(0x3a20)
1c0090e8:	30257830 	vldrepl.w	$vr16,$r1,1400(0x578)
1c0090ec:	000a7834 	0x000a7834
1c0090f0:	72726f43 	0x72726f43
1c0090f4:	20746365 	ll.w	$r5,$r27,29792(0x7460)
1c0090f8:	7265706f 	0x7265706f
1c0090fc:	6f697461 	bgeu	$r3,$r1,-38540(0x36974) # 1bfffa70 <data_size+0x1bfff23c>
1c009100:	6176206e 	blt	$r3,$r14,95776(0x17620) # 1c020720 <_stack+0x7324>
1c009104:	6164696c 	blt	$r11,$r12,91240(0x16468) # 1c01f56c <_stack+0x6170>
1c009108:	2e646574 	0x2e646574
1c00910c:	65655320 	bge	$r25,$r0,91472(0x16550) # 1c01f65c <_stack+0x6260>
1c009110:	61657220 	blt	$r17,$r0,91504(0x16570) # 1c01f680 <_stack+0x6284>
1c009114:	2e656d64 	0x2e656d64
1c009118:	20747874 	ll.w	$r20,$r3,29816(0x7478)
1c00911c:	20726f66 	ll.w	$r6,$r27,29292(0x726c)
1c009120:	206e7572 	ll.w	$r18,$r11,28276(0x6e74)
1c009124:	20646e61 	ll.w	$r1,$r19,25708(0x646c)
1c009128:	6f706572 	bgeu	$r11,$r18,-36764(0x37064) # 1c00018c <test_finish+0x8c>
1c00912c:	6e697472 	bgeu	$r3,$r18,-104076(0x26974) # 1bfefaa0 <data_size+0x1bfef26c>
1c009130:	75722067 	0x75722067
1c009134:	2e73656c 	0x2e73656c
1c009138:	00000000 	0x00000000
1c00913c:	6f727245 	bgeu	$r18,$r5,-36240(0x37270) # 1c0003ac <shell3+0xc>
1c009140:	64207372 	bge	$r27,$r18,8304(0x2070) # 1c00b1b0 <_heap+0xfb0>
1c009144:	63657465 	blt	$r3,$r5,-39564(0x36574) # 1bfff6b8 <data_size+0x1bffee84>
1c009148:	00646574 	bstrins.w	$r20,$r11,0x4,0x19
1c00914c:	6e6e6143 	bgeu	$r10,$r3,-102816(0x26e60) # 1bfeffac <data_size+0x1bfef778>
1c009150:	7620746f 	0x7620746f
1c009154:	64696c61 	bge	$r3,$r1,26988(0x696c) # 1c00fac0 <_heap+0x58c0>
1c009158:	20657461 	ll.w	$r1,$r3,25972(0x6574)
1c00915c:	7265706f 	0x7265706f
1c009160:	6f697461 	bgeu	$r3,$r1,-38540(0x36974) # 1bfffad4 <data_size+0x1bfff2a0>
1c009164:	6f66206e 	bgeu	$r3,$r14,-39392(0x36620) # 1bfff784 <data_size+0x1bffef50>
1c009168:	68742072 	bltu	$r3,$r18,29728(0x7420) # 1c010588 <_heap+0x6388>
1c00916c:	20657365 	ll.w	$r5,$r27,25968(0x6570)
1c009170:	64656573 	bge	$r11,$r19,25956(0x6564) # 1c00f6d4 <_heap+0x54d4>
1c009174:	6c617620 	bgeu	$r17,$r0,24948(0x6174) # 1c00f2e8 <_heap+0x50e8>
1c009178:	2c736575 	vst	$vr21,$r11,-807(0xcd9)
1c00917c:	656c7020 	bge	$r1,$r0,93296(0x16c70) # 1c01fdec <_stack+0x69f0>
1c009180:	20657361 	ll.w	$r1,$r27,25968(0x6570)
1c009184:	706d6f63 	0x706d6f63
1c009188:	20657261 	ll.w	$r1,$r19,25968(0x6570)
1c00918c:	68746977 	bltu	$r11,$r23,29800(0x7468) # 1c0105f4 <_heap+0x63f4>
1c009190:	73657220 	vssrani.wu.d	$vr0,$vr17,0x1c
1c009194:	73746c75 	0x73746c75
1c009198:	206e6f20 	ll.w	$r0,$r25,28268(0x6e6c)
1c00919c:	6e6b2061 	bgeu	$r3,$r1,-103648(0x26b20) # 1bfefcbc <data_size+0x1bfef488>
1c0091a0:	206e776f 	ll.w	$r15,$r27,28276(0x6e74)
1c0091a4:	74616c70 	xvabsd.w	$xr16,$xr3,$xr27
1c0091a8:	6d726f66 	bgeu	$r27,$r6,94828(0x1726c) # 1c020414 <_stack+0x7018>
1c0091ac:	0000002e 	0x0000002e
1c0091b0:	74617453 	xvabsd.w	$xr19,$xr2,$xr29
1c0091b4:	00006369 	rdtimel.w	$r9,$r27
1c0091b8:	70616548 	vabsd.w	$vr8,$vr10,$vr25
1c0091bc:	00000000 	0x00000000
1c0091c0:	63617453 	blt	$r2,$r19,-40588(0x36174) # 1bfff334 <data_size+0x1bffeb00>
1c0091c4:	0000006b 	0x0000006b
1c0091c8:	1c0066c8 	pcaddu12i	$r8,822(0x336)
1c0091cc:	1c0066c8 	pcaddu12i	$r8,822(0x336)
1c0091d0:	1c006784 	pcaddu12i	$r4,828(0x33c)
1c0091d4:	1c006784 	pcaddu12i	$r4,828(0x33c)
1c0091d8:	1c0067b8 	pcaddu12i	$r24,829(0x33d)
1c0091dc:	332e3054 	xvstelm.w	$xr20,$r2,-464(0x230),0x3
1c0091e0:	46312d65 	bnez	$r11,1454380(0x16312c) # 1c16c30c <_stack+0x152f10>
1c0091e4:	00000000 	0x00000000
1c0091e8:	542e542d 	bl	11808340(0xb42e54) # 1cb4c03c <_stack+0xb32c40>
1c0091ec:	71542b2b 	0x71542b2b
1c0091f0:	00000000 	0x00000000
1c0091f4:	2e335431 	0x2e335431
1c0091f8:	7a346534 	0x7a346534
1c0091fc:	00000000 	0x00000000
1c009200:	302e3433 	vldrepl.w	$vr19,$r1,-460(0xe34)
1c009204:	5e542d65 	bne	$r11,$r5,-109524(0x2542c) # 1bfee630 <data_size+0x1bfeddfc>
1c009208:	00000000 	0x00000000

1c00920c <errpat>:
1c00920c:	1c0091dc 	pcaddu12i	$r28,1166(0x48e)
1c009210:	1c0091e8 	pcaddu12i	$r8,1167(0x48f)
1c009214:	1c0091f4 	pcaddu12i	$r20,1167(0x48f)
1c009218:	1c009200 	pcaddu12i	$r0,1168(0x490)
1c00921c:	30352e35 	0x30352e35
1c009220:	332b6530 	xvstelm.w	$xr16,$r9,-156(0x364),0x2
1c009224:	00000000 	0x00000000
1c009228:	32312e2d 	0x32312e2d
1c00922c:	322d6533 	xvldrepl.w	$xr19,$r9,-668(0xd64)
1c009230:	00000000 	0x00000000
1c009234:	6537382d 	bge	$r1,$r13,79672(0x13738) # 1c01c96c <_stack+0x3570>
1c009238:	3233382b 	0x3233382b
1c00923c:	00000000 	0x00000000
1c009240:	362e302b 	0x362e302b
1c009244:	32312d65 	0x32312d65
1c009248:	00000000 	0x00000000

1c00924c <scipat>:
1c00924c:	1c00921c 	pcaddu12i	$r28,1168(0x490)
1c009250:	1c009228 	pcaddu12i	$r8,1169(0x491)
1c009254:	1c009234 	pcaddu12i	$r20,1169(0x491)
1c009258:	1c009240 	pcaddu12i	$r0,1170(0x492)
1c00925c:	352e3533 	0x352e3533
1c009260:	30303434 	0x30303434
1c009264:	00000000 	0x00000000
1c009268:	3332312e 	xvstelm.w	$xr14,$r9,-464(0x230),0x4
1c00926c:	30303534 	0x30303534
1c009270:	00000000 	0x00000000
1c009274:	3031312d 	0x3031312d
1c009278:	3030372e 	0x3030372e
1c00927c:	00000000 	0x00000000
1c009280:	362e302b 	0x362e302b
1c009284:	30303434 	0x30303434
1c009288:	00000000 	0x00000000

1c00928c <floatpat>:
1c00928c:	1c00925c 	pcaddu12i	$r28,1170(0x492)
1c009290:	1c009268 	pcaddu12i	$r8,1171(0x493)
1c009294:	1c009274 	pcaddu12i	$r20,1171(0x493)
1c009298:	1c009280 	pcaddu12i	$r0,1172(0x494)
1c00929c:	32313035 	0x32313035
1c0092a0:	00000000 	0x00000000
1c0092a4:	34333231 	0x34333231
1c0092a8:	00000000 	0x00000000
1c0092ac:	3437382d 	0x3437382d
1c0092b0:	00000000 	0x00000000
1c0092b4:	3232312b 	0x3232312b
1c0092b8:	00000000 	0x00000000

1c0092bc <intpat>:
1c0092bc:	1c00929c 	pcaddu12i	$r28,1172(0x494)
1c0092c0:	1c0092a4 	pcaddu12i	$r4,1173(0x495)
1c0092c4:	1c0092ac 	pcaddu12i	$r12,1173(0x495)
1c0092c8:	1c0092b4 	pcaddu12i	$r20,1173(0x495)
1c0092cc:	1c0086b0 	pcaddu12i	$r16,1077(0x435)
1c0092d0:	1c0086c0 	pcaddu12i	$r0,1078(0x436)
1c0092d4:	1c0086c0 	pcaddu12i	$r0,1078(0x436)
1c0092d8:	1c0086c0 	pcaddu12i	$r0,1078(0x436)
1c0092dc:	1c0086c0 	pcaddu12i	$r0,1078(0x436)
1c0092e0:	1c0086c0 	pcaddu12i	$r0,1078(0x436)
1c0092e4:	1c0086c0 	pcaddu12i	$r0,1078(0x436)
1c0092e8:	1c0086c0 	pcaddu12i	$r0,1078(0x436)
1c0092ec:	1c0086c0 	pcaddu12i	$r0,1078(0x436)
1c0092f0:	1c0086c0 	pcaddu12i	$r0,1078(0x436)
1c0092f4:	1c0086c0 	pcaddu12i	$r0,1078(0x436)
1c0092f8:	1c008594 	pcaddu12i	$r20,1068(0x42c)
1c0092fc:	1c0085a0 	pcaddu12i	$r0,1069(0x42d)
1c009300:	1c0085a0 	pcaddu12i	$r0,1069(0x42d)
1c009304:	1c0085a0 	pcaddu12i	$r0,1069(0x42d)
1c009308:	1c0085a0 	pcaddu12i	$r0,1069(0x42d)
1c00930c:	1c0085a0 	pcaddu12i	$r0,1069(0x42d)
1c009310:	1c0085a0 	pcaddu12i	$r0,1069(0x42d)
1c009314:	1c0085a0 	pcaddu12i	$r0,1069(0x42d)
1c009318:	1c0085a0 	pcaddu12i	$r0,1069(0x42d)
1c00931c:	1c0085a0 	pcaddu12i	$r0,1069(0x42d)
1c009320:	1c0086c0 	pcaddu12i	$r0,1078(0x436)
1c009324:	1c0086c0 	pcaddu12i	$r0,1078(0x436)
1c009328:	1c0086c0 	pcaddu12i	$r0,1078(0x436)
1c00932c:	1c0086c0 	pcaddu12i	$r0,1078(0x436)
1c009330:	1c0086c0 	pcaddu12i	$r0,1078(0x436)
1c009334:	1c0086c0 	pcaddu12i	$r0,1078(0x436)
1c009338:	1c0086c0 	pcaddu12i	$r0,1078(0x436)
1c00933c:	1c0086c0 	pcaddu12i	$r0,1078(0x436)
1c009340:	1c0086c0 	pcaddu12i	$r0,1078(0x436)
1c009344:	1c0086c0 	pcaddu12i	$r0,1078(0x436)
1c009348:	1c0086c0 	pcaddu12i	$r0,1078(0x436)
1c00934c:	1c0086c0 	pcaddu12i	$r0,1078(0x436)
1c009350:	1c0086c0 	pcaddu12i	$r0,1078(0x436)
1c009354:	1c0086c0 	pcaddu12i	$r0,1078(0x436)
1c009358:	1c0086c0 	pcaddu12i	$r0,1078(0x436)
1c00935c:	1c0086c0 	pcaddu12i	$r0,1078(0x436)
1c009360:	1c0086c0 	pcaddu12i	$r0,1078(0x436)
1c009364:	1c0086c0 	pcaddu12i	$r0,1078(0x436)
1c009368:	1c0086c0 	pcaddu12i	$r0,1078(0x436)
1c00936c:	1c0086c0 	pcaddu12i	$r0,1078(0x436)
1c009370:	1c0086c0 	pcaddu12i	$r0,1078(0x436)
1c009374:	1c0086c0 	pcaddu12i	$r0,1078(0x436)
1c009378:	1c0086c0 	pcaddu12i	$r0,1078(0x436)
1c00937c:	1c0086c0 	pcaddu12i	$r0,1078(0x436)
1c009380:	1c0086c0 	pcaddu12i	$r0,1078(0x436)
1c009384:	1c0086c0 	pcaddu12i	$r0,1078(0x436)
1c009388:	1c0086c0 	pcaddu12i	$r0,1078(0x436)
1c00938c:	1c0086c0 	pcaddu12i	$r0,1078(0x436)
1c009390:	1c0086c0 	pcaddu12i	$r0,1078(0x436)
1c009394:	1c0086c0 	pcaddu12i	$r0,1078(0x436)
1c009398:	1c0086c0 	pcaddu12i	$r0,1078(0x436)
1c00939c:	1c0086c0 	pcaddu12i	$r0,1078(0x436)
1c0093a0:	1c0086c0 	pcaddu12i	$r0,1078(0x436)
1c0093a4:	1c0086c0 	pcaddu12i	$r0,1078(0x436)
1c0093a8:	1c0086c0 	pcaddu12i	$r0,1078(0x436)
1c0093ac:	1c0086c0 	pcaddu12i	$r0,1078(0x436)
1c0093b0:	1c0086c0 	pcaddu12i	$r0,1078(0x436)
1c0093b4:	1c0086c0 	pcaddu12i	$r0,1078(0x436)
1c0093b8:	1c0086c0 	pcaddu12i	$r0,1078(0x436)
1c0093bc:	1c0086c0 	pcaddu12i	$r0,1078(0x436)
1c0093c0:	1c0085e0 	pcaddu12i	$r0,1071(0x42f)
1c0093c4:	1c0085fc 	pcaddu12i	$r28,1071(0x42f)
1c0093c8:	1c008610 	pcaddu12i	$r16,1072(0x430)
1c0093cc:	1c0086c0 	pcaddu12i	$r0,1078(0x436)
1c0093d0:	1c0086c0 	pcaddu12i	$r0,1078(0x436)
1c0093d4:	1c0086c0 	pcaddu12i	$r0,1078(0x436)
1c0093d8:	1c0086c0 	pcaddu12i	$r0,1078(0x436)
1c0093dc:	1c0086c0 	pcaddu12i	$r0,1078(0x436)
1c0093e0:	1c0086c0 	pcaddu12i	$r0,1078(0x436)
1c0093e4:	1c0086c0 	pcaddu12i	$r0,1078(0x436)
1c0093e8:	1c00862c 	pcaddu12i	$r12,1073(0x431)
1c0093ec:	1c0086c0 	pcaddu12i	$r0,1078(0x436)
1c0093f0:	1c0086c0 	pcaddu12i	$r0,1078(0x436)
1c0093f4:	1c008648 	pcaddu12i	$r8,1074(0x432)
1c0093f8:	1c008664 	pcaddu12i	$r4,1075(0x433)
1c0093fc:	1c0086c0 	pcaddu12i	$r0,1078(0x436)
1c009400:	1c0086c0 	pcaddu12i	$r0,1078(0x436)
1c009404:	1c008680 	pcaddu12i	$r0,1076(0x434)
1c009408:	1c0086c0 	pcaddu12i	$r0,1078(0x436)
1c00940c:	1c008694 	pcaddu12i	$r20,1076(0x434)
1c009410:	1c0086c0 	pcaddu12i	$r0,1078(0x436)
1c009414:	1c0086c0 	pcaddu12i	$r0,1078(0x436)
1c009418:	1c008664 	pcaddu12i	$r4,1075(0x433)

1c00941c <mem_name>:
_fdata():
1c00941c:	1c0091b0 	pcaddu12i	$r16,1165(0x48d)
1c009420:	1c0091b8 	pcaddu12i	$r24,1165(0x48d)
1c009424:	1c0091c0 	pcaddu12i	$r0,1166(0x48e)

1c009428 <__CTOR_LIST__>:
	...

1c009430 <__CTOR_END__>:
	...

1c009438 <__DTOR_END__>:
__DTOR_END__():
1c009438:	00000000 	0x00000000
1c00943c:	1c0193fc 	pcaddu12i	$r28,3231(0xc9f)
1c009440:	1c009444 	pcaddu12i	$r4,1186(0x4a2)

1c009444 <default_num_contexts>:
1c009444:	00000001 	0x00000001

Disassembly of section .eh_frame:

1c009448 <.eh_frame>:
1c009448:	0000000c 	0x0000000c
1c00944c:	00000000 	0x00000000
1c009450:	7c010003 	0x7c010003
1c009454:	00030c01 	0x00030c01
1c009458:	00000050 	0x00000050
1c00945c:	00000014 	0x00000014
1c009460:	1c0003a0 	pcaddu12i	$r0,29(0x1d)
1c009464:	00000198 	0x00000198
1c009468:	00000404 	0x00000404
1c00946c:	04200e00 	csrxchg	$r0,$r16,0x803
1c009470:	00000018 	0x00000018
1c009474:	04990181 	csrxchg	$r1,$r12,0x2640
1c009478:	0297059a 	addi.w	$r26,$r12,1473(0x5c1)
1c00947c:	dc040398 	0xdc040398
1c009480:	0a000000 	0x0a000000
1c009484:	000404c1 	alsl.w	$r1,$r6,$r1,0x1
1c009488:	04d70000 	csrrd	$r0,0x35c0
1c00948c:	00000004 	0x00000004
1c009490:	000404d8 	alsl.w	$r24,$r6,$r1,0x1
1c009494:	04d90000 	csrrd	$r0,0x3640
1c009498:	00000008 	0x00000008
1c00949c:	000c04da 	bytepick.d	$r26,$r6,$r1,0x0
1c0094a0:	000e0000 	bytepick.d	$r0,$r0,$r0,0x4
1c0094a4:	00000804 	0x00000804
1c0094a8:	00000b00 	0x00000b00
1c0094ac:	0000004c 	0x0000004c
1c0094b0:	00000068 	0x00000068
1c0094b4:	1c000540 	pcaddu12i	$r0,42(0x2a)
1c0094b8:	00000098 	0x00000098
1c0094bc:	00000404 	0x00000404
1c0094c0:	04100e00 	csrxchg	$r0,$r16,0x403
1c0094c4:	00000004 	0x00000004
1c0094c8:	10040499 	addu16i.d	$r25,$r4,257(0x101)
1c0094cc:	81000000 	0x81000000
1c0094d0:	98029701 	0x98029701
1c0094d4:	00540403 	0x00540403
1c0094d8:	c10a0000 	0xc10a0000
1c0094dc:	00000404 	0x00000404
1c0094e0:	0404d700 	csrxchg	$r0,$r24,0x135
1c0094e4:	d8000000 	0xd8000000
1c0094e8:	00000404 	0x00000404
1c0094ec:	0804d900 	0x0804d900
1c0094f0:	0e000000 	0x0e000000
1c0094f4:	00040400 	alsl.w	$r0,$r0,$r1,0x1
1c0094f8:	000b0000 	0x000b0000
1c0094fc:	00000090 	0x00000090
1c009500:	000000b8 	0x000000b8
1c009504:	1c0005e0 	pcaddu12i	$r0,47(0x2f)
1c009508:	00000e84 	0x00000e84
1c00950c:	00000404 	0x00000404
1c009510:	0ff00e00 	0x0ff00e00
1c009514:	00002c04 	ctz.d	$r4,$r0
1c009518:	98039700 	0x98039700
1c00951c:	81059904 	0x81059904
1c009520:	9a029601 	0x9a029601
1c009524:	9c079b06 	0x9c079b06
1c009528:	9e099d08 	0x9e099d08
1c00952c:	040b9f0a 	csrxchg	$r10,$r24,0x2e7
1c009530:	00000008 	0x00000008
1c009534:	0410e00e 	csrrd	$r14,0x438
1c009538:	00000b78 	0x00000b78
1c00953c:	0ff00e0a 	0x0ff00e0a
1c009540:	00000404 	0x00000404
1c009544:	0804c100 	0x0804c100
1c009548:	d6000000 	0xd6000000
1c00954c:	00000404 	0x00000404
1c009550:	0404d700 	csrxchg	$r0,$r24,0x135
1c009554:	d8000000 	0xd8000000
1c009558:	00000404 	0x00000404
1c00955c:	0404d900 	csrxchg	$r0,$r8,0x136
1c009560:	da000000 	0xda000000
1c009564:	00000404 	0x00000404
1c009568:	0404db00 	csrxchg	$r0,$r24,0x136
1c00956c:	dc000000 	0xdc000000
1c009570:	00000404 	0x00000404
1c009574:	0404dd00 	csrxchg	$r0,$r8,0x137
1c009578:	de000000 	0xde000000
1c00957c:	00000404 	0x00000404
1c009580:	0404df00 	csrxchg	$r0,$r24,0x137
1c009584:	0e000000 	0x0e000000
1c009588:	00040400 	alsl.w	$r0,$r0,$r1,0x1
1c00958c:	000b0000 	0x000b0000
1c009590:	000000d4 	0x000000d4
1c009594:	0000014c 	0x0000014c
1c009598:	1c001470 	pcaddu12i	$r16,163(0xa3)
1c00959c:	00001330 	clo.w	$r16,$r25
1c0095a0:	00000404 	0x00000404
1c0095a4:	04500e00 	csrxchg	$r0,$r16,0x1403
1c0095a8:	00000004 	0x00000004
1c0095ac:	14040296 	lu12i.w	$r22,8212(0x2014)
1c0095b0:	98000000 	0x98000000
1c0095b4:	9a059904 	0x9a059904
1c0095b8:	04099d06 	csrxchg	$r6,$r8,0x267
1c0095bc:	0000001c 	0x0000001c
1c0095c0:	03970181 	ori	$r1,$r12,0x5c0
1c0095c4:	089c079b 	fnmadd.s	$f27,$f28,$f1,$f24
1c0095c8:	0b9f0a9e 	0x0b9f0a9e
1c0095cc:	000dcc04 	bytepick.d	$r4,$r0,$r19,0x3
1c0095d0:	04d60a00 	csrxchg	$r0,$r16,0x3582
1c0095d4:	0000000c 	0x0000000c
1c0095d8:	000404c1 	alsl.w	$r1,$r6,$r1,0x1
1c0095dc:	04d70000 	csrrd	$r0,0x35c0
1c0095e0:	00000004 	0x00000004
1c0095e4:	000404d8 	alsl.w	$r24,$r6,$r1,0x1
1c0095e8:	04d90000 	csrrd	$r0,0x3640
1c0095ec:	00000004 	0x00000004
1c0095f0:	000404da 	alsl.w	$r26,$r6,$r1,0x1
1c0095f4:	04db0000 	csrrd	$r0,0x36c0
1c0095f8:	00000004 	0x00000004
1c0095fc:	000404dc 	alsl.w	$r28,$r6,$r1,0x1
1c009600:	04dd0000 	csrrd	$r0,0x3740
1c009604:	00000004 	0x00000004
1c009608:	000404de 	alsl.w	$r30,$r6,$r1,0x1
1c00960c:	04df0000 	csrrd	$r0,0x37c0
1c009610:	00000004 	0x00000004
1c009614:	0804000e 	0x0804000e
1c009618:	0b000000 	0x0b000000
1c00961c:	0004b804 	alsl.w	$r4,$r0,$r14,0x2
1c009620:	0c04d600 	0x0c04d600
1c009624:	c1000000 	0xc1000000
1c009628:	00000404 	0x00000404
1c00962c:	0404d700 	csrxchg	$r0,$r24,0x135
1c009630:	d8000000 	0xd8000000
1c009634:	00000404 	0x00000404
1c009638:	0404d900 	csrxchg	$r0,$r8,0x136
1c00963c:	da000000 	0xda000000
1c009640:	00000404 	0x00000404
1c009644:	0404db00 	csrxchg	$r0,$r24,0x136
1c009648:	dc000000 	0xdc000000
1c00964c:	00000404 	0x00000404
1c009650:	0404dd00 	csrxchg	$r0,$r8,0x137
1c009654:	de000000 	0xde000000
1c009658:	00000404 	0x00000404
1c00965c:	0404df00 	csrxchg	$r0,$r24,0x137
1c009660:	0e000000 	0x0e000000
1c009664:	00000000 	0x00000000
1c009668:	000000cc 	0x000000cc
1c00966c:	00000224 	0x00000224
1c009670:	1c0027a0 	pcaddu12i	$r0,317(0x13d)
1c009674:	0000138c 	clo.w	$r12,$r28
1c009678:	00000404 	0x00000404
1c00967c:	04500e00 	csrxchg	$r0,$r16,0x1403
1c009680:	00000008 	0x00000008
1c009684:	01810599 	0x01810599
1c009688:	00002804 	cto.d	$r4,$r0
1c00968c:	97029600 	0x97029600
1c009690:	9a049803 	0x9a049803
1c009694:	9c079b06 	0x9c079b06
1c009698:	9e099d08 	0x9e099d08
1c00969c:	040b9f0a 	csrxchg	$r10,$r24,0x2e7
1c0096a0:	00000e28 	0x00000e28
1c0096a4:	0404c10a 	csrxchg	$r10,$r8,0x130
1c0096a8:	d6000000 	0xd6000000
1c0096ac:	00000804 	0x00000804
1c0096b0:	0404d700 	csrxchg	$r0,$r24,0x135
1c0096b4:	d8000000 	0xd8000000
1c0096b8:	00000404 	0x00000404
1c0096bc:	0404d900 	csrxchg	$r0,$r8,0x136
1c0096c0:	da000000 	0xda000000
1c0096c4:	00000404 	0x00000404
1c0096c8:	0404db00 	csrxchg	$r0,$r24,0x136
1c0096cc:	dc000000 	0xdc000000
1c0096d0:	00000404 	0x00000404
1c0096d4:	0404dd00 	csrxchg	$r0,$r8,0x137
1c0096d8:	de000000 	0xde000000
1c0096dc:	00000404 	0x00000404
1c0096e0:	0404df00 	csrxchg	$r0,$r24,0x137
1c0096e4:	0e000000 	0x0e000000
1c0096e8:	00040400 	alsl.w	$r0,$r0,$r1,0x1
1c0096ec:	040b0000 	csrrd	$r0,0x2c0
1c0096f0:	000004c4 	0x000004c4
1c0096f4:	000404c1 	alsl.w	$r1,$r6,$r1,0x1
1c0096f8:	04d60000 	csrrd	$r0,0x3580
1c0096fc:	0000000c 	0x0000000c
1c009700:	000404d7 	alsl.w	$r23,$r6,$r1,0x1
1c009704:	04d80000 	csrrd	$r0,0x3600
1c009708:	00000004 	0x00000004
1c00970c:	000404d9 	alsl.w	$r25,$r6,$r1,0x1
1c009710:	04da0000 	csrrd	$r0,0x3680
1c009714:	00000004 	0x00000004
1c009718:	000404db 	alsl.w	$r27,$r6,$r1,0x1
1c00971c:	04dc0000 	csrrd	$r0,0x3700
1c009720:	00000004 	0x00000004
1c009724:	000404dd 	alsl.w	$r29,$r6,$r1,0x1
1c009728:	04de0000 	csrrd	$r0,0x3780
1c00972c:	00000004 	0x00000004
1c009730:	000404df 	alsl.w	$r31,$r6,$r1,0x1
1c009734:	000e0000 	bytepick.d	$r0,$r0,$r0,0x4
1c009738:	00000070 	0x00000070
1c00973c:	000002f4 	0x000002f4
1c009740:	1c003b30 	pcaddu12i	$r16,473(0x1d9)
1c009744:	000003f8 	0x000003f8
1c009748:	00000404 	0x00000404
1c00974c:	04400e00 	csrxchg	$r0,$r16,0x1003
1c009750:	00000024 	0x00000024
1c009754:	02980197 	addi.w	$r23,$r12,1536(0x600)
1c009758:	049a0399 	csrxchg	$r25,$r28,0x2680
1c00975c:	069c059b 	0x069c059b
1c009760:	089e079d 	fnmadd.s	$f29,$f28,$f1,$f28
1c009764:	9004099f 	0x9004099f
1c009768:	0a000003 	0x0a000003
1c00976c:	000404d7 	alsl.w	$r23,$r6,$r1,0x1
1c009770:	04d80000 	csrrd	$r0,0x3600
1c009774:	00000004 	0x00000004
1c009778:	000404d9 	alsl.w	$r25,$r6,$r1,0x1
1c00977c:	04da0000 	csrrd	$r0,0x3680
1c009780:	00000004 	0x00000004
1c009784:	000404db 	alsl.w	$r27,$r6,$r1,0x1
1c009788:	04dc0000 	csrrd	$r0,0x3700
1c00978c:	00000004 	0x00000004
1c009790:	000404dd 	alsl.w	$r29,$r6,$r1,0x1
1c009794:	04de0000 	csrrd	$r0,0x3780
1c009798:	00000004 	0x00000004
1c00979c:	000804df 	bytepick.w	$r31,$r6,$r1,0x0
1c0097a0:	000e0000 	bytepick.d	$r0,$r0,$r0,0x4
1c0097a4:	00000404 	0x00000404
1c0097a8:	00000b00 	0x00000b00
1c0097ac:	00000028 	0x00000028
1c0097b0:	00000368 	0x00000368
1c0097b4:	1c003f30 	pcaddu12i	$r16,505(0x1f9)
1c0097b8:	0000026c 	0x0000026c
1c0097bc:	00001804 	cto.w	$r4,$r0
1c0097c0:	04100e00 	csrxchg	$r0,$r16,0x403
1c0097c4:	000000e4 	0x000000e4
1c0097c8:	04000e0a 	csrxchg	$r10,$r16,0x3
1c0097cc:	00000004 	0x00000004
1c0097d0:	0164040b 	0x0164040b
1c0097d4:	000e0000 	bytepick.d	$r0,$r0,$r0,0x4
1c0097d8:	0000003c 	0x0000003c
1c0097dc:	00000394 	0x00000394
1c0097e0:	1c0041a0 	pcaddu12i	$r0,525(0x20d)
1c0097e4:	000002ac 	0x000002ac
1c0097e8:	00010c04 	0x00010c04
1c0097ec:	04100e00 	csrxchg	$r0,$r16,0x403
1c0097f0:	00000008 	0x00000008
1c0097f4:	02980197 	addi.w	$r23,$r12,1536(0x600)
1c0097f8:	00016004 	0x00016004
1c0097fc:	0404d700 	csrxchg	$r0,$r24,0x135
1c009800:	d8000000 	0xd8000000
1c009804:	00000404 	0x00000404
1c009808:	04000e00 	csrxchg	$r0,$r16,0x3
1c00980c:	00000018 	0x00000018
1c009810:	0197100e 	0x0197100e
1c009814:	00000298 	0x00000298
1c009818:	0000001c 	0x0000001c
1c00981c:	000003d4 	0x000003d4
1c009820:	1c004450 	pcaddu12i	$r16,546(0x222)
1c009824:	0000016c 	0x0000016c
1c009828:	00000404 	0x00000404
1c00982c:	04100e00 	csrxchg	$r0,$r16,0x403
1c009830:	00000164 	0x00000164
1c009834:	0000000e 	0x0000000e
1c009838:	00000054 	0x00000054
1c00983c:	000003f4 	0x000003f4
1c009840:	1c0045c0 	pcaddu12i	$r0,558(0x22e)
1c009844:	0000015c 	0x0000015c
1c009848:	00000804 	0x00000804
1c00984c:	04200e00 	csrxchg	$r0,$r16,0x803
1c009850:	00000008 	0x00000008
1c009854:	0c04059a 	0x0c04059a
1c009858:	98000000 	0x98000000
1c00985c:	04049903 	csrxchg	$r3,$r8,0x126
1c009860:	0000001c 	0x0000001c
1c009864:	01810297 	0x01810297
1c009868:	00010804 	0x00010804
1c00986c:	0404c100 	csrxchg	$r0,$r8,0x130
1c009870:	d7000000 	0xd7000000
1c009874:	00000404 	0x00000404
1c009878:	0404d800 	csrrd	$r0,0x136
1c00987c:	d9000000 	0xd9000000
1c009880:	00000404 	0x00000404
1c009884:	0404da00 	csrxchg	$r0,$r16,0x136
1c009888:	0e000000 	0x0e000000
1c00988c:	00000000 	0x00000000
1c009890:	0000006c 	0x0000006c
1c009894:	0000044c 	0x0000044c
1c009898:	1c004720 	pcaddu12i	$r0,569(0x239)
1c00989c:	00000198 	0x00000198
1c0098a0:	00000804 	0x00000804
1c0098a4:	04300e00 	csrxchg	$r0,$r16,0xc03
1c0098a8:	00000008 	0x00000008
1c0098ac:	089d0499 	fnmadd.s	$f25,$f4,$f1,$f26
1c0098b0:	00002404 	clz.d	$r4,$r0
1c0098b4:	98029700 	0x98029700
1c0098b8:	9b059a03 	0x9b059a03
1c0098bc:	9e079c06 	0x9e079c06
1c0098c0:	04018109 	csrxchg	$r9,$r8,0x60
1c0098c4:	00000138 	0x00000138
1c0098c8:	000404c1 	alsl.w	$r1,$r6,$r1,0x1
1c0098cc:	04d70000 	csrrd	$r0,0x35c0
1c0098d0:	00000004 	0x00000004
1c0098d4:	000404d8 	alsl.w	$r24,$r6,$r1,0x1
1c0098d8:	04d90000 	csrrd	$r0,0x3640
1c0098dc:	00000004 	0x00000004
1c0098e0:	000404da 	alsl.w	$r26,$r6,$r1,0x1
1c0098e4:	04db0000 	csrrd	$r0,0x36c0
1c0098e8:	00000004 	0x00000004
1c0098ec:	000404dc 	alsl.w	$r28,$r6,$r1,0x1
1c0098f0:	04dd0000 	csrrd	$r0,0x3740
1c0098f4:	00000004 	0x00000004
1c0098f8:	000404de 	alsl.w	$r30,$r6,$r1,0x1
1c0098fc:	000e0000 	bytepick.d	$r0,$r0,$r0,0x4
1c009900:	0000006c 	0x0000006c
1c009904:	000004bc 	0x000004bc
1c009908:	1c0048c0 	pcaddu12i	$r0,582(0x246)
1c00990c:	00000224 	0x00000224
1c009910:	00000804 	0x00000804
1c009914:	04300e00 	csrxchg	$r0,$r16,0xc03
1c009918:	00000008 	0x00000008
1c00991c:	089d0499 	fnmadd.s	$f25,$f4,$f1,$f26
1c009920:	00002404 	clz.d	$r4,$r0
1c009924:	98029700 	0x98029700
1c009928:	9b059a03 	0x9b059a03
1c00992c:	9e079c06 	0x9e079c06
1c009930:	04018109 	csrxchg	$r9,$r8,0x60
1c009934:	000001c4 	0x000001c4
1c009938:	000404c1 	alsl.w	$r1,$r6,$r1,0x1
1c00993c:	04d70000 	csrrd	$r0,0x35c0
1c009940:	00000004 	0x00000004
1c009944:	000404d8 	alsl.w	$r24,$r6,$r1,0x1
1c009948:	04d90000 	csrrd	$r0,0x3640
1c00994c:	00000004 	0x00000004
1c009950:	000404da 	alsl.w	$r26,$r6,$r1,0x1
1c009954:	04db0000 	csrrd	$r0,0x36c0
1c009958:	00000004 	0x00000004
1c00995c:	000404dc 	alsl.w	$r28,$r6,$r1,0x1
1c009960:	04dd0000 	csrrd	$r0,0x3740
1c009964:	00000004 	0x00000004
1c009968:	000404de 	alsl.w	$r30,$r6,$r1,0x1
1c00996c:	000e0000 	bytepick.d	$r0,$r0,$r0,0x4
1c009970:	00000030 	0x00000030
1c009974:	0000052c 	0x0000052c
1c009978:	1c004af0 	pcaddu12i	$r16,599(0x257)
1c00997c:	000001d0 	0x000001d0
1c009980:	00000c04 	0x00000c04
1c009984:	04100e00 	csrxchg	$r0,$r16,0x403
1c009988:	0000013c 	0x0000013c
1c00998c:	04000e0a 	csrxchg	$r10,$r16,0x3
1c009990:	00000008 	0x00000008
1c009994:	000c040b 	bytepick.d	$r11,$r0,$r1,0x0
1c009998:	0e0a0000 	0x0e0a0000
1c00999c:	00040400 	alsl.w	$r0,$r0,$r1,0x1
1c0099a0:	000b0000 	0x000b0000
1c0099a4:	00000024 	0x00000024
1c0099a8:	00000560 	0x00000560
1c0099ac:	1c004cc0 	pcaddu12i	$r0,614(0x266)
1c0099b0:	000001e8 	0x000001e8
1c0099b4:	00002404 	clz.d	$r4,$r0
1c0099b8:	04100e00 	csrxchg	$r0,$r16,0x403
1c0099bc:	00000138 	0x00000138
1c0099c0:	04000e0a 	csrxchg	$r10,$r16,0x3
1c0099c4:	00000004 	0x00000004
1c0099c8:	0000000b 	0x0000000b
1c0099cc:	0000001c 	0x0000001c
1c0099d0:	00000588 	0x00000588
1c0099d4:	1c004eb0 	pcaddu12i	$r16,629(0x275)
1c0099d8:	00000144 	0x00000144
1c0099dc:	00000c04 	0x00000c04
1c0099e0:	04100e00 	csrxchg	$r0,$r16,0x403
1c0099e4:	00000134 	0x00000134
1c0099e8:	0000000e 	0x0000000e
1c0099ec:	0000001c 	0x0000001c
1c0099f0:	000005a8 	0x000005a8
1c0099f4:	1c005000 	pcaddu12i	$r0,640(0x280)
1c0099f8:	00000290 	0x00000290
1c0099fc:	00001004 	clo.w	$r4,$r0
1c009a00:	04100e00 	csrxchg	$r0,$r16,0x403
1c009a04:	0000027c 	0x0000027c
1c009a08:	0000000e 	0x0000000e
1c009a0c:	0000001c 	0x0000001c
1c009a10:	000005c8 	0x000005c8
1c009a14:	1c005290 	pcaddu12i	$r16,660(0x294)
1c009a18:	00000524 	0x00000524
1c009a1c:	00000404 	0x00000404
1c009a20:	04100e00 	csrxchg	$r0,$r16,0x403
1c009a24:	0000051c 	0x0000051c
1c009a28:	0000000e 	0x0000000e
1c009a2c:	0000001c 	0x0000001c
1c009a30:	000005e8 	0x000005e8
1c009a34:	1c0057c0 	pcaddu12i	$r0,702(0x2be)
1c009a38:	00000298 	0x00000298
1c009a3c:	00000404 	0x00000404
1c009a40:	04100e00 	csrxchg	$r0,$r16,0x403
1c009a44:	00000290 	0x00000290
1c009a48:	0000000e 	0x0000000e
1c009a4c:	0000000c 	0x0000000c
1c009a50:	00000608 	0x00000608
1c009a54:	1c005a60 	pcaddu12i	$r0,723(0x2d3)
1c009a58:	00000008 	0x00000008
1c009a5c:	00000080 	0x00000080
1c009a60:	00000618 	0x00000618
1c009a64:	1c005a70 	pcaddu12i	$r16,723(0x2d3)
1c009a68:	00000bcc 	0x00000bcc
1c009a6c:	00000404 	0x00000404
1c009a70:	01a00e00 	0x01a00e00
1c009a74:	00002c04 	ctz.d	$r4,$r0
1c009a78:	810b9f00 	0x810b9f00
1c009a7c:	97029601 	0x97029601
1c009a80:	99049803 	0x99049803
1c009a84:	9b069a05 	0x9b069a05
1c009a88:	9d089c07 	0x9d089c07
1c009a8c:	040a9e09 	csrxchg	$r9,$r16,0x2a7
1c009a90:	000003e0 	0x000003e0
1c009a94:	0404c10a 	csrxchg	$r10,$r8,0x130
1c009a98:	d6000000 	0xd6000000
1c009a9c:	00000404 	0x00000404
1c009aa0:	0404d700 	csrxchg	$r0,$r24,0x135
1c009aa4:	d8000000 	0xd8000000
1c009aa8:	00000404 	0x00000404
1c009aac:	0404d900 	csrxchg	$r0,$r8,0x136
1c009ab0:	da000000 	0xda000000
1c009ab4:	00000404 	0x00000404
1c009ab8:	0404db00 	csrxchg	$r0,$r24,0x136
1c009abc:	dc000000 	0xdc000000
1c009ac0:	00000404 	0x00000404
1c009ac4:	0404dd00 	csrxchg	$r0,$r8,0x137
1c009ac8:	de000000 	0xde000000
1c009acc:	00000404 	0x00000404
1c009ad0:	0404df00 	csrxchg	$r0,$r24,0x137
1c009ad4:	0e000000 	0x0e000000
1c009ad8:	00040400 	alsl.w	$r0,$r0,$r1,0x1
1c009adc:	000b0000 	0x000b0000
1c009ae0:	00000028 	0x00000028
1c009ae4:	0000069c 	0x0000069c
1c009ae8:	1c006640 	pcaddu12i	$r0,818(0x332)
1c009aec:	0000019c 	0x0000019c
1c009af0:	00001404 	clz.w	$r4,$r0
1c009af4:	04100e00 	csrxchg	$r0,$r16,0x403
1c009af8:	00000160 	0x00000160
1c009afc:	04000e0a 	csrxchg	$r10,$r16,0x3
1c009b00:	00000004 	0x00000004
1c009b04:	000c040b 	bytepick.d	$r11,$r0,$r1,0x0
1c009b08:	000e0000 	bytepick.d	$r0,$r0,$r0,0x4
1c009b0c:	00000068 	0x00000068
1c009b10:	000006c8 	0x000006c8
1c009b14:	1c0067e0 	pcaddu12i	$r0,831(0x33f)
1c009b18:	00000358 	0x00000358
1c009b1c:	00002804 	cto.d	$r4,$r0
1c009b20:	04100e00 	csrxchg	$r0,$r16,0x403
1c009b24:	000000e0 	0x000000e0
1c009b28:	04000e0a 	csrxchg	$r10,$r16,0x3
1c009b2c:	00000008 	0x00000008
1c009b30:	0034040b 	0x0034040b
1c009b34:	0e0a0000 	0x0e0a0000
1c009b38:	00040400 	alsl.w	$r0,$r0,$r1,0x1
1c009b3c:	040b0000 	csrrd	$r0,0x2c0
1c009b40:	0000001c 	0x0000001c
1c009b44:	04000e0a 	csrxchg	$r10,$r16,0x3
1c009b48:	00000004 	0x00000004
1c009b4c:	0048040b 	0x0048040b
1c009b50:	0e0a0000 	0x0e0a0000
1c009b54:	00040400 	alsl.w	$r0,$r0,$r1,0x1
1c009b58:	040b0000 	csrrd	$r0,0x2c0
1c009b5c:	00000068 	0x00000068
1c009b60:	04000e0a 	csrxchg	$r10,$r16,0x3
1c009b64:	00000004 	0x00000004
1c009b68:	00ec040b 	bstrpick.d	$r11,$r0,0x2c,0x1
1c009b6c:	000e0000 	bytepick.d	$r0,$r0,$r0,0x4
1c009b70:	00000c04 	0x00000c04
1c009b74:	00100e00 	add.w	$r0,$r16,$r3
1c009b78:	00000058 	0x00000058
1c009b7c:	00000734 	0x00000734
1c009b80:	1c006b40 	pcaddu12i	$r0,858(0x35a)
1c009b84:	00000148 	0x00000148
1c009b88:	00000804 	0x00000804
1c009b8c:	04300e00 	csrxchg	$r0,$r16,0xc03
1c009b90:	00000004 	0x00000004
1c009b94:	10040181 	addu16i.d	$r1,$r12,256(0x100)
1c009b98:	97000000 	0x97000000
1c009b9c:	04039802 	csrrd	$r2,0xe6
1c009ba0:	0000000c 	0x0000000c
1c009ba4:	059a0499 	0x059a0499
1c009ba8:	00006c04 	cpucfg	$r4,$r0
1c009bac:	04c10a00 	csrxchg	$r0,$r16,0x3042
1c009bb0:	00000004 	0x00000004
1c009bb4:	000404d7 	alsl.w	$r23,$r6,$r1,0x1
1c009bb8:	04d80000 	csrrd	$r0,0x3600
1c009bbc:	00000004 	0x00000004
1c009bc0:	000404d9 	alsl.w	$r25,$r6,$r1,0x1
1c009bc4:	04da0000 	csrrd	$r0,0x3680
1c009bc8:	00000008 	0x00000008
1c009bcc:	0404000e 	csrrd	$r14,0x100
1c009bd0:	0b000000 	0x0b000000
1c009bd4:	00000068 	0x00000068
1c009bd8:	00000790 	0x00000790
1c009bdc:	1c006c90 	pcaddu12i	$r16,868(0x364)
1c009be0:	00000260 	0x00000260
1c009be4:	00000804 	0x00000804
1c009be8:	04300e00 	csrxchg	$r0,$r16,0xc03
1c009bec:	00000004 	0x00000004
1c009bf0:	0c040297 	0x0c040297
1c009bf4:	81000000 	0x81000000
1c009bf8:	00100401 	add.w	$r1,$r0,$r1
1c009bfc:	03980000 	ori	$r0,$r0,0x600
1c009c00:	069b0499 	0x069b0499
1c009c04:	00000c04 	0x00000c04
1c009c08:	04059a00 	csrxchg	$r0,$r16,0x166
1c009c0c:	000000d8 	0x000000d8
1c009c10:	0804c10a 	0x0804c10a
1c009c14:	d7000000 	0xd7000000
1c009c18:	00000404 	0x00000404
1c009c1c:	0404d800 	csrrd	$r0,0x136
1c009c20:	d9000000 	0xd9000000
1c009c24:	00000404 	0x00000404
1c009c28:	0404da00 	csrxchg	$r0,$r16,0x136
1c009c2c:	db000000 	0xdb000000
1c009c30:	00000404 	0x00000404
1c009c34:	04000e00 	csrxchg	$r0,$r16,0x3
1c009c38:	00000008 	0x00000008
1c009c3c:	0000000b 	0x0000000b
1c009c40:	0000000c 	0x0000000c
1c009c44:	000007fc 	0x000007fc
1c009c48:	1c006ef0 	pcaddu12i	$r16,887(0x377)
1c009c4c:	00000058 	0x00000058
1c009c50:	0000000c 	0x0000000c
1c009c54:	0000080c 	0x0000080c
1c009c58:	1c006f50 	pcaddu12i	$r16,890(0x37a)
1c009c5c:	00000014 	0x00000014
1c009c60:	00000084 	0x00000084
1c009c64:	0000081c 	0x0000081c
1c009c68:	1c006f70 	pcaddu12i	$r16,891(0x37b)
1c009c6c:	00000ac0 	0x00000ac0
1c009c70:	00000404 	0x00000404
1c009c74:	04500e00 	csrxchg	$r0,$r16,0x1403
1c009c78:	00000004 	0x00000004
1c009c7c:	2c040599 	vld	$vr25,$r12,257(0x101)
1c009c80:	96000000 	0x96000000
1c009c84:	810b9f02 	0x810b9f02
1c009c88:	98039701 	0x98039701
1c009c8c:	9b069a04 	0x9b069a04
1c009c90:	9d089c07 	0x9d089c07
1c009c94:	040a9e09 	csrxchg	$r9,$r16,0x2a7
1c009c98:	00000670 	0x00000670
1c009c9c:	0404c10a 	csrxchg	$r10,$r8,0x130
1c009ca0:	d6000000 	0xd6000000
1c009ca4:	00000804 	0x00000804
1c009ca8:	0404d700 	csrxchg	$r0,$r24,0x135
1c009cac:	d8000000 	0xd8000000
1c009cb0:	00000404 	0x00000404
1c009cb4:	0404d900 	csrxchg	$r0,$r8,0x136
1c009cb8:	da000000 	0xda000000
1c009cbc:	00000404 	0x00000404
1c009cc0:	0404db00 	csrxchg	$r0,$r24,0x136
1c009cc4:	dc000000 	0xdc000000
1c009cc8:	00000404 	0x00000404
1c009ccc:	0404dd00 	csrxchg	$r0,$r8,0x137
1c009cd0:	de000000 	0xde000000
1c009cd4:	00000404 	0x00000404
1c009cd8:	0404df00 	csrxchg	$r0,$r24,0x137
1c009cdc:	0e000000 	0x0e000000
1c009ce0:	00040400 	alsl.w	$r0,$r0,$r1,0x1
1c009ce4:	000b0000 	0x000b0000
1c009ce8:	00000024 	0x00000024
1c009cec:	000008a4 	0x000008a4
1c009cf0:	1c007a30 	pcaddu12i	$r16,977(0x3d1)
1c009cf4:	00000580 	0x00000580
1c009cf8:	00004004 	revh.2w	$r4,$r0
1c009cfc:	04100e00 	csrxchg	$r0,$r16,0x403
1c009d00:	0000052c 	0x0000052c
1c009d04:	04000e0a 	csrxchg	$r10,$r16,0x3
1c009d08:	00000004 	0x00000004
1c009d0c:	0000000b 	0x0000000b
1c009d10:	0000000c 	0x0000000c
1c009d14:	000008cc 	0x000008cc
1c009d18:	1c007fb0 	pcaddu12i	$r16,1021(0x3fd)
1c009d1c:	00000060 	0x00000060
1c009d20:	0000000c 	0x0000000c
1c009d24:	000008dc 	0x000008dc
1c009d28:	1c008010 	pcaddu12i	$r16,1024(0x400)
1c009d2c:	0000002c 	0x0000002c
1c009d30:	0000000c 	0x0000000c
1c009d34:	000008ec 	0x000008ec
1c009d38:	1c008040 	pcaddu12i	$r0,1026(0x402)
1c009d3c:	00000020 	0x00000020
1c009d40:	0000000c 	0x0000000c
1c009d44:	000008fc 	0x000008fc
1c009d48:	1c008060 	pcaddu12i	$r0,1027(0x403)
1c009d4c:	00000074 	0x00000074
1c009d50:	0000000c 	0x0000000c
1c009d54:	0000090c 	0x0000090c
1c009d58:	1c0080e0 	pcaddu12i	$r0,1031(0x407)
1c009d5c:	000000a8 	0x000000a8
1c009d60:	00000078 	0x00000078
1c009d64:	0000091c 	0x0000091c
1c009d68:	1c008190 	pcaddu12i	$r16,1036(0x40c)
1c009d6c:	00000234 	0x00000234
1c009d70:	00000804 	0x00000804
1c009d74:	04300e00 	csrxchg	$r0,$r16,0xc03
1c009d78:	0000002c 	0x0000002c
1c009d7c:	079b069a 	0x079b069a
1c009d80:	099d089c 	vfnmadd.s	$vr28,$vr4,$vr2,$vr26
1c009d84:	02960181 	addi.w	$r1,$r12,1408(0x580)
1c009d88:	04980397 	csrxchg	$r23,$r28,0x2600
1c009d8c:	0a9e0599 	xvfnmadd.s	$xr25,$xr12,$xr1,$xr28
1c009d90:	c0040b9f 	0xc0040b9f
1c009d94:	c1000001 	0xc1000001
1c009d98:	00000404 	0x00000404
1c009d9c:	0804d600 	0x0804d600
1c009da0:	d7000000 	0xd7000000
1c009da4:	00000404 	0x00000404
1c009da8:	0404d800 	csrrd	$r0,0x136
1c009dac:	d9000000 	0xd9000000
1c009db0:	00000404 	0x00000404
1c009db4:	0404da00 	csrxchg	$r0,$r16,0x136
1c009db8:	db000000 	0xdb000000
1c009dbc:	00000404 	0x00000404
1c009dc0:	0404dc00 	csrrd	$r0,0x137
1c009dc4:	dd000000 	0xdd000000
1c009dc8:	00000404 	0x00000404
1c009dcc:	0404de00 	csrxchg	$r0,$r16,0x137
1c009dd0:	df000000 	0xdf000000
1c009dd4:	00000404 	0x00000404
1c009dd8:	00000e00 	0x00000e00
1c009ddc:	0000000c 	0x0000000c
1c009de0:	00000998 	0x00000998
1c009de4:	1c0083d0 	pcaddu12i	$r16,1054(0x41e)
1c009de8:	00000008 	0x00000008
1c009dec:	0000000c 	0x0000000c
1c009df0:	000009a8 	0x000009a8
1c009df4:	1c0083e0 	pcaddu12i	$r0,1055(0x41f)
1c009df8:	00000004 	0x00000004
1c009dfc:	0000000c 	0x0000000c
1c009e00:	000009b8 	0x000009b8
1c009e04:	1c0083f0 	pcaddu12i	$r16,1055(0x41f)
1c009e08:	00000010 	0x00000010
1c009e0c:	0000000c 	0x0000000c
1c009e10:	000009c8 	0x000009c8
1c009e14:	1c008400 	pcaddu12i	$r0,1056(0x420)
1c009e18:	00000010 	0x00000010
1c009e1c:	0000000c 	0x0000000c
1c009e20:	000009d8 	0x000009d8
1c009e24:	1c008410 	pcaddu12i	$r16,1056(0x420)
1c009e28:	0000004c 	0x0000004c
1c009e2c:	0000000c 	0x0000000c
1c009e30:	000009e8 	0x000009e8
1c009e34:	1c008460 	pcaddu12i	$r0,1059(0x423)
1c009e38:	00000018 	0x00000018
1c009e3c:	0000000c 	0x0000000c
1c009e40:	000009f8 	0x000009f8
1c009e44:	1c008480 	pcaddu12i	$r0,1060(0x424)
1c009e48:	0000000c 	0x0000000c
1c009e4c:	0000000c 	0x0000000c
1c009e50:	00000a08 	0x00000a08
1c009e54:	1c008490 	pcaddu12i	$r16,1060(0x424)
1c009e58:	00000008 	0x00000008
1c009e5c:	00000060 	0x00000060
1c009e60:	00000a18 	0x00000a18
1c009e64:	1c0084a0 	pcaddu12i	$r0,1061(0x425)
1c009e68:	0000022c 	0x0000022c
1c009e6c:	00000404 	0x00000404
1c009e70:	04600e00 	csrxchg	$r0,$r16,0x1803
1c009e74:	0000001c 	0x0000001c
1c009e78:	09810d9a 	0x09810d9a
1c009e7c:	0b980a97 	0x0b980a97
1c009e80:	0e9b0c99 	0x0e9b0c99
1c009e84:	b0040f9c 	0xb0040f9c
1c009e88:	0a000000 	0x0a000000
1c009e8c:	000404c1 	alsl.w	$r1,$r6,$r1,0x1
1c009e90:	04d70000 	csrrd	$r0,0x35c0
1c009e94:	00000004 	0x00000004
1c009e98:	000404d8 	alsl.w	$r24,$r6,$r1,0x1
1c009e9c:	04d90000 	csrrd	$r0,0x3640
1c009ea0:	00000004 	0x00000004
1c009ea4:	000404da 	alsl.w	$r26,$r6,$r1,0x1
1c009ea8:	04db0000 	csrrd	$r0,0x36c0
1c009eac:	00000004 	0x00000004
1c009eb0:	000804dc 	bytepick.w	$r28,$r6,$r1,0x0
1c009eb4:	000e0000 	bytepick.d	$r0,$r0,$r0,0x4
1c009eb8:	00000404 	0x00000404
1c009ebc:	00000b00 	0x00000b00
1c009ec0:	00000028 	0x00000028
1c009ec4:	00000a7c 	0x00000a7c
1c009ec8:	1c0086cc 	pcaddu12i	$r12,1078(0x436)
1c009ecc:	00000028 	0x00000028
1c009ed0:	00000404 	0x00000404
1c009ed4:	04100e00 	csrxchg	$r0,$r16,0x403
1c009ed8:	00000004 	0x00000004
1c009edc:	18040199 	pcaddi	$r25,8204(0x200c)
1c009ee0:	d9000000 	0xd9000000
1c009ee4:	00000404 	0x00000404
1c009ee8:	00000e00 	0x00000e00
1c009eec:	00000028 	0x00000028
1c009ef0:	00000aa8 	0x00000aa8
1c009ef4:	1c0086f4 	pcaddu12i	$r20,1079(0x437)
1c009ef8:	00000024 	0x00000024
1c009efc:	00000404 	0x00000404
1c009f00:	04100e00 	csrxchg	$r0,$r16,0x403
1c009f04:	00000004 	0x00000004
1c009f08:	14040199 	lu12i.w	$r25,8204(0x200c)
1c009f0c:	d9000000 	0xd9000000
1c009f10:	00000404 	0x00000404
1c009f14:	00000e00 	0x00000e00
1c009f18:	00000040 	0x00000040
1c009f1c:	00000ad4 	0x00000ad4
1c009f20:	1c008718 	pcaddu12i	$r24,1080(0x438)
1c009f24:	00000074 	0x00000074
1c009f28:	00000404 	0x00000404
1c009f2c:	04100e00 	csrxchg	$r0,$r16,0x403
1c009f30:	00000010 	0x00000010
1c009f34:	02970181 	addi.w	$r1,$r12,1472(0x5c0)
1c009f38:	04990398 	csrxchg	$r24,$r28,0x2640
1c009f3c:	00004804 	bitrev.4b	$r4,$r0
1c009f40:	0404c100 	csrxchg	$r0,$r8,0x130
1c009f44:	d7000000 	0xd7000000
1c009f48:	00000404 	0x00000404
1c009f4c:	0404d800 	csrrd	$r0,0x136
1c009f50:	d9000000 	0xd9000000
1c009f54:	00000804 	0x00000804
1c009f58:	00000e00 	0x00000e00
1c009f5c:	00000028 	0x00000028
1c009f60:	00000b18 	0x00000b18
1c009f64:	1c00878c 	pcaddu12i	$r12,1084(0x43c)
1c009f68:	0000002c 	0x0000002c
1c009f6c:	00000404 	0x00000404
1c009f70:	04100e00 	csrxchg	$r0,$r16,0x403
1c009f74:	00000004 	0x00000004
1c009f78:	18040181 	pcaddi	$r1,8204(0x200c)
1c009f7c:	c1000000 	0xc1000000
1c009f80:	00000804 	0x00000804
1c009f84:	00000e00 	0x00000e00
1c009f88:	00000048 	0x00000048
1c009f8c:	00000b44 	0x00000b44
1c009f90:	1c0087b8 	pcaddu12i	$r24,1085(0x43d)
1c009f94:	000000e8 	0x000000e8
1c009f98:	00000404 	0x00000404
1c009f9c:	04600e00 	csrxchg	$r0,$r16,0x1803
1c009fa0:	00000010 	0x00000010
1c009fa4:	01810297 	0x01810297
1c009fa8:	04990398 	csrxchg	$r24,$r28,0x2640
1c009fac:	00008804 	0x00008804
1c009fb0:	04c10a00 	csrxchg	$r0,$r16,0x3042
1c009fb4:	00000004 	0x00000004
1c009fb8:	000404d7 	alsl.w	$r23,$r6,$r1,0x1
1c009fbc:	04d80000 	csrrd	$r0,0x3600
1c009fc0:	00000004 	0x00000004
1c009fc4:	000804d9 	bytepick.w	$r25,$r6,$r1,0x0
1c009fc8:	000e0000 	bytepick.d	$r0,$r0,$r0,0x4
1c009fcc:	00000404 	0x00000404
1c009fd0:	00000b00 	0x00000b00
1c009fd4:	0000000c 	0x0000000c
1c009fd8:	00000b90 	0x00000b90
1c009fdc:	1c0088a0 	pcaddu12i	$r0,1093(0x445)
1c009fe0:	00000030 	0x00000030
1c009fe4:	0000000c 	0x0000000c
1c009fe8:	00000ba0 	0x00000ba0
1c009fec:	1c0088d0 	pcaddu12i	$r16,1094(0x446)
1c009ff0:	0000003c 	0x0000003c
1c009ff4:	0000000c 	0x0000000c
1c009ff8:	00000bb0 	0x00000bb0
1c009ffc:	1c00890c 	pcaddu12i	$r12,1096(0x448)
1c00a000:	0000001c 	0x0000001c
1c00a004:	0000000c 	0x0000000c
1c00a008:	00000bc0 	0x00000bc0
1c00a00c:	1c008928 	pcaddu12i	$r8,1097(0x449)
1c00a010:	00000028 	0x00000028
1c00a014:	0000001c 	0x0000001c
1c00a018:	00000bd0 	0x00000bd0
1c00a01c:	1c008950 	pcaddu12i	$r16,1098(0x44a)
1c00a020:	00000068 	0x00000068
1c00a024:	00004c04 	bitrev.8b	$r4,$r0
1c00a028:	04100e00 	csrxchg	$r0,$r16,0x403
1c00a02c:	00000014 	0x00000014
1c00a030:	0000000e 	0x0000000e
1c00a034:	0000000c 	0x0000000c
1c00a038:	00000bf0 	0x00000bf0
1c00a03c:	1c0089b8 	pcaddu12i	$r24,1101(0x44d)
1c00a040:	0000002c 	0x0000002c
1c00a044:	0000000c 	0x0000000c
1c00a048:	00000c00 	0x00000c00
1c00a04c:	1c0089e4 	pcaddu12i	$r4,1103(0x44f)
1c00a050:	00000028 	0x00000028
1c00a054:	0000000c 	0x0000000c
1c00a058:	00000c10 	0x00000c10
1c00a05c:	1c008a0c 	pcaddu12i	$r12,1104(0x450)
1c00a060:	0000001c 	0x0000001c
1c00a064:	0000000c 	0x0000000c
1c00a068:	00000c20 	0x00000c20
1c00a06c:	1c008a28 	pcaddu12i	$r8,1105(0x451)
1c00a070:	00000024 	0x00000024
1c00a074:	0000000c 	0x0000000c
1c00a078:	00000c30 	0x00000c30
1c00a07c:	1c008a4c 	pcaddu12i	$r12,1106(0x452)
1c00a080:	00000054 	0x00000054
1c00a084:	0000001c 	0x0000001c
1c00a088:	00000c40 	0x00000c40
1c00a08c:	1c008aa0 	pcaddu12i	$r0,1109(0x455)
1c00a090:	00000058 	0x00000058
1c00a094:	00003c04 	revb.d	$r4,$r0
1c00a098:	04100e00 	csrxchg	$r0,$r16,0x403
1c00a09c:	00000014 	0x00000014
1c00a0a0:	0000000e 	0x0000000e
1c00a0a4:	0000000c 	0x0000000c
1c00a0a8:	00000c60 	0x00000c60
1c00a0ac:	1c008af8 	pcaddu12i	$r24,1111(0x457)
1c00a0b0:	00000018 	0x00000018
1c00a0b4:	00000028 	0x00000028
1c00a0b8:	00000c70 	0x00000c70
1c00a0bc:	1c008b10 	pcaddu12i	$r16,1112(0x458)
1c00a0c0:	0000001c 	0x0000001c
1c00a0c4:	00000404 	0x00000404
1c00a0c8:	04100e00 	csrxchg	$r0,$r16,0x403
1c00a0cc:	00000004 	0x00000004
1c00a0d0:	0c040199 	0x0c040199
1c00a0d4:	d9000000 	0xd9000000
1c00a0d8:	00000404 	0x00000404
1c00a0dc:	00000e00 	0x00000e00
1c00a0e0:	0000000c 	0x0000000c
1c00a0e4:	00000c9c 	0x00000c9c
1c00a0e8:	1c008b2c 	pcaddu12i	$r12,1113(0x459)
1c00a0ec:	00000004 	0x00000004
1c00a0f0:	0000000c 	0x0000000c
1c00a0f4:	00000cac 	0x00000cac
1c00a0f8:	1c008b30 	pcaddu12i	$r16,1113(0x459)
1c00a0fc:	00000008 	0x00000008
1c00a100:	00000028 	0x00000028
1c00a104:	00000cbc 	0x00000cbc
1c00a108:	1c008b38 	pcaddu12i	$r24,1113(0x459)
1c00a10c:	00000084 	0x00000084
1c00a110:	00000404 	0x00000404
1c00a114:	04100e00 	csrxchg	$r0,$r16,0x403
1c00a118:	00000004 	0x00000004
1c00a11c:	60040199 	blt	$r12,$r25,1024(0x400) # 1c00a51c <_heap+0x31c>
1c00a120:	d9000000 	0xd9000000
1c00a124:	00001804 	cto.w	$r4,$r0
1c00a128:	00000e00 	0x00000e00
1c00a12c:	0000000c 	0x0000000c
1c00a130:	00000ce8 	0x00000ce8
1c00a134:	1c008bbc 	pcaddu12i	$r28,1117(0x45d)
1c00a138:	00000004 	0x00000004
1c00a13c:	00000028 	0x00000028
1c00a140:	00000cf8 	0x00000cf8
1c00a144:	1c008bc0 	pcaddu12i	$r0,1118(0x45e)
1c00a148:	00000024 	0x00000024
1c00a14c:	00000404 	0x00000404
1c00a150:	04100e00 	csrxchg	$r0,$r16,0x403
1c00a154:	00000004 	0x00000004
1c00a158:	10040199 	addu16i.d	$r25,$r12,256(0x100)
1c00a15c:	d9000000 	0xd9000000
1c00a160:	00000804 	0x00000804
1c00a164:	00000e00 	0x00000e00
1c00a168:	00000028 	0x00000028
1c00a16c:	00000d24 	0x00000d24
1c00a170:	1c008be4 	pcaddu12i	$r4,1119(0x45f)
1c00a174:	00000030 	0x00000030
1c00a178:	00000404 	0x00000404
1c00a17c:	04100e00 	csrxchg	$r0,$r16,0x403
1c00a180:	00000004 	0x00000004
1c00a184:	10040199 	addu16i.d	$r25,$r12,256(0x100)
1c00a188:	d9000000 	0xd9000000
1c00a18c:	00001404 	clz.w	$r4,$r0
1c00a190:	00000e00 	0x00000e00

Disassembly of section .bss:

1c00a194 <stop_time_val>:
	...

1c00a1a4 <start_time_val>:
	...

Disassembly of section .debug_aranges:

00000000 <.debug_aranges>:
   0:	0000001c 	0x0000001c
   4:	00000002 	0x00000002
   8:	00040000 	alsl.w	$r0,$r0,$r0,0x1
   c:	00000000 	0x00000000
  10:	1c0084a0 	pcaddu12i	$r0,1061(0x425)
  14:	0000022c 	0x0000022c
	...
  20:	0000001c 	0x0000001c
  24:	03160002 	lu52i.d	$r2,$r0,1408(0x580)
  28:	00040000 	alsl.w	$r0,$r0,$r0,0x1
  2c:	00000000 	0x00000000
  30:	1c0086cc 	pcaddu12i	$r12,1078(0x436)
  34:	0000004c 	0x0000004c
	...
  40:	0000001c 	0x0000001c
  44:	04860002 	csrrd	$r2,0x2180
  48:	00040000 	alsl.w	$r0,$r0,$r0,0x1
  4c:	00000000 	0x00000000
  50:	1c008718 	pcaddu12i	$r24,1080(0x438)
  54:	000000a0 	0x000000a0
	...
  60:	0000001c 	0x0000001c
  64:	06a00002 	0x06a00002
  68:	00040000 	alsl.w	$r0,$r0,$r0,0x1
  6c:	00000000 	0x00000000
  70:	1c0087b8 	pcaddu12i	$r24,1085(0x43d)
  74:	000000e8 	0x000000e8
	...
  80:	0000001c 	0x0000001c
  84:	08ba0002 	0x08ba0002
  88:	00040000 	alsl.w	$r0,$r0,$r0,0x1
  8c:	00000000 	0x00000000
  90:	1c0088a0 	pcaddu12i	$r0,1093(0x445)
  94:	00000270 	0x00000270
	...
  a0:	0000001c 	0x0000001c
  a4:	0ddd0002 	0x0ddd0002
  a8:	00040000 	alsl.w	$r0,$r0,$r0,0x1
  ac:	00000000 	0x00000000
  b0:	1c008b10 	pcaddu12i	$r16,1112(0x458)
  b4:	00000104 	0x00000104
	...

Disassembly of section .comment:

00000000 <.comment>:
   0:	3a434347 	0x3a434347
   4:	4e472820 	jirl	$r0,$r1,-112856(0x24728)
   8:	38202955 	ldx.bu	$r21,$r10,$r10
   c:	302e332e 	vldrepl.w	$vr14,$r25,-464(0xe30)
	...

Disassembly of section .debug_frame:

00000000 <.debug_frame>:
   0:	0000000c 	0x0000000c
   4:	ffffffff 	0xffffffff
   8:	7c010003 	0x7c010003
   c:	00030c01 	0x00030c01
  10:	00000060 	0x00000060
  14:	00000000 	0x00000000
  18:	1c0084a0 	pcaddu12i	$r0,1061(0x425)
  1c:	0000022c 	0x0000022c
  20:	00000404 	0x00000404
  24:	04600e00 	csrxchg	$r0,$r16,0x1803
  28:	0000001c 	0x0000001c
  2c:	09810d9a 	0x09810d9a
  30:	0b980a97 	0x0b980a97
  34:	0e9b0c99 	0x0e9b0c99
  38:	b0040f9c 	0xb0040f9c
  3c:	0a000000 	0x0a000000
  40:	000404c1 	alsl.w	$r1,$r6,$r1,0x1
  44:	04d70000 	csrrd	$r0,0x35c0
  48:	00000004 	0x00000004
  4c:	000404d8 	alsl.w	$r24,$r6,$r1,0x1
  50:	04d90000 	csrrd	$r0,0x3640
  54:	00000004 	0x00000004
  58:	000404da 	alsl.w	$r26,$r6,$r1,0x1
  5c:	04db0000 	csrrd	$r0,0x36c0
  60:	00000004 	0x00000004
  64:	000804dc 	bytepick.w	$r28,$r6,$r1,0x0
  68:	000e0000 	bytepick.d	$r0,$r0,$r0,0x4
  6c:	00000404 	0x00000404
  70:	00000b00 	0x00000b00
  74:	0000000c 	0x0000000c
  78:	ffffffff 	0xffffffff
  7c:	7c010003 	0x7c010003
  80:	00030c01 	0x00030c01
  84:	00000028 	0x00000028
  88:	00000074 	0x00000074
  8c:	1c0086cc 	pcaddu12i	$r12,1078(0x436)
  90:	00000028 	0x00000028
  94:	00000404 	0x00000404
  98:	04100e00 	csrxchg	$r0,$r16,0x403
  9c:	00000004 	0x00000004
  a0:	18040199 	pcaddi	$r25,8204(0x200c)
  a4:	d9000000 	0xd9000000
  a8:	00000404 	0x00000404
  ac:	00000e00 	0x00000e00
  b0:	00000028 	0x00000028
  b4:	00000074 	0x00000074
  b8:	1c0086f4 	pcaddu12i	$r20,1079(0x437)
  bc:	00000024 	0x00000024
  c0:	00000404 	0x00000404
  c4:	04100e00 	csrxchg	$r0,$r16,0x403
  c8:	00000004 	0x00000004
  cc:	14040199 	lu12i.w	$r25,8204(0x200c)
  d0:	d9000000 	0xd9000000
  d4:	00000404 	0x00000404
  d8:	00000e00 	0x00000e00
  dc:	0000000c 	0x0000000c
  e0:	ffffffff 	0xffffffff
  e4:	7c010003 	0x7c010003
  e8:	00030c01 	0x00030c01
  ec:	00000040 	0x00000040
  f0:	000000dc 	0x000000dc
  f4:	1c008718 	pcaddu12i	$r24,1080(0x438)
  f8:	00000074 	0x00000074
  fc:	00000404 	0x00000404
 100:	04100e00 	csrxchg	$r0,$r16,0x403
 104:	00000010 	0x00000010
 108:	02970181 	addi.w	$r1,$r12,1472(0x5c0)
 10c:	04990398 	csrxchg	$r24,$r28,0x2640
 110:	00004804 	bitrev.4b	$r4,$r0
 114:	0404c100 	csrxchg	$r0,$r8,0x130
 118:	d7000000 	0xd7000000
 11c:	00000404 	0x00000404
 120:	0404d800 	csrrd	$r0,0x136
 124:	d9000000 	0xd9000000
 128:	00000804 	0x00000804
 12c:	00000e00 	0x00000e00
 130:	00000028 	0x00000028
 134:	000000dc 	0x000000dc
 138:	1c00878c 	pcaddu12i	$r12,1084(0x43c)
 13c:	0000002c 	0x0000002c
 140:	00000404 	0x00000404
 144:	04100e00 	csrxchg	$r0,$r16,0x403
 148:	00000004 	0x00000004
 14c:	18040181 	pcaddi	$r1,8204(0x200c)
 150:	c1000000 	0xc1000000
 154:	00000804 	0x00000804
 158:	00000e00 	0x00000e00
 15c:	0000000c 	0x0000000c
 160:	ffffffff 	0xffffffff
 164:	7c010003 	0x7c010003
 168:	00030c01 	0x00030c01
 16c:	00000048 	0x00000048
 170:	0000015c 	0x0000015c
 174:	1c0087b8 	pcaddu12i	$r24,1085(0x43d)
 178:	000000e8 	0x000000e8
 17c:	00000404 	0x00000404
 180:	04600e00 	csrxchg	$r0,$r16,0x1803
 184:	00000010 	0x00000010
 188:	01810297 	0x01810297
 18c:	04990398 	csrxchg	$r24,$r28,0x2640
 190:	00008804 	0x00008804
 194:	04c10a00 	csrxchg	$r0,$r16,0x3042
 198:	00000004 	0x00000004
 19c:	000404d7 	alsl.w	$r23,$r6,$r1,0x1
 1a0:	04d80000 	csrrd	$r0,0x3600
 1a4:	00000004 	0x00000004
 1a8:	000804d9 	bytepick.w	$r25,$r6,$r1,0x0
 1ac:	000e0000 	bytepick.d	$r0,$r0,$r0,0x4
 1b0:	00000404 	0x00000404
 1b4:	00000b00 	0x00000b00
 1b8:	0000000c 	0x0000000c
 1bc:	ffffffff 	0xffffffff
 1c0:	7c010003 	0x7c010003
 1c4:	00030c01 	0x00030c01
 1c8:	0000000c 	0x0000000c
 1cc:	000001b8 	0x000001b8
 1d0:	1c0088a0 	pcaddu12i	$r0,1093(0x445)
 1d4:	00000030 	0x00000030
 1d8:	0000000c 	0x0000000c
 1dc:	000001b8 	0x000001b8
 1e0:	1c0088d0 	pcaddu12i	$r16,1094(0x446)
 1e4:	0000003c 	0x0000003c
 1e8:	0000000c 	0x0000000c
 1ec:	000001b8 	0x000001b8
 1f0:	1c00890c 	pcaddu12i	$r12,1096(0x448)
 1f4:	0000001c 	0x0000001c
 1f8:	0000000c 	0x0000000c
 1fc:	000001b8 	0x000001b8
 200:	1c008928 	pcaddu12i	$r8,1097(0x449)
 204:	00000028 	0x00000028
 208:	0000001c 	0x0000001c
 20c:	000001b8 	0x000001b8
 210:	1c008950 	pcaddu12i	$r16,1098(0x44a)
 214:	00000068 	0x00000068
 218:	00004c04 	bitrev.8b	$r4,$r0
 21c:	04100e00 	csrxchg	$r0,$r16,0x403
 220:	00000014 	0x00000014
 224:	0000000e 	0x0000000e
 228:	0000000c 	0x0000000c
 22c:	000001b8 	0x000001b8
 230:	1c0089b8 	pcaddu12i	$r24,1101(0x44d)
 234:	0000002c 	0x0000002c
 238:	0000000c 	0x0000000c
 23c:	000001b8 	0x000001b8
 240:	1c0089e4 	pcaddu12i	$r4,1103(0x44f)
 244:	00000028 	0x00000028
 248:	0000000c 	0x0000000c
 24c:	000001b8 	0x000001b8
 250:	1c008a0c 	pcaddu12i	$r12,1104(0x450)
 254:	0000001c 	0x0000001c
 258:	0000000c 	0x0000000c
 25c:	000001b8 	0x000001b8
 260:	1c008a28 	pcaddu12i	$r8,1105(0x451)
 264:	00000024 	0x00000024
 268:	0000000c 	0x0000000c
 26c:	000001b8 	0x000001b8
 270:	1c008a4c 	pcaddu12i	$r12,1106(0x452)
 274:	00000054 	0x00000054
 278:	0000001c 	0x0000001c
 27c:	000001b8 	0x000001b8
 280:	1c008aa0 	pcaddu12i	$r0,1109(0x455)
 284:	00000058 	0x00000058
 288:	00003c04 	revb.d	$r4,$r0
 28c:	04100e00 	csrxchg	$r0,$r16,0x403
 290:	00000014 	0x00000014
 294:	0000000e 	0x0000000e
 298:	0000000c 	0x0000000c
 29c:	000001b8 	0x000001b8
 2a0:	1c008af8 	pcaddu12i	$r24,1111(0x457)
 2a4:	00000018 	0x00000018
 2a8:	0000000c 	0x0000000c
 2ac:	ffffffff 	0xffffffff
 2b0:	7c010003 	0x7c010003
 2b4:	00030c01 	0x00030c01
 2b8:	00000028 	0x00000028
 2bc:	000002a8 	0x000002a8
 2c0:	1c008b10 	pcaddu12i	$r16,1112(0x458)
 2c4:	0000001c 	0x0000001c
 2c8:	00000404 	0x00000404
 2cc:	04100e00 	csrxchg	$r0,$r16,0x403
 2d0:	00000004 	0x00000004
 2d4:	0c040199 	0x0c040199
 2d8:	d9000000 	0xd9000000
 2dc:	00000404 	0x00000404
 2e0:	00000e00 	0x00000e00
 2e4:	0000000c 	0x0000000c
 2e8:	000002a8 	0x000002a8
 2ec:	1c008b2c 	pcaddu12i	$r12,1113(0x459)
 2f0:	00000004 	0x00000004
 2f4:	0000000c 	0x0000000c
 2f8:	000002a8 	0x000002a8
 2fc:	1c008b30 	pcaddu12i	$r16,1113(0x459)
 300:	00000008 	0x00000008
 304:	00000028 	0x00000028
 308:	000002a8 	0x000002a8
 30c:	1c008b38 	pcaddu12i	$r24,1113(0x459)
 310:	00000084 	0x00000084
 314:	00000404 	0x00000404
 318:	04100e00 	csrxchg	$r0,$r16,0x403
 31c:	00000004 	0x00000004
 320:	60040199 	blt	$r12,$r25,1024(0x400) # 720 <data_size-0x114>
 324:	d9000000 	0xd9000000
 328:	00001804 	cto.w	$r4,$r0
 32c:	00000e00 	0x00000e00
 330:	0000000c 	0x0000000c
 334:	000002a8 	0x000002a8
 338:	1c008bbc 	pcaddu12i	$r28,1117(0x45d)
 33c:	00000004 	0x00000004
 340:	00000028 	0x00000028
 344:	000002a8 	0x000002a8
 348:	1c008bc0 	pcaddu12i	$r0,1118(0x45e)
 34c:	00000024 	0x00000024
 350:	00000404 	0x00000404
 354:	04100e00 	csrxchg	$r0,$r16,0x403
 358:	00000004 	0x00000004
 35c:	10040199 	addu16i.d	$r25,$r12,256(0x100)
 360:	d9000000 	0xd9000000
 364:	00000804 	0x00000804
 368:	00000e00 	0x00000e00
 36c:	00000028 	0x00000028
 370:	000002a8 	0x000002a8
 374:	1c008be4 	pcaddu12i	$r4,1119(0x45f)
 378:	00000030 	0x00000030
 37c:	00000404 	0x00000404
 380:	04100e00 	csrxchg	$r0,$r16,0x403
 384:	00000004 	0x00000004
 388:	10040199 	addu16i.d	$r25,$r12,256(0x100)
 38c:	d9000000 	0xd9000000
 390:	00001404 	clz.w	$r4,$r0
 394:	00000e00 	0x00000e00

Disassembly of section .debug_info:

00000000 <.debug_info>:
       0:	00000312 	0x00000312
       4:	00000004 	0x00000004
       8:	01040000 	0x01040000
       c:	20554e47 	ll.w	$r7,$r18,21836(0x554c)
      10:	20373143 	ll.w	$r3,$r10,14128(0x3730)
      14:	2e332e38 	0x2e332e38
      18:	6d2d2030 	bgeu	$r1,$r16,77088(0x12d20) # 12d38 <data_size+0x12504>
      1c:	3d696261 	0x3d696261
      20:	33706c69 	xvstelm.h	$xr9,$r3,54(0x36),0xc
      24:	2d207332 	0x2d207332
      28:	6372616d 	blt	$r11,$r13,-36256(0x37260) # ffff7288 <_stack+0xe3fdde8c>
      2c:	6f6c3d68 	bgeu	$r11,$r8,-37828(0x36c3c) # ffff6c68 <_stack+0xe3fdd86c>
      30:	61676e6f 	blt	$r19,$r15,92012(0x1676c) # 1679c <data_size+0x15f68>
      34:	33686372 	xvstelm.h	$xr18,$r27,48(0x30),0xa
      38:	2d207232 	0x2d207232
      3c:	7570666d 	0x7570666d
      40:	6e6f6e3d 	bgeu	$r17,$r29,-102548(0x26f6c) # fffe6fac <_stack+0xe3fcdbb0>
      44:	6d2d2065 	bgeu	$r3,$r5,77088(0x12d20) # 12d64 <data_size+0x12530>
      48:	646f6d63 	bge	$r11,$r3,28524(0x6f6c) # 6fb4 <data_size+0x6780>
      4c:	6e3d6c65 	bgeu	$r3,$r5,-115348(0x23d6c) # fffe3db8 <_stack+0xe3fca9bc>
      50:	616d726f 	blt	$r19,$r15,93552(0x16d70) # 16dc0 <data_size+0x1658c>
      54:	6d2d206c 	bgeu	$r3,$r12,77088(0x12d20) # 12d74 <data_size+0x12540>
      58:	656e7574 	bge	$r11,$r20,93812(0x16e74) # 16ecc <data_size+0x16698>
      5c:	6f6f6c3d 	bgeu	$r1,$r29,-37012(0x36f6c) # ffff6fc8 <_stack+0xe3fddbcc>
      60:	7261676e 	0x7261676e
      64:	32336863 	0x32336863
      68:	672d2072 	bge	$r3,$r18,-53984(0x32d20) # ffff2d88 <_stack+0xe3fd998c>
      6c:	324f2d20 	xvldrepl.h	$xr0,$r9,1942(0x796)
      70:	6e662d20 	bgeu	$r9,$r0,-104916(0x2662c) # fffe669c <_stack+0xe3fcd2a0>
      74:	75622d6f 	0x75622d6f
      78:	69746c69 	bltu	$r3,$r9,95340(0x1746c) # 174e4 <data_size+0x16cb0>
      7c:	662d206e 	bge	$r3,$r14,-119520(0x22d20) # fffe2d9c <_stack+0xe3fc99a0>
      80:	702d6f6e 	0x702d6f6e
      84:	0c006369 	0x0c006369
      88:	6e697270 	bgeu	$r19,$r16,-104080(0x26970) # fffe69f8 <_stack+0xe3fcd5fc>
      8c:	632e6674 	blt	$r19,$r20,-53660(0x32e64) # ffff2ef0 <_stack+0xe3fd9af4>
      90:	6f682f00 	bgeu	$r24,$r0,-38868(0x3682c) # ffff68bc <_stack+0xe3fdd4c0>
      94:	772f656d 	0x772f656d
      98:	772f7477 	0x772f7477
      9c:	2f6b726f 	0x2f6b726f
      a0:	66726570 	bge	$r11,$r16,-101788(0x27264) # fffe7304 <_stack+0xe3fcdf08>
      a4:	6e75665f 	bgeu	$r18,$r31,-101020(0x27564) # fffe7608 <_stack+0xe3fce20c>
      a8:	696c2f63 	bltu	$r27,$r3,93228(0x16c2c) # 16cd4 <data_size+0x164a0>
      ac:	84a00062 	0x84a00062
      b0:	022c1c00 	slti	$r0,$r0,-1273(0xb07)
      b4:	00000000 	0x00000000
      b8:	04020000 	csrrd	$r0,0x80
      bc:	75070403 	xvssran.hu.w	$xr3,$xr0,$xr1
      c0:	6769736e 	bge	$r27,$r14,-38544(0x36970) # ffff6a30 <_stack+0xe3fdd634>
      c4:	2064656e 	ll.w	$r14,$r11,25700(0x6464)
      c8:	00746e69 	bstrins.w	$r9,$r19,0x14,0x1b
      cc:	6c070403 	bgeu	$r0,$r3,1796(0x704) # 7d0 <data_size-0x64>
      d0:	20676e6f 	ll.w	$r15,$r19,26476(0x676c)
      d4:	69736e75 	bltu	$r19,$r21,95084(0x1736c) # 17440 <data_size+0x16c0c>
      d8:	64656e67 	bge	$r19,$r7,25964(0x656c) # 6644 <data_size+0x5e10>
      dc:	746e6920 	0x746e6920
      e0:	72700400 	0x72700400
      e4:	66746e69 	bge	$r19,$r9,-101268(0x2746c) # fffe7550 <_stack+0xe3fce154>
      e8:	05010100 	0x05010100
      ec:	000002d1 	0x000002d1
      f0:	1c0084a0 	pcaddu12i	$r0,1061(0x425)
      f4:	0000022c 	0x0000022c
      f8:	02d19c01 	addi.d	$r1,$r0,1127(0x467)
      fc:	66050000 	bge	$r0,$r0,-129792(0x20500) # fffe05fc <_stack+0xe3fc7200>
     100:	0100746d 	0x0100746d
     104:	02d81801 	addi.d	$r1,$r0,1542(0x606)
     108:	00000000 	0x00000000
     10c:	07060000 	0x07060000
     110:	03010069 	lu52i.d	$r9,$r3,64(0x40)
     114:	0002d105 	0x0002d105
     118:	00003700 	revb.4h	$r0,$r24
     11c:	00630700 	bstrins.w	$r0,$r24,0x3,0x1
     120:	de060401 	0xde060401
     124:	b6000002 	0xb6000002
     128:	07000000 	0x07000000
     12c:	00677261 	bstrins.w	$r1,$r19,0x7,0x1c
     130:	eb080501 	0xeb080501
     134:	df000002 	0xdf000002
     138:	08000000 	0x08000000
     13c:	01007061 	0x01007061
     140:	00ba0706 	bstrins.d	$r6,$r24,0x3a,0x1
     144:	91030000 	0x91030000
     148:	77077fbc 	0x77077fbc
     14c:	05070100 	0x05070100
     150:	000002d1 	0x000002d1
     154:	0000012d 	0x0000012d
     158:	61676109 	blt	$r8,$r9,92000(0x16760) # 168b8 <data_size+0x16084>
     15c:	01006e69 	0x01006e69
     160:	854c0110 	0x854c0110
     164:	180a1c00 	pcaddi	$r0,20704(0x50e0)
     168:	79000000 	0x79000000
     16c:	0b000002 	0x0b000002
     170:	73747570 	0x73747570
     174:	6e697274 	bgeu	$r19,$r20,-104080(0x26970) # fffe6ae4 <_stack+0xe3fcd6e8>
     178:	14010067 	lu12i.w	$r7,2051(0x803)
     17c:	0002d105 	0x0002d105
     180:	00018700 	asrtgt.d	$r24,$r1
     184:	0c000600 	0x0c000600
     188:	00000000 	0x00000000
     18c:	d1051901 	0xd1051901
     190:	99000002 	0x99000002
     194:	06000001 	cacop	0x1,$r0,0
     198:	72700b00 	0x72700b00
     19c:	62746e69 	blt	$r19,$r9,-101268(0x2746c) # fffe7608 <_stack+0xe3fce20c>
     1a0:	00657361 	bstrins.w	$r1,$r27,0x5,0x1c
     1a4:	d1051e01 	0xd1051e01
     1a8:	b1000002 	0xb1000002
     1ac:	06000001 	cacop	0x1,$r0,0
     1b0:	85f00d00 	0x85f00d00
     1b4:	02f11c00 	addi.d	$r0,$r0,-953(0xc47)
     1b8:	01c90000 	0x01c90000
     1bc:	010e0000 	0x010e0000
     1c0:	0e320156 	0x0e320156
     1c4:	30015701 	0x30015701
     1c8:	860c0f00 	0x860c0f00
     1cc:	02fd1c00 	addi.d	$r0,$r0,-185(0xf47)
     1d0:	200d0000 	ll.w	$r0,$r0,3328(0xd00)
     1d4:	f11c0086 	0xf11c0086
     1d8:	ea000002 	0xea000002
     1dc:	0e000001 	0x0e000001
     1e0:	3a015601 	0x3a015601
     1e4:	0157010e 	0x0157010e
     1e8:	3c0d0031 	0x3c0d0031
     1ec:	f11c0086 	0xf11c0086
     1f0:	02000002 	slti	$r2,$r0,0
     1f4:	0e000002 	0x0e000002
     1f8:	3a015601 	0x3a015601
     1fc:	0157010e 	0x0157010e
     200:	580d0030 	beq	$r1,$r16,3328(0xd00) # f00 <data_size+0x6cc>
     204:	f11c0086 	0xf11c0086
     208:	1b000002 	pcalau12i	$r2,-524288(0x80000)
     20c:	0e000002 	0x0e000002
     210:	8b025601 	0x8b025601
     214:	57010e00 	bl	-134020852(0x803010c) # f8030320 <_stack+0xdc016f24>
     218:	0d003001 	fsel	$f1,$f0,$f12,$fcc0
     21c:	1c008674 	pcaddu12i	$r20,1075(0x433)
     220:	000002f1 	0x000002f1
     224:	00000233 	0x00000233
     228:	0156010e 	0x0156010e
     22c:	57010e40 	bl	-117243636(0x903010c) # f9030338 <_stack+0xdd016f3c>
     230:	0f003001 	0x0f003001
     234:	1c008690 	pcaddu12i	$r16,1076(0x434)
     238:	00000309 	0x00000309
     23c:	0086a40d 	bstrins.d	$r13,$r0,0x6,0x29
     240:	0002f11c 	0x0002f11c
     244:	00025400 	0x00025400
     248:	56010e00 	bl	-134086388(0x802010c) # f8020354 <_stack+0xdc006f58>
     24c:	010e3a01 	0x010e3a01
     250:	00300157 	0x00300157
     254:	0086b80d 	bstrins.d	$r13,$r0,0x6,0x2e
     258:	0002fd1c 	0x0002fd1c
     25c:	00026800 	0x00026800
     260:	54010e00 	bl	-134217460(0x800010c) # f800036c <_stack+0xdbfe6f70>
     264:	00250802 	crc.w.w.w	$r2,$r0,$r2
     268:	0086c810 	bstrins.d	$r16,$r0,0x6,0x32
     26c:	0002fd1c 	0x0002fd1c
     270:	54010e00 	bl	-134217460(0x800010c) # f800037c <_stack+0xdbfe6f80>
     274:	00250802 	crc.w.w.w	$r2,$r0,$r2
     278:	00001100 	clo.w	$r0,$r8
     27c:	000c0000 	bytepick.d	$r0,$r0,$r0,0x0
     280:	01000000 	0x01000000
     284:	02d10519 	addi.d	$r25,$r8,1089(0x441)
     288:	02900000 	addi.w	$r0,$r0,1024(0x400)
     28c:	00060000 	alsl.wu	$r0,$r0,$r0,0x1
     290:	00852c12 	bstrins.d	$r18,$r0,0x5,0xb
     294:	0000141c 	clz.w	$r28,$r0
     298:	0002bf00 	0x0002bf00
     29c:	00000c00 	0x00000c00
     2a0:	19010000 	pcaddi	$r0,-522240(0x80800)
     2a4:	0002d105 	0x0002d105
     2a8:	0002af00 	0x0002af00
     2ac:	10000600 	addu16i.d	$r0,$r16,1(0x1)
     2b0:	1c008534 	pcaddu12i	$r20,1065(0x429)
     2b4:	000002fd 	0x000002fd
     2b8:	0154010e 	0x0154010e
     2bc:	1000003d 	addu16i.d	$r29,$r1,0
     2c0:	1c00850c 	pcaddu12i	$r12,1064(0x428)
     2c4:	000002fd 	0x000002fd
     2c8:	0254010e 	sltui	$r14,$r8,1280(0x500)
     2cc:	00000087 	0x00000087
     2d0:	05040300 	0x05040300
     2d4:	00746e69 	bstrins.w	$r9,$r19,0x14,0x1b
     2d8:	02e60413 	addi.d	$r19,$r0,-1663(0x981)
     2dc:	01030000 	fsub.d	$f0,$f0,$f0
     2e0:	61686306 	blt	$r24,$r6,92256(0x16860) # 16b40 <data_size+0x1630c>
     2e4:	de140072 	0xde140072
     2e8:	13000002 	addu16i.d	$r2,$r0,-16384(0xc000)
     2ec:	0000ba04 	0x0000ba04
     2f0:	00121500 	slt	$r0,$r8,$r5
     2f4:	00120000 	slt	$r0,$r0,$r0
     2f8:	1e010000 	pcaddu18i	$r0,2048(0x800)
     2fc:	00001505 	clz.w	$r5,$r8
     300:	00000000 	0x00000000
     304:	19010000 	pcaddi	$r0,-522240(0x80800)
     308:	00081505 	bytepick.w	$r5,$r8,$r5,0x0
     30c:	00080000 	bytepick.w	$r0,$r0,$r0,0x0
     310:	14010000 	lu12i.w	$r0,2048(0x800)
     314:	016c0005 	0x016c0005
     318:	00040000 	alsl.w	$r0,$r0,$r0,0x1
     31c:	00000122 	0x00000122
     320:	4e470104 	jirl	$r4,$r8,-112896(0x24700)
     324:	31432055 	vstelm.h	$vr21,$r2,-112(0x190),0x0
     328:	2e382037 	0x2e382037
     32c:	20302e33 	ll.w	$r19,$r17,12332(0x302c)
     330:	62616d2d 	blt	$r9,$r13,-106132(0x2616c) # fffe649c <_stack+0xe3fcd0a0>
     334:	6c693d69 	bgeu	$r11,$r9,26940(0x693c) # 6c70 <data_size+0x643c>
     338:	73323370 	0x73323370
     33c:	616d2d20 	blt	$r9,$r0,93484(0x16d2c) # 17068 <data_size+0x16834>
     340:	3d686372 	0x3d686372
     344:	6e6f6f6c 	bgeu	$r27,$r12,-102548(0x26f6c) # fffe72b0 <_stack+0xe3fcdeb4>
     348:	63726167 	blt	$r11,$r7,-36256(0x37260) # ffff75a8 <_stack+0xe3fde1ac>
     34c:	72323368 	0x72323368
     350:	666d2d20 	bge	$r9,$r0,-103124(0x26d2c) # fffe707c <_stack+0xe3fcdc80>
     354:	6e3d7570 	bgeu	$r11,$r16,-115340(0x23d74) # fffe40c8 <_stack+0xe3fcaccc>
     358:	20656e6f 	ll.w	$r15,$r19,25964(0x656c)
     35c:	6d636d2d 	bgeu	$r9,$r13,90988(0x1636c) # 166c8 <data_size+0x15e94>
     360:	6c65646f 	bgeu	$r3,$r15,25956(0x6564) # 68c4 <data_size+0x6090>
     364:	726f6e3d 	0x726f6e3d
     368:	206c616d 	ll.w	$r13,$r11,27744(0x6c60)
     36c:	75746d2d 	0x75746d2d
     370:	6c3d656e 	bgeu	$r11,$r14,15716(0x3d64) # 40d4 <data_size+0x38a0>
     374:	676e6f6f 	bge	$r27,$r15,-37268(0x36e6c) # ffff71e0 <_stack+0xe3fddde4>
     378:	68637261 	bltu	$r19,$r1,25456(0x6370) # 66e8 <data_size+0x5eb4>
     37c:	20723233 	ll.w	$r19,$r17,29232(0x7230)
     380:	2d20672d 	0x2d20672d
     384:	2d20324f 	0x2d20324f
     388:	2d6f6e66 	0x2d6f6e66
     38c:	6c697562 	bgeu	$r11,$r2,26996(0x6974) # 6d00 <data_size+0x64cc>
     390:	206e6974 	ll.w	$r20,$r11,28264(0x6e68)
     394:	6f6e662d 	bgeu	$r17,$r13,-37276(0x36e64) # ffff71f8 <_stack+0xe3fdddfc>
     398:	6369702d 	blt	$r1,$r13,-38544(0x36970) # ffff6d08 <_stack+0xe3fdd90c>
     39c:	75700c00 	0x75700c00
     3a0:	61686374 	blt	$r27,$r20,92256(0x16860) # 16c00 <data_size+0x163cc>
     3a4:	00632e72 	bstrins.w	$r18,$r19,0x3,0xb
     3a8:	6d6f682f 	bgeu	$r1,$r15,94056(0x16f68) # 17310 <data_size+0x16adc>
     3ac:	77772f65 	0x77772f65
     3b0:	6f772f74 	bgeu	$r27,$r20,-35028(0x3772c) # ffff7adc <_stack+0xe3fde6e0>
     3b4:	702f6b72 	vaddwev.d.wu	$vr18,$vr27,$vr26
     3b8:	5f667265 	bne	$r19,$r5,-39312(0x36670) # ffff6a28 <_stack+0xe3fdd62c>
     3bc:	636e7566 	blt	$r11,$r6,-37260(0x36e74) # ffff7230 <_stack+0xe3fdde34>
     3c0:	62696c2f 	blt	$r1,$r15,-104084(0x2696c) # fffe6d2c <_stack+0xe3fcd930>
     3c4:	0086cc00 	bstrins.d	$r0,$r0,0x6,0x33
     3c8:	00004c1c 	bitrev.8b	$r28,$r0
     3cc:	00047500 	alsl.w	$r0,$r8,$r29,0x1
     3d0:	07040200 	0x07040200
     3d4:	69736e75 	bltu	$r19,$r21,95084(0x1736c) # 17740 <data_size+0x16f0c>
     3d8:	64656e67 	bge	$r19,$r7,25964(0x656c) # 6944 <data_size+0x6110>
     3dc:	746e6920 	0x746e6920
     3e0:	07040200 	0x07040200
     3e4:	676e6f6c 	bge	$r27,$r12,-37268(0x36e6c) # ffff7250 <_stack+0xe3fdde54>
     3e8:	736e7520 	vssrarni.du.q	$vr0,$vr9,0x1d
     3ec:	656e6769 	bge	$r27,$r9,93796(0x16e64) # 17250 <data_size+0x16a1c>
     3f0:	6e692064 	bgeu	$r3,$r4,-104160(0x26920) # fffe6d10 <_stack+0xe3fcd914>
     3f4:	1c030074 	pcaddu12i	$r20,6147(0x1803)
     3f8:	01000000 	0x01000000
     3fc:	f8010607 	0xf8010607
     400:	04000000 	csrrd	$r0,0x0
     404:	07010063 	0x07010063
     408:	0000f806 	0x0000f806
     40c:	04020000 	csrrd	$r0,0x80
     410:	746e6905 	0x746e6905
     414:	75700500 	0x75700500
     418:	61686374 	blt	$r27,$r20,92256(0x16860) # 16c78 <data_size+0x16444>
     41c:	01010072 	fadd.d	$f18,$f3,$f0
     420:	0000f805 	0x0000f805
     424:	0086cc00 	bstrins.d	$r0,$r0,0x6,0x33
     428:	0000281c 	cto.d	$r28,$r0
     42c:	589c0100 	beq	$r8,$r0,39936(0x9c00) # a02c <data_size+0x97f8>
     430:	06000001 	cacop	0x1,$r0,0
     434:	01010063 	fadd.d	$f3,$f3,$f0
     438:	0000f811 	0x0000f811
     43c:	0001d000 	asrtgt.d	$r0,$r20
     440:	001c0700 	mul.w	$r0,$r24,$r1
     444:	03010000 	lu52i.d	$r0,$r0,64(0x40)
     448:	0000f801 	0x0000f801
     44c:	00013d00 	asrtle.d	$r8,$r15
     450:	09000800 	0x09000800
     454:	000000e0 	0x000000e0
     458:	1c0086cc 	pcaddu12i	$r12,1078(0x436)
     45c:	00000030 	0x00000030
     460:	0a010301 	0x0a010301
     464:	000000ed 	0x000000ed
     468:	000001f1 	0x000001f1
     46c:	e00b0000 	0xe00b0000
     470:	f4000000 	0xf4000000
     474:	241c0086 	ldptr.w	$r6,$r4,7168(0x1c00)
     478:	01000000 	0x01000000
     47c:	00ed0c9c 	bstrpick.d	$r28,$r4,0x2d,0x3
     480:	54010000 	bl	256(0x100) # 580 <data_size-0x2b4>
     484:	02160000 	slti	$r0,$r0,1408(0x580)
     488:	00040000 	alsl.w	$r0,$r0,$r0,0x1
     48c:	000001df 	0x000001df
     490:	4e470104 	jirl	$r4,$r8,-112896(0x24700)
     494:	31432055 	vstelm.h	$vr21,$r2,-112(0x190),0x0
     498:	2e382037 	0x2e382037
     49c:	20302e33 	ll.w	$r19,$r17,12332(0x302c)
     4a0:	62616d2d 	blt	$r9,$r13,-106132(0x2616c) # fffe660c <_stack+0xe3fcd210>
     4a4:	6c693d69 	bgeu	$r11,$r9,26940(0x693c) # 6de0 <data_size+0x65ac>
     4a8:	73323370 	0x73323370
     4ac:	616d2d20 	blt	$r9,$r0,93484(0x16d2c) # 171d8 <data_size+0x169a4>
     4b0:	3d686372 	0x3d686372
     4b4:	6e6f6f6c 	bgeu	$r27,$r12,-102548(0x26f6c) # fffe7420 <_stack+0xe3fce024>
     4b8:	63726167 	blt	$r11,$r7,-36256(0x37260) # ffff7718 <_stack+0xe3fde31c>
     4bc:	72323368 	0x72323368
     4c0:	666d2d20 	bge	$r9,$r0,-103124(0x26d2c) # fffe71ec <_stack+0xe3fcddf0>
     4c4:	6e3d7570 	bgeu	$r11,$r16,-115340(0x23d74) # fffe4238 <_stack+0xe3fcae3c>
     4c8:	20656e6f 	ll.w	$r15,$r19,25964(0x656c)
     4cc:	6d636d2d 	bgeu	$r9,$r13,90988(0x1636c) # 16838 <data_size+0x16004>
     4d0:	6c65646f 	bgeu	$r3,$r15,25956(0x6564) # 6a34 <data_size+0x6200>
     4d4:	726f6e3d 	0x726f6e3d
     4d8:	206c616d 	ll.w	$r13,$r11,27744(0x6c60)
     4dc:	75746d2d 	0x75746d2d
     4e0:	6c3d656e 	bgeu	$r11,$r14,15716(0x3d64) # 4244 <data_size+0x3a10>
     4e4:	676e6f6f 	bge	$r27,$r15,-37268(0x36e6c) # ffff7350 <_stack+0xe3fddf54>
     4e8:	68637261 	bltu	$r19,$r1,25456(0x6370) # 6858 <data_size+0x6024>
     4ec:	20723233 	ll.w	$r19,$r17,29232(0x7230)
     4f0:	2d20672d 	0x2d20672d
     4f4:	2d20324f 	0x2d20324f
     4f8:	2d6f6e66 	0x2d6f6e66
     4fc:	6c697562 	bgeu	$r11,$r2,26996(0x6974) # 6e70 <data_size+0x663c>
     500:	206e6974 	ll.w	$r20,$r11,28264(0x6e68)
     504:	6f6e662d 	bgeu	$r17,$r13,-37276(0x36e64) # ffff7368 <_stack+0xe3fddf6c>
     508:	6369702d 	blt	$r1,$r13,-38544(0x36970) # ffff6e78 <_stack+0xe3fdda7c>
     50c:	75700c00 	0x75700c00
     510:	632e7374 	blt	$r27,$r20,-53648(0x32e70) # ffff3380 <_stack+0xe3fd9f84>
     514:	6f682f00 	bgeu	$r24,$r0,-38868(0x3682c) # ffff6d40 <_stack+0xe3fdd944>
     518:	772f656d 	0x772f656d
     51c:	772f7477 	0x772f7477
     520:	2f6b726f 	0x2f6b726f
     524:	66726570 	bge	$r11,$r16,-101788(0x27264) # fffe7788 <_stack+0xe3fce38c>
     528:	6e75665f 	bgeu	$r18,$r31,-101020(0x27564) # fffe7a8c <_stack+0xe3fce690>
     52c:	696c2f63 	bltu	$r27,$r3,93228(0x16c2c) # 17158 <data_size+0x16924>
     530:	87180062 	0x87180062
     534:	00a01c00 	bstrins.d	$r0,$r0,0x20,0x7
     538:	05270000 	0x05270000
     53c:	04020000 	csrrd	$r0,0x80
     540:	736e7507 	vssrarni.du.q	$vr7,$vr8,0x1d
     544:	656e6769 	bge	$r27,$r9,93796(0x16e64) # 173a8 <data_size+0x16b74>
     548:	6e692064 	bgeu	$r3,$r4,-104160(0x26920) # fffe6e68 <_stack+0xe3fcda6c>
     54c:	04020074 	csrxchg	$r20,$r3,0x80
     550:	6e6f6c07 	bgeu	$r0,$r7,-102548(0x26f6c) # fffe74bc <_stack+0xe3fce0c0>
     554:	6e752067 	bgeu	$r3,$r7,-101088(0x27520) # fffe7a74 <_stack+0xe3fce678>
     558:	6e676973 	bgeu	$r11,$r19,-104600(0x26768) # fffe6cc0 <_stack+0xe3fcd8c4>
     55c:	69206465 	bltu	$r3,$r5,73828(0x12064) # 125c0 <data_size+0x11d8c>
     560:	0300746e 	lu52i.d	$r14,$r3,29(0x1d)
     564:	73747570 	0x73747570
     568:	050e0100 	0x050e0100
     56c:	00000150 	0x00000150
     570:	1c00878c 	pcaddu12i	$r12,1084(0x43c)
     574:	0000002c 	0x0000002c
     578:	01509c01 	0x01509c01
     57c:	73040000 	0x73040000
     580:	100e0100 	addu16i.d	$r0,$r8,896(0x380)
     584:	00000157 	0x00000157
     588:	00000204 	0x00000204
     58c:	00002805 	cto.d	$r5,$r0
     590:	10060100 	addu16i.d	$r0,$r8,384(0x180)
     594:	00000150 	0x00000150
     598:	00000118 	0x00000118
     59c:	98070006 	0x98070006
     5a0:	651c0087 	bge	$r4,$r7,72704(0x11c00) # 121a0 <data_size+0x1196c>
     5a4:	2d000001 	0x2d000001
     5a8:	08000001 	0x08000001
     5ac:	f3035401 	0xf3035401
     5b0:	07005401 	0x07005401
     5b4:	1c0087a0 	pcaddu12i	$r0,1085(0x43d)
     5b8:	0000020d 	0x0000020d
     5bc:	00000140 	0x00000140
     5c0:	01540108 	0x01540108
     5c4:	a809003d 	0xa809003d
     5c8:	0d1c0087 	vbitsel.v	$vr7,$vr4,$vr0,$vr24
     5cc:	08000002 	0x08000002
     5d0:	3a015401 	0x3a015401
     5d4:	04020000 	csrrd	$r0,0x80
     5d8:	746e6905 	0x746e6905
     5dc:	5d040a00 	bne	$r16,$r0,66568(0x10408) # 109e4 <data_size+0x101b0>
     5e0:	02000001 	slti	$r1,$r0,0
     5e4:	68630601 	bltu	$r16,$r1,25348(0x6304) # 68e8 <data_size+0x60b4>
     5e8:	03007261 	lu52i.d	$r1,$r19,28(0x1c)
     5ec:	73747570 	0x73747570
     5f0:	6e697274 	bgeu	$r19,$r20,-104080(0x26970) # fffe6f60 <_stack+0xe3fcdb64>
     5f4:	01010067 	fadd.d	$f7,$f3,$f0
     5f8:	00015005 	0x00015005
     5fc:	00871800 	bstrins.d	$r0,$r0,0x7,0x6
     600:	0000741c 	0x0000741c
     604:	0d9c0100 	0x0d9c0100
     608:	04000002 	csrrd	$r2,0x0
     60c:	01010073 	fadd.d	$f19,$f3,$f0
     610:	00015715 	0x00015715
     614:	00022500 	0x00022500
     618:	00630b00 	bstrins.w	$r0,$r24,0x3,0x2
     61c:	5d060301 	bne	$r24,$r1,67072(0x10600) # 10c1c <data_size+0x103e8>
     620:	68000001 	bltu	$r0,$r1,0 # 620 <data_size-0x214>
     624:	0c000002 	0x0c000002
     628:	00000048 	0x00000048
     62c:	00002805 	cto.d	$r5,$r0
     630:	10060100 	addu16i.d	$r0,$r8,384(0x180)
     634:	00000150 	0x00000150
     638:	000001b8 	0x000001b8
     63c:	580d0006 	beq	$r0,$r6,3328(0xd00) # 133c <data_size+0xb08>
     640:	081c0087 	fmadd.s	$f7,$f4,$f0,$f24
     644:	e7000000 	0xe7000000
     648:	05000001 	0x05000001
     64c:	00000028 	0x00000028
     650:	50100601 	b	-133951484(0x8041004) # f8041654 <_stack+0xdc028258>
     654:	d7000001 	0xd7000001
     658:	06000001 	cacop	0x1,$r0,0
     65c:	87600900 	0x87600900
     660:	020d1c00 	slti	$r0,$r0,839(0x347)
     664:	01080000 	0x01080000
     668:	003d0154 	0x003d0154
     66c:	87480700 	0x87480700
     670:	020d1c00 	slti	$r0,$r0,839(0x347)
     674:	01fb0000 	0x01fb0000
     678:	01080000 	0x01080000
     67c:	00870254 	bstrins.d	$r20,$r18,0x7,0x0
     680:	87680900 	0x87680900
     684:	020d1c00 	slti	$r0,$r0,839(0x347)
     688:	01080000 	0x01080000
     68c:	00870254 	bstrins.d	$r20,$r18,0x7,0x0
     690:	0e000000 	0x0e000000
     694:	00000028 	0x00000028
     698:	00000028 	0x00000028
     69c:	00100601 	add.w	$r1,$r16,$r1
     6a0:	00000216 	0x00000216
     6a4:	02aa0004 	addi.w	$r4,$r0,-1408(0xa80)
     6a8:	01040000 	0x01040000
     6ac:	20554e47 	ll.w	$r7,$r18,21836(0x554c)
     6b0:	20373143 	ll.w	$r3,$r10,14128(0x3730)
     6b4:	2e332e38 	0x2e332e38
     6b8:	6d2d2030 	bgeu	$r1,$r16,77088(0x12d20) # 133d8 <data_size+0x12ba4>
     6bc:	3d696261 	0x3d696261
     6c0:	33706c69 	xvstelm.h	$xr9,$r3,54(0x36),0xc
     6c4:	2d207332 	0x2d207332
     6c8:	6372616d 	blt	$r11,$r13,-36256(0x37260) # ffff7928 <_stack+0xe3fde52c>
     6cc:	6f6c3d68 	bgeu	$r11,$r8,-37828(0x36c3c) # ffff7308 <_stack+0xe3fddf0c>
     6d0:	61676e6f 	blt	$r19,$r15,92012(0x1676c) # 16e3c <data_size+0x16608>
     6d4:	33686372 	xvstelm.h	$xr18,$r27,48(0x30),0xa
     6d8:	2d207232 	0x2d207232
     6dc:	7570666d 	0x7570666d
     6e0:	6e6f6e3d 	bgeu	$r17,$r29,-102548(0x26f6c) # fffe764c <_stack+0xe3fce250>
     6e4:	6d2d2065 	bgeu	$r3,$r5,77088(0x12d20) # 13404 <data_size+0x12bd0>
     6e8:	646f6d63 	bge	$r11,$r3,28524(0x6f6c) # 7654 <data_size+0x6e20>
     6ec:	6e3d6c65 	bgeu	$r3,$r5,-115348(0x23d6c) # fffe4458 <_stack+0xe3fcb05c>
     6f0:	616d726f 	blt	$r19,$r15,93552(0x16d70) # 17460 <data_size+0x16c2c>
     6f4:	6d2d206c 	bgeu	$r3,$r12,77088(0x12d20) # 13414 <data_size+0x12be0>
     6f8:	656e7574 	bge	$r11,$r20,93812(0x16e74) # 1756c <data_size+0x16d38>
     6fc:	6f6f6c3d 	bgeu	$r1,$r29,-37012(0x36f6c) # ffff7668 <_stack+0xe3fde26c>
     700:	7261676e 	0x7261676e
     704:	32336863 	0x32336863
     708:	672d2072 	bge	$r3,$r18,-53984(0x32d20) # ffff3428 <_stack+0xe3fda02c>
     70c:	324f2d20 	xvldrepl.h	$xr0,$r9,1942(0x796)
     710:	6e662d20 	bgeu	$r9,$r0,-104916(0x2662c) # fffe6d3c <_stack+0xe3fcd940>
     714:	75622d6f 	0x75622d6f
     718:	69746c69 	bltu	$r3,$r9,95340(0x1746c) # 17b84 <data_size+0x17350>
     71c:	662d206e 	bge	$r3,$r14,-119520(0x22d20) # fffe343c <_stack+0xe3fca040>
     720:	702d6f6e 	0x702d6f6e
     724:	0c006369 	0x0c006369
     728:	6e697270 	bgeu	$r19,$r16,-104080(0x26970) # fffe7098 <_stack+0xe3fcdc9c>
     72c:	73616274 	vssrani.w.d	$vr20,$vr19,0x18
     730:	00632e65 	bstrins.w	$r5,$r19,0x3,0xb
     734:	6d6f682f 	bgeu	$r1,$r15,94056(0x16f68) # 1769c <data_size+0x16e68>
     738:	77772f65 	0x77772f65
     73c:	6f772f74 	bgeu	$r27,$r20,-35028(0x3772c) # ffff7e68 <_stack+0xe3fdea6c>
     740:	702f6b72 	vaddwev.d.wu	$vr18,$vr27,$vr26
     744:	5f667265 	bne	$r19,$r5,-39312(0x36670) # ffff6db4 <_stack+0xe3fdd9b8>
     748:	636e7566 	blt	$r11,$r6,-37260(0x36e74) # ffff75bc <_stack+0xe3fde1c0>
     74c:	62696c2f 	blt	$r1,$r15,-104084(0x2696c) # fffe70b8 <_stack+0xe3fcdcbc>
     750:	0087b800 	bstrins.d	$r0,$r0,0x7,0x2e
     754:	0000e81c 	0x0000e81c
     758:	00069000 	alsl.wu	$r0,$r0,$r4,0x2
     75c:	07040200 	0x07040200
     760:	69736e75 	bltu	$r19,$r21,95084(0x1736c) # 17acc <data_size+0x17298>
     764:	64656e67 	bge	$r19,$r7,25964(0x656c) # 6cd0 <data_size+0x649c>
     768:	746e6920 	0x746e6920
     76c:	07040200 	0x07040200
     770:	676e6f6c 	bge	$r27,$r12,-37268(0x36e6c) # ffff75dc <_stack+0xe3fde1e0>
     774:	736e7520 	vssrarni.du.q	$vr0,$vr9,0x1d
     778:	656e6769 	bge	$r27,$r9,93796(0x16e64) # 175dc <data_size+0x16da8>
     77c:	6e692064 	bgeu	$r3,$r4,-104160(0x26920) # fffe709c <_stack+0xe3fcdca0>
     780:	70030074 	vsle.w	$vr20,$vr3,$vr0
     784:	746e6972 	0x746e6972
     788:	65736162 	bge	$r11,$r2,95072(0x17360) # 17ae8 <data_size+0x172b4>
     78c:	05010100 	0x05010100
     790:	000001e2 	0x000001e2
     794:	1c0087b8 	pcaddu12i	$r24,1085(0x43d)
     798:	000000e8 	0x000000e8
     79c:	01e29c01 	0x01e29c01
     7a0:	76040000 	0x76040000
     7a4:	14010100 	lu12i.w	$r0,2056(0x808)
     7a8:	000001e9 	0x000001e9
     7ac:	0000027b 	0x0000027b
     7b0:	01007704 	0x01007704
     7b4:	01e21a01 	0x01e21a01
     7b8:	02cb0000 	addi.d	$r0,$r0,704(0x2c0)
     7bc:	62040000 	blt	$r0,$r0,-130048(0x20400) # fffe0bbc <_stack+0xe3fc77c0>
     7c0:	00657361 	bstrins.w	$r1,$r27,0x5,0x1c
     7c4:	e2200101 	0xe2200101
     7c8:	0f000001 	0x0f000001
     7cc:	04000003 	csrrd	$r3,0x0
     7d0:	6e676973 	bgeu	$r11,$r19,-104600(0x26768) # fffe6f38 <_stack+0xe3fcdb3c>
     7d4:	29010100 	st.b	$r0,$r8,64(0x40)
     7d8:	000001e2 	0x000001e2
     7dc:	00000353 	0x00000353
     7e0:	01006905 	0x01006905
     7e4:	01e20603 	0x01e20603
     7e8:	03980000 	ori	$r0,$r0,0x600
     7ec:	6a050000 	bltu	$r0,$r0,-129792(0x20500) # fffe0cec <_stack+0xe3fc78f0>
     7f0:	08030100 	0x08030100
     7f4:	000001e2 	0x000001e2
     7f8:	000003eb 	0x000003eb
     7fc:	01006305 	0x01006305
     800:	01e20604 	0x01e20604
     804:	04380000 	csrrd	$r0,0xe00
     808:	62060000 	blt	$r0,$r0,-129536(0x20600) # fffe0e08 <_stack+0xe3fc7a0c>
     80c:	01006675 	0x01006675
     810:	01f50705 	0x01f50705
     814:	91030000 	0x91030000
     818:	76057fb0 	0x76057fb0
     81c:	65756c61 	bge	$r3,$r1,95596(0x1756c) # 17d88 <data_size+0x17554>
     820:	10060100 	addu16i.d	$r0,$r8,384(0x180)
     824:	000000cd 	0x000000cd
     828:	0000044b 	0x0000044b
     82c:	00887407 	bstrins.d	$r7,$r0,0x8,0x1d
     830:	0000201c 	clo.d	$r28,$r0
     834:	0001bc00 	asrtgt.d	$r0,$r15
     838:	00300800 	0x00300800
     83c:	0a010000 	0x0a010000
     840:	0001e202 	0x0001e202
     844:	0001ab00 	asrtgt.d	$r24,$r10
     848:	0a000900 	0x0a000900
     84c:	1c008884 	pcaddu12i	$r4,1092(0x444)
     850:	0000020d 	0x0000020d
     854:	0254010b 	sltui	$r11,$r8,1280(0x500)
     858:	00002d08 	ctz.d	$r8,$r8
     85c:	0088200c 	bstrins.d	$r12,$r0,0x8,0x8
     860:	00002c1c 	ctz.d	$r28,$r0
     864:	00300800 	0x00300800
     868:	0a010000 	0x0a010000
     86c:	0001e202 	0x0001e202
     870:	0001d700 	asrtgt.d	$r24,$r21
     874:	0d000900 	fsel	$f0,$f8,$f2,$fcc0
     878:	1c00884c 	pcaddu12i	$r12,1090(0x442)
     87c:	0000020d 	0x0000020d
     880:	04020000 	csrrd	$r0,0x80
     884:	746e6905 	0x746e6905
     888:	05040200 	0x05040200
     88c:	676e6f6c 	bge	$r27,$r12,-37268(0x36e6c) # ffff76f8 <_stack+0xe3fde2fc>
     890:	746e6920 	0x746e6920
     894:	02050e00 	slti	$r0,$r16,323(0x143)
     898:	02050000 	slti	$r0,$r0,320(0x140)
     89c:	bd0f0000 	0xbd0f0000
     8a0:	3f000000 	0x3f000000
     8a4:	06010200 	cacop	0x0,$r16,64(0x40)
     8a8:	72616863 	0x72616863
     8ac:	00301000 	0x00301000
     8b0:	00300000 	0x00300000
     8b4:	0a010000 	0x0a010000
     8b8:	051f0002 	0x051f0002
     8bc:	00040000 	alsl.w	$r0,$r0,$r0,0x1
     8c0:	0000038f 	0x0000038f
     8c4:	4e470104 	jirl	$r4,$r8,-112896(0x24700)
     8c8:	31432055 	vstelm.h	$vr21,$r2,-112(0x190),0x0
     8cc:	2e382037 	0x2e382037
     8d0:	20302e33 	ll.w	$r19,$r17,12332(0x302c)
     8d4:	62616d2d 	blt	$r9,$r13,-106132(0x2616c) # fffe6a40 <_stack+0xe3fcd644>
     8d8:	6c693d69 	bgeu	$r11,$r9,26940(0x693c) # 7214 <data_size+0x69e0>
     8dc:	73323370 	0x73323370
     8e0:	616d2d20 	blt	$r9,$r0,93484(0x16d2c) # 1760c <data_size+0x16dd8>
     8e4:	3d686372 	0x3d686372
     8e8:	6e6f6f6c 	bgeu	$r27,$r12,-102548(0x26f6c) # fffe7854 <_stack+0xe3fce458>
     8ec:	63726167 	blt	$r11,$r7,-36256(0x37260) # ffff7b4c <_stack+0xe3fde750>
     8f0:	72323368 	0x72323368
     8f4:	666d2d20 	bge	$r9,$r0,-103124(0x26d2c) # fffe7620 <_stack+0xe3fce224>
     8f8:	6e3d7570 	bgeu	$r11,$r16,-115340(0x23d74) # fffe466c <_stack+0xe3fcb270>
     8fc:	20656e6f 	ll.w	$r15,$r19,25964(0x656c)
     900:	6d636d2d 	bgeu	$r9,$r13,90988(0x1636c) # 16c6c <data_size+0x16438>
     904:	6c65646f 	bgeu	$r3,$r15,25956(0x6564) # 6e68 <data_size+0x6634>
     908:	726f6e3d 	0x726f6e3d
     90c:	206c616d 	ll.w	$r13,$r11,27744(0x6c60)
     910:	75746d2d 	0x75746d2d
     914:	6c3d656e 	bgeu	$r11,$r14,15716(0x3d64) # 4678 <data_size+0x3e44>
     918:	676e6f6f 	bge	$r27,$r15,-37268(0x36e6c) # ffff7784 <_stack+0xe3fde388>
     91c:	68637261 	bltu	$r19,$r1,25456(0x6370) # 6c8c <data_size+0x6458>
     920:	20723233 	ll.w	$r19,$r17,29232(0x7230)
     924:	2d20672d 	0x2d20672d
     928:	2d20324f 	0x2d20324f
     92c:	2d6f6e66 	0x2d6f6e66
     930:	6c697562 	bgeu	$r11,$r2,26996(0x6974) # 72a4 <data_size+0x6a70>
     934:	206e6974 	ll.w	$r20,$r11,28264(0x6e68)
     938:	6f6e662d 	bgeu	$r17,$r13,-37276(0x36e64) # ffff779c <_stack+0xe3fde3a0>
     93c:	6369702d 	blt	$r1,$r13,-38544(0x36970) # ffff72ac <_stack+0xe3fddeb0>
     940:	74730c00 	xvmin.w	$xr0,$xr0,$xr3
     944:	676e6972 	bge	$r11,$r18,-37272(0x36e68) # ffff77ac <_stack+0xe3fde3b0>
     948:	2f00632e 	0x2f00632e
     94c:	656d6f68 	bge	$r27,$r8,93548(0x16d6c) # 176b8 <data_size+0x16e84>
     950:	7477772f 	xvmin.wu	$xr15,$xr25,$xr29
     954:	726f772f 	0x726f772f
     958:	65702f6b 	bge	$r27,$r11,94252(0x1702c) # 17984 <data_size+0x17150>
     95c:	665f6672 	bge	$r19,$r18,-106652(0x25f64) # fffe68c0 <_stack+0xe3fcd4c4>
     960:	2f636e75 	0x2f636e75
     964:	0062696c 	bstrins.w	$r12,$r11,0x2,0x1a
     968:	00000060 	0x00000060
     96c:	00000000 	0x00000000
     970:	00000853 	0x00000853
     974:	04030402 	csrrd	$r2,0xc1
     978:	736e7507 	vssrarni.du.q	$vr7,$vr8,0x1d
     97c:	656e6769 	bge	$r27,$r9,93796(0x16e64) # 177e0 <data_size+0x16fac>
     980:	6e692064 	bgeu	$r3,$r4,-104160(0x26920) # fffe72a0 <_stack+0xe3fcdea4>
     984:	04030074 	csrxchg	$r20,$r3,0xc0
     988:	6e6f6c07 	bgeu	$r0,$r7,-102548(0x26f6c) # fffe78f4 <_stack+0xe3fce4f8>
     98c:	6e752067 	bgeu	$r3,$r7,-101088(0x27520) # fffe7eac <_stack+0xe3fceab0>
     990:	6e676973 	bgeu	$r11,$r19,-104600(0x26768) # fffe70f8 <_stack+0xe3fcdcfc>
     994:	69206465 	bltu	$r3,$r5,73828(0x12064) # 129f8 <data_size+0x121c4>
     998:	0400746e 	csrxchg	$r14,$r3,0x1d
     99c:	657a6973 	bge	$r11,$r19,96872(0x17a68) # 18404 <data_size+0x17bd0>
     9a0:	0200745f 	slti	$r31,$r2,29(0x1d)
     9a4:	00bc160f 	bstrins.d	$r15,$r16,0x3c,0x5
     9a8:	62050000 	blt	$r0,$r0,-129792(0x20500) # fffe0ea8 <_stack+0xe3fc7aac>
     9ac:	6f72657a 	bgeu	$r11,$r26,-36252(0x37264) # ffff7c10 <_stack+0xe3fde814>
     9b0:	01570100 	0x01570100
     9b4:	008af806 	bstrins.d	$r6,$r0,0xa,0x3e
     9b8:	0000181c 	cto.w	$r28,$r0
     9bc:	639c0100 	blt	$r8,$r0,-25600(0x39c00) # ffffa5bc <_stack+0xe3fe11c0>
     9c0:	06000001 	cacop	0x1,$r0,0
     9c4:	57010073 	bl	30343424(0x1cf0100) # 1cf0ac4 <data_size+0x1cf0290>
     9c8:	00ba1201 	bstrins.d	$r1,$r16,0x3a,0x4
     9cc:	04ab0000 	csrrd	$r0,0x2ac0
     9d0:	6e060000 	bgeu	$r0,$r0,-129536(0x20600) # fffe0fd0 <_stack+0xe3fc7bd4>
     9d4:	01570100 	0x01570100
     9d8:	0000e11c 	0x0000e11c
     9dc:	0004cc00 	alsl.w	$r0,$r0,$r19,0x2
     9e0:	02cd0700 	addi.d	$r0,$r24,833(0x341)
     9e4:	8af80000 	0x8af80000
     9e8:	00141c00 	nor	$r0,$r0,$r7
     9ec:	58010000 	beq	$r0,$r0,256(0x100) # aec <data_size+0x2b8>
     9f0:	f5080201 	0xf5080201
     9f4:	ed000002 	0xed000002
     9f8:	09000004 	0x09000004
     9fc:	000002eb 	0x000002eb
     a00:	02e10800 	addi.d	$r0,$r0,-1982(0x842)
     a04:	05120000 	0x05120000
     a08:	f80a0000 	0xf80a0000
     a0c:	141c008a 	lu12i.w	$r10,57348(0xe004)
     a10:	0b000000 	0x0b000000
     a14:	000002ff 	0x000002ff
     a18:	00005401 	bitrev.d	$r1,$r0
     a1c:	656d0c00 	bge	$r0,$r0,93452(0x16d0c) # 17728 <data_size+0x16ef4>
     a20:	706d636d 	0x706d636d
     a24:	014b0100 	0x014b0100
     a28:	0001cf01 	0x0001cf01
     a2c:	008aa000 	bstrins.d	$r0,$r0,0xa,0x28
     a30:	0000581c 	ext.w.h	$r28,$r0
     a34:	cf9c0100 	0xcf9c0100
     a38:	06000001 	cacop	0x1,$r0,0
     a3c:	01003176 	0x01003176
     a40:	d614014b 	0xd614014b
     a44:	33000001 	0x33000001
     a48:	06000005 	cacop	0x5,$r0,0
     a4c:	01003276 	0x01003276
     a50:	d624014b 	0xd624014b
     a54:	54000001 	bl	262144(0x40000) # 40a54 <data_size+0x40220>
     a58:	06000005 	cacop	0x5,$r0,0
     a5c:	4b01006e 	bceqz	$fcc3,3866880(0x3b0100) # 3b0b5c <data_size+0x3b0328>
     a60:	00e12f01 	bstrpick.d	$r1,$r24,0x21,0xb
     a64:	05750000 	0x05750000
     a68:	730d0000 	vextl.qu.du	$vr0,$vr0
     a6c:	4c010031 	jirl	$r17,$r1,256(0x100)
     a70:	01dd1101 	0x01dd1101
     a74:	05a50000 	0x05a50000
     a78:	730e0000 	0x730e0000
     a7c:	4d010032 	jirl	$r18,$r1,65792(0x10100)
     a80:	01dd1101 	0x01dd1101
     a84:	55010000 	bl	65792(0x10100) # 10b84 <data_size+0x10350>
     a88:	05040300 	0x05040300
     a8c:	00746e69 	bstrins.w	$r9,$r19,0x14,0x1b
     a90:	01dc040f 	0x01dc040f
     a94:	0f100000 	0x0f100000
     a98:	0001eb04 	0x0001eb04
     a9c:	06010300 	cacop	0x0,$r24,64(0x40)
     aa0:	72616863 	0x72616863
     aa4:	01e31100 	0x01e31100
     aa8:	6d0c0000 	bgeu	$r0,$r0,68608(0x10c00) # 116a8 <data_size+0x10e74>
     aac:	6f6d6d65 	bgeu	$r11,$r5,-37524(0x36d6c) # ffff7818 <_stack+0xe3fde41c>
     ab0:	01006576 	0x01006576
     ab4:	ba010128 	0xba010128
     ab8:	4c000000 	jirl	$r0,$r0,0
     abc:	541c008a 	bl	36183040(0x2281c00) # 22826bc <data_size+0x2281e88>
     ac0:	01000000 	0x01000000
     ac4:	00025d9c 	0x00025d9c
     ac8:	73641200 	0x73641200
     acc:	28010074 	ld.b	$r20,$r3,64(0x40)
     ad0:	00ba0f01 	bstrins.d	$r1,$r24,0x3a,0x3
     ad4:	54010000 	bl	256(0x100) # bd4 <data_size+0x3a0>
     ad8:	63727306 	blt	$r24,$r6,-36240(0x37270) # ffff7d48 <_stack+0xe3fde94c>
     adc:	01280100 	0x01280100
     ae0:	0001d620 	asrtgt.d	$r17,$r21
     ae4:	0005c300 	alsl.w	$r0,$r24,$r16,0x4
     ae8:	006e0600 	bstrins.w	$r0,$r16,0xe,0x1
     aec:	2c012801 	vld	$vr1,$r0,74(0x4a)
     af0:	000000e1 	0x000000e1
     af4:	000005ef 	0x000005ef
     af8:	0100730d 	0x0100730d
     afc:	dd11012c 	0xdd11012c
     b00:	1c000001 	pcaddu12i	$r1,0
     b04:	0d000006 	fsel	$f6,$f0,$f0,$fcc0
     b08:	2d010064 	0x2d010064
     b0c:	025d0b01 	sltui	$r1,$r24,1858(0x742)
     b10:	06500000 	0x06500000
     b14:	0f000000 	0x0f000000
     b18:	0001e304 	0x0001e304
     b1c:	656d0c00 	bge	$r0,$r0,93452(0x16d0c) # 17828 <data_size+0x16ff4>
     b20:	7970636d 	0x7970636d
     b24:	01110100 	fscaleb.d	$f0,$f8,$f0
     b28:	0000ba01 	0x0000ba01
     b2c:	008a2800 	bstrins.d	$r0,$r0,0xa,0xa
     b30:	0000241c 	clz.d	$r28,$r0
     b34:	cd9c0100 	0xcd9c0100
     b38:	12000002 	addu16i.d	$r2,$r0,-32768(0x8000)
     b3c:	00747364 	bstrins.w	$r4,$r27,0x14,0x1c
     b40:	0e011101 	0x0e011101
     b44:	000000ba 	0x000000ba
     b48:	73065401 	0x73065401
     b4c:	01006372 	0x01006372
     b50:	d61f0111 	0xd61f0111
     b54:	8f000001 	0x8f000001
     b58:	06000006 	cacop	0x6,$r0,0
     b5c:	1101006e 	addu16i.d	$r14,$r3,16448(0x4040)
     b60:	00e12b01 	bstrpick.d	$r1,$r24,0x21,0xa
     b64:	06b00000 	0x06b00000
     b68:	730e0000 	0x730e0000
     b6c:	01150100 	0x01150100
     b70:	0001dd11 	0x0001dd11
     b74:	0d550100 	vshuf.b	$vr0,$vr8,$vr0,$vr10
     b78:	16010064 	lu32i.d	$r4,2051(0x803)
     b7c:	025d0b01 	sltui	$r1,$r24,1858(0x742)
     b80:	06e00000 	0x06e00000
     b84:	13000000 	addu16i.d	$r0,$r0,-16384(0xc000)
     b88:	736d656d 	vssrarni.wu.d	$vr13,$vr11,0x19
     b8c:	01007465 	0x01007465
     b90:	00ba01f6 	bstrins.d	$r22,$r15,0x3a,0x0
     b94:	0a010000 	0x0a010000
     b98:	14000003 	lu12i.w	$r3,0
     b9c:	f6010073 	0xf6010073
     ba0:	0000ba0e 	0x0000ba0e
     ba4:	00631400 	bstrins.w	$r0,$r0,0x3,0x5
     ba8:	e316f601 	0xe316f601
     bac:	14000001 	lu12i.w	$r1,0
     bb0:	f601006e 	0xf601006e
     bb4:	0000e120 	0x0000e120
     bb8:	00701500 	bstrins.w	$r0,$r8,0x10,0x5
     bbc:	5d0bfa01 	bne	$r16,$r1,68600(0x10bf8) # 117b4 <data_size+0x10f80>
     bc0:	00000002 	0x00000002
     bc4:	72747316 	0x72747316
     bc8:	646e6966 	bge	$r11,$r6,28264(0x6e68) # 7a30 <data_size+0x71fc>
     bcc:	01880100 	0x01880100
     bd0:	0000025d 	0x0000025d
     bd4:	1c0089e4 	pcaddu12i	$r4,1103(0x44f)
     bd8:	00000028 	0x00000028
     bdc:	03439c01 	andi	$r1,$r0,0xe7
     be0:	73170000 	0x73170000
     be4:	15880100 	lu12i.w	$r0,-245752(0xc4008)
     be8:	000001dd 	0x000001dd
     bec:	000006fe 	0x000006fe
     bf0:	01006318 	0x01006318
     bf4:	01e31d88 	0x01e31d88
     bf8:	55010000 	bl	65792(0x10100) # 10cf8 <data_size+0x104c4>
     bfc:	74731600 	xvmin.w	$xr0,$xr16,$xr5
     c00:	72686372 	0x72686372
     c04:	01740100 	0x01740100
     c08:	0000025d 	0x0000025d
     c0c:	1c0089b8 	pcaddu12i	$r24,1101(0x44d)
     c10:	0000002c 	0x0000002c
     c14:	037b9c01 	andi	$r1,$r0,0xee7
     c18:	73170000 	0x73170000
     c1c:	14740100 	lu12i.w	$r0,237576(0x3a008)
     c20:	000001dd 	0x000001dd
     c24:	0000071c 	0x0000071c
     c28:	01006318 	0x01006318
     c2c:	01e31c74 	0x01e31c74
     c30:	55010000 	bl	65792(0x10100) # 10d30 <data_size+0x104fc>
     c34:	74731600 	xvmin.w	$xr0,$xr16,$xr5
     c38:	6d636e72 	bgeu	$r19,$r18,90988(0x1636c) # 16fa4 <data_size+0x16770>
     c3c:	64010070 	bge	$r3,$r16,256(0x100) # d3c <data_size+0x508>
     c40:	0001cf01 	0x0001cf01
     c44:	00895000 	bstrins.d	$r0,$r0,0x9,0x14
     c48:	0000681c 	rdtime.d	$r28,$r0
     c4c:	c69c0100 	0xc69c0100
     c50:	17000003 	lu32i.d	$r3,-524288(0x80000)
     c54:	01003173 	0x01003173
     c58:	01dd1564 	0x01dd1564
     c5c:	07450000 	0x07450000
     c60:	73170000 	0x73170000
     c64:	64010032 	bge	$r1,$r18,256(0x100) # d64 <data_size+0x530>
     c68:	0001dd25 	0x0001dd25
     c6c:	00076e00 	alsl.wu	$r0,$r16,$r27,0x3
     c70:	006e1700 	bstrins.w	$r0,$r24,0xe,0x5
     c74:	e1306401 	0xe1306401
     c78:	ad000000 	0xad000000
     c7c:	00000007 	0x00000007
     c80:	72747316 	0x72747316
     c84:	7970636e 	0x7970636e
     c88:	014d0100 	0x014d0100
     c8c:	0000025d 	0x0000025d
     c90:	1c008928 	pcaddu12i	$r8,1097(0x449)
     c94:	00000028 	0x00000028
     c98:	04219c01 	csrrd	$r1,0x867
     c9c:	64180000 	bge	$r0,$r0,6144(0x1800) # 249c <data_size+0x1c68>
     ca0:	01007473 	0x01007473
     ca4:	025d0f4d 	sltui	$r13,$r26,1859(0x743)
     ca8:	54010000 	bl	256(0x100) # da8 <data_size+0x574>
     cac:	63727317 	blt	$r24,$r23,-36240(0x37270) # ffff7f1c <_stack+0xe3fdeb20>
     cb0:	204d0100 	ll.w	$r0,$r8,19712(0x4d00)
     cb4:	000001dd 	0x000001dd
     cb8:	000007ee 	0x000007ee
     cbc:	6e656c17 	bgeu	$r0,$r23,-105108(0x2656c) # fffe7228 <_stack+0xe3fcde2c>
     cc0:	2c4d0100 	vst	$vr0,$r8,832(0x340)
     cc4:	000000e1 	0x000000e1
     cc8:	0000080c 	0x0000080c
     ccc:	01007019 	0x01007019
     cd0:	025d0b4e 	sltui	$r14,$r26,1858(0x742)
     cd4:	086b0000 	fmsub.d	$f0,$f0,$f0,$f22
     cd8:	16000000 	lu32i.d	$r0,0
     cdc:	63727473 	blt	$r3,$r19,-36236(0x37274) # ffff7f50 <_stack+0xe3fdeb54>
     ce0:	01007970 	0x01007970
     ce4:	025d0137 	sltui	$r23,$r9,1856(0x740)
     ce8:	890c0000 	0x890c0000
     cec:	001c1c00 	mul.w	$r0,$r0,$r7
     cf0:	9c010000 	0x9c010000
     cf4:	0000046b 	0x0000046b
     cf8:	74736418 	xvmin.w	$xr24,$xr0,$xr25
     cfc:	0e370100 	0x0e370100
     d00:	0000025d 	0x0000025d
     d04:	73175401 	0x73175401
     d08:	01006372 	0x01006372
     d0c:	01dd1f37 	0x01dd1f37
     d10:	08a10000 	fnmadd.d	$f0,$f0,$f0,$f2
     d14:	70190000 	0x70190000
     d18:	0b3b0100 	0x0b3b0100
     d1c:	0000025d 	0x0000025d
     d20:	000008bf 	0x000008bf
     d24:	74731600 	xvmin.w	$xr0,$xr16,$xr5
     d28:	656c6e72 	bge	$r19,$r18,93292(0x16c6c) # 17994 <data_size+0x17160>
     d2c:	2201006e 	ll.d	$r14,$r3,256(0x100)
     d30:	0000e101 	0x0000e101
     d34:	0088d000 	bstrins.d	$r0,$r0,0x8,0x34
     d38:	00003c1c 	revb.d	$r28,$r0
     d3c:	b69c0100 	0xb69c0100
     d40:	17000004 	lu32i.d	$r4,-524288(0x80000)
     d44:	22010073 	ll.d	$r19,$r3,256(0x100)
     d48:	0001dd15 	0x0001dd15
     d4c:	0008dd00 	bytepick.w	$r0,$r8,$r23,0x1
     d50:	656c1800 	bge	$r0,$r0,93208(0x16c18) # 17968 <data_size+0x17134>
     d54:	2201006e 	ll.d	$r14,$r3,256(0x100)
     d58:	0000e11f 	0x0000e11f
     d5c:	19550100 	pcaddi	$r0,-350200(0xaa808)
     d60:	00746e63 	bstrins.w	$r3,$r19,0x14,0x1b
     d64:	e10c2301 	0xe10c2301
     d68:	22000000 	ll.d	$r0,$r0,0
     d6c:	00000009 	0x00000009
     d70:	72747316 	0x72747316
     d74:	006e656c 	bstrins.w	$r12,$r11,0xe,0x19
     d78:	e1010c01 	0xe1010c01
     d7c:	a0000000 	0xa0000000
     d80:	301c0088 	0x301c0088
     d84:	01000000 	0x01000000
     d88:	0004f29c 	alsl.w	$r28,$r20,$r28,0x2
     d8c:	00731700 	bstrins.w	$r0,$r24,0x13,0x5
     d90:	dd140c01 	0xdd140c01
     d94:	4d000001 	jirl	$r1,$r0,65536(0x10000)
     d98:	19000009 	pcaddi	$r9,-524288(0x80000)
     d9c:	00746e63 	bstrins.w	$r3,$r19,0x14,0x1b
     da0:	e10c0d01 	0xe10c0d01
     da4:	af000000 	0xaf000000
     da8:	00000009 	0x00000009
     dac:	0002cd1a 	0x0002cd1a
     db0:	008a0c00 	bstrins.d	$r0,$r0,0xa,0x3
     db4:	00001c1c 	ctz.w	$r28,$r0
     db8:	1b9c0100 	pcalau12i	$r0,-204792(0xce008)
     dbc:	000002e1 	0x000002e1
     dc0:	eb1b5401 	0xeb1b5401
     dc4:	01000002 	0x01000002
     dc8:	02f50855 	addi.d	$r21,$r2,-702(0xd42)
     dcc:	09da0000 	vfnmsub.s	$vr0,$vr0,$vr0,$vr20
     dd0:	ff1c0000 	0xff1c0000
     dd4:	48000002 	bceqz	$fcc0,524288(0x80000) # 80dd4 <data_size+0x805a0>
     dd8:	0000000a 	0x0000000a
     ddc:	0002ff00 	0x0002ff00
     de0:	34000400 	0x34000400
     de4:	04000005 	csrrd	$r5,0x0
     de8:	554e4701 	bl	-66761148(0xc054e44) # fc055c2c <_stack+0xe003c830>
     dec:	37314320 	0x37314320
     df0:	332e3820 	xvstelm.w	$xr0,$r1,-456(0x238),0x3
     df4:	2d20302e 	0x2d20302e
     df8:	6962616d 	bltu	$r11,$r13,90720(0x16260) # 17058 <data_size+0x16824>
     dfc:	706c693d 	0x706c693d
     e00:	20733233 	ll.w	$r19,$r17,29488(0x7330)
     e04:	72616d2d 	0x72616d2d
     e08:	6c3d6863 	bgeu	$r3,$r3,15720(0x3d68) # 4b70 <data_size+0x433c>
     e0c:	676e6f6f 	bge	$r27,$r15,-37268(0x36e6c) # ffff7c78 <_stack+0xe3fde87c>
     e10:	68637261 	bltu	$r19,$r1,25456(0x6370) # 7180 <data_size+0x694c>
     e14:	20723233 	ll.w	$r19,$r17,29232(0x7230)
     e18:	70666d2d 	vavg.bu	$vr13,$vr9,$vr27
     e1c:	6f6e3d75 	bgeu	$r11,$r21,-37316(0x36e3c) # ffff7c58 <_stack+0xe3fde85c>
     e20:	2d20656e 	0x2d20656e
     e24:	6f6d636d 	bgeu	$r27,$r13,-37536(0x36d60) # ffff7b84 <_stack+0xe3fde788>
     e28:	3d6c6564 	0x3d6c6564
     e2c:	6d726f6e 	bgeu	$r27,$r14,94828(0x1726c) # 18098 <data_size+0x17864>
     e30:	2d206c61 	0x2d206c61
     e34:	6e75746d 	bgeu	$r3,$r13,-101004(0x27574) # fffe83a8 <_stack+0xe3fcefac>
     e38:	6f6c3d65 	bgeu	$r11,$r5,-37828(0x36c3c) # ffff7a74 <_stack+0xe3fde678>
     e3c:	61676e6f 	blt	$r19,$r15,92012(0x1676c) # 175a8 <data_size+0x16d74>
     e40:	33686372 	xvstelm.h	$xr18,$r27,48(0x30),0xa
     e44:	2d207232 	0x2d207232
     e48:	4f2d2067 	jirl	$r7,$r3,-53984(0x32d20)
     e4c:	662d2032 	bge	$r1,$r18,-119520(0x22d20) # fffe3b6c <_stack+0xe3fca770>
     e50:	622d6f6e 	blt	$r27,$r14,-119444(0x22d6c) # fffe3bbc <_stack+0xe3fca7c0>
     e54:	746c6975 	0x746c6975
     e58:	2d206e69 	0x2d206e69
     e5c:	2d6f6e66 	0x2d6f6e66
     e60:	00636970 	bstrins.w	$r16,$r11,0x3,0x1a
     e64:	6d69740c 	bgeu	$r0,$r12,92532(0x16974) # 177d8 <data_size+0x16fa4>
     e68:	00632e65 	bstrins.w	$r5,$r19,0x3,0xb
     e6c:	6d6f682f 	bgeu	$r1,$r15,94056(0x16f68) # 17dd4 <data_size+0x175a0>
     e70:	77772f65 	0x77772f65
     e74:	6f772f74 	bgeu	$r27,$r20,-35028(0x3772c) # ffff85a0 <_stack+0xe3fdf1a4>
     e78:	702f6b72 	vaddwev.d.wu	$vr18,$vr27,$vr26
     e7c:	5f667265 	bne	$r19,$r5,-39312(0x36670) # ffff74ec <_stack+0xe3fde0f0>
     e80:	636e7566 	blt	$r11,$r6,-37260(0x36e74) # ffff7cf4 <_stack+0xe3fde8f8>
     e84:	62696c2f 	blt	$r1,$r15,-104084(0x2696c) # fffe77f0 <_stack+0xe3fce3f4>
     e88:	008b1000 	bstrins.d	$r0,$r0,0xb,0x4
     e8c:	0001041c 	0x0001041c
     e90:	00106000 	add.w	$r0,$r0,$r24
     e94:	07040200 	0x07040200
     e98:	69736e75 	bltu	$r19,$r21,95084(0x1736c) # 18204 <data_size+0x179d0>
     e9c:	64656e67 	bge	$r19,$r7,25964(0x656c) # 7408 <data_size+0x6bd4>
     ea0:	746e6920 	0x746e6920
     ea4:	07040200 	0x07040200
     ea8:	676e6f6c 	bge	$r27,$r12,-37268(0x36e6c) # ffff7d14 <_stack+0xe3fde918>
     eac:	736e7520 	vssrarni.du.q	$vr0,$vr9,0x1d
     eb0:	656e6769 	bge	$r27,$r9,93796(0x16e64) # 17d14 <data_size+0x174e0>
     eb4:	6e692064 	bgeu	$r3,$r4,-104160(0x26920) # fffe77d4 <_stack+0xe3fce3d8>
     eb8:	5f030074 	bne	$r3,$r20,-64768(0x30300) # ffff11b8 <_stack+0xe3fd7dbc>
     ebc:	636f6c63 	blt	$r3,$r3,-37012(0x36f6c) # ffff7e28 <_stack+0xe3fdea2c>
     ec0:	00745f6b 	bstrins.w	$r11,$r27,0x14,0x17
     ec4:	c8170302 	0xc8170302
     ec8:	02000000 	slti	$r0,$r0,0
     ecc:	6e690504 	bgeu	$r8,$r4,-104188(0x26904) # fffe77d0 <_stack+0xe3fce3d4>
     ed0:	74040074 	xvsle.bu	$xr20,$xr3,$xr0
     ed4:	73656d69 	vssrani.wu.d	$vr9,$vr11,0x1b
     ed8:	00636570 	bstrins.w	$r16,$r11,0x3,0x19
     edc:	081f0210 	fmadd.s	$f16,$f16,$f0,$f30
     ee0:	0000014b 	0x0000014b
     ee4:	5f767405 	bne	$r0,$r5,-35212(0x37674) # ffff8558 <_stack+0xe3fdf15c>
     ee8:	00636573 	bstrins.w	$r19,$r11,0x3,0x19
     eec:	dd0b2002 	0xdd0b2002
     ef0:	00000000 	0x00000000
     ef4:	5f767405 	bne	$r0,$r5,-35212(0x37674) # ffff8568 <_stack+0xe3fdf16c>
     ef8:	6365736e 	blt	$r27,$r14,-39568(0x36570) # ffff7468 <_stack+0xe3fde06c>
     efc:	0b210200 	0x0b210200
     f00:	000000dd 	0x000000dd
     f04:	76740504 	0x76740504
     f08:	6573755f 	bge	$r10,$r31,95092(0x17374) # 1827c <data_size+0x17a48>
     f0c:	22020063 	ll.d	$r3,$r3,512(0x200)
     f10:	0000dd0b 	0x0000dd0b
     f14:	74050800 	xvsle.wu	$xr0,$xr0,$xr2
     f18:	736d5f76 	vssrarni.wu.d	$vr22,$vr27,0x17
     f1c:	02006365 	slti	$r5,$r27,24(0x18)
     f20:	00dd0b23 	bstrpick.d	$r3,$r25,0x1d,0x2
     f24:	000c0000 	bytepick.d	$r0,$r0,$r0,0x0
     f28:	74656706 	xvavg.w	$xr6,$xr24,$xr25
     f2c:	0073755f 	bstrins.w	$r31,$r10,0x13,0x1d
     f30:	c80f3c01 	0xc80f3c01
     f34:	e4000000 	0xe4000000
     f38:	301c008b 	0x301c008b
     f3c:	01000000 	0x01000000
     f40:	0001939c 	0x0001939c
     f44:	006e0700 	bstrins.w	$r0,$r24,0xe,0x1
     f48:	c8133e01 	0xc8133e01
     f4c:	66000000 	bge	$r0,$r0,-131072(0x20000) # fffe0f4c <_stack+0xe3fc7b50>
     f50:	0800000a 	0x0800000a
     f54:	000002dc 	0x000002dc
     f58:	1c008be4 	pcaddu12i	$r4,1119(0x45f)
     f5c:	000000b8 	0x000000b8
     f60:	09093f01 	0x09093f01
     f64:	000000b8 	0x000000b8
     f68:	0002f00a 	0x0002f00a
     f6c:	00000000 	0x00000000
     f70:	74656706 	xvavg.w	$xr6,$xr24,$xr25
     f74:	00736e5f 	bstrins.w	$r31,$r18,0x13,0x1b
     f78:	c80f3301 	0xc80f3301
     f7c:	c0000000 	0xc0000000
     f80:	241c008b 	ldptr.w	$r11,$r4,7168(0x1c00)
     f84:	01000000 	0x01000000
     f88:	0001db9c 	0x0001db9c
     f8c:	006e0700 	bstrins.w	$r0,$r24,0xe,0x1
     f90:	c8133501 	0xc8133501
     f94:	9d000000 	0x9d000000
     f98:	0800000a 	0x0800000a
     f9c:	000002dc 	0x000002dc
     fa0:	1c008bc0 	pcaddu12i	$r0,1118(0x45e)
     fa4:	000000a0 	0x000000a0
     fa8:	09093601 	0x09093601
     fac:	000000a0 	0x000000a0
     fb0:	0002f00a 	0x0002f00a
     fb4:	00000000 	0x00000000
     fb8:	7465670b 	xvavg.w	$xr11,$xr24,$xr25
     fbc:	6f6c635f 	bgeu	$r26,$r31,-37792(0x36c60) # ffff7c1c <_stack+0xe3fde820>
     fc0:	01006b63 	0x01006b63
     fc4:	00c80f2c 	bstrpick.d	$r12,$r25,0x8,0x3
     fc8:	01fc0000 	0x01fc0000
     fcc:	6e0c0000 	bgeu	$r0,$r0,-128000(0x20c00) # fffe1bcc <_stack+0xe3fc87d0>
     fd0:	132e0100 	addu16i.d	$r0,$r8,-13440(0xcb80)
     fd4:	000000c8 	0x000000c8
     fd8:	6c630600 	bgeu	$r16,$r0,25348(0x6304) # 72dc <data_size+0x6aa8>
     fdc:	5f6b636f 	bne	$r27,$r15,-38048(0x36b60) # ffff7b3c <_stack+0xe3fde740>
     fe0:	74746567 	xvmax.bu	$xr7,$xr11,$xr25
     fe4:	00656d69 	bstrins.w	$r9,$r11,0x5,0x1b
     fe8:	c80f2001 	0xc80f2001
     fec:	38000000 	ldx.b	$r0,$r0,$r0
     ff0:	841c008b 	0x841c008b
     ff4:	01000000 	0x01000000
     ff8:	0002699c 	0x0002699c
     ffc:	65730d00 	bge	$r8,$r0,94988(0x1730c) # 18308 <data_size+0x17ad4>
    1000:	2001006c 	ll.w	$r12,$r3,256(0x100)
    1004:	0000ee21 	0x0000ee21
    1008:	000acb00 	0x000acb00
    100c:	6d740e00 	bgeu	$r16,$r0,95244(0x1740c) # 18418 <data_size+0x17be4>
    1010:	20010070 	ll.w	$r16,$r3,256(0x100)
    1014:	00026936 	0x00026936
    1018:	07550100 	0x07550100
    101c:	2201006e 	ll.d	$r14,$r3,256(0x100)
    1020:	0000c813 	0x0000c813
    1024:	000aec00 	0x000aec00
    1028:	02dc0800 	addi.d	$r0,$r0,1794(0x702)
    102c:	8b380000 	0x8b380000
    1030:	00881c00 	bstrins.d	$r0,$r0,0x8,0x7
    1034:	23010000 	sc.d	$r0,$r0,256(0x100)
    1038:	00880909 	bstrins.d	$r9,$r8,0x8,0x2
    103c:	f00a0000 	0xf00a0000
    1040:	00000002 	0x00000002
    1044:	040f0000 	csrrd	$r0,0x3c0
    1048:	000000f5 	0x000000f5
    104c:	74656710 	xvavg.w	$xr16,$xr24,$xr25
    1050:	756f635f 	0x756f635f
    1054:	6d5f746e 	bgeu	$r3,$r14,89972(0x15f74) # 16fc8 <data_size+0x16794>
    1058:	16010079 	lu32i.d	$r25,2051(0x803)
    105c:	0000c80f 	0x0000c80f
    1060:	008b3000 	bstrins.d	$r0,$r0,0xb,0xc
    1064:	0000081c 	0x0000081c
    1068:	9f9c0100 	0x9f9c0100
    106c:	11000002 	addu16i.d	$r2,$r0,16384(0x4000)
    1070:	1801006e 	pcaddi	$r14,2051(0x803)
    1074:	0000c813 	0x0000c813
    1078:	00540100 	0x00540100
    107c:	74656710 	xvavg.w	$xr16,$xr24,$xr25
    1080:	756f635f 	0x756f635f
    1084:	0100746e 	0x0100746e
    1088:	00c80f11 	bstrpick.d	$r17,$r24,0x8,0x3
    108c:	8b100000 	0x8b100000
    1090:	001c1c00 	mul.w	$r0,$r0,$r7
    1094:	9c010000 	0x9c010000
    1098:	000002dc 	0x000002dc
    109c:	0002dc08 	0x0002dc08
    10a0:	008b1000 	bstrins.d	$r0,$r0,0xb,0x4
    10a4:	0000701c 	0x0000701c
    10a8:	0d130100 	vbitsel.v	$vr0,$vr8,$vr0,$vr6
    10ac:	00007009 	0x00007009
    10b0:	02f00a00 	addi.d	$r0,$r16,-1022(0xc02)
    10b4:	00000000 	0x00000000
    10b8:	675f1200 	bge	$r16,$r0,-41200(0x35f10) # ffff6fc8 <_stack+0xe3fddbcc>
    10bc:	635f7465 	blt	$r3,$r5,-41100(0x35f74) # ffff7030 <_stack+0xe3fddc34>
    10c0:	746e756f 	0x746e756f
    10c4:	0f040100 	0x0f040100
    10c8:	000000c8 	0x000000c8
    10cc:	635f0c01 	blt	$r0,$r1,-41204(0x35f0c) # ffff6fd8 <_stack+0xe3fddbdc>
    10d0:	76746e6f 	0x76746e6f
    10d4:	01006c61 	0x01006c61
    10d8:	00c81306 	bstrpick.d	$r6,$r24,0x8,0x4
    10dc:	00000000 	0x00000000

Disassembly of section .debug_abbrev:

00000000 <.debug_abbrev>:
   0:	25011101 	stptr.w	$r1,$r8,272(0x110)
   4:	030b1308 	lu52i.d	$r8,$r24,708(0x2c4)
   8:	11081b08 	addu16i.d	$r8,$r24,16902(0x4206)
   c:	10061201 	addu16i.d	$r1,$r16,388(0x184)
  10:	02000017 	slti	$r23,$r0,0
  14:	0b0b000f 	0x0b0b000f
  18:	24030000 	ldptr.w	$r0,$r0,768(0x300)
  1c:	3e0b0b00 	0x3e0b0b00
  20:	0008030b 	bytepick.w	$r11,$r24,$r0,0x0
  24:	012e0400 	0x012e0400
  28:	0803193f 	0x0803193f
  2c:	0b3b0b3a 	0x0b3b0b3a
  30:	19270b39 	pcaddi	$r25,-444327(0x93859)
  34:	01111349 	fscaleb.d	$f9,$f26,$f4
  38:	18400612 	pcaddi	$r18,131120(0x20030)
  3c:	01194297 	0x01194297
  40:	05000013 	0x05000013
  44:	08030005 	0x08030005
  48:	0b3b0b3a 	0x0b3b0b3a
  4c:	13490b39 	addu16i.d	$r25,$r25,-11710(0xd242)
  50:	00001702 	clz.w	$r2,$r24
  54:	00001806 	cto.w	$r6,$r0
  58:	00340700 	0x00340700
  5c:	0b3a0803 	0x0b3a0803
  60:	0b390b3b 	0x0b390b3b
  64:	17021349 	lu32i.d	$r9,-520038(0x8109a)
  68:	34080000 	0x34080000
  6c:	3a080300 	0x3a080300
  70:	390b3b0b 	0x390b3b0b
  74:	0213490b 	slti	$r11,$r8,1234(0x4d2)
  78:	09000018 	0x09000018
  7c:	0803000a 	0x0803000a
  80:	0b3b0b3a 	0x0b3b0b3a
  84:	01110b39 	fscaleb.d	$f25,$f25,$f2
  88:	0b0a0000 	0x0b0a0000
  8c:	01175501 	0x01175501
  90:	0b000013 	0x0b000013
  94:	193f012e 	pcaddi	$r14,-395255(0x9f809)
  98:	0b3a0803 	0x0b3a0803
  9c:	0b390b3b 	0x0b390b3b
  a0:	193c1349 	pcaddi	$r9,-401254(0x9e09a)
  a4:	00001301 	clo.w	$r1,$r24
  a8:	3f012e0c 	0x3f012e0c
  ac:	3a0e0319 	0x3a0e0319
  b0:	390b3b0b 	0x390b3b0b
  b4:	3c13490b 	0x3c13490b
  b8:	00130119 	maskeqz	$r25,$r8,$r0
  bc:	82890d00 	0x82890d00
  c0:	01110101 	fscaleb.d	$f1,$f8,$f0
  c4:	13011331 	addu16i.d	$r17,$r25,-16316(0xc044)
  c8:	8a0e0000 	0x8a0e0000
  cc:	02000182 	slti	$r2,$r12,0
  d0:	18429118 	pcaddi	$r24,136328(0x21488)
  d4:	890f0000 	0x890f0000
  d8:	11000182 	addu16i.d	$r2,$r12,16384(0x4000)
  dc:	00133101 	maskeqz	$r1,$r8,$r12
  e0:	82891000 	0x82891000
  e4:	01110101 	fscaleb.d	$f1,$f8,$f0
  e8:	00001331 	clo.w	$r17,$r25
  ec:	55010b11 	bl	-62586616(0xc450108) # fc4501f4 <_stack+0xe0436df8>
  f0:	12000017 	addu16i.d	$r23,$r0,-32768(0x8000)
  f4:	0111010b 	fscaleb.d	$f11,$f8,$f0
  f8:	13010612 	addu16i.d	$r18,$r16,-16319(0xc041)
  fc:	0f130000 	0x0f130000
 100:	490b0b00 	0x490b0b00
 104:	14000013 	lu12i.w	$r19,0
 108:	13490026 	addu16i.d	$r6,$r1,-11712(0xd240)
 10c:	2e150000 	0x2e150000
 110:	3c193f00 	0x3c193f00
 114:	030e6e19 	lu52i.d	$r25,$r16,923(0x39b)
 118:	3b0b3a0e 	0x3b0b3a0e
 11c:	000b390b 	0x000b390b
 120:	11010000 	addu16i.d	$r0,$r0,16448(0x4040)
 124:	13082501 	addu16i.d	$r1,$r8,-15863(0xc209)
 128:	1b08030b 	pcalau12i	$r11,-507880(0x84018)
 12c:	12011108 	addu16i.d	$r8,$r8,-32700(0x8044)
 130:	00171006 	sll.w	$r6,$r0,$r4
 134:	00240200 	crc.w.b.w	$r0,$r16,$r0
 138:	0b3e0b0b 	0x0b3e0b0b
 13c:	00000803 	0x00000803
 140:	3f012e03 	0x3f012e03
 144:	3a0e0319 	0x3a0e0319
 148:	390b3b0b 	0x390b3b0b
 14c:	010b200b 	fmin.d	$f11,$f0,$f8
 150:	04000013 	csrrd	$r19,0x0
 154:	08030005 	0x08030005
 158:	0b3b0b3a 	0x0b3b0b3a
 15c:	13490b39 	addu16i.d	$r25,$r25,-11710(0xd242)
 160:	2e050000 	0x2e050000
 164:	03193f01 	lu52i.d	$r1,$r24,1615(0x64f)
 168:	3b0b3a08 	0x3b0b3a08
 16c:	270b390b 	stptr.d	$r11,$r8,2872(0xb38)
 170:	11134919 	addu16i.d	$r25,$r8,17618(0x44d2)
 174:	40061201 	beqz	$r16,263696(0x40610) # 40784 <data_size+0x3ff50>
 178:	19429718 	pcaddi	$r24,-387912(0xa14b8)
 17c:	00001301 	clo.w	$r1,$r24
 180:	03000506 	lu52i.d	$r6,$r8,1(0x1)
 184:	3b0b3a08 	0x3b0b3a08
 188:	490b390b 	bcnez	$fcc0,2951992(0x2d0b38) # 2d0cc0 <data_size+0x2d048c>
 18c:	00170213 	sll.w	$r19,$r16,$r0
 190:	012e0700 	0x012e0700
 194:	0e03193f 	0x0e03193f
 198:	0b3b0b3a 	0x0b3b0b3a
 19c:	13490b39 	addu16i.d	$r25,$r25,-11710(0xd242)
 1a0:	1301193c 	addu16i.d	$r28,$r9,-16314(0xc046)
 1a4:	18080000 	pcaddi	$r0,16384(0x4000)
 1a8:	09000000 	0x09000000
 1ac:	1331011d 	addu16i.d	$r29,$r8,-13248(0xcc40)
 1b0:	17550152 	lu32i.d	$r18,-350198(0xaa80a)
 1b4:	0b590b58 	0x0b590b58
 1b8:	00000b57 	0x00000b57
 1bc:	3100050a 	0x3100050a
 1c0:	00170213 	sll.w	$r19,$r16,$r0
 1c4:	012e0b00 	0x012e0b00
 1c8:	01111331 	fscaleb.d	$f17,$f25,$f4
 1cc:	18400612 	pcaddi	$r18,131120(0x20030)
 1d0:	00194297 	srl.d	$r23,$r20,$r16
 1d4:	00050c00 	alsl.w	$r0,$r0,$r3,0x3
 1d8:	18021331 	pcaddi	$r17,4249(0x1099)
 1dc:	01000000 	0x01000000
 1e0:	08250111 	fmadd.d	$f17,$f8,$f0,$f10
 1e4:	08030b13 	0x08030b13
 1e8:	0111081b 	fscaleb.d	$f27,$f0,$f2
 1ec:	17100612 	lu32i.d	$r18,-491472(0x88030)
 1f0:	24020000 	ldptr.w	$r0,$r0,512(0x200)
 1f4:	3e0b0b00 	0x3e0b0b00
 1f8:	0008030b 	bytepick.w	$r11,$r24,$r0,0x0
 1fc:	012e0300 	0x012e0300
 200:	0803193f 	0x0803193f
 204:	0b3b0b3a 	0x0b3b0b3a
 208:	19270b39 	pcaddi	$r25,-444327(0x93859)
 20c:	01111349 	fscaleb.d	$f9,$f26,$f4
 210:	18400612 	pcaddi	$r18,131120(0x20030)
 214:	01194297 	0x01194297
 218:	04000013 	csrrd	$r19,0x0
 21c:	08030005 	0x08030005
 220:	0b3b0b3a 	0x0b3b0b3a
 224:	13490b39 	addu16i.d	$r25,$r25,-11710(0xd242)
 228:	00001702 	clz.w	$r2,$r24
 22c:	3f012e05 	0x3f012e05
 230:	3a0e0319 	0x3a0e0319
 234:	390b3b0b 	0x390b3b0b
 238:	3c13490b 	0x3c13490b
 23c:	00130119 	maskeqz	$r25,$r8,$r0
 240:	00180600 	sra.w	$r0,$r16,$r1
 244:	89070000 	0x89070000
 248:	11010182 	addu16i.d	$r2,$r12,16448(0x4040)
 24c:	01133101 	fcopysign.d	$f1,$f8,$f12
 250:	08000013 	0x08000013
 254:	0001828a 	0x0001828a
 258:	42911802 	beqz	$r0,692504(0xa9118) # a9370 <data_size+0xa8b3c>
 25c:	09000018 	0x09000018
 260:	01018289 	0x01018289
 264:	13310111 	addu16i.d	$r17,$r8,-13248(0xcc40)
 268:	0f0a0000 	0x0f0a0000
 26c:	490b0b00 	0x490b0b00
 270:	0b000013 	0x0b000013
 274:	08030034 	0x08030034
 278:	0b3b0b3a 	0x0b3b0b3a
 27c:	13490b39 	addu16i.d	$r25,$r25,-11710(0xd242)
 280:	00001702 	clz.w	$r2,$r24
 284:	55010b0c 	bl	-63897336(0xc310108) # fc31038c <_stack+0xe02f6f90>
 288:	0d000017 	fsel	$f23,$f0,$f0,$fcc0
 28c:	0111010b 	fscaleb.d	$f11,$f8,$f0
 290:	13010612 	addu16i.d	$r18,$r16,-16319(0xc041)
 294:	2e0e0000 	0x2e0e0000
 298:	3c193f00 	0x3c193f00
 29c:	030e6e19 	lu52i.d	$r25,$r16,923(0x39b)
 2a0:	3b0b3a0e 	0x3b0b3a0e
 2a4:	000b390b 	0x000b390b
 2a8:	11010000 	addu16i.d	$r0,$r0,16448(0x4040)
 2ac:	13082501 	addu16i.d	$r1,$r8,-15863(0xc209)
 2b0:	1b08030b 	pcalau12i	$r11,-507880(0x84018)
 2b4:	12011108 	addu16i.d	$r8,$r8,-32700(0x8044)
 2b8:	00171006 	sll.w	$r6,$r0,$r4
 2bc:	00240200 	crc.w.b.w	$r0,$r16,$r0
 2c0:	0b3e0b0b 	0x0b3e0b0b
 2c4:	00000803 	0x00000803
 2c8:	3f012e03 	0x3f012e03
 2cc:	3a080319 	0x3a080319
 2d0:	390b3b0b 	0x390b3b0b
 2d4:	4919270b 	0x4919270b
 2d8:	12011113 	addu16i.d	$r19,$r8,-32700(0x8044)
 2dc:	97184006 	0x97184006
 2e0:	13011942 	addu16i.d	$r2,$r10,-16314(0xc046)
 2e4:	05040000 	0x05040000
 2e8:	3a080300 	0x3a080300
 2ec:	390b3b0b 	0x390b3b0b
 2f0:	0213490b 	slti	$r11,$r8,1234(0x4d2)
 2f4:	05000017 	0x05000017
 2f8:	08030034 	0x08030034
 2fc:	0b3b0b3a 	0x0b3b0b3a
 300:	13490b39 	addu16i.d	$r25,$r25,-11710(0xd242)
 304:	00001702 	clz.w	$r2,$r24
 308:	03003406 	lu52i.d	$r6,$r0,13(0xd)
 30c:	3b0b3a08 	0x3b0b3a08
 310:	490b390b 	bcnez	$fcc0,2951992(0x2d0b38) # 2d0e48 <data_size+0x2d0614>
 314:	00180213 	sra.w	$r19,$r16,$r0
 318:	010b0700 	fmin.d	$f0,$f24,$f1
 31c:	06120111 	cacop	0x11,$r8,1152(0x480)
 320:	00001301 	clo.w	$r1,$r24
 324:	3f012e08 	0x3f012e08
 328:	3a0e0319 	0x3a0e0319
 32c:	390b3b0b 	0x390b3b0b
 330:	3c13490b 	0x3c13490b
 334:	00130119 	maskeqz	$r25,$r8,$r0
 338:	00180900 	sra.w	$r0,$r8,$r2
 33c:	890a0000 	0x890a0000
 340:	11010182 	addu16i.d	$r2,$r12,16448(0x4040)
 344:	00133101 	maskeqz	$r1,$r8,$r12
 348:	828a0b00 	0x828a0b00
 34c:	18020001 	pcaddi	$r1,4096(0x1000)
 350:	00184291 	sra.w	$r17,$r20,$r16
 354:	010b0c00 	fmin.d	$f0,$f0,$f3
 358:	06120111 	cacop	0x11,$r8,1152(0x480)
 35c:	890d0000 	0x890d0000
 360:	11000182 	addu16i.d	$r2,$r12,16384(0x4000)
 364:	00133101 	maskeqz	$r1,$r8,$r12
 368:	01010e00 	fadd.d	$f0,$f16,$f3
 36c:	13011349 	addu16i.d	$r9,$r26,-16316(0xc044)
 370:	210f0000 	sc.w	$r0,$r0,3840(0xf00)
 374:	2f134900 	0x2f134900
 378:	1000000b 	addu16i.d	$r11,$r0,0
 37c:	193f002e 	pcaddi	$r14,-395263(0x9f801)
 380:	0e6e193c 	0x0e6e193c
 384:	0b3a0e03 	0x0b3a0e03
 388:	0b390b3b 	0x0b390b3b
 38c:	01000000 	0x01000000
 390:	08250111 	fmadd.d	$f17,$f8,$f0,$f10
 394:	08030b13 	0x08030b13
 398:	1755081b 	lu32i.d	$r27,-350144(0xaa840)
 39c:	17100111 	lu32i.d	$r17,-491512(0x88008)
 3a0:	0f020000 	0x0f020000
 3a4:	000b0b00 	0x000b0b00
 3a8:	00240300 	crc.w.b.w	$r0,$r24,$r0
 3ac:	0b3e0b0b 	0x0b3e0b0b
 3b0:	00000803 	0x00000803
 3b4:	03001604 	lu52i.d	$r4,$r16,5(0x5)
 3b8:	3b0b3a08 	0x3b0b3a08
 3bc:	490b390b 	bcnez	$fcc0,2951992(0x2d0b38) # 2d0ef4 <data_size+0x2d06c0>
 3c0:	05000013 	0x05000013
 3c4:	193f012e 	pcaddi	$r14,-395255(0x9f809)
 3c8:	0b3a0803 	0x0b3a0803
 3cc:	0b39053b 	0x0b39053b
 3d0:	01111927 	fscaleb.d	$f7,$f9,$f6
 3d4:	18400612 	pcaddi	$r18,131120(0x20030)
 3d8:	01194297 	0x01194297
 3dc:	06000013 	cacop	0x13,$r0,0
 3e0:	08030005 	0x08030005
 3e4:	053b0b3a 	0x053b0b3a
 3e8:	13490b39 	addu16i.d	$r25,$r25,-11710(0xd242)
 3ec:	00001702 	clz.w	$r2,$r24
 3f0:	31011d07 	0x31011d07
 3f4:	12011113 	addu16i.d	$r19,$r8,-32700(0x8044)
 3f8:	590b5806 	beq	$r0,$r6,68440(0x10b58) # 10f50 <data_size+0x1071c>
 3fc:	000b5705 	0x000b5705
 400:	00050800 	alsl.w	$r0,$r0,$r2,0x3
 404:	17021331 	lu32i.d	$r17,-520039(0x81099)
 408:	05090000 	0x05090000
 40c:	1c133100 	pcaddu12i	$r0,39304(0x9988)
 410:	0a00000b 	0x0a00000b
 414:	0111010b 	fscaleb.d	$f11,$f8,$f0
 418:	00000612 	0x00000612
 41c:	3100340b 	0x3100340b
 420:	00180213 	sra.w	$r19,$r16,$r0
 424:	012e0c00 	0x012e0c00
 428:	0803193f 	0x0803193f
 42c:	053b0b3a 	0x053b0b3a
 430:	19270b39 	pcaddi	$r25,-444327(0x93859)
 434:	01111349 	fscaleb.d	$f9,$f26,$f4
 438:	18400612 	pcaddi	$r18,131120(0x20030)
 43c:	01194297 	0x01194297
 440:	0d000013 	fsel	$f19,$f0,$f0,$fcc0
 444:	08030034 	0x08030034
 448:	053b0b3a 	0x053b0b3a
 44c:	13490b39 	addu16i.d	$r25,$r25,-11710(0xd242)
 450:	00001702 	clz.w	$r2,$r24
 454:	0300340e 	lu52i.d	$r14,$r0,13(0xd)
 458:	3b0b3a08 	0x3b0b3a08
 45c:	490b3905 	bcnez	$fcc0,1379128(0x150b38) # 150f94 <data_size+0x150760>
 460:	00180213 	sra.w	$r19,$r16,$r0
 464:	000f0f00 	bytepick.d	$r0,$r24,$r3,0x6
 468:	13490b0b 	addu16i.d	$r11,$r24,-11710(0xd242)
 46c:	26100000 	ldptr.d	$r0,$r0,4096(0x1000)
 470:	11000000 	addu16i.d	$r0,$r0,16384(0x4000)
 474:	13490026 	addu16i.d	$r6,$r1,-11712(0xd240)
 478:	05120000 	0x05120000
 47c:	3a080300 	0x3a080300
 480:	39053b0b 	0x39053b0b
 484:	0213490b 	slti	$r11,$r8,1234(0x4d2)
 488:	13000018 	addu16i.d	$r24,$r0,-16384(0xc000)
 48c:	193f012e 	pcaddi	$r14,-395255(0x9f809)
 490:	0b3a0803 	0x0b3a0803
 494:	0b390b3b 	0x0b390b3b
 498:	13491927 	addu16i.d	$r7,$r9,-11706(0xd246)
 49c:	13010b20 	addu16i.d	$r0,$r25,-16318(0xc042)
 4a0:	05140000 	0x05140000
 4a4:	3a080300 	0x3a080300
 4a8:	390b3b0b 	0x390b3b0b
 4ac:	0013490b 	maskeqz	$r11,$r8,$r18
 4b0:	00341500 	0x00341500
 4b4:	0b3a0803 	0x0b3a0803
 4b8:	0b390b3b 	0x0b390b3b
 4bc:	00001349 	clo.w	$r9,$r26
 4c0:	3f012e16 	0x3f012e16
 4c4:	3a080319 	0x3a080319
 4c8:	390b3b0b 	0x390b3b0b
 4cc:	4919270b 	0x4919270b
 4d0:	12011113 	addu16i.d	$r19,$r8,-32700(0x8044)
 4d4:	97184006 	0x97184006
 4d8:	13011942 	addu16i.d	$r2,$r10,-16314(0xc046)
 4dc:	05170000 	0x05170000
 4e0:	3a080300 	0x3a080300
 4e4:	390b3b0b 	0x390b3b0b
 4e8:	0213490b 	slti	$r11,$r8,1234(0x4d2)
 4ec:	18000017 	pcaddi	$r23,0
 4f0:	08030005 	0x08030005
 4f4:	0b3b0b3a 	0x0b3b0b3a
 4f8:	13490b39 	addu16i.d	$r25,$r25,-11710(0xd242)
 4fc:	00001802 	cto.w	$r2,$r0
 500:	03003419 	lu52i.d	$r25,$r0,13(0xd)
 504:	3b0b3a08 	0x3b0b3a08
 508:	490b390b 	bcnez	$fcc0,2951992(0x2d0b38) # 2d1040 <data_size+0x2d080c>
 50c:	00170213 	sll.w	$r19,$r16,$r0
 510:	012e1a00 	0x012e1a00
 514:	01111331 	fscaleb.d	$f17,$f25,$f4
 518:	18400612 	pcaddi	$r18,131120(0x20030)
 51c:	00194297 	srl.d	$r23,$r20,$r16
 520:	00051b00 	alsl.w	$r0,$r24,$r6,0x3
 524:	18021331 	pcaddi	$r17,4249(0x1099)
 528:	341c0000 	0x341c0000
 52c:	02133100 	slti	$r0,$r8,1228(0x4cc)
 530:	00000017 	0x00000017
 534:	25011101 	stptr.w	$r1,$r8,272(0x110)
 538:	030b1308 	lu52i.d	$r8,$r24,708(0x2c4)
 53c:	11081b08 	addu16i.d	$r8,$r24,16902(0x4206)
 540:	10061201 	addu16i.d	$r1,$r16,388(0x184)
 544:	02000017 	slti	$r23,$r0,0
 548:	0b0b0024 	0x0b0b0024
 54c:	08030b3e 	0x08030b3e
 550:	16030000 	lu32i.d	$r0,6144(0x1800)
 554:	3a080300 	0x3a080300
 558:	390b3b0b 	0x390b3b0b
 55c:	0013490b 	maskeqz	$r11,$r8,$r18
 560:	01130400 	fcopysign.d	$f0,$f0,$f1
 564:	0b0b0803 	0x0b0b0803
 568:	0b3b0b3a 	0x0b3b0b3a
 56c:	13010b39 	addu16i.d	$r25,$r25,-16318(0xc042)
 570:	0d050000 	0x0d050000
 574:	3a080300 	0x3a080300
 578:	390b3b0b 	0x390b3b0b
 57c:	3813490b 	0x3813490b
 580:	0600000b 	cacop	0xb,$r0,0
 584:	193f012e 	pcaddi	$r14,-395255(0x9f809)
 588:	0b3a0803 	0x0b3a0803
 58c:	0b390b3b 	0x0b390b3b
 590:	13491927 	addu16i.d	$r7,$r9,-11706(0xd246)
 594:	06120111 	cacop	0x11,$r8,1152(0x480)
 598:	42971840 	beqz	$r2,169752(0x29718) # 29cb0 <data_size+0x2947c>
 59c:	00130119 	maskeqz	$r25,$r8,$r0
 5a0:	00340700 	0x00340700
 5a4:	0b3a0803 	0x0b3a0803
 5a8:	0b390b3b 	0x0b390b3b
 5ac:	17021349 	lu32i.d	$r9,-520038(0x8109a)
 5b0:	1d080000 	pcaddu12i	$r0,-507904(0x84000)
 5b4:	52133101 	b	67506992(0x4061330) # 40618e4 <data_size+0x40610b0>
 5b8:	58175501 	beq	$r8,$r1,5972(0x1754) # 1d0c <data_size+0x14d8>
 5bc:	570b590b 	bl	70191960(0x42f0b58) # 42f1114 <data_size+0x42f08e0>
 5c0:	0900000b 	0x0900000b
 5c4:	1755010b 	lu32i.d	$r11,-350200(0xaa808)
 5c8:	340a0000 	0x340a0000
 5cc:	00133100 	maskeqz	$r0,$r8,$r12
 5d0:	012e0b00 	0x012e0b00
 5d4:	0803193f 	0x0803193f
 5d8:	0b3b0b3a 	0x0b3b0b3a
 5dc:	13490b39 	addu16i.d	$r25,$r25,-11710(0xd242)
 5e0:	00001301 	clo.w	$r1,$r24
 5e4:	0300340c 	lu52i.d	$r12,$r0,13(0xd)
 5e8:	3b0b3a08 	0x3b0b3a08
 5ec:	490b390b 	bcnez	$fcc0,2951992(0x2d0b38) # 2d1124 <data_size+0x2d08f0>
 5f0:	0d000013 	fsel	$f19,$f0,$f0,$fcc0
 5f4:	08030005 	0x08030005
 5f8:	0b3b0b3a 	0x0b3b0b3a
 5fc:	13490b39 	addu16i.d	$r25,$r25,-11710(0xd242)
 600:	00001702 	clz.w	$r2,$r24
 604:	0300050e 	lu52i.d	$r14,$r8,1(0x1)
 608:	3b0b3a08 	0x3b0b3a08
 60c:	490b390b 	bcnez	$fcc0,2951992(0x2d0b38) # 2d1144 <data_size+0x2d0910>
 610:	00180213 	sra.w	$r19,$r16,$r0
 614:	000f0f00 	bytepick.d	$r0,$r24,$r3,0x6
 618:	13490b0b 	addu16i.d	$r11,$r24,-11710(0xd242)
 61c:	2e100000 	0x2e100000
 620:	03193f01 	lu52i.d	$r1,$r24,1615(0x64f)
 624:	3b0b3a08 	0x3b0b3a08
 628:	490b390b 	bcnez	$fcc0,2951992(0x2d0b38) # 2d1160 <data_size+0x2d092c>
 62c:	12011113 	addu16i.d	$r19,$r8,-32700(0x8044)
 630:	97184006 	0x97184006
 634:	13011942 	addu16i.d	$r2,$r10,-16314(0xc046)
 638:	34110000 	0x34110000
 63c:	3a080300 	0x3a080300
 640:	390b3b0b 	0x390b3b0b
 644:	0213490b 	slti	$r11,$r8,1234(0x4d2)
 648:	12000018 	addu16i.d	$r24,$r0,-32768(0x8000)
 64c:	193f012e 	pcaddi	$r14,-395255(0x9f809)
 650:	0b3a0803 	0x0b3a0803
 654:	0b390b3b 	0x0b390b3b
 658:	0b201349 	0x0b201349
 65c:	Address 0x000000000000065c is out of bounds.


Disassembly of section .debug_loc:

00000000 <.debug_loc>:
   0:	00000000 	0x00000000
   4:	00000064 	0x00000064
   8:	64540001 	bge	$r0,$r1,21504(0x5400) # 5408 <data_size+0x4bd4>
   c:	cc000000 	0xcc000000
  10:	01000000 	0x01000000
  14:	00cc6900 	bstrpick.d	$r0,$r8,0xc,0x1a
  18:	00f40000 	bstrpick.d	$r0,$r0,0x34,0x0
  1c:	00040000 	alsl.w	$r0,$r0,$r0,0x1
  20:	9f5401f3 	0x9f5401f3
  24:	000000f4 	0x000000f4
  28:	0000022c 	0x0000022c
  2c:	00690001 	bstrins.w	$r1,$r0,0x9,0x0
  30:	00000000 	0x00000000
  34:	48000000 	bceqz	$fcc0,0 # 34 <data_size-0x800>
  38:	64000000 	bge	$r0,$r0,0 # 38 <data_size-0x7fc>
  3c:	02000000 	slti	$r0,$r0,0
  40:	649f3000 	bge	$r0,$r0,40752(0x9f30) # 9f70 <data_size+0x973c>
  44:	cc000000 	0xcc000000
  48:	01000000 	0x01000000
  4c:	00f46800 	bstrpick.d	$r0,$r0,0x34,0x1a
  50:	01000000 	0x01000000
  54:	00030000 	0x00030000
  58:	009f0188 	bstrins.d	$r8,$r12,0x1f,0x0
  5c:	1c000001 	pcaddu12i	$r1,0
  60:	01000001 	0x01000001
  64:	011c6800 	0x011c6800
  68:	01380000 	0x01380000
  6c:	00030000 	0x00030000
  70:	389f7f88 	0x389f7f88
  74:	64000001 	bge	$r0,$r1,0 # 74 <data_size-0x7c0>
  78:	01000001 	0x01000001
  7c:	01646800 	0x01646800
  80:	016c0000 	0x016c0000
  84:	00030000 	0x00030000
  88:	6c9f7f88 	bgeu	$r28,$r8,40828(0x9f7c) # a004 <data_size+0x97d0>
  8c:	e8000001 	0xe8000001
  90:	01000001 	0x01000001
  94:	01e86800 	0x01e86800
  98:	01f00000 	0x01f00000
  9c:	00030000 	0x00030000
  a0:	f09f7f88 	0xf09f7f88
  a4:	2c000001 	vld	$vr1,$r0,0
  a8:	01000002 	0x01000002
  ac:	00006800 	rdtime.d	$r0,$r0
  b0:	00000000 	0x00000000
  b4:	00640000 	bstrins.w	$r0,$r0,0x4,0x0
  b8:	00780000 	bstrins.w	$r0,$r0,0x18,0x0
  bc:	00010000 	asrtle.d	$r0,$r0
  c0:	00007c67 	0x00007c67
  c4:	0000cc00 	0x0000cc00
  c8:	67000100 	bge	$r8,$r0,-65536(0x30000) # ffff00c8 <_stack+0xe3fd6ccc>
  cc:	000000f4 	0x000000f4
  d0:	0000022c 	0x0000022c
  d4:	00670001 	bstrins.w	$r1,$r0,0x7,0x0
  d8:	00000000 	0x00000000
  dc:	48000000 	bceqz	$fcc0,0 # dc <data_size-0x758>
  e0:	cc000000 	0xcc000000
  e4:	01000000 	0x01000000
  e8:	00f46a00 	bstrpick.d	$r0,$r16,0x34,0x1a
  ec:	01680000 	0x01680000
  f0:	00010000 	asrtle.d	$r0,$r0
  f4:	0001686a 	0x0001686a
  f8:	00016c00 	asrtle.d	$r0,$r27
  fc:	8a000300 	0x8a000300
 100:	016c9f7c 	0x016c9f7c
 104:	01ec0000 	0x01ec0000
 108:	00010000 	asrtle.d	$r0,$r0
 10c:	0001ec6a 	0x0001ec6a
 110:	0001f000 	asrtgt.d	$r0,$r28
 114:	8a000300 	0x8a000300
 118:	01f09f7c 	0x01f09f7c
 11c:	022c0000 	slti	$r0,$r0,-1280(0xb00)
 120:	00010000 	asrtle.d	$r0,$r0
 124:	0000006a 	0x0000006a
 128:	00000000 	0x00000000
 12c:	0000ac00 	0x0000ac00
 130:	0000cc00 	0x0000cc00
 134:	55000100 	bl	67174400(0x4010000) # 4010134 <data_size+0x400f900>
 138:	000000f4 	0x000000f4
 13c:	00000100 	0x00000100
 140:	00550001 	0x00550001
 144:	14000001 	lu12i.w	$r1,0
 148:	02000001 	slti	$r1,$r0,0
 14c:	149f3000 	lu12i.w	$r0,326016(0x4f980)
 150:	18000001 	pcaddi	$r1,0
 154:	01000001 	0x01000001
 158:	01385500 	0x01385500
 15c:	014f0000 	0x014f0000
 160:	00010000 	asrtle.d	$r0,$r0
 164:	00015c55 	0x00015c55
 168:	00016b00 	asrtle.d	$r24,$r26
 16c:	55000100 	bl	67174400(0x4010000) # 401016c <data_size+0x400f938>
 170:	00000170 	0x00000170
 174:	0000017f 	0x0000017f
 178:	8c550001 	0x8c550001
 17c:	9b000001 	0x9b000001
 180:	01000001 	0x01000001
 184:	01a85500 	0x01a85500
 188:	01b70000 	0x01b70000
 18c:	00010000 	asrtle.d	$r0,$r0
 190:	0001c455 	0x0001c455
 194:	0001d300 	asrtgt.d	$r24,$r20
 198:	55000100 	bl	67174400(0x4010000) # 4010198 <data_size+0x400f964>
 19c:	000001e0 	0x000001e0
 1a0:	000001ef 	0x000001ef
 1a4:	f4550001 	0xf4550001
 1a8:	03000001 	lu52i.d	$r1,$r0,0
 1ac:	01000002 	0x01000002
 1b0:	02105500 	slti	$r0,$r8,1045(0x415)
 1b4:	02170000 	slti	$r0,$r0,1472(0x5c0)
 1b8:	00010000 	asrtle.d	$r0,$r0
 1bc:	00022055 	0x00022055
 1c0:	00022700 	0x00022700
 1c4:	55000100 	bl	67174400(0x4010000) # 40101c4 <data_size+0x400f990>
	...
 1d4:	0000001c 	0x0000001c
 1d8:	1c540001 	pcaddu12i	$r1,172032(0x2a000)
 1dc:	28000000 	ld.b	$r0,$r0,0
 1e0:	04000000 	csrrd	$r0,0x0
 1e4:	5401f300 	bl	-67108368(0xc0001f0) # fc0003d4 <_stack+0xdffe6fd8>
 1e8:	0000009f 	0x0000009f
	...
 1f4:	00001800 	cto.w	$r0,$r0
 1f8:	54000100 	bl	67108864(0x4000000) # 40001f8 <data_size+0x3fff9c4>
	...
 204:	00000074 	0x00000074
 208:	0000007f 	0x0000007f
 20c:	7f540001 	0x7f540001
 210:	a0000000 	0xa0000000
 214:	04000000 	csrrd	$r0,0x0
 218:	5401f300 	bl	-67108368(0xc0001f0) # fc000408 <_stack+0xdffe700c>
 21c:	0000009f 	0x0000009f
	...
 228:	00002800 	cto.d	$r0,$r0
 22c:	54000100 	bl	67108864(0x4000000) # 400022c <data_size+0x3fff9f8>
 230:	00000028 	0x00000028
 234:	00000030 	0x00000030
 238:	7f880003 	0x7f880003
 23c:	0000309f 	revb.2h	$r31,$r4
 240:	00003c00 	revb.d	$r0,$r0
 244:	68000100 	bltu	$r8,$r0,0 # 244 <data_size-0x5f0>
 248:	0000003c 	0x0000003c
 24c:	00000050 	0x00000050
 250:	7f880003 	0x7f880003
 254:	0000509f 	bitrev.w	$r31,$r4
 258:	00005800 	ext.w.h	$r0,$r0
 25c:	68000100 	bltu	$r8,$r0,0 # 25c <data_size-0x5d8>
	...
 268:	00000018 	0x00000018
 26c:	00000060 	0x00000060
 270:	00670001 	bstrins.w	$r1,$r0,0x7,0x0
	...
 27c:	24000000 	ldptr.w	$r0,$r0,0
 280:	01000000 	0x01000000
 284:	00245400 	crc.w.b.w	$r0,$r0,$r21
 288:	00bc0000 	bstrins.d	$r0,$r0,0x3c,0x0
 28c:	00040000 	alsl.w	$r0,$r0,$r0,0x1
 290:	9f5401f3 	0x9f5401f3
 294:	000000bc 	0x000000bc
 298:	000000c0 	0x000000c0
 29c:	c0540001 	0xc0540001
 2a0:	d0000000 	0xd0000000
 2a4:	01000000 	0x01000000
 2a8:	00d06700 	bstrpick.d	$r0,$r24,0x10,0x19
 2ac:	00dc0000 	bstrpick.d	$r0,$r0,0x1c,0x0
 2b0:	00040000 	alsl.w	$r0,$r0,$r0,0x1
 2b4:	9f1f0087 	0x9f1f0087
 2b8:	000000dc 	0x000000dc
 2bc:	000000e8 	0x000000e8
 2c0:	00540001 	0x00540001
	...
 2cc:	24000000 	ldptr.w	$r0,$r0,0
 2d0:	01000000 	0x01000000
 2d4:	00245500 	crc.w.b.w	$r0,$r8,$r21
 2d8:	00bc0000 	bstrins.d	$r0,$r0,0x3c,0x0
 2dc:	00040000 	alsl.w	$r0,$r0,$r0,0x1
 2e0:	9f5501f3 	0x9f5501f3
 2e4:	000000bc 	0x000000bc
 2e8:	000000cb 	0x000000cb
 2ec:	cb550001 	0xcb550001
 2f0:	dc000000 	0xdc000000
 2f4:	03000000 	lu52i.d	$r0,$r0,0
 2f8:	7fa89100 	0x7fa89100
 2fc:	000000dc 	0x000000dc
 300:	000000e8 	0x000000e8
 304:	00550001 	0x00550001
	...
 310:	24000000 	ldptr.w	$r0,$r0,0
 314:	01000000 	0x01000000
 318:	00245600 	crc.w.b.w	$r0,$r16,$r21
 31c:	00bc0000 	bstrins.d	$r0,$r0,0x3c,0x0
 320:	00040000 	alsl.w	$r0,$r0,$r0,0x1
 324:	9f5601f3 	0x9f5601f3
 328:	000000bc 	0x000000bc
 32c:	000000cb 	0x000000cb
 330:	cb560001 	0xcb560001
 334:	dc000000 	0xdc000000
 338:	03000000 	lu52i.d	$r0,$r0,0
 33c:	7fac9100 	0x7fac9100
 340:	000000dc 	0x000000dc
 344:	000000e8 	0x000000e8
 348:	00560001 	0x00560001
	...
 354:	24000000 	ldptr.w	$r0,$r0,0
 358:	01000000 	0x01000000
 35c:	00245700 	crc.w.b.w	$r0,$r24,$r21
 360:	00bc0000 	bstrins.d	$r0,$r0,0x3c,0x0
 364:	00040000 	alsl.w	$r0,$r0,$r0,0x1
 368:	9f5701f3 	0x9f5701f3
 36c:	000000bc 	0x000000bc
 370:	000000cb 	0x000000cb
 374:	cb570001 	0xcb570001
 378:	dc000000 	0xdc000000
 37c:	04000000 	csrrd	$r0,0x0
 380:	5701f300 	bl	-66911760(0xc0301f0) # fc030570 <_stack+0xe0017174>
 384:	0000dc9f 	0x0000dc9f
 388:	0000e800 	0x0000e800
 38c:	57000100 	bl	67305472(0x4030000) # 403038c <data_size+0x402fb58>
	...
 398:	00000020 	0x00000020
 39c:	00000034 	0x00000034
 3a0:	9f300002 	0x9f300002
 3a4:	00000034 	0x00000034
 3a8:	00000038 	0x00000038
 3ac:	38680001 	ammin.wu	$r1,$r0,$r0
 3b0:	58000000 	beq	$r0,$r0,0 # 3b0 <data_size-0x484>
 3b4:	08000000 	0x08000000
 3b8:	91007c00 	0x91007c00
 3bc:	50231c00 	b	8988(0x231c) # 26d8 <data_size+0x1ea4>
 3c0:	0000589f 	ext.w.h	$r31,$r4
 3c4:	00006400 	rdtimeh.w	$r0,$r0
 3c8:	68000100 	bltu	$r8,$r0,0 # 3c8 <data_size-0x46c>
 3cc:	000000b4 	0x000000b4
 3d0:	000000bc 	0x000000bc
 3d4:	d0680001 	0xd0680001
 3d8:	e8000000 	0xe8000000
 3dc:	02000000 	slti	$r0,$r0,0
 3e0:	009f3000 	bstrins.d	$r0,$r0,0x1f,0xc
 3e4:	00000000 	0x00000000
 3e8:	6c000000 	bgeu	$r0,$r0,0 # 3e8 <data_size-0x44c>
 3ec:	90000000 	0x90000000
 3f0:	01000000 	0x01000000
 3f4:	00906700 	bstrins.d	$r0,$r24,0x10,0x19
 3f8:	00940000 	bstrins.d	$r0,$r0,0x14,0x0
 3fc:	00030000 	0x00030000
 400:	949f0187 	0x949f0187
 404:	98000000 	0x98000000
 408:	01000000 	0x01000000
 40c:	00b86700 	bstrins.d	$r0,$r24,0x38,0x19
 410:	00bc0000 	bstrins.d	$r0,$r0,0x3c,0x0
 414:	00010000 	asrtle.d	$r0,$r0
 418:	0000dc55 	0x0000dc55
 41c:	0000e800 	0x0000e800
 420:	75000d00 	0x75000d00
 424:	16301200 	lu32i.d	$r0,98448(0x18090)
 428:	01282b14 	0x01282b14
 42c:	9f131600 	0x9f131600
	...
 438:	00000080 	0x00000080
 43c:	0000008c 	0x0000008c
 440:	005c0001 	0x005c0001
 444:	00000000 	0x00000000
 448:	20000000 	ll.w	$r0,$r0,0
 44c:	24000000 	ldptr.w	$r0,$r0,0
 450:	01000000 	0x01000000
 454:	00245400 	crc.w.b.w	$r0,$r0,$r21
 458:	00340000 	0x00340000
 45c:	00010000 	asrtle.d	$r0,$r0
 460:	00003467 	revb.4h	$r7,$r3
 464:	00003800 	revb.2w	$r0,$r0
 468:	5d000100 	bne	$r8,$r0,65536(0x10000) # 10468 <data_size+0xfc34>
 46c:	00000038 	0x00000038
 470:	00000058 	0x00000058
 474:	58670001 	beq	$r0,$r1,26368(0x6700) # 6b74 <data_size+0x6340>
 478:	64000000 	bge	$r0,$r0,0 # 478 <data_size-0x3bc>
 47c:	01000000 	0x01000000
 480:	00b45d00 	bstrins.d	$r0,$r8,0x34,0x17
 484:	00bc0000 	bstrins.d	$r0,$r0,0x3c,0x0
 488:	00010000 	asrtle.d	$r0,$r0
 48c:	0000d05d 	0x0000d05d
 490:	0000dc00 	0x0000dc00
 494:	67000100 	bge	$r8,$r0,-65536(0x30000) # ffff0494 <_stack+0xe3fd7098>
 498:	000000dc 	0x000000dc
 49c:	000000e8 	0x000000e8
 4a0:	00540001 	0x00540001
 4a4:	00000000 	0x00000000
 4a8:	f8000000 	0xf8000000
 4ac:	001c008a 	mul.w	$r10,$r4,$r0
 4b0:	011c008b 	0x011c008b
 4b4:	8b005400 	0x8b005400
 4b8:	8b101c00 	0x8b101c00
 4bc:	00041c00 	alsl.w	$r0,$r0,$r7,0x1
 4c0:	9f5401f3 	0x9f5401f3
	...
 4cc:	1c008af8 	pcaddu12i	$r24,1111(0x457)
 4d0:	1c008b00 	pcaddu12i	$r0,1112(0x458)
 4d4:	00550001 	0x00550001
 4d8:	101c008b 	addu16i.d	$r11,$r4,1792(0x700)
 4dc:	041c008b 	csrxchg	$r11,$r4,0x700
 4e0:	5501f300 	bl	-67042832(0xc0101f0) # fc0106d0 <_stack+0xdfff72d4>
 4e4:	0000009f 	0x0000009f
 4e8:	00000000 	0x00000000
 4ec:	008af800 	bstrins.d	$r0,$r0,0xa,0x3e
 4f0:	008b001c 	bstrins.d	$r28,$r0,0xb,0x0
 4f4:	7500031c 	0x7500031c
 4f8:	8b009f7f 	0x8b009f7f
 4fc:	8b0c1c00 	0x8b0c1c00
 500:	00061c00 	alsl.wu	$r0,$r0,$r7,0x1
 504:	315501f3 	vstelm.h	$vr19,$r15,128(0x80),0x5
 508:	00009f1c 	0x00009f1c
 50c:	00000000 	0x00000000
 510:	8af80000 	0x8af80000
 514:	8b001c00 	0x8b001c00
 518:	00011c00 	asrtle.d	$r0,$r7
 51c:	008b0054 	bstrins.d	$r20,$r2,0xb,0x0
 520:	008b101c 	bstrins.d	$r28,$r0,0xb,0x4
 524:	f300041c 	0xf300041c
 528:	009f5401 	bstrins.d	$r1,$r0,0x1f,0x15
 52c:	00000000 	0x00000000
 530:	a0000000 	0xa0000000
 534:	b81c008a 	0xb81c008a
 538:	011c008a 	0x011c008a
 53c:	8ab85400 	0x8ab85400
 540:	8af81c00 	0x8af81c00
 544:	00041c00 	alsl.w	$r0,$r0,$r7,0x1
 548:	9f5401f3 	0x9f5401f3
	...
 554:	1c008aa0 	pcaddu12i	$r0,1109(0x455)
 558:	1c008ab8 	pcaddu12i	$r24,1109(0x455)
 55c:	b8550001 	0xb8550001
 560:	f81c008a 	0xf81c008a
 564:	041c008a 	csrxchg	$r10,$r4,0x700
 568:	5501f300 	bl	-67042832(0xc0101f0) # fc010758 <_stack+0xdfff735c>
 56c:	0000009f 	0x0000009f
 570:	00000000 	0x00000000
 574:	008aa000 	bstrins.d	$r0,$r0,0xa,0x28
 578:	008aa01c 	bstrins.d	$r28,$r0,0xa,0x28
 57c:	5600011c 	bl	74579968(0x4720000) # 472057c <data_size+0x471fd48>
 580:	1c008aa0 	pcaddu12i	$r0,1109(0x455)
 584:	1c008ab0 	pcaddu12i	$r16,1109(0x455)
 588:	7f760003 	0x7f760003
 58c:	008ab09f 	bstrins.d	$r31,$r4,0xa,0x2c
 590:	008ad01c 	bstrins.d	$r28,$r0,0xa,0x34
 594:	f300061c 	0xf300061c
 598:	1c315601 	pcaddu12i	$r1,101040(0x18ab0)
 59c:	0000009f 	0x0000009f
 5a0:	00000000 	0x00000000
 5a4:	008aa000 	bstrins.d	$r0,$r0,0xa,0x28
 5a8:	008ad41c 	bstrins.d	$r28,$r0,0xa,0x35
 5ac:	5400011c 	bl	74448896(0x4700000) # 47005ac <data_size+0x46ffd78>
 5b0:	1c008ad8 	pcaddu12i	$r24,1110(0x456)
 5b4:	1c008aec 	pcaddu12i	$r12,1111(0x457)
 5b8:	00540001 	0x00540001
 5bc:	00000000 	0x00000000
 5c0:	4c000000 	jirl	$r0,$r0,0
 5c4:	841c008a 	0x841c008a
 5c8:	011c008a 	0x011c008a
 5cc:	8a845500 	0x8a845500
 5d0:	8a9c1c00 	0x8a9c1c00
 5d4:	00041c00 	alsl.w	$r0,$r0,$r7,0x1
 5d8:	9f5501f3 	0x9f5501f3
 5dc:	1c008a9c 	pcaddu12i	$r28,1108(0x454)
 5e0:	1c008aa0 	pcaddu12i	$r0,1109(0x455)
 5e4:	00550001 	0x00550001
 5e8:	00000000 	0x00000000
 5ec:	4c000000 	jirl	$r0,$r0,0
 5f0:	5c1c008a 	bne	$r4,$r10,7168(0x1c00) # 21f0 <data_size+0x19bc>
 5f4:	011c008a 	0x011c008a
 5f8:	8a5c5600 	0x8a5c5600
 5fc:	8a981c00 	0x8a981c00
 600:	00031c00 	0x00031c00
 604:	9c9f7f76 	0x9c9f7f76
 608:	a01c008a 	0xa01c008a
 60c:	031c008a 	lu52i.d	$r10,$r4,1792(0x700)
 610:	9f7f7600 	0x9f7f7600
	...
 61c:	1c008a4c 	pcaddu12i	$r12,1106(0x452)
 620:	1c008a58 	pcaddu12i	$r24,1106(0x452)
 624:	58550001 	beq	$r0,$r1,21760(0x5500) # 5b24 <data_size+0x52f0>
 628:	781c008a 	0x781c008a
 62c:	011c008a 	0x011c008a
 630:	8a785c00 	0x8a785c00
 634:	8a981c00 	0x8a981c00
 638:	00011c00 	asrtle.d	$r0,$r7
 63c:	008a9c55 	bstrins.d	$r21,$r2,0xa,0x27
 640:	008aa01c 	bstrins.d	$r28,$r0,0xa,0x28
 644:	5500011c 	bl	74514432(0x4710000) # 4710644 <data_size+0x470fe10>
	...
 650:	1c008a4c 	pcaddu12i	$r12,1106(0x452)
 654:	1c008a5c 	pcaddu12i	$r28,1106(0x452)
 658:	5c540001 	bne	$r0,$r1,21504(0x5400) # 5a58 <data_size+0x5224>
 65c:	781c008a 	0x781c008a
 660:	011c008a 	0x011c008a
 664:	8a785d00 	0x8a785d00
 668:	8a841c00 	0x8a841c00
 66c:	00011c00 	asrtle.d	$r0,$r7
 670:	008a8454 	bstrins.d	$r20,$r2,0xa,0x21
 674:	008a981c 	bstrins.d	$r28,$r0,0xa,0x26
 678:	5c00011c 	bne	$r8,$r28,0 # 678 <data_size-0x1bc>
 67c:	1c008a9c 	pcaddu12i	$r28,1108(0x454)
 680:	1c008aa0 	pcaddu12i	$r0,1109(0x455)
 684:	00540001 	0x00540001
 688:	00000000 	0x00000000
 68c:	28000000 	ld.b	$r0,$r0,0
 690:	341c008a 	0x341c008a
 694:	011c008a 	0x011c008a
 698:	8a345500 	0x8a345500
 69c:	8a4c1c00 	0x8a4c1c00
 6a0:	00041c00 	alsl.w	$r0,$r0,$r7,0x1
 6a4:	9f5501f3 	0x9f5501f3
	...
 6b0:	1c008a28 	pcaddu12i	$r8,1105(0x451)
 6b4:	1c008a28 	pcaddu12i	$r8,1105(0x451)
 6b8:	28560001 	ld.h	$r1,$r0,1408(0x580)
 6bc:	301c008a 	0x301c008a
 6c0:	031c008a 	lu52i.d	$r10,$r4,1792(0x700)
 6c4:	9f7f7600 	0x9f7f7600
 6c8:	1c008a30 	pcaddu12i	$r16,1105(0x451)
 6cc:	1c008a48 	pcaddu12i	$r8,1106(0x452)
 6d0:	01f30006 	0x01f30006
 6d4:	9f1c3156 	0x9f1c3156
	...
 6e0:	1c008a28 	pcaddu12i	$r8,1105(0x451)
 6e4:	1c008a34 	pcaddu12i	$r20,1105(0x451)
 6e8:	34540001 	0x34540001
 6ec:	481c008a 	bceqz	$fcc4,2628608(0x281c00) # 2822ec <data_size+0x281ab8>
 6f0:	011c008a 	0x011c008a
 6f4:	00005c00 	ext.w.b	$r0,$r0
 6f8:	00000000 	0x00000000
 6fc:	89e40000 	0x89e40000
 700:	89fc1c00 	0x89fc1c00
 704:	00011c00 	asrtle.d	$r0,$r7
 708:	0089fc54 	bstrins.d	$r20,$r2,0x9,0x3f
 70c:	008a0c1c 	bstrins.d	$r28,$r0,0xa,0x3
 710:	5400011c 	bl	74448896(0x4700000) # 4700710 <data_size+0x46ffedc>
	...
 71c:	1c0089b8 	pcaddu12i	$r24,1101(0x44d)
 720:	1c0089d0 	pcaddu12i	$r16,1102(0x44e)
 724:	d0540001 	0xd0540001
 728:	dc1c0089 	0xdc1c0089
 72c:	011c0089 	0x011c0089
 730:	89e05400 	0x89e05400
 734:	89e41c00 	0x89e41c00
 738:	00011c00 	asrtle.d	$r0,$r7
 73c:	00000054 	0x00000054
 740:	00000000 	0x00000000
 744:	00895000 	bstrins.d	$r0,$r0,0x9,0x14
 748:	0089881c 	bstrins.d	$r28,$r0,0x9,0x22
 74c:	5400011c 	bl	74448896(0x4700000) # 470074c <data_size+0x46fff18>
 750:	1c008988 	pcaddu12i	$r8,1100(0x44c)
 754:	1c008990 	pcaddu12i	$r16,1100(0x44c)
 758:	94540001 	0x94540001
 75c:	ac1c0089 	0xac1c0089
 760:	011c0089 	0x011c0089
 764:	00005400 	bitrev.d	$r0,$r0
 768:	00000000 	0x00000000
 76c:	89500000 	0x89500000
 770:	896c1c00 	0x896c1c00
 774:	00011c00 	asrtle.d	$r0,$r7
 778:	00896c55 	bstrins.d	$r21,$r2,0x9,0x1b
 77c:	0089801c 	bstrins.d	$r28,$r0,0x9,0x20
 780:	5c00011c 	bne	$r8,$r28,0 # 780 <data_size-0xb4>
 784:	1c008980 	pcaddu12i	$r0,1100(0x44c)
 788:	1c008988 	pcaddu12i	$r8,1100(0x44c)
 78c:	88550001 	0x88550001
 790:	8c1c0089 	0x8c1c0089
 794:	011c0089 	0x011c0089
 798:	89945c00 	0x89945c00
 79c:	89981c00 	0x89981c00
 7a0:	00011c00 	asrtle.d	$r0,$r7
 7a4:	0000005c 	0x0000005c
 7a8:	00000000 	0x00000000
 7ac:	00895000 	bstrins.d	$r0,$r0,0x9,0x14
 7b0:	0089681c 	bstrins.d	$r28,$r0,0x9,0x1a
 7b4:	5600011c 	bl	74579968(0x4720000) # 47207b4 <data_size+0x471ff80>
 7b8:	1c008968 	pcaddu12i	$r8,1099(0x44b)
 7bc:	1c00896c 	pcaddu12i	$r12,1099(0x44b)
 7c0:	01f30004 	0x01f30004
 7c4:	896c9f56 	0x896c9f56
 7c8:	898c1c00 	0x898c1c00
 7cc:	00061c00 	alsl.wu	$r0,$r0,$r7,0x1
 7d0:	315601f3 	vstelm.h	$vr19,$r15,-256(0x100),0x5
 7d4:	89949f1c 	0x89949f1c
 7d8:	89981c00 	0x89981c00
 7dc:	00061c00 	alsl.wu	$r0,$r0,$r7,0x1
 7e0:	315601f3 	vstelm.h	$vr19,$r15,-256(0x100),0x5
 7e4:	00009f1c 	0x00009f1c
 7e8:	00000000 	0x00000000
 7ec:	89280000 	0x89280000
 7f0:	89481c00 	0x89481c00
 7f4:	00011c00 	asrtle.d	$r0,$r7
 7f8:	00894855 	bstrins.d	$r21,$r2,0x9,0x12
 7fc:	0089501c 	bstrins.d	$r28,$r0,0x9,0x14
 800:	5500011c 	bl	74514432(0x4710000) # 4710800 <data_size+0x470ffcc>
	...
 80c:	1c008928 	pcaddu12i	$r8,1097(0x449)
 810:	1c008930 	pcaddu12i	$r16,1097(0x449)
 814:	30560001 	vldrepl.h	$vr1,$r0,-1280(0xb00)
 818:	341c0089 	0x341c0089
 81c:	041c0089 	csrxchg	$r9,$r4,0x700
 820:	5601f300 	bl	-66977296(0xc0201f0) # fc020a10 <_stack+0xe0007614>
 824:	0089349f 	bstrins.d	$r31,$r4,0x9,0xd
 828:	00893c1c 	bstrins.d	$r28,$r0,0x9,0xf
 82c:	74000a1c 	xvseq.b	$xr28,$xr16,$xr2
 830:	1c007d00 	pcaddu12i	$r0,1000(0x3e8)
 834:	225601f3 	ll.d	$r19,$r15,22016(0x5600)
 838:	00893c9f 	bstrins.d	$r31,$r4,0x9,0xf
 83c:	0089481c 	bstrins.d	$r28,$r0,0x9,0x12
 840:	74000c1c 	xvseq.b	$xr28,$xr0,$xr3
 844:	1c007d00 	pcaddu12i	$r0,1000(0x3e8)
 848:	225601f3 	ll.d	$r19,$r15,22016(0x5600)
 84c:	489f0123 	bcnez	$fcc1,827136(0xc9f00) # ca74c <data_size+0xc9f18>
 850:	4c1c0089 	jirl	$r9,$r4,7168(0x1c00)
 854:	0a1c0089 	xvfmadd.s	$xr9,$xr4,$xr0,$xr24
 858:	7d007400 	0x7d007400
 85c:	01f31c00 	0x01f31c00
 860:	009f2256 	bstrins.d	$r22,$r18,0x1f,0x8
 864:	00000000 	0x00000000
 868:	28000000 	ld.b	$r0,$r0,0
 86c:	341c0089 	0x341c0089
 870:	011c0089 	0x011c0089
 874:	89345400 	0x89345400
 878:	893c1c00 	0x893c1c00
 87c:	00011c00 	asrtle.d	$r0,$r7
 880:	00893c5d 	bstrins.d	$r29,$r2,0x9,0xf
 884:	0089481c 	bstrins.d	$r28,$r0,0x9,0x12
 888:	7d00031c 	0x7d00031c
 88c:	89489f7f 	0x89489f7f
 890:	894c1c00 	0x894c1c00
 894:	00011c00 	asrtle.d	$r0,$r7
 898:	0000005d 	0x0000005d
 89c:	00000000 	0x00000000
 8a0:	00890c00 	bstrins.d	$r0,$r0,0x9,0x3
 8a4:	0089141c 	bstrins.d	$r28,$r0,0x9,0x5
 8a8:	5500011c 	bl	74514432(0x4710000) # 47108a8 <data_size+0x4710074>
 8ac:	1c008914 	pcaddu12i	$r20,1096(0x448)
 8b0:	1c008928 	pcaddu12i	$r8,1097(0x449)
 8b4:	00550001 	0x00550001
 8b8:	00000000 	0x00000000
 8bc:	0c000000 	0x0c000000
 8c0:	101c0089 	addu16i.d	$r9,$r4,1792(0x700)
 8c4:	011c0089 	0x011c0089
 8c8:	89105400 	0x89105400
 8cc:	89281c00 	0x89281c00
 8d0:	00011c00 	asrtle.d	$r0,$r7
 8d4:	0000005c 	0x0000005c
 8d8:	00000000 	0x00000000
 8dc:	0088d000 	bstrins.d	$r0,$r0,0x8,0x34
 8e0:	0088d41c 	bstrins.d	$r28,$r0,0x8,0x35
 8e4:	5400011c 	bl	74448896(0x4700000) # 47008e4 <data_size+0x47000b0>
 8e8:	1c0088d4 	pcaddu12i	$r20,1094(0x446)
 8ec:	1c0088e4 	pcaddu12i	$r4,1095(0x447)
 8f0:	01740003 	0x01740003
 8f4:	0088e49f 	bstrins.d	$r31,$r4,0x8,0x39
 8f8:	0088fc1c 	bstrins.d	$r28,$r0,0x8,0x3f
 8fc:	7400081c 	xvseq.b	$xr28,$xr0,$xr2
 900:	22007c00 	ll.d	$r0,$r0,124(0x7c)
 904:	fc9f0123 	0xfc9f0123
 908:	001c0088 	mul.w	$r8,$r4,$r0
 90c:	091c0089 	vfmadd.s	$vr9,$vr4,$vr0,$vr24
 910:	5401f300 	bl	-67108368(0xc0001f0) # fc000b00 <_stack+0xdffe7704>
 914:	2322007c 	sc.d	$r28,$r3,8704(0x2200)
 918:	00009f01 	0x00009f01
 91c:	00000000 	0x00000000
 920:	88d00000 	0x88d00000
 924:	88e41c00 	0x88e41c00
 928:	00021c00 	0x00021c00
 92c:	88e49f30 	0x88e49f30
 930:	89001c00 	0x89001c00
 934:	00011c00 	asrtle.d	$r0,$r7
 938:	0089005c 	bstrins.d	$r28,$r2,0x9,0x0
 93c:	00890c1c 	bstrins.d	$r28,$r0,0x9,0x3
 940:	3000021c 	0x3000021c
 944:	0000009f 	0x0000009f
 948:	00000000 	0x00000000
 94c:	0088a000 	bstrins.d	$r0,$r0,0x8,0x28
 950:	0088a01c 	bstrins.d	$r28,$r0,0x8,0x28
 954:	5400011c 	bl	74448896(0x4700000) # 4700954 <data_size+0x4700120>
 958:	1c0088a0 	pcaddu12i	$r0,1093(0x445)
 95c:	1c0088ac 	pcaddu12i	$r12,1093(0x445)
 960:	01740003 	0x01740003
 964:	0088ac9f 	bstrins.d	$r31,$r4,0x8,0x2b
 968:	0088c01c 	bstrins.d	$r28,$r0,0x8,0x30
 96c:	7400081c 	xvseq.b	$xr28,$xr0,$xr2
 970:	22007c00 	ll.d	$r0,$r0,124(0x7c)
 974:	c09f0123 	0xc09f0123
 978:	c41c0088 	0xc41c0088
 97c:	091c0088 	vfmadd.s	$vr8,$vr4,$vr0,$vr24
 980:	5401f300 	bl	-67108368(0xc0001f0) # fc000b70 <_stack+0xdffe7774>
 984:	2322007c 	sc.d	$r28,$r3,8704(0x2200)
 988:	88c49f01 	0x88c49f01
 98c:	88cc1c00 	0x88cc1c00
 990:	00031c00 	0x00031c00
 994:	cc9f0174 	0xcc9f0174
 998:	d01c0088 	0xd01c0088
 99c:	061c0088 	cacop	0x8,$r4,1792(0x700)
 9a0:	5401f300 	bl	-67108368(0xc0001f0) # fc000b90 <_stack+0xdffe7794>
 9a4:	009f0123 	bstrins.d	$r3,$r9,0x1f,0x0
 9a8:	00000000 	0x00000000
 9ac:	a0000000 	0xa0000000
 9b0:	ac1c0088 	0xac1c0088
 9b4:	021c0088 	slti	$r8,$r4,1792(0x700)
 9b8:	ac9f3000 	0xac9f3000
 9bc:	c41c0088 	0xc41c0088
 9c0:	011c0088 	0x011c0088
 9c4:	88c45c00 	0x88c45c00
 9c8:	88d01c00 	0x88d01c00
 9cc:	00021c00 	0x00021c00
 9d0:	00009f30 	0x00009f30
 9d4:	00000000 	0x00000000
 9d8:	8a0c0000 	0x8a0c0000
 9dc:	8a0c1c00 	0x8a0c1c00
 9e0:	00011c00 	asrtle.d	$r0,$r7
 9e4:	008a0c56 	bstrins.d	$r22,$r2,0xa,0x3
 9e8:	008a141c 	bstrins.d	$r28,$r0,0xa,0x5
 9ec:	7600031c 	0x7600031c
 9f0:	8a149f7f 	0x8a149f7f
 9f4:	8a181c00 	0x8a181c00
 9f8:	00061c00 	alsl.wu	$r0,$r0,$r7,0x1
 9fc:	315601f3 	vstelm.h	$vr19,$r15,-256(0x100),0x5
 a00:	8a189f1c 	0x8a189f1c
 a04:	8a1c1c00 	0x8a1c1c00
 a08:	000b1c00 	0x000b1c00
 a0c:	f320007c 	0xf320007c
 a10:	74225601 	xvaddwod.h.b	$xr1,$xr16,$xr21
 a14:	1c9f2200 	pcaddu12i	$r0,325904(0x4f910)
 a18:	201c008a 	ll.w	$r10,$r4,7168(0x1c00)
 a1c:	0a1c008a 	xvfmadd.s	$xr10,$xr4,$xr0,$xr24
 a20:	7c007400 	0x7c007400
 a24:	01f31c00 	0x01f31c00
 a28:	209f2256 	ll.w	$r22,$r18,-24800(0x9f20)
 a2c:	241c008a 	ldptr.w	$r10,$r4,7168(0x1c00)
 a30:	0b1c008a 	0x0b1c008a
 a34:	20007c00 	ll.w	$r0,$r0,124(0x7c)
 a38:	225601f3 	ll.d	$r19,$r15,22016(0x5600)
 a3c:	9f220074 	0x9f220074
	...
 a48:	1c008a0c 	pcaddu12i	$r12,1104(0x450)
 a4c:	1c008a18 	pcaddu12i	$r24,1104(0x450)
 a50:	18540001 	pcaddi	$r1,172032(0x2a000)
 a54:	241c008a 	ldptr.w	$r10,$r4,7168(0x1c00)
 a58:	011c008a 	0x011c008a
 a5c:	00005c00 	ext.w.b	$r0,$r0
 a60:	00000000 	0x00000000
 a64:	00d40000 	bstrpick.d	$r0,$r0,0x14,0x0
 a68:	00e40000 	bstrpick.d	$r0,$r0,0x24,0x0
 a6c:	00020000 	0x00020000
 a70:	00e49f30 	bstrpick.d	$r16,$r25,0x24,0x27
 a74:	00f80000 	bstrpick.d	$r0,$r0,0x38,0x0
 a78:	000e0000 	bytepick.d	$r0,$r0,$r0,0x4
 a7c:	b8f70074 	0xb8f70074
 a80:	f7640801 	0xf7640801
 a84:	f71b01b8 	0xf71b01b8
 a88:	00f89f00 	bstrpick.d	$r0,$r24,0x38,0x27
 a8c:	01040000 	0x01040000
 a90:	00010000 	asrtle.d	$r0,$r0
 a94:	0000005d 	0x0000005d
 a98:	00000000 	0x00000000
 a9c:	0000b000 	0x0000b000
 aa0:	0000c000 	0x0000c000
 aa4:	30000200 	0x30000200
 aa8:	0000c09f 	0x0000c09f
 aac:	0000cc00 	0x0000cc00
 ab0:	74000500 	xvseq.b	$xr0,$xr8,$xr1
 ab4:	9f1e3a00 	0x9f1e3a00
 ab8:	000000cc 	0x000000cc
 abc:	000000d4 	0x000000d4
 ac0:	00540001 	0x00540001
 ac4:	00000000 	0x00000000
 ac8:	28000000 	ld.b	$r0,$r0,0
 acc:	94000000 	0x94000000
 ad0:	01000000 	0x01000000
 ad4:	00945400 	bstrins.d	$r0,$r0,0x14,0x15
 ad8:	00ac0000 	bstrins.d	$r0,$r0,0x2c,0x0
 adc:	00040000 	alsl.w	$r0,$r0,$r0,0x1
 ae0:	9f5401f3 	0x9f5401f3
	...
 aec:	00000028 	0x00000028
 af0:	00000038 	0x00000038
 af4:	9f300002 	0x9f300002
 af8:	00000038 	0x00000038
 afc:	000000ac 	0x000000ac
 b00:	005f0001 	0x005f0001
 b04:	00000000 	0x00000000
 b08:	Address 0x0000000000000b08 is out of bounds.


Disassembly of section .debug_ranges:

00000000 <.debug_ranges>:
   0:	00000064 	0x00000064
   4:	0000006c 	0x0000006c
   8:	00000084 	0x00000084
   c:	000000a0 	0x000000a0
	...
  18:	000000a8 	0x000000a8
  1c:	000000ac 	0x000000ac
  20:	000000f4 	0x000000f4
  24:	0000022c 	0x0000022c
	...
  38:	00000008 	0x00000008
  3c:	00000018 	0x00000018
	...
  48:	00000020 	0x00000020
  4c:	00000030 	0x00000030
  50:	00000038 	0x00000038
  54:	00000050 	0x00000050
	...
  60:	1c0088a0 	pcaddu12i	$r0,1093(0x445)
  64:	1c008b10 	pcaddu12i	$r16,1112(0x458)
	...
  78:	00000008 	0x00000008
  7c:	00000010 	0x00000010
	...
  88:	00000028 	0x00000028
  8c:	00000028 	0x00000028
  90:	00000030 	0x00000030
  94:	00000038 	0x00000038
	...
  a0:	000000b0 	0x000000b0
  a4:	000000b0 	0x000000b0
  a8:	000000b8 	0x000000b8
  ac:	000000c0 	0x000000c0
	...
  b8:	000000d4 	0x000000d4
  bc:	000000d4 	0x000000d4
  c0:	000000dc 	0x000000dc
  c4:	000000e4 	0x000000e4
	...

Disassembly of section .debug_line:

00000000 <.debug_line>:
       0:	00000471 	0x00000471
       4:	00200004 	div.w	$r4,$r0,$r0
       8:	01010000 	fadd.d	$f0,$f0,$f0
       c:	0df2f601 	0x0df2f601
      10:	01010100 	fadd.d	$f0,$f8,$f0
      14:	00000001 	0x00000001
      18:	01000001 	0x01000001
      1c:	69727000 	bltu	$r0,$r0,94832(0x17270) # 1728c <data_size+0x16a58>
      20:	2e66746e 	0x2e66746e
      24:	00000063 	0x00000063
      28:	05000000 	0x05000000
      2c:	0084a002 	bstrins.d	$r2,$r0,0x4,0x28
      30:	0105181c 	fmul.d	$f28,$f0,$f6
      34:	a0020500 	0xa0020500
      38:	181c0084 	pcaddi	$r4,57348(0xe004)
      3c:	05000105 	0x05000105
      40:	0084a002 	bstrins.d	$r2,$r0,0x4,0x28
      44:	0105181c 	fmul.d	$f28,$f0,$f6
      48:	a0020500 	0xa0020500
      4c:	181c0084 	pcaddi	$r4,57348(0xe004)
      50:	05000105 	0x05000105
      54:	0084a002 	bstrins.d	$r2,$r0,0x4,0x28
      58:	0105181c 	fmul.d	$f28,$f0,$f6
      5c:	a0020500 	0xa0020500
      60:	181c0084 	pcaddi	$r4,57348(0xe004)
      64:	05000105 	0x05000105
      68:	0084a002 	bstrins.d	$r2,$r0,0x4,0x28
      6c:	0105181c 	fmul.d	$f28,$f0,$f6
      70:	a0020500 	0xa0020500
      74:	061c0084 	cacop	0x4,$r4,1792(0x700)
      78:	00010511 	0x00010511
      7c:	84c00205 	0x84c00205
      80:	051f1c00 	0x051f1c00
      84:	0205000c 	slti	$r12,$r0,320(0x140)
      88:	1c0084c4 	pcaddu12i	$r4,1062(0x426)
      8c:	00010515 	0x00010515
      90:	84c80205 	0x84c80205
      94:	05111c00 	0x05111c00
      98:	02050001 	slti	$r1,$r0,320(0x140)
      9c:	1c0084e4 	pcaddu12i	$r4,1063(0x427)
      a0:	0001051d 	0x0001051d
      a4:	84e80205 	0x84e80205
      a8:	18061c00 	pcaddi	$r0,12512(0x30e0)
      ac:	05000105 	0x05000105
      b0:	0084e802 	bstrins.d	$r2,$r0,0x4,0x3a
      b4:	0105181c 	fmul.d	$f28,$f0,$f6
      b8:	04020500 	csrxchg	$r0,$r8,0x81
      bc:	5d1c0085 	bne	$r4,$r5,72704(0x11c00) # 11cbc <data_size+0x11488>
      c0:	05000305 	0x05000305
      c4:	00850c02 	bstrins.d	$r2,$r0,0x5,0x3
      c8:	0402001c 	csrrd	$r28,0x80
      cc:	ba030602 	0xba030602
      d0:	1105017f 	addu16i.d	$r31,$r11,16704(0x4140)
      d4:	10020500 	addu16i.d	$r0,$r8,129(0x81)
      d8:	011c0085 	0x011c0085
      dc:	05000c05 	0x05000c05
      e0:	00851802 	bstrins.d	$r2,$r0,0x5,0x6
      e4:	0105011c 	fmul.d	$f28,$f8,$f0
      e8:	1c020500 	pcaddu12i	$r0,4136(0x1028)
      ec:	001c0085 	mul.w	$r5,$r4,$r0
      f0:	06000402 	cacop	0x2,$r0,1(0x1)
      f4:	00020519 	0x00020519
      f8:	851c0205 	0x851c0205
      fc:	05181c00 	0x05181c00
     100:	02050002 	slti	$r2,$r0,320(0x140)
     104:	1c00851c 	pcaddu12i	$r28,1064(0x428)
     108:	04050106 	csrxchg	$r6,$r8,0x140
     10c:	24020500 	ldptr.w	$r0,$r8,516(0x204)
     110:	061c0085 	cacop	0x5,$r4,1792(0x700)
     114:	00030559 	0x00030559
     118:	85240205 	0x85240205
     11c:	01061c00 	0x01061c00
     120:	05000505 	0x05000505
     124:	00852c02 	bstrins.d	$r2,$r0,0x5,0xb
     128:	0402001c 	csrrd	$r28,0x80
     12c:	05010601 	0x05010601
     130:	0205000f 	slti	$r15,$r0,320(0x140)
     134:	1c008540 	pcaddu12i	$r0,1066(0x42a)
     138:	00040200 	alsl.w	$r0,$r16,$r0,0x1
     13c:	01400306 	0x01400306
     140:	05000405 	0x05000405
     144:	00854402 	bstrins.d	$r2,$r0,0x5,0x11
     148:	0305191c 	lu52i.d	$r28,$r8,326(0x146)
     14c:	48020500 	bcnez	$fcc0,516(0x204) # 350 <data_size-0x4e4>
     150:	4a1c0085 	bceqz	$fcc4,1448960(0x161c00) # 161d50 <data_size+0x16151c>
     154:	05000905 	0x05000905
     158:	00854c02 	bstrins.d	$r2,$r0,0x5,0x13
     15c:	4d03061c 	jirl	$r28,$r16,66308(0x10304)
     160:	00030501 	0x00030501
     164:	856c0205 	0x856c0205
     168:	5a061c00 	beq	$r0,$r0,-129508(0x2061c) # fffe0784 <_stack+0xe3fc7388>
     16c:	05000105 	0x05000105
     170:	00859402 	bstrins.d	$r2,$r0,0x5,0x25
     174:	6d03061c 	bgeu	$r16,$r28,66308(0x10304) # 10478 <data_size+0xfc44>
     178:	00050501 	alsl.w	$r1,$r8,$r1,0x3
     17c:	859c0205 	0x859c0205
     180:	01061c00 	0x01061c00
     184:	05000605 	0x05000605
     188:	0085a002 	bstrins.d	$r2,$r0,0x5,0x28
     18c:	0402001c 	csrrd	$r28,0x80
     190:	1a051901 	pcalau12i	$r1,10440(0x28c8)
     194:	a4020500 	0xa4020500
     198:	011c0085 	0x011c0085
     19c:	05000505 	0x05000505
     1a0:	0085b402 	bstrins.d	$r2,$r0,0x5,0x2d
     1a4:	0402001c 	csrrd	$r28,0x80
     1a8:	05180603 	0x05180603
     1ac:	02050006 	slti	$r6,$r0,320(0x140)
     1b0:	1c0085b4 	pcaddu12i	$r20,1069(0x42d)
     1b4:	09050106 	0x09050106
     1b8:	b8020500 	0xb8020500
     1bc:	161c0085 	lu32i.d	$r5,57348(0xe004)
     1c0:	05002c05 	0x05002c05
     1c4:	0085bc02 	bstrins.d	$r2,$r0,0x5,0x2f
     1c8:	1005011c 	addu16i.d	$r28,$r8,320(0x140)
     1cc:	c0020500 	0xc0020500
     1d0:	181c0085 	pcaddi	$r5,57348(0xe004)
     1d4:	05001605 	0x05001605
     1d8:	0085c402 	bstrins.d	$r2,$r0,0x5,0x31
     1dc:	1005161c 	addu16i.d	$r28,$r16,325(0x145)
     1e0:	c8020500 	0xc8020500
     1e4:	011c0085 	0x011c0085
     1e8:	05001a05 	0x05001a05
     1ec:	0085cc02 	bstrins.d	$r2,$r0,0x5,0x33
     1f0:	0505011c 	0x0505011c
     1f4:	d4020500 	0xd4020500
     1f8:	181c0085 	pcaddi	$r5,57348(0xe004)
     1fc:	05000705 	0x05000705
     200:	0085d802 	bstrins.d	$r2,$r0,0x5,0x36
     204:	0505161c 	0x0505161c
     208:	e0020500 	0xe0020500
     20c:	001c0085 	mul.w	$r5,$r4,$r0
     210:	06000402 	cacop	0x2,$r0,1(0x1)
     214:	05016f03 	0x05016f03
     218:	02050005 	slti	$r5,$r0,320(0x140)
     21c:	1c0085f0 	pcaddu12i	$r16,1071(0x42f)
     220:	00050518 	alsl.w	$r24,$r8,$r1,0x3
     224:	85f00205 	0x85f00205
     228:	01061c00 	0x01061c00
     22c:	05000805 	0x05000805
     230:	0085f402 	bstrins.d	$r2,$r0,0x5,0x3d
     234:	0518061c 	0x0518061c
     238:	02050005 	slti	$r5,$r0,320(0x140)
     23c:	1c0085f4 	pcaddu12i	$r20,1071(0x42f)
     240:	06050106 	cacop	0x6,$r8,320(0x140)
     244:	f8020500 	0xf8020500
     248:	061c0085 	cacop	0x5,$r4,1792(0x700)
     24c:	00050518 	alsl.w	$r24,$r8,$r1,0x3
     250:	85fc0205 	0x85fc0205
     254:	64031c00 	bge	$r0,$r0,796(0x31c) # 570 <data_size-0x2c4>
     258:	00050501 	alsl.w	$r1,$r8,$r1,0x3
     25c:	86000205 	0x86000205
     260:	19061c00 	pcaddi	$r0,-511776(0x830e0)
     264:	05000605 	0x05000605
     268:	00860402 	bstrins.d	$r2,$r0,0x6,0x1
     26c:	0805161c 	0x0805161c
     270:	08020500 	0x08020500
     274:	161c0086 	lu32i.d	$r6,57348(0xe004)
     278:	05000505 	0x05000505
     27c:	00860c02 	bstrins.d	$r2,$r0,0x6,0x3
     280:	0518061c 	0x0518061c
     284:	02050005 	slti	$r5,$r0,320(0x140)
     288:	1c00860c 	pcaddu12i	$r12,1072(0x430)
     28c:	00050518 	alsl.w	$r24,$r8,$r1,0x3
     290:	860c0205 	0x860c0205
     294:	05181c00 	0x05181c00
     298:	02050005 	slti	$r5,$r0,320(0x140)
     29c:	1c008610 	pcaddu12i	$r16,1072(0x430)
     2a0:	0005051e 	alsl.w	$r30,$r8,$r1,0x3
     2a4:	86200205 	0x86200205
     2a8:	05181c00 	0x05181c00
     2ac:	02050005 	slti	$r5,$r0,320(0x140)
     2b0:	1c008620 	pcaddu12i	$r0,1073(0x431)
     2b4:	08050106 	0x08050106
     2b8:	24020500 	ldptr.w	$r0,$r8,516(0x204)
     2bc:	061c0086 	cacop	0x6,$r4,1792(0x700)
     2c0:	00050518 	alsl.w	$r24,$r8,$r1,0x3
     2c4:	86240205 	0x86240205
     2c8:	01061c00 	0x01061c00
     2cc:	05000605 	0x05000605
     2d0:	00862802 	bstrins.d	$r2,$r0,0x6,0xa
     2d4:	0518061c 	0x0518061c
     2d8:	02050005 	slti	$r5,$r0,320(0x140)
     2dc:	1c00862c 	pcaddu12i	$r12,1073(0x431)
     2e0:	00110519 	sub.w	$r25,$r8,$r1
     2e4:	863c0205 	0x863c0205
     2e8:	05181c00 	0x05181c00
     2ec:	02050011 	slti	$r17,$r0,320(0x140)
     2f0:	1c00863c 	pcaddu12i	$r28,1073(0x431)
     2f4:	14050106 	lu12i.w	$r6,10248(0x2808)
     2f8:	40020500 	beqz	$r8,516(0x204) # 4fc <data_size-0x338>
     2fc:	061c0086 	cacop	0x6,$r4,1792(0x700)
     300:	00110518 	sub.w	$r24,$r8,$r1
     304:	86400205 	0x86400205
     308:	01061c00 	0x01061c00
     30c:	05001205 	0x05001205
     310:	00864402 	bstrins.d	$r2,$r0,0x6,0x11
     314:	0518061c 	0x0518061c
     318:	02050011 	slti	$r17,$r0,320(0x140)
     31c:	1c008648 	pcaddu12i	$r8,1074(0x432)
     320:	00050519 	alsl.w	$r25,$r8,$r1,0x3
     324:	86580205 	0x86580205
     328:	05181c00 	0x05181c00
     32c:	02050005 	slti	$r5,$r0,320(0x140)
     330:	1c008658 	pcaddu12i	$r24,1074(0x432)
     334:	08050106 	0x08050106
     338:	5c020500 	bne	$r8,$r0,516(0x204) # 53c <data_size-0x2f8>
     33c:	061c0086 	cacop	0x6,$r4,1792(0x700)
     340:	00050518 	alsl.w	$r24,$r8,$r1,0x3
     344:	865c0205 	0x865c0205
     348:	01061c00 	0x01061c00
     34c:	05000605 	0x05000605
     350:	00866002 	bstrins.d	$r2,$r0,0x6,0x18
     354:	0518061c 	0x0518061c
     358:	02050005 	slti	$r5,$r0,320(0x140)
     35c:	1c008664 	pcaddu12i	$r4,1075(0x433)
     360:	0005051f 	alsl.w	$r31,$r8,$r1,0x3
     364:	86740205 	0x86740205
     368:	05181c00 	0x05181c00
     36c:	02050005 	slti	$r5,$r0,320(0x140)
     370:	1c008674 	pcaddu12i	$r20,1075(0x433)
     374:	08050106 	0x08050106
     378:	78020500 	0x78020500
     37c:	061c0086 	cacop	0x6,$r4,1792(0x700)
     380:	00050518 	alsl.w	$r24,$r8,$r1,0x3
     384:	86780205 	0x86780205
     388:	01061c00 	0x01061c00
     38c:	05000605 	0x05000605
     390:	00867c02 	bstrins.d	$r2,$r0,0x6,0x1f
     394:	0518061c 	0x0518061c
     398:	02050005 	slti	$r5,$r0,320(0x140)
     39c:	1c008680 	pcaddu12i	$r0,1076(0x434)
     3a0:	05015903 	0x05015903
     3a4:	02050005 	slti	$r5,$r0,320(0x140)
     3a8:	1c008684 	pcaddu12i	$r4,1076(0x434)
     3ac:	06051906 	cacop	0x6,$r8,326(0x146)
     3b0:	88020500 	0x88020500
     3b4:	161c0086 	lu32i.d	$r6,57348(0xe004)
     3b8:	05000805 	0x05000805
     3bc:	00868c02 	bstrins.d	$r2,$r0,0x6,0x23
     3c0:	0505161c 	0x0505161c
     3c4:	90020500 	0x90020500
     3c8:	061c0086 	cacop	0x6,$r4,1792(0x700)
     3cc:	00050518 	alsl.w	$r24,$r8,$r1,0x3
     3d0:	86900205 	0x86900205
     3d4:	05181c00 	0x05181c00
     3d8:	02050005 	slti	$r5,$r0,320(0x140)
     3dc:	1c008690 	pcaddu12i	$r16,1076(0x434)
     3e0:	00050518 	alsl.w	$r24,$r8,$r1,0x3
     3e4:	86940205 	0x86940205
     3e8:	051e1c00 	0x051e1c00
     3ec:	02050005 	slti	$r5,$r0,320(0x140)
     3f0:	1c0086a4 	pcaddu12i	$r4,1077(0x435)
     3f4:	00050518 	alsl.w	$r24,$r8,$r1,0x3
     3f8:	86a40205 	0x86a40205
     3fc:	01061c00 	0x01061c00
     400:	05000805 	0x05000805
     404:	0086a802 	bstrins.d	$r2,$r0,0x6,0x2a
     408:	0518061c 	0x0518061c
     40c:	02050005 	slti	$r5,$r0,320(0x140)
     410:	1c0086a8 	pcaddu12i	$r8,1077(0x435)
     414:	06050106 	cacop	0x6,$r8,320(0x140)
     418:	ac020500 	0xac020500
     41c:	061c0086 	cacop	0x6,$r4,1792(0x700)
     420:	00050518 	alsl.w	$r24,$r8,$r1,0x3
     424:	86b00205 	0x86b00205
     428:	05331c00 	0x05331c00
     42c:	02050005 	slti	$r5,$r0,320(0x140)
     430:	1c0086b8 	pcaddu12i	$r24,1077(0x435)
     434:	00050518 	alsl.w	$r24,$r8,$r1,0x3
     438:	86b80205 	0x86b80205
     43c:	01061c00 	0x01061c00
     440:	05000605 	0x05000605
     444:	0086bc02 	bstrins.d	$r2,$r0,0x6,0x2f
     448:	0518061c 	0x0518061c
     44c:	02050005 	slti	$r5,$r0,320(0x140)
     450:	1c0086c0 	pcaddu12i	$r0,1078(0x436)
     454:	0006051e 	alsl.wu	$r30,$r8,$r1,0x1
     458:	86c00205 	0x86c00205
     45c:	051a1c00 	0x051a1c00
     460:	02050005 	slti	$r5,$r0,320(0x140)
     464:	1c0086c8 	pcaddu12i	$r8,1078(0x436)
     468:	00050518 	alsl.w	$r24,$r8,$r1,0x3
     46c:	86cc0205 	0x86cc0205
     470:	01001c00 	0x01001c00
     474:	0000ae01 	0x0000ae01
     478:	21000400 	sc.w	$r0,$r0,4(0x4)
     47c:	01000000 	0x01000000
     480:	f2f60101 	0xf2f60101
     484:	0101000d 	fadd.d	$f13,$f0,$f0
     488:	00000101 	0x00000101
     48c:	00000100 	0x00000100
     490:	75700001 	0x75700001
     494:	61686374 	blt	$r27,$r20,92256(0x16860) # 16cf4 <data_size+0x164c0>
     498:	00632e72 	bstrins.w	$r18,$r19,0x3,0xb
     49c:	00000000 	0x00000000
     4a0:	cc020500 	0xcc020500
     4a4:	181c0086 	pcaddi	$r6,57348(0xe004)
     4a8:	05000105 	0x05000105
     4ac:	0086cc02 	bstrins.d	$r2,$r0,0x6,0x33
     4b0:	0105181c 	fmul.d	$f28,$f0,$f6
     4b4:	cc020500 	0xcc020500
     4b8:	1d1c0086 	pcaddu12i	$r6,-466940(0x8e004)
     4bc:	05000505 	0x05000505
     4c0:	0086cc02 	bstrins.d	$r2,$r0,0x6,0x33
     4c4:	0510061c 	0x0510061c
     4c8:	02050001 	slti	$r1,$r0,320(0x140)
     4cc:	1c0086d4 	pcaddu12i	$r20,1078(0x436)
     4d0:	0005051e 	alsl.w	$r30,$r8,$r1,0x3
     4d4:	86e40205 	0x86e40205
     4d8:	12061c00 	addu16i.d	$r0,$r0,-32377(0x8187)
     4dc:	05000105 	0x05000105
     4e0:	0086e402 	bstrins.d	$r2,$r0,0x6,0x39
     4e4:	0518061c 	0x0518061c
     4e8:	02050001 	slti	$r1,$r0,320(0x140)
     4ec:	1c0086f4 	pcaddu12i	$r20,1079(0x437)
     4f0:	01051a06 	fmul.d	$f6,$f16,$f6
     4f4:	f4020500 	0xf4020500
     4f8:	181c0086 	pcaddi	$r6,57348(0xe004)
     4fc:	05000505 	0x05000505
     500:	0086f402 	bstrins.d	$r2,$r0,0x6,0x3d
     504:	0516061c 	0x0516061c
     508:	02050001 	slti	$r1,$r0,320(0x140)
     50c:	1c0086fc 	pcaddu12i	$r28,1079(0x437)
     510:	00050518 	alsl.w	$r24,$r8,$r1,0x3
     514:	870c0205 	0x870c0205
     518:	051e1c00 	0x051e1c00
     51c:	02050001 	slti	$r1,$r0,320(0x140)
     520:	1c008718 	pcaddu12i	$r24,1080(0x438)
     524:	65010100 	bge	$r8,$r0,65792(0x10100) # 10624 <data_size+0xfdf0>
     528:	04000001 	csrrd	$r1,0x0
     52c:	00001e00 	ctz.w	$r0,$r16
     530:	01010100 	fadd.d	$f0,$f8,$f0
     534:	000df2f6 	bytepick.d	$r22,$r23,$r28,0x3
     538:	01010101 	fadd.d	$f1,$f8,$f0
     53c:	01000000 	0x01000000
     540:	00010000 	asrtle.d	$r0,$r0
     544:	73747570 	0x73747570
     548:	0000632e 	rdtimel.w	$r14,$r25
     54c:	00000000 	0x00000000
     550:	87180205 	0x87180205
     554:	05181c00 	0x05181c00
     558:	02050001 	slti	$r1,$r0,320(0x140)
     55c:	1c008718 	pcaddu12i	$r24,1080(0x438)
     560:	00010518 	0x00010518
     564:	87180205 	0x87180205
     568:	05181c00 	0x05181c00
     56c:	02050001 	slti	$r1,$r0,320(0x140)
     570:	1c008718 	pcaddu12i	$r24,1080(0x438)
     574:	01051506 	fmul.d	$f6,$f8,$f5
     578:	2c020500 	vld	$vr0,$r8,129(0x81)
     57c:	191c0087 	pcaddi	$r7,-466940(0x8e004)
     580:	05000905 	0x05000905
     584:	00873002 	bstrins.d	$r2,$r0,0x7,0xc
     588:	0605011c 	cacop	0x1c,$r8,320(0x140)
     58c:	38020500 	0x38020500
     590:	191c0087 	pcaddi	$r7,-466940(0x8e004)
     594:	05000405 	0x05000405
     598:	00874002 	bstrins.d	$r2,$r0,0x7,0x10
     59c:	0518061c 	0x0518061c
     5a0:	02050002 	slti	$r2,$r0,320(0x140)
     5a4:	1c008748 	pcaddu12i	$r8,1082(0x43a)
     5a8:	00020518 	0x00020518
     5ac:	87480205 	0x87480205
     5b0:	13061c00 	addu16i.d	$r0,$r0,-15993(0xc187)
     5b4:	05000905 	0x05000905
     5b8:	00874c02 	bstrins.d	$r2,$r0,0x7,0x13
     5bc:	0605011c 	cacop	0x1c,$r8,320(0x140)
     5c0:	50020500 	b	67109380(0x4000204) # 40007c4 <data_size+0x3ffff90>
     5c4:	061c0087 	cacop	0x7,$r4,1792(0x700)
     5c8:	00020519 	0x00020519
     5cc:	87500205 	0x87500205
     5d0:	19061c00 	pcaddi	$r0,-511776(0x830e0)
     5d4:	05000305 	0x05000305
     5d8:	00875402 	bstrins.d	$r2,$r0,0x7,0x15
     5dc:	0405151c 	csrxchg	$r28,$r8,0x145
     5e0:	58020500 	beq	$r8,$r0,516(0x204) # 7e4 <data_size-0x50>
     5e4:	001c0087 	mul.w	$r7,$r4,$r0
     5e8:	06010402 	cacop	0x2,$r0,65(0x41)
     5ec:	00100501 	add.w	$r1,$r8,$r1
     5f0:	87600205 	0x87600205
     5f4:	05181c00 	0x05181c00
     5f8:	02050002 	slti	$r2,$r0,320(0x140)
     5fc:	1c008768 	pcaddu12i	$r8,1083(0x43b)
     600:	00020518 	0x00020518
     604:	87680205 	0x87680205
     608:	13061c00 	addu16i.d	$r0,$r0,-15993(0xc187)
     60c:	05000905 	0x05000905
     610:	00876c02 	bstrins.d	$r2,$r0,0x7,0x1b
     614:	0605011c 	cacop	0x1c,$r8,320(0x140)
     618:	70020500 	vsle.b	$vr0,$vr8,$vr1
     61c:	001c0087 	mul.w	$r7,$r4,$r0
     620:	06000402 	cacop	0x2,$r0,1(0x1)
     624:	0001051d 	0x0001051d
     628:	87700205 	0x87700205
     62c:	18061c00 	pcaddi	$r0,12512(0x30e0)
     630:	05000105 	0x05000105
     634:	00878c02 	bstrins.d	$r2,$r0,0x7,0x23
     638:	051b061c 	0x051b061c
     63c:	02050001 	slti	$r1,$r0,320(0x140)
     640:	1c00878c 	pcaddu12i	$r12,1084(0x43c)
     644:	00010518 	0x00010518
     648:	878c0205 	0x878c0205
     64c:	16061c00 	lu32i.d	$r0,12512(0x30e0)
     650:	05000105 	0x05000105
     654:	00879402 	bstrins.d	$r2,$r0,0x7,0x25
     658:	0105181c 	fmul.d	$f28,$f0,$f6
     65c:	98020500 	0x98020500
     660:	061c0087 	cacop	0x7,$r4,1792(0x700)
     664:	00010518 	0x00010518
     668:	87a00205 	0x87a00205
     66c:	05181c00 	0x05181c00
     670:	02050001 	slti	$r1,$r0,320(0x140)
     674:	1c0087a8 	pcaddu12i	$r8,1085(0x43d)
     678:	00010518 	0x00010518
     67c:	87a80205 	0x87a80205
     680:	18061c00 	pcaddi	$r0,12512(0x30e0)
     684:	05000105 	0x05000105
     688:	0087b802 	bstrins.d	$r2,$r0,0x7,0x2e
     68c:	0101001c 	fadd.d	$f28,$f0,$f0
     690:	000001bf 	0x000001bf
     694:	00230004 	div.du	$r4,$r0,$r0
     698:	01010000 	fadd.d	$f0,$f0,$f0
     69c:	0df2f601 	0x0df2f601
     6a0:	01010100 	fadd.d	$f0,$f8,$f0
     6a4:	00000001 	0x00000001
     6a8:	01000001 	0x01000001
     6ac:	69727000 	bltu	$r0,$r0,94832(0x17270) # 1791c <data_size+0x170e8>
     6b0:	6162746e 	blt	$r3,$r14,90740(0x16274) # 16924 <data_size+0x160f0>
     6b4:	632e6573 	blt	$r11,$r19,-53660(0x32e64) # ffff3518 <_stack+0xe3fda11c>
     6b8:	00000000 	0x00000000
     6bc:	02050000 	slti	$r0,$r0,320(0x140)
     6c0:	1c0087b8 	pcaddu12i	$r24,1085(0x43d)
     6c4:	00010518 	0x00010518
     6c8:	87b80205 	0x87b80205
     6cc:	05181c00 	0x05181c00
     6d0:	02050002 	slti	$r2,$r0,320(0x140)
     6d4:	1c0087b8 	pcaddu12i	$r24,1085(0x43d)
     6d8:	00020518 	0x00020518
     6dc:	87b80205 	0x87b80205
     6e0:	05181c00 	0x05181c00
     6e4:	02050002 	slti	$r2,$r0,320(0x140)
     6e8:	1c0087b8 	pcaddu12i	$r24,1085(0x43d)
     6ec:	00020518 	0x00020518
     6f0:	87b80205 	0x87b80205
     6f4:	05181c00 	0x05181c00
     6f8:	02050002 	slti	$r2,$r0,320(0x140)
     6fc:	1c0087b8 	pcaddu12i	$r24,1085(0x43d)
     700:	01051206 	fmul.d	$f6,$f16,$f4
     704:	cc020500 	0xcc020500
     708:	011c0087 	0x011c0087
     70c:	05000105 	0x05000105
     710:	0087d002 	bstrins.d	$r2,$r0,0x7,0x34
     714:	04051c1c 	csrrd	$r28,0x147
     718:	d4020500 	0xd4020500
     71c:	001c0087 	mul.w	$r7,$r4,$r0
     720:	01010402 	fadd.d	$f2,$f0,$f1
     724:	05000a05 	0x05000a05
     728:	0087d802 	bstrins.d	$r2,$r0,0x7,0x36
     72c:	0402001c 	csrrd	$r28,0x80
     730:	051c0600 	0x051c0600
     734:	02050007 	slti	$r7,$r0,320(0x140)
     738:	1c0087d8 	pcaddu12i	$r24,1086(0x43e)
     73c:	02051906 	slti	$r6,$r8,326(0x146)
     740:	ec020500 	0xec020500
     744:	1a1c0087 	pcalau12i	$r7,57348(0xe004)
     748:	05000705 	0x05000705
     74c:	0087f002 	bstrins.d	$r2,$r0,0x7,0x3c
     750:	0402001c 	csrrd	$r28,0x80
     754:	05160603 	0x05160603
     758:	02050002 	slti	$r2,$r0,320(0x140)
     75c:	1c0087f0 	pcaddu12i	$r16,1087(0x43f)
     760:	0e050106 	0x0e050106
     764:	fc020500 	0xfc020500
     768:	011c0087 	0x011c0087
     76c:	05000805 	0x05000805
     770:	00880002 	bstrins.d	$r2,$r0,0x8,0x0
     774:	0518061c 	0x0518061c
     778:	02050002 	slti	$r2,$r0,320(0x140)
     77c:	1c008804 	pcaddu12i	$r4,1088(0x440)
     780:	07050106 	0x07050106
     784:	14020500 	lu12i.w	$r0,4136(0x1028)
     788:	141c0088 	lu12i.w	$r8,57348(0xe004)
     78c:	05000205 	0x05000205
     790:	00881802 	bstrins.d	$r2,$r0,0x8,0x6
     794:	0402001c 	csrrd	$r28,0x80
     798:	051f0600 	0x051f0600
     79c:	02050002 	slti	$r2,$r0,320(0x140)
     7a0:	1c008818 	pcaddu12i	$r24,1088(0x440)
     7a4:	07050106 	0x07050106
     7a8:	20020500 	ll.w	$r0,$r8,516(0x204)
     7ac:	1a1c0088 	pcalau12i	$r8,57348(0xe004)
     7b0:	05000305 	0x05000305
     7b4:	00882402 	bstrins.d	$r2,$r0,0x8,0x9
     7b8:	0516061c 	0x0516061c
     7bc:	02050003 	slti	$r3,$r0,320(0x140)
     7c0:	1c008824 	pcaddu12i	$r4,1089(0x441)
     7c4:	0e050106 	0x0e050106
     7c8:	30020500 	0x30020500
     7cc:	011c0088 	0x011c0088
     7d0:	05000a05 	0x05000a05
     7d4:	00883802 	bstrins.d	$r2,$r0,0x8,0xe
     7d8:	0402001c 	csrrd	$r28,0x80
     7dc:	05180601 	0x05180601
     7e0:	02050003 	slti	$r3,$r0,320(0x140)
     7e4:	1c00884c 	pcaddu12i	$r12,1090(0x442)
     7e8:	04040200 	csrxchg	$r0,$r16,0x100
     7ec:	02051406 	slti	$r6,$r0,325(0x145)
     7f0:	50020500 	b	67109380(0x4000204) # 40009f4 <data_size+0x40001c0>
     7f4:	001c0088 	mul.w	$r8,$r4,$r0
     7f8:	1d000402 	pcaddu12i	$r2,-524256(0x80020)
     7fc:	05000105 	0x05000105
     800:	00886c02 	bstrins.d	$r2,$r0,0x8,0x1b
     804:	0705111c 	0x0705111c
     808:	74020500 	xvsle.b	$xr0,$xr8,$xr1
     80c:	031c0088 	lu52i.d	$r8,$r4,1792(0x700)
     810:	02050174 	slti	$r20,$r11,320(0x140)
     814:	80020500 	0x80020500
     818:	061c0088 	cacop	0x8,$r4,1792(0x700)
     81c:	00020516 	0x00020516
     820:	88800205 	0x88800205
     824:	18061c00 	pcaddi	$r0,12512(0x30e0)
     828:	05000205 	0x05000205
     82c:	00888402 	bstrins.d	$r2,$r0,0x8,0x21
     830:	0a05161c 	0x0a05161c
     834:	88020500 	0x88020500
     838:	061c0088 	cacop	0x8,$r4,1792(0x700)
     83c:	00020518 	0x00020518
     840:	88940205 	0x88940205
     844:	05231c00 	0x05231c00
     848:	02050002 	slti	$r2,$r0,320(0x140)
     84c:	1c0088a0 	pcaddu12i	$r0,1093(0x445)
     850:	09010100 	0x09010100
     854:	04000008 	csrrd	$r8,0x0
     858:	00003700 	revb.4h	$r0,$r24
     85c:	01010100 	fadd.d	$f0,$f8,$f0
     860:	000df2f6 	bytepick.d	$r22,$r23,$r28,0x3
     864:	01010101 	fadd.d	$f1,$f8,$f0
     868:	01000000 	0x01000000
     86c:	2e010000 	0x2e010000
     870:	6e692f2e 	bgeu	$r25,$r14,-104148(0x2692c) # fffe719c <_stack+0xe3fcdda0>
     874:	64756c63 	bge	$r3,$r3,30060(0x756c) # 7de0 <data_size+0x75ac>
     878:	73000065 	0x73000065
     87c:	6e697274 	bgeu	$r19,$r20,-104080(0x26970) # fffe71ec <_stack+0xe3fcddf0>
     880:	00632e67 	bstrins.w	$r7,$r19,0x3,0xb
     884:	63000000 	blt	$r0,$r0,-65536(0x30000) # ffff0884 <_stack+0xe3fd7488>
     888:	6f6d6d6f 	bgeu	$r11,$r15,-37524(0x36d6c) # ffff75f4 <_stack+0xe3fde1f8>
     88c:	00682e6e 	bstrins.w	$r14,$r19,0x8,0xb
     890:	00000001 	0x00000001
     894:	a0020500 	0xa0020500
     898:	221c0088 	ll.d	$r8,$r4,7168(0x1c00)
     89c:	05001705 	0x05001705
     8a0:	0088a002 	bstrins.d	$r2,$r0,0x8,0x28
     8a4:	0505181c 	0x0505181c
     8a8:	a0020500 	0xa0020500
     8ac:	181c0088 	pcaddi	$r8,57348(0xe004)
     8b0:	05000505 	0x05000505
     8b4:	0088a002 	bstrins.d	$r2,$r0,0x8,0x28
     8b8:	0501061c 	0x0501061c
     8bc:	0205000b 	slti	$r11,$r0,320(0x140)
     8c0:	1c0088a8 	pcaddu12i	$r8,1093(0x445)
     8c4:	000c0516 	bytepick.d	$r22,$r8,$r1,0x0
     8c8:	88ac0205 	0x88ac0205
     8cc:	19061c00 	pcaddi	$r0,-511776(0x830e0)
     8d0:	05000905 	0x05000905
     8d4:	0088ac02 	bstrins.d	$r2,$r0,0x8,0x2b
     8d8:	0501061c 	0x0501061c
     8dc:	0205000d 	slti	$r13,$r0,320(0x140)
     8e0:	1c0088b0 	pcaddu12i	$r16,1093(0x445)
     8e4:	000c0516 	bytepick.d	$r22,$r8,$r1,0x0
     8e8:	88b40205 	0x88b40205
     8ec:	05011c00 	0x05011c00
     8f0:	0205000b 	slti	$r11,$r0,320(0x140)
     8f4:	1c0088bc 	pcaddu12i	$r28,1093(0x445)
     8f8:	0001051b 	0x0001051b
     8fc:	88c40205 	0x88c40205
     900:	05121c00 	0x05121c00
     904:	0205000c 	slti	$r12,$r0,320(0x140)
     908:	1c0088c8 	pcaddu12i	$r8,1094(0x446)
     90c:	05051b06 	0x05051b06
     910:	c8020500 	0xc8020500
     914:	061c0088 	cacop	0x8,$r4,1792(0x700)
     918:	00010518 	0x00010518
     91c:	88d00205 	0x88d00205
     920:	27061c00 	stptr.d	$r0,$r0,1564(0x61c)
     924:	05002405 	0x05002405
     928:	0088d002 	bstrins.d	$r2,$r0,0x8,0x34
     92c:	0505181c 	0x0505181c
     930:	d0020500 	0xd0020500
     934:	181c0088 	pcaddi	$r8,57348(0xe004)
     938:	05000505 	0x05000505
     93c:	0088d002 	bstrins.d	$r2,$r0,0x8,0x34
     940:	0501061c 	0x0501061c
     944:	0205000b 	slti	$r11,$r0,320(0x140)
     948:	1c0088d4 	pcaddu12i	$r20,1094(0x446)
     94c:	00160501 	orn	$r1,$r8,$r1
     950:	88dc0205 	0x88dc0205
     954:	05161c00 	0x05161c00
     958:	0205000c 	slti	$r12,$r0,320(0x140)
     95c:	1c0088e4 	pcaddu12i	$r4,1095(0x447)
     960:	01040200 	0x01040200
     964:	00160518 	orn	$r24,$r8,$r1
     968:	88ec0205 	0x88ec0205
     96c:	02001c00 	slti	$r0,$r0,7(0x7)
     970:	18060004 	pcaddi	$r4,12288(0x3000)
     974:	05000905 	0x05000905
     978:	0088ec02 	bstrins.d	$r2,$r0,0x8,0x3b
     97c:	0501061c 	0x0501061c
     980:	0205000d 	slti	$r13,$r0,320(0x140)
     984:	1c0088f0 	pcaddu12i	$r16,1095(0x447)
     988:	00190516 	srl.d	$r22,$r8,$r1
     98c:	88f40205 	0x88f40205
     990:	05011c00 	0x05011c00
     994:	0205000b 	slti	$r11,$r0,320(0x140)
     998:	1c0088f8 	pcaddu12i	$r24,1095(0x447)
     99c:	0001051b 	0x0001051b
     9a0:	89000205 	0x89000205
     9a4:	05121c00 	0x05121c00
     9a8:	0205000c 	slti	$r12,$r0,320(0x140)
     9ac:	1c008904 	pcaddu12i	$r4,1096(0x448)
     9b0:	05051b06 	0x05051b06
     9b4:	04020500 	csrxchg	$r0,$r8,0x81
     9b8:	061c0089 	cacop	0x9,$r4,1792(0x700)
     9bc:	00010518 	0x00010518
     9c0:	890c0205 	0x890c0205
     9c4:	26061c00 	ldptr.d	$r0,$r0,1564(0x61c)
     9c8:	05002405 	0x05002405
     9cc:	00890c02 	bstrins.d	$r2,$r0,0x9,0x3
     9d0:	05051b1c 	0x05051b1c
     9d4:	0c020500 	0x0c020500
     9d8:	181c0089 	pcaddi	$r9,57348(0xe004)
     9dc:	05000505 	0x05000505
     9e0:	00890c02 	bstrins.d	$r2,$r0,0x9,0x3
     9e4:	0516061c 	0x0516061c
     9e8:	0205000b 	slti	$r11,$r0,320(0x140)
     9ec:	1c008910 	pcaddu12i	$r16,1096(0x448)
     9f0:	01040200 	0x01040200
     9f4:	16051906 	lu32i.d	$r6,10440(0x28c8)
     9f8:	10020500 	addu16i.d	$r0,$r8,129(0x81)
     9fc:	061c0089 	cacop	0x9,$r4,1792(0x700)
     a00:	001a0516 	0x001a0516
     a04:	89140205 	0x89140205
     a08:	05011c00 	0x05011c00
     a0c:	02050015 	slti	$r21,$r0,320(0x140)
     a10:	1c008918 	pcaddu12i	$r24,1096(0x448)
     a14:	00100501 	add.w	$r1,$r8,$r1
     a18:	891c0205 	0x891c0205
     a1c:	05011c00 	0x05011c00
     a20:	02050013 	slti	$r19,$r0,320(0x140)
     a24:	1c008920 	pcaddu12i	$r0,1097(0x449)
     a28:	000b0501 	0x000b0501
     a2c:	89240205 	0x89240205
     a30:	02001c00 	slti	$r0,$r0,7(0x7)
     a34:	051b0004 	0x051b0004
     a38:	02050001 	slti	$r1,$r0,320(0x140)
     a3c:	1c008928 	pcaddu12i	$r8,1097(0x449)
     a40:	31052406 	0x31052406
     a44:	28020500 	ld.b	$r0,$r8,129(0x81)
     a48:	181c0089 	pcaddi	$r9,57348(0xe004)
     a4c:	05000505 	0x05000505
     a50:	00892802 	bstrins.d	$r2,$r0,0x9,0xa
     a54:	0505181c 	0x0505181c
     a58:	28020500 	ld.b	$r0,$r8,129(0x81)
     a5c:	061c0089 	cacop	0x9,$r4,1792(0x700)
     a60:	000b0501 	0x000b0501
     a64:	89300205 	0x89300205
     a68:	05161c00 	0x05161c00
     a6c:	0205000b 	slti	$r11,$r0,320(0x140)
     a70:	1c008934 	pcaddu12i	$r20,1097(0x449)
     a74:	09051906 	0x09051906
     a78:	34020500 	0x34020500
     a7c:	061c0089 	cacop	0x9,$r4,1792(0x700)
     a80:	00130501 	maskeqz	$r1,$r8,$r1
     a84:	89380205 	0x89380205
     a88:	051a1c00 	0x051a1c00
     a8c:	0205000b 	slti	$r11,$r0,320(0x140)
     a90:	1c00893c 	pcaddu12i	$r28,1097(0x449)
     a94:	00110514 	sub.w	$r20,$r8,$r1
     a98:	89400205 	0x89400205
     a9c:	05181c00 	0x05181c00
     aa0:	02050011 	slti	$r17,$r0,320(0x140)
     aa4:	1c008948 	pcaddu12i	$r8,1098(0x44a)
     aa8:	09051906 	0x09051906
     aac:	48020500 	bcnez	$fcc0,516(0x204) # cb0 <data_size+0x47c>
     ab0:	061c0089 	cacop	0x9,$r4,1792(0x700)
     ab4:	000b0513 	0x000b0513
     ab8:	894c0205 	0x894c0205
     abc:	1d061c00 	pcaddu12i	$r0,-511776(0x830e0)
     ac0:	05000505 	0x05000505
     ac4:	00894c02 	bstrins.d	$r2,$r0,0x9,0x13
     ac8:	0518061c 	0x0518061c
     acc:	02050001 	slti	$r1,$r0,320(0x140)
     ad0:	1c008950 	pcaddu12i	$r16,1098(0x44a)
     ad4:	33052506 	0x33052506
     ad8:	50020500 	b	67109380(0x4000204) # 4000cdc <data_size+0x40004a8>
     adc:	181c0089 	pcaddi	$r9,57348(0xe004)
     ae0:	05000505 	0x05000505
     ae4:	00895002 	bstrins.d	$r2,$r0,0x9,0x14
     ae8:	0501061c 	0x0501061c
     aec:	0205000b 	slti	$r11,$r0,320(0x140)
     af0:	1c008954 	pcaddu12i	$r20,1098(0x44a)
     af4:	00150501 	or	$r1,$r8,$r1
     af8:	895c0205 	0x895c0205
     afc:	05011c00 	0x05011c00
     b00:	02050012 	slti	$r18,$r0,320(0x140)
     b04:	1c008960 	pcaddu12i	$r0,1099(0x44b)
     b08:	00210501 	div.wu	$r1,$r8,$r1
     b0c:	896c0205 	0x896c0205
     b10:	02001c00 	slti	$r0,$r0,7(0x7)
     b14:	05010104 	0x05010104
     b18:	02050015 	slti	$r21,$r0,320(0x140)
     b1c:	1c008970 	pcaddu12i	$r16,1099(0x44b)
     b20:	00120501 	slt	$r1,$r8,$r1
     b24:	89740205 	0x89740205
     b28:	02001c00 	slti	$r0,$r0,7(0x7)
     b2c:	05010204 	0x05010204
     b30:	0205002b 	slti	$r11,$r1,320(0x140)
     b34:	1c00897c 	pcaddu12i	$r28,1099(0x44b)
     b38:	00210501 	div.wu	$r1,$r8,$r1
     b3c:	89800205 	0x89800205
     b40:	02001c00 	slti	$r0,$r0,7(0x7)
     b44:	18060004 	pcaddi	$r4,12288(0x3000)
     b48:	05000905 	0x05000905
     b4c:	00898002 	bstrins.d	$r2,$r0,0x9,0x20
     b50:	0501061c 	0x0501061c
     b54:	02050019 	slti	$r25,$r0,320(0x140)
     b58:	1c008984 	pcaddu12i	$r4,1100(0x44c)
     b5c:	00120501 	slt	$r1,$r8,$r1
     b60:	89880205 	0x89880205
     b64:	05161c00 	0x05161c00
     b68:	0205000b 	slti	$r11,$r0,320(0x140)
     b6c:	1c00898c 	pcaddu12i	$r12,1100(0x44c)
     b70:	0019051a 	srl.d	$r26,$r8,$r1
     b74:	89900205 	0x89900205
     b78:	05181c00 	0x05181c00
     b7c:	02050001 	slti	$r1,$r0,320(0x140)
     b80:	1c008998 	pcaddu12i	$r24,1100(0x44c)
     b84:	05051606 	0x05051606
     b88:	98020500 	0x98020500
     b8c:	061c0089 	cacop	0x9,$r4,1792(0x700)
     b90:	00330513 	0x00330513
     b94:	899c0205 	0x899c0205
     b98:	051b1c00 	0x051b1c00
     b9c:	02050021 	slti	$r1,$r1,320(0x140)
     ba0:	1c0089a4 	pcaddu12i	$r4,1101(0x44d)
     ba4:	00360501 	0x00360501
     ba8:	89ac0205 	0x89ac0205
     bac:	05181c00 	0x05181c00
     bb0:	02050001 	slti	$r1,$r0,320(0x140)
     bb4:	1c0089b0 	pcaddu12i	$r16,1101(0x44d)
     bb8:	00190516 	srl.d	$r22,$r8,$r1
     bbc:	89b40205 	0x89b40205
     bc0:	05181c00 	0x05181c00
     bc4:	02050001 	slti	$r1,$r0,320(0x140)
     bc8:	1c0089b8 	pcaddu12i	$r24,1101(0x44d)
     bcc:	1f052206 	pcaddu18i	$r6,-513776(0x82910)
     bd0:	b8020500 	0xb8020500
     bd4:	181c0089 	pcaddi	$r9,57348(0xe004)
     bd8:	05000505 	0x05000505
     bdc:	0089b802 	bstrins.d	$r2,$r0,0x9,0x2e
     be0:	0501061c 	0x0501061c
     be4:	0205000c 	slti	$r12,$r0,320(0x140)
     be8:	1c0089bc 	pcaddu12i	$r28,1101(0x44d)
     bec:	000b0501 	0x000b0501
     bf0:	89c00205 	0x89c00205
     bf4:	18061c00 	pcaddi	$r0,12512(0x30e0)
     bf8:	05000905 	0x05000905
     bfc:	0089c002 	bstrins.d	$r2,$r0,0x9,0x30
     c00:	0501061c 	0x0501061c
     c04:	0205000c 	slti	$r12,$r0,320(0x140)
     c08:	1c0089cc 	pcaddu12i	$r12,1102(0x44e)
     c0c:	09050106 	0x09050106
     c10:	cc020500 	0xcc020500
     c14:	1a1c0089 	pcalau12i	$r9,57348(0xe004)
     c18:	05000905 	0x05000905
     c1c:	0089cc02 	bstrins.d	$r2,$r0,0x9,0x33
     c20:	0501061c 	0x0501061c
     c24:	0205000b 	slti	$r11,$r0,320(0x140)
     c28:	1c0089d0 	pcaddu12i	$r16,1102(0x44e)
     c2c:	000c0513 	bytepick.d	$r19,$r8,$r1,0x0
     c30:	89d40205 	0x89d40205
     c34:	05011c00 	0x05011c00
     c38:	0205000b 	slti	$r11,$r0,320(0x140)
     c3c:	1c0089d8 	pcaddu12i	$r24,1102(0x44e)
     c40:	000c051d 	bytepick.d	$r29,$r8,$r1,0x0
     c44:	89dc0205 	0x89dc0205
     c48:	05181c00 	0x05181c00
     c4c:	02050001 	slti	$r1,$r0,320(0x140)
     c50:	1c0089e4 	pcaddu12i	$r4,1103(0x44f)
     c54:	20052306 	ll.w	$r6,$r24,1312(0x520)
     c58:	e4020500 	0xe4020500
     c5c:	181c0089 	pcaddi	$r9,57348(0xe004)
     c60:	05000505 	0x05000505
     c64:	0089e402 	bstrins.d	$r2,$r0,0x9,0x39
     c68:	0501061c 	0x0501061c
     c6c:	0205000c 	slti	$r12,$r0,320(0x140)
     c70:	1c0089e8 	pcaddu12i	$r8,1103(0x44f)
     c74:	000b0501 	0x000b0501
     c78:	89ec0205 	0x89ec0205
     c7c:	18061c00 	pcaddi	$r0,12512(0x30e0)
     c80:	05000905 	0x05000905
     c84:	0089ec02 	bstrins.d	$r2,$r0,0x9,0x3b
     c88:	0501061c 	0x0501061c
     c8c:	0205000c 	slti	$r12,$r0,320(0x140)
     c90:	1c0089f8 	pcaddu12i	$r24,1103(0x44f)
     c94:	09050106 	0x09050106
     c98:	f8020500 	0xf8020500
     c9c:	1a1c0089 	pcalau12i	$r9,57348(0xe004)
     ca0:	05000905 	0x05000905
     ca4:	0089f802 	bstrins.d	$r2,$r0,0x9,0x3e
     ca8:	0501061c 	0x0501061c
     cac:	0205000b 	slti	$r11,$r0,320(0x140)
     cb0:	1c0089fc 	pcaddu12i	$r28,1103(0x44f)
     cb4:	000c0513 	bytepick.d	$r19,$r8,$r1,0x0
     cb8:	8a000205 	0x8a000205
     cbc:	05011c00 	0x05011c00
     cc0:	0205000b 	slti	$r11,$r0,320(0x140)
     cc4:	1c008a04 	pcaddu12i	$r4,1104(0x450)
     cc8:	05051d06 	0x05051d06
     ccc:	04020500 	csrxchg	$r0,$r8,0x81
     cd0:	061c008a 	cacop	0xa,$r4,1792(0x700)
     cd4:	00010518 	0x00010518
     cd8:	8a0c0205 	0x8a0c0205
     cdc:	7d061c00 	0x7d061c00
     ce0:	05002305 	0x05002305
     ce4:	008a0c02 	bstrins.d	$r2,$r0,0xa,0x3
     ce8:	05051b1c 	0x05051b1c
     cec:	0c020500 	0x0c020500
     cf0:	181c008a 	pcaddi	$r10,57348(0xe004)
     cf4:	05000505 	0x05000505
     cf8:	008a0c02 	bstrins.d	$r2,$r0,0xa,0x3
     cfc:	0501061c 	0x0501061c
     d00:	0205000b 	slti	$r11,$r0,320(0x140)
     d04:	1c008a14 	pcaddu12i	$r20,1104(0x450)
     d08:	000b0516 	0x000b0516
     d0c:	8a180205 	0x8a180205
     d10:	19061c00 	pcaddi	$r0,-511776(0x830e0)
     d14:	05000905 	0x05000905
     d18:	008a1802 	bstrins.d	$r2,$r0,0xa,0x6
     d1c:	0501061c 	0x0501061c
     d20:	0205000c 	slti	$r12,$r0,320(0x140)
     d24:	1c008a1c 	pcaddu12i	$r28,1104(0x450)
     d28:	000f0501 	bytepick.d	$r1,$r8,$r1,0x6
     d2c:	8a200205 	0x8a200205
     d30:	05161c00 	0x05161c00
     d34:	0205000b 	slti	$r11,$r0,320(0x140)
     d38:	1c008a24 	pcaddu12i	$r4,1105(0x451)
     d3c:	05051a06 	0x05051a06
     d40:	24020500 	ldptr.w	$r0,$r8,516(0x204)
     d44:	061c008a 	cacop	0xa,$r4,1792(0x700)
     d48:	00010519 	0x00010519
     d4c:	8a280205 	0x8a280205
     d50:	28061c00 	ld.b	$r0,$r0,391(0x187)
     d54:	05002e05 	0x05002e05
     d58:	008a2802 	bstrins.d	$r2,$r0,0xa,0xa
     d5c:	05051b1c 	0x05051b1c
     d60:	28020500 	ld.b	$r0,$r8,129(0x81)
     d64:	181c008a 	pcaddi	$r10,57348(0xe004)
     d68:	05000505 	0x05000505
     d6c:	008a2802 	bstrins.d	$r2,$r0,0xa,0xa
     d70:	0505181c 	0x0505181c
     d74:	28020500 	ld.b	$r0,$r8,129(0x81)
     d78:	061c008a 	cacop	0xa,$r4,1792(0x700)
     d7c:	000b0501 	0x000b0501
     d80:	8a300205 	0x8a300205
     d84:	05161c00 	0x05161c00
     d88:	0205000b 	slti	$r11,$r0,320(0x140)
     d8c:	1c008a34 	pcaddu12i	$r20,1105(0x451)
     d90:	09051906 	0x09051906
     d94:	34020500 	0x34020500
     d98:	061c008a 	cacop	0xa,$r4,1792(0x700)
     d9c:	00140501 	nor	$r1,$r8,$r1
     da0:	8a380205 	0x8a380205
     da4:	05011c00 	0x05011c00
     da8:	02050011 	slti	$r17,$r0,320(0x140)
     dac:	1c008a3c 	pcaddu12i	$r28,1105(0x451)
     db0:	000c0501 	bytepick.d	$r1,$r8,$r1,0x0
     db4:	8a400205 	0x8a400205
     db8:	05011c00 	0x05011c00
     dbc:	0205000f 	slti	$r15,$r0,320(0x140)
     dc0:	1c008a44 	pcaddu12i	$r4,1106(0x452)
     dc4:	000b0516 	0x000b0516
     dc8:	8a480205 	0x8a480205
     dcc:	1a061c00 	pcalau12i	$r0,12512(0x30e0)
     dd0:	05000505 	0x05000505
     dd4:	008a4802 	bstrins.d	$r2,$r0,0xa,0x12
     dd8:	0519061c 	0x0519061c
     ddc:	02050001 	slti	$r1,$r0,320(0x140)
     de0:	1c008a4c 	pcaddu12i	$r12,1106(0x452)
     de4:	2f052306 	0x2f052306
     de8:	4c020500 	jirl	$r0,$r8,516(0x204)
     dec:	1b1c008a 	pcalau12i	$r10,-466940(0x8e004)
     df0:	05000505 	0x05000505
     df4:	008a4c02 	bstrins.d	$r2,$r0,0xa,0x13
     df8:	0505181c 	0x0505181c
     dfc:	4c020500 	jirl	$r0,$r8,516(0x204)
     e00:	181c008a 	pcaddi	$r10,57348(0xe004)
     e04:	05000505 	0x05000505
     e08:	008a4c02 	bstrins.d	$r2,$r0,0xa,0x13
     e0c:	0501061c 	0x0501061c
     e10:	02050008 	slti	$r8,$r0,320(0x140)
     e14:	1c008a50 	pcaddu12i	$r16,1106(0x452)
     e18:	01040200 	0x01040200
     e1c:	00140501 	nor	$r1,$r8,$r1
     e20:	8a540205 	0x8a540205
     e24:	05011c00 	0x05011c00
     e28:	0205000f 	slti	$r15,$r0,320(0x140)
     e2c:	1c008a58 	pcaddu12i	$r24,1106(0x452)
     e30:	00040200 	alsl.w	$r0,$r16,$r0,0x1
     e34:	09051806 	0x09051806
     e38:	58020500 	beq	$r8,$r0,516(0x204) # 103c <data_size+0x808>
     e3c:	061c008a 	cacop	0xa,$r4,1792(0x700)
     e40:	00130501 	maskeqz	$r1,$r8,$r1
     e44:	8a5c0205 	0x8a5c0205
     e48:	18061c00 	pcaddi	$r0,12512(0x30e0)
     e4c:	05000905 	0x05000905
     e50:	008a5c02 	bstrins.d	$r2,$r0,0xa,0x17
     e54:	0501061c 	0x0501061c
     e58:	0205000f 	slti	$r15,$r0,320(0x140)
     e5c:	1c008a60 	pcaddu12i	$r0,1107(0x453)
     e60:	0d051806 	0x0d051806
     e64:	60020500 	blt	$r8,$r0,516(0x204) # 1068 <data_size+0x834>
     e68:	061c008a 	cacop	0xa,$r4,1792(0x700)
     e6c:	00130501 	maskeqz	$r1,$r8,$r1
     e70:	8a640205 	0x8a640205
     e74:	05011c00 	0x05011c00
     e78:	02050015 	slti	$r21,$r0,320(0x140)
     e7c:	1c008a68 	pcaddu12i	$r8,1107(0x453)
     e80:	00130501 	maskeqz	$r1,$r8,$r1
     e84:	8a700205 	0x8a700205
     e88:	05161c00 	0x05161c00
     e8c:	0205000f 	slti	$r15,$r0,320(0x140)
     e90:	1c008a7c 	pcaddu12i	$r28,1107(0x453)
     e94:	000f051b 	bytepick.d	$r27,$r8,$r1,0x6
     e98:	8a840205 	0x8a840205
     e9c:	18061c00 	pcaddi	$r0,12512(0x30e0)
     ea0:	05000d05 	0x05000d05
     ea4:	008a8402 	bstrins.d	$r2,$r0,0xa,0x21
     ea8:	0501061c 	0x0501061c
     eac:	02050018 	slti	$r24,$r0,320(0x140)
     eb0:	1c008a88 	pcaddu12i	$r8,1108(0x454)
     eb4:	00150501 	or	$r1,$r8,$r1
     eb8:	8a8c0205 	0x8a8c0205
     ebc:	05011c00 	0x05011c00
     ec0:	02050010 	slti	$r16,$r0,320(0x140)
     ec4:	1c008a90 	pcaddu12i	$r16,1108(0x454)
     ec8:	00130501 	maskeqz	$r1,$r8,$r1
     ecc:	8a940205 	0x8a940205
     ed0:	05161c00 	0x05161c00
     ed4:	0205000f 	slti	$r15,$r0,320(0x140)
     ed8:	1c008a98 	pcaddu12i	$r24,1108(0x454)
     edc:	0001051d 	0x0001051d
     ee0:	8aa00205 	0x8aa00205
     ee4:	28061c00 	ld.b	$r0,$r0,391(0x187)
     ee8:	05003205 	0x05003205
     eec:	008aa002 	bstrins.d	$r2,$r0,0xa,0x28
     ef0:	0505181c 	0x0505181c
     ef4:	a0020500 	0xa0020500
     ef8:	181c008a 	pcaddi	$r10,57348(0xe004)
     efc:	05000505 	0x05000505
     f00:	008aa002 	bstrins.d	$r2,$r0,0xa,0x28
     f04:	0505181c 	0x0505181c
     f08:	a0020500 	0xa0020500
     f0c:	061c008a 	cacop	0xa,$r4,1792(0x700)
     f10:	000b0501 	0x000b0501
     f14:	8aa40205 	0x8aa40205
     f18:	18061c00 	pcaddi	$r0,12512(0x30e0)
     f1c:	05000905 	0x05000905
     f20:	008aa402 	bstrins.d	$r2,$r0,0xa,0x29
     f24:	0501061c 	0x0501061c
     f28:	0205000d 	slti	$r13,$r0,320(0x140)
     f2c:	1c008aa8 	pcaddu12i	$r8,1109(0x455)
     f30:	00140501 	nor	$r1,$r8,$r1
     f34:	8ab00205 	0x8ab00205
     f38:	05011c00 	0x05011c00
     f3c:	0205000c 	slti	$r12,$r0,320(0x140)
     f40:	1c008ab8 	pcaddu12i	$r24,1109(0x455)
     f44:	000d0501 	bytepick.d	$r1,$r8,$r1,0x2
     f48:	8abc0205 	0x8abc0205
     f4c:	05011c00 	0x05011c00
     f50:	02050014 	slti	$r20,$r0,320(0x140)
     f54:	1c008ac0 	pcaddu12i	$r0,1110(0x456)
     f58:	000c0501 	bytepick.d	$r1,$r8,$r1,0x0
     f5c:	8ac40205 	0x8ac40205
     f60:	01061c00 	0x01061c00
     f64:	05000905 	0x05000905
     f68:	008ac402 	bstrins.d	$r2,$r0,0xa,0x31
     f6c:	09051a1c 	0x09051a1c
     f70:	c4020500 	0xc4020500
     f74:	061c008a 	cacop	0xa,$r4,1792(0x700)
     f78:	000c0501 	bytepick.d	$r1,$r8,$r1,0x0
     f7c:	8ac80205 	0x8ac80205
     f80:	05011c00 	0x05011c00
     f84:	02050013 	slti	$r19,$r0,320(0x140)
     f88:	1c008acc 	pcaddu12i	$r12,1110(0x456)
     f8c:	000b0513 	0x000b0513
     f90:	8ad00205 	0x8ad00205
     f94:	051d1c00 	0x051d1c00
     f98:	0205000c 	slti	$r12,$r0,320(0x140)
     f9c:	1c008ad4 	pcaddu12i	$r20,1110(0x456)
     fa0:	00010518 	0x00010518
     fa4:	8ad80205 	0x8ad80205
     fa8:	12061c00 	addu16i.d	$r0,$r0,-32377(0x8187)
     fac:	05000d05 	0x05000d05
     fb0:	008ad802 	bstrins.d	$r2,$r0,0xa,0x36
     fb4:	0512061c 	0x0512061c
     fb8:	02050032 	slti	$r18,$r1,320(0x140)
     fbc:	1c008adc 	pcaddu12i	$r28,1110(0x456)
     fc0:	001a051c 	0x001a051c
     fc4:	8ae40205 	0x8ae40205
     fc8:	05011c00 	0x05011c00
     fcc:	0205002f 	slti	$r15,$r1,320(0x140)
     fd0:	1c008aec 	pcaddu12i	$r12,1111(0x457)
     fd4:	0001051c 	0x0001051c
     fd8:	8af00205 	0x8af00205
     fdc:	05121c00 	0x05121c00
     fe0:	02050014 	slti	$r20,$r0,320(0x140)
     fe4:	1c008af4 	pcaddu12i	$r20,1111(0x457)
     fe8:	0001051c 	0x0001051c
     fec:	8af80205 	0x8af80205
     ff0:	19061c00 	pcaddi	$r0,-511776(0x830e0)
     ff4:	05001e05 	0x05001e05
     ff8:	008af802 	bstrins.d	$r2,$r0,0xa,0x3e
     ffc:	0205181c 	slti	$r28,$r0,326(0x146)
    1000:	f8020500 	0xf8020500
    1004:	031c008a 	lu52i.d	$r10,$r4,1792(0x700)
    1008:	05017fa2 	0x05017fa2
    100c:	02050005 	slti	$r5,$r0,320(0x140)
    1010:	1c008af8 	pcaddu12i	$r24,1111(0x457)
    1014:	00050518 	alsl.w	$r24,$r8,$r1,0x3
    1018:	8af80205 	0x8af80205
    101c:	01061c00 	0x01061c00
    1020:	05000b05 	0x05000b05
    1024:	008b0002 	bstrins.d	$r2,$r0,0xb,0x0
    1028:	0518061c 	0x0518061c
    102c:	02050009 	slti	$r9,$r0,320(0x140)
    1030:	1c008b00 	pcaddu12i	$r0,1112(0x458)
    1034:	0c050106 	0x0c050106
    1038:	04020500 	csrxchg	$r0,$r8,0x81
    103c:	011c008b 	0x011c008b
    1040:	05000f05 	0x05000f05
    1044:	008b0802 	bstrins.d	$r2,$r0,0xb,0x2
    1048:	0b05161c 	0x0b05161c
    104c:	0c020500 	0x0c020500
    1050:	751c008b 	xvilvh.b	$xr11,$xr4,$xr0
    1054:	05000105 	0x05000105
    1058:	008b1002 	bstrins.d	$r2,$r0,0xb,0x4
    105c:	0101001c 	fadd.d	$f28,$f0,$f0
    1060:	000002e6 	0x000002e6
    1064:	00330004 	0x00330004
    1068:	01010000 	fadd.d	$f0,$f0,$f0
    106c:	0df2f601 	0x0df2f601
    1070:	01010100 	fadd.d	$f0,$f8,$f0
    1074:	00000001 	0x00000001
    1078:	01000001 	0x01000001
    107c:	692f2e2e 	bltu	$r17,$r14,77612(0x12f2c) # 13fa8 <data_size+0x13774>
    1080:	756c636e 	0x756c636e
    1084:	00006564 	rdtimeh.w	$r4,$r11
    1088:	656d6974 	bge	$r11,$r20,93544(0x16d68) # 17df0 <data_size+0x175bc>
    108c:	0000632e 	rdtimel.w	$r14,$r25
    1090:	69740000 	bltu	$r0,$r0,95232(0x17400) # 18490 <data_size+0x17c5c>
    1094:	682e656d 	bltu	$r11,$r13,11876(0x2e64) # 3ef8 <data_size+0x36c4>
    1098:	00000100 	0x00000100
    109c:	02050000 	slti	$r0,$r0,320(0x140)
    10a0:	1c008b10 	pcaddu12i	$r16,1112(0x458)
    10a4:	00010528 	0x00010528
    10a8:	8b100205 	0x8b100205
    10ac:	05181c00 	0x05181c00
    10b0:	02050005 	slti	$r5,$r0,320(0x140)
    10b4:	1c008b10 	pcaddu12i	$r16,1112(0x458)
    10b8:	05017303 	0x05017303
    10bc:	02050005 	slti	$r5,$r0,320(0x140)
    10c0:	1c008b10 	pcaddu12i	$r16,1112(0x458)
    10c4:	00050518 	alsl.w	$r24,$r8,$r1,0x3
    10c8:	8b100205 	0x8b100205
    10cc:	22061c00 	ll.d	$r0,$r0,1564(0x61c)
    10d0:	05000105 	0x05000105
    10d4:	008b1802 	bstrins.d	$r2,$r0,0xb,0x6
    10d8:	0175031c 	0x0175031c
    10dc:	05000505 	0x05000505
    10e0:	008b2002 	bstrins.d	$r2,$r0,0xb,0x8
    10e4:	051e061c 	0x051e061c
    10e8:	02050005 	slti	$r5,$r0,320(0x140)
    10ec:	1c008b20 	pcaddu12i	$r0,1113(0x459)
    10f0:	01051d06 	fmul.d	$f6,$f8,$f7
    10f4:	30020500 	0x30020500
    10f8:	061c008b 	cacop	0xb,$r4,1792(0x700)
    10fc:	0001051a 	0x0001051a
    1100:	8b300205 	0x8b300205
    1104:	05181c00 	0x05181c00
    1108:	02050005 	slti	$r5,$r0,320(0x140)
    110c:	1c008b30 	pcaddu12i	$r16,1113(0x459)
    1110:	00050518 	alsl.w	$r24,$r8,$r1,0x3
    1114:	8b340205 	0x8b340205
    1118:	051b1c00 	0x051b1c00
    111c:	02050005 	slti	$r5,$r0,320(0x140)
    1120:	1c008b34 	pcaddu12i	$r20,1113(0x459)
    1124:	01051806 	fmul.d	$f6,$f0,$f6
    1128:	38020500 	0x38020500
    112c:	061c008b 	cacop	0xb,$r4,1792(0x700)
    1130:	0001051a 	0x0001051a
    1134:	8b380205 	0x8b380205
    1138:	05181c00 	0x05181c00
    113c:	02050005 	slti	$r5,$r0,320(0x140)
    1140:	1c008b38 	pcaddu12i	$r24,1113(0x459)
    1144:	00050518 	alsl.w	$r24,$r8,$r1,0x3
    1148:	8b380205 	0x8b380205
    114c:	63031c00 	blt	$r0,$r0,-64740(0x3031c) # ffff1468 <_stack+0xe3fd806c>
    1150:	00050501 	alsl.w	$r1,$r8,$r1,0x3
    1154:	8b380205 	0x8b380205
    1158:	05181c00 	0x05181c00
    115c:	02050005 	slti	$r5,$r0,320(0x140)
    1160:	1c008b38 	pcaddu12i	$r24,1113(0x459)
    1164:	01053106 	fmul.d	$f6,$f8,$f12
    1168:	40020500 	beqz	$r8,516(0x204) # 136c <data_size+0xb38>
    116c:	031c008b 	lu52i.d	$r11,$r4,1792(0x700)
    1170:	05050166 	0x05050166
    1174:	48020500 	bcnez	$fcc0,516(0x204) # 1378 <data_size+0xb44>
    1178:	061c008b 	cacop	0xb,$r4,1792(0x700)
    117c:	0005051e 	alsl.w	$r30,$r8,$r1,0x3
    1180:	8b480205 	0x8b480205
    1184:	052d1c00 	0x052d1c00
    1188:	02050005 	slti	$r5,$r0,320(0x140)
    118c:	1c008b48 	pcaddu12i	$r8,1114(0x45a)
    1190:	15050106 	lu12i.w	$r6,-514040(0x82808)
    1194:	50020500 	b	67109380(0x4000204) # 4001398 <data_size+0x4000b64>
    1198:	181c008b 	pcaddi	$r11,57348(0xe004)
    119c:	05001605 	0x05001605
    11a0:	008b5402 	bstrins.d	$r2,$r0,0xb,0x15
    11a4:	3605161c 	0x3605161c
    11a8:	58020500 	beq	$r8,$r0,516(0x204) # 13ac <data_size+0xb78>
    11ac:	181c008b 	pcaddi	$r11,57348(0xe004)
    11b0:	05001605 	0x05001605
    11b4:	008b6402 	bstrins.d	$r2,$r0,0xb,0x19
    11b8:	2805011c 	ld.b	$r28,$r8,320(0x140)
    11bc:	70020500 	vsle.b	$vr0,$vr8,$vr1
    11c0:	181c008b 	pcaddi	$r11,57348(0xe004)
    11c4:	05002705 	0x05002705
    11c8:	008b8402 	bstrins.d	$r2,$r0,0xb,0x21
    11cc:	3605011c 	0x3605011c
    11d0:	90020500 	0x90020500
    11d4:	161c008b 	lu32i.d	$r11,57348(0xe004)
    11d8:	05001205 	0x05001205
    11dc:	008b9402 	bstrins.d	$r2,$r0,0xb,0x25
    11e0:	1205181c 	addu16i.d	$r28,$r0,-32442(0x8146)
    11e4:	98020500 	0x98020500
    11e8:	181c008b 	pcaddi	$r11,57348(0xe004)
    11ec:	05001205 	0x05001205
    11f0:	008b9c02 	bstrins.d	$r2,$r0,0xb,0x27
    11f4:	01051a1c 	fmul.d	$f28,$f16,$f6
    11f8:	a4020500 	0xa4020500
    11fc:	111c008b 	addu16i.d	$r11,$r4,18176(0x4700)
    1200:	05003605 	0x05003605
    1204:	008bb002 	bstrins.d	$r2,$r0,0xb,0x2c
    1208:	1205011c 	addu16i.d	$r28,$r8,-32448(0x8140)
    120c:	b4020500 	0xb4020500
    1210:	061c008b 	cacop	0xb,$r4,1792(0x700)
    1214:	00050518 	alsl.w	$r24,$r8,$r1,0x3
    1218:	8bb40205 	0x8bb40205
    121c:	05181c00 	0x05181c00
    1220:	02050005 	slti	$r5,$r0,320(0x140)
    1224:	1c008bb4 	pcaddu12i	$r20,1117(0x45d)
    1228:	00050518 	alsl.w	$r24,$r8,$r1,0x3
    122c:	8bb40205 	0x8bb40205
    1230:	05191c00 	0x05191c00
    1234:	02050005 	slti	$r5,$r0,320(0x140)
    1238:	1c008bb4 	pcaddu12i	$r20,1117(0x45d)
    123c:	01051806 	fmul.d	$f6,$f0,$f6
    1240:	c0020500 	0xc0020500
    1244:	061c008b 	cacop	0xb,$r4,1792(0x700)
    1248:	00010521 	0x00010521
    124c:	8bc00205 	0x8bc00205
    1250:	05181c00 	0x05181c00
    1254:	02050005 	slti	$r5,$r0,320(0x140)
    1258:	1c008bc0 	pcaddu12i	$r0,1118(0x45e)
    125c:	00050518 	alsl.w	$r24,$r8,$r1,0x3
    1260:	8bc00205 	0x8bc00205
    1264:	50031c00 	b	796(0x31c) # 1580 <data_size+0xd4c>
    1268:	00050501 	alsl.w	$r1,$r8,$r1,0x3
    126c:	8bc00205 	0x8bc00205
    1270:	05181c00 	0x05181c00
    1274:	02050005 	slti	$r5,$r0,320(0x140)
    1278:	1c008bc0 	pcaddu12i	$r0,1118(0x45e)
    127c:	01054406 	fmul.d	$f6,$f0,$f17
    1280:	c8020500 	0xc8020500
    1284:	031c008b 	lu52i.d	$r11,$r4,1792(0x700)
    1288:	05050153 	0x05050153
    128c:	d0020500 	0xd0020500
    1290:	061c008b 	cacop	0xb,$r4,1792(0x700)
    1294:	0005051e 	alsl.w	$r30,$r8,$r1,0x3
    1298:	8bd00205 	0x8bd00205
    129c:	05401c00 	0x05401c00
    12a0:	02050005 	slti	$r5,$r0,320(0x140)
    12a4:	1c008bd0 	pcaddu12i	$r16,1118(0x45e)
    12a8:	00050518 	alsl.w	$r24,$r8,$r1,0x3
    12ac:	8bd00205 	0x8bd00205
    12b0:	16061c00 	lu32i.d	$r0,12512(0x30e0)
    12b4:	05000605 	0x05000605
    12b8:	008bd402 	bstrins.d	$r2,$r0,0xb,0x35
    12bc:	0105191c 	fmul.d	$f28,$f8,$f6
    12c0:	e4020500 	0xe4020500
    12c4:	061c008b 	cacop	0xb,$r4,1792(0x700)
    12c8:	0001051b 	0x0001051b
    12cc:	8be40205 	0x8be40205
    12d0:	05181c00 	0x05181c00
    12d4:	02050005 	slti	$r5,$r0,320(0x140)
    12d8:	1c008be4 	pcaddu12i	$r4,1119(0x45f)
    12dc:	00050518 	alsl.w	$r24,$r8,$r1,0x3
    12e0:	8be40205 	0x8be40205
    12e4:	47031c00 	bnez	$r0,197404(0x3031c) # 31600 <data_size+0x30dcc>
    12e8:	00050501 	alsl.w	$r1,$r8,$r1,0x3
    12ec:	8be40205 	0x8be40205
    12f0:	05181c00 	0x05181c00
    12f4:	02050005 	slti	$r5,$r0,320(0x140)
    12f8:	1c008be4 	pcaddu12i	$r4,1119(0x45f)
    12fc:	01054d06 	fmul.d	$f6,$f8,$f19
    1300:	ec020500 	0xec020500
    1304:	031c008b 	lu52i.d	$r11,$r4,1792(0x700)
    1308:	0505014a 	0x0505014a
    130c:	f4020500 	0xf4020500
    1310:	061c008b 	cacop	0xb,$r4,1792(0x700)
    1314:	0005051e 	alsl.w	$r30,$r8,$r1,0x3
    1318:	8bf40205 	0x8bf40205
    131c:	05491c00 	0x05491c00
    1320:	02050005 	slti	$r5,$r0,320(0x140)
    1324:	1c008bf4 	pcaddu12i	$r20,1119(0x45f)
    1328:	00050518 	alsl.w	$r24,$r8,$r1,0x3
    132c:	8bf40205 	0x8bf40205
    1330:	16061c00 	lu32i.d	$r0,12512(0x30e0)
    1334:	05000605 	0x05000605
    1338:	008bf802 	bstrins.d	$r2,$r0,0xb,0x3e
    133c:	0105191c 	fmul.d	$f28,$f8,$f6
    1340:	14020500 	lu12i.w	$r0,4136(0x1028)
    1344:	001c008c 	mul.w	$r12,$r4,$r0
    1348:	Address 0x0000000000001348 is out of bounds.


Disassembly of section .debug_str:

00000000 <.debug_str>:
   0:	63747570 	blt	$r11,$r16,-35724(0x37474) # ffff7474 <_stack+0xe3fde078>
   4:	00726168 	bstrins.w	$r8,$r11,0x12,0x18
   8:	73747570 	0x73747570
   c:	6e697274 	bgeu	$r19,$r20,-104080(0x26970) # fffe697c <_stack+0xe3fcd580>
  10:	72700067 	0x72700067
  14:	62746e69 	blt	$r19,$r9,-101268(0x2746c) # fffe7480 <_stack+0xe3fce084>
  18:	00657361 	bstrins.w	$r1,$r27,0x5,0x1c
  1c:	5f746774 	bne	$r27,$r20,-35740(0x37464) # ffff7480 <_stack+0xe3fde084>
  20:	63747570 	blt	$r11,$r16,-35724(0x37474) # ffff7494 <_stack+0xe3fde098>
  24:	00726168 	bstrins.w	$r8,$r11,0x12,0x18
  28:	63747570 	blt	$r11,$r16,-35724(0x37474) # ffff749c <_stack+0xe3fde0a0>
  2c:	00726168 	bstrins.w	$r8,$r11,0x12,0x18
  30:	63747570 	blt	$r11,$r16,-35724(0x37474) # ffff74a4 <_stack+0xe3fde0a8>
  34:	00726168 	bstrins.w	$r8,$r11,0x12,0x18
