
obj/sha/main.elf:     file format elf32-loongarch
obj/sha/main.elf


Disassembly of section .text:

1c000000 <_ftext>:
_ftext():
1c000000:	157f5f19 	lu12i.w	$r25,-263432(0xbfaf8)
1c000004:	03bff339 	ori	$r25,$r25,0xffc
1c000008:	29800320 	st.w	$r0,$r25,0
1c00000c:	157f5ff9 	lu12i.w	$r25,-263425(0xbfaff)
1c000010:	03bcc339 	ori	$r25,$r25,0xf30
1c000014:	29800320 	st.w	$r0,$r25,0
1c000018:	157f5f19 	lu12i.w	$r25,-263432(0xbfaf8)
1c00001c:	03bff339 	ori	$r25,$r25,0xffc
1c000020:	29800320 	st.w	$r0,$r25,0
1c000024:	157f5f19 	lu12i.w	$r25,-263432(0xbfaf8)
1c000028:	03bff339 	ori	$r25,$r25,0xffc
1c00002c:	29800320 	st.w	$r0,$r25,0
1c000030:	157f5ff9 	lu12i.w	$r25,-263425(0xbfaff)
1c000034:	03bd0339 	ori	$r25,$r25,0xf40
1c000038:	29800320 	st.w	$r0,$r25,0
1c00003c:	157f5f19 	lu12i.w	$r25,-263432(0xbfaf8)
1c000040:	03bff339 	ori	$r25,$r25,0xffc
1c000044:	29800320 	st.w	$r0,$r25,0
1c000048:	04060020 	csrwr	$r0,0x180
1c00004c:	04060420 	csrwr	$r0,0x181
1c000050:	0380640c 	ori	$r12,$r0,0x19
1c000054:	0406002c 	csrwr	$r12,0x180
1c000058:	1540000c 	lu12i.w	$r12,-393216(0xa0000)
1c00005c:	0380258c 	ori	$r12,$r12,0x9
1c000060:	0406042c 	csrwr	$r12,0x181
1c000064:	0380400c 	ori	$r12,$r0,0x10
1c000068:	0380600d 	ori	$r13,$r0,0x18
1c00006c:	040001ac 	csrxchg	$r12,$r13,0x0
1c000070:	1438000c 	lu12i.w	$r12,114688(0x1c000)
1c000074:	038e018c 	ori	$r12,$r12,0x380
1c000078:	0400302c 	csrwr	$r12,0xc
1c00007c:	1c000083 	pcaddu12i	$r3,4(0x4)
1c000080:	28bcd063 	ld.w	$r3,$r3,-204(0xf34)
1c000084:	50030800 	b	776(0x308) # 1c00038c <run_test>
	...

1c000100 <test_finish>:
test_finish():
1c000100:	0280058c 	addi.w	$r12,$r12,1(0x1)
1c000104:	157f5fee 	lu12i.w	$r14,-263425(0xbfaff)
1c000108:	03bc41ce 	ori	$r14,$r14,0xf10
1c00010c:	298001c0 	st.w	$r0,$r14,0
1c000110:	157f5fec 	lu12i.w	$r12,-263425(0xbfaff)
1c000114:	0381818c 	ori	$r12,$r12,0x60
1c000118:	2880018c 	ld.w	$r12,$r12,0
1c00011c:	0342018c 	andi	$r12,$r12,0x80
1c000120:	5800180c 	beq	$r0,$r12,24(0x18) # 1c000138 <test_finish+0x38>
1c000124:	03400000 	andi	$r0,$r0,0x0
1c000128:	157f5f0c 	lu12i.w	$r12,-263432(0xbfaf8)
1c00012c:	2880018d 	ld.w	$r13,$r12,0
1c000130:	50001400 	b	20(0x14) # 1c000144 <test_finish+0x44>
1c000134:	03400000 	andi	$r0,$r0,0x0
1c000138:	157f5f0c 	lu12i.w	$r12,-263432(0xbfaf8)
1c00013c:	0380418c 	ori	$r12,$r12,0x10
1c000140:	2880018d 	ld.w	$r13,$r12,0
1c000144:	157f5fec 	lu12i.w	$r12,-263425(0xbfaff)
1c000148:	0381418c 	ori	$r12,$r12,0x50
1c00014c:	2980018d 	st.w	$r13,$r12,0
1c000150:	53ffc3ff 	b	-64(0xfffffc0) # 1c000110 <test_finish+0x10>
1c000154:	03400000 	andi	$r0,$r0,0x0
1c000158:	1500000c 	lu12i.w	$r12,-524288(0x80000)
1c00015c:	028005ad 	addi.w	$r13,$r13,1(0x1)
1c000160:	0015018e 	move	$r14,$r12
1c000164:	00104a2f 	add.w	$r15,$r17,$r18
1c000168:	28800190 	ld.w	$r16,$r12,0
	...
1c000380:	0280058c 	addi.w	$r12,$r12,1(0x1)
1c000384:	53ffffff 	b	-4(0xffffffc) # 1c000380 <test_finish+0x280>
1c000388:	03400000 	andi	$r0,$r0,0x0

1c00038c <run_test>:
run_test():
1c00038c:	54001400 	bl	20(0x14) # 1c0003a0 <shell8>
1c000390:	03400000 	andi	$r0,$r0,0x0

1c000394 <go_finish>:
go_finish():
1c000394:	53fd6fff 	b	-660(0xffffd6c) # 1c000100 <test_finish>
	...

1c0003a0 <shell8>:
shell8():
1c0003a0:	02bf8063 	addi.w	$r3,$r3,-32(0xfe0)
1c0003a4:	29807061 	st.w	$r1,$r3,28(0x1c)
1c0003a8:	157f5fcc 	lu12i.w	$r12,-263426(0xbfafe)
1c0003ac:	2980307a 	st.w	$r26,$r3,12(0xc)
1c0003b0:	2980207b 	st.w	$r27,$r3,8(0x8)
1c0003b4:	29806077 	st.w	$r23,$r3,24(0x18)
1c0003b8:	29805078 	st.w	$r24,$r3,20(0x14)
1c0003bc:	29804079 	st.w	$r25,$r3,16(0x10)
1c0003c0:	29800180 	st.w	$r0,$r12,0
1c0003c4:	1c000064 	pcaddu12i	$r4,3(0x3)
1c0003c8:	02875084 	addi.w	$r4,$r4,468(0x1d4)
1c0003cc:	542d4400 	bl	11588(0x2d44) # 1c003110 <puts>
1c0003d0:	5430c400 	bl	12484(0x30c4) # 1c003494 <get_count>
1c0003d4:	0015009a 	move	$r26,$r4
1c0003d8:	5430dc00 	bl	12508(0x30dc) # 1c0034b4 <get_count_my>
1c0003dc:	0015009b 	move	$r27,$r4
1c0003e0:	157f5fe4 	lu12i.w	$r4,-263425(0xbfaff)
1c0003e4:	03bc8085 	ori	$r5,$r4,0xf20
1c0003e8:	288000a6 	ld.w	$r6,$r5,0
1c0003ec:	5c0104c0 	bne	$r6,$r0,260(0x104) # 1c0004f0 <shell8+0x150>
1c0003f0:	02802817 	addi.w	$r23,$r0,10(0xa)
1c0003f4:	00150018 	move	$r24,$r0
1c0003f8:	1c000079 	pcaddu12i	$r25,3(0x3)
1c0003fc:	0286c339 	addi.w	$r25,$r25,432(0x1b0)
1c000400:	00150324 	move	$r4,$r25
1c000404:	54011c00 	bl	284(0x11c) # 1c000520 <sha_driver>
1c000408:	02bffef7 	addi.w	$r23,$r23,-1(0xfff)
1c00040c:	00101318 	add.w	$r24,$r24,$r4
1c000410:	5ffff2e0 	bne	$r23,$r0,-16(0x3fff0) # 1c000400 <shell8+0x60>
1c000414:	5430a000 	bl	12448(0x30a0) # 1c0034b4 <get_count_my>
1c000418:	00150099 	move	$r25,$r4
1c00041c:	54307800 	bl	12408(0x3078) # 1c003494 <get_count>
1c000420:	0011689a 	sub.w	$r26,$r4,$r26
1c000424:	00116f3b 	sub.w	$r27,$r25,$r27
1c000428:	58008f00 	beq	$r24,$r0,140(0x8c) # 1c0004b4 <shell8+0x114>
1c00042c:	1c000084 	pcaddu12i	$r4,4(0x4)
1c000430:	02a63084 	addi.w	$r4,$r4,-1652(0x98c)
1c000434:	542cdc00 	bl	11484(0x2cdc) # 1c003110 <puts>
1c000438:	157f5fe7 	lu12i.w	$r7,-263425(0xbfaff)
1c00043c:	038100ee 	ori	$r14,$r7,0x40
1c000440:	0280040f 	addi.w	$r15,$r0,1(0x1)
1c000444:	298001cf 	st.w	$r15,$r14,0
1c000448:	0380c0ed 	ori	$r13,$r7,0x30
1c00044c:	02800809 	addi.w	$r9,$r0,2(0x2)
1c000450:	038080e8 	ori	$r8,$r7,0x20
1c000454:	298001a9 	st.w	$r9,$r13,0
1c000458:	29800100 	st.w	$r0,$r8,0
1c00045c:	157f5fe1 	lu12i.w	$r1,-263425(0xbfaff)
1c000460:	0381402c 	ori	$r12,$r1,0x50
1c000464:	2980019b 	st.w	$r27,$r12,0
1c000468:	157f5f04 	lu12i.w	$r4,-263432(0xbfaf8)
1c00046c:	2980009b 	st.w	$r27,$r4,0
1c000470:	03804085 	ori	$r5,$r4,0x10
1c000474:	298000ba 	st.w	$r26,$r5,0
1c000478:	1c000084 	pcaddu12i	$r4,4(0x4)
1c00047c:	02a54084 	addi.w	$r4,$r4,-1712(0x950)
1c000480:	00150345 	move	$r5,$r26
1c000484:	5429a000 	bl	10656(0x29a0) # 1c002e24 <printf>
1c000488:	28807061 	ld.w	$r1,$r3,28(0x1c)
1c00048c:	28806077 	ld.w	$r23,$r3,24(0x18)
1c000490:	28805078 	ld.w	$r24,$r3,20(0x14)
1c000494:	28804079 	ld.w	$r25,$r3,16(0x10)
1c000498:	2880307a 	ld.w	$r26,$r3,12(0xc)
1c00049c:	00150365 	move	$r5,$r27
1c0004a0:	2880207b 	ld.w	$r27,$r3,8(0x8)
1c0004a4:	1c000084 	pcaddu12i	$r4,4(0x4)
1c0004a8:	02a52084 	addi.w	$r4,$r4,-1720(0x948)
1c0004ac:	02808063 	addi.w	$r3,$r3,32(0x20)
1c0004b0:	50297400 	b	10612(0x2974) # 1c002e24 <printf>
1c0004b4:	1c000084 	pcaddu12i	$r4,4(0x4)
1c0004b8:	02a3e084 	addi.w	$r4,$r4,-1800(0x8f8)
1c0004bc:	542c5400 	bl	11348(0x2c54) # 1c003110 <puts>
1c0004c0:	157f5fea 	lu12i.w	$r10,-263425(0xbfaff)
1c0004c4:	0280040b 	addi.w	$r11,$r0,1(0x1)
1c0004c8:	03810150 	ori	$r16,$r10,0x40
1c0004cc:	2980020b 	st.w	$r11,$r16,0
1c0004d0:	0380c151 	ori	$r17,$r10,0x30
1c0004d4:	140001f3 	lu12i.w	$r19,15(0xf)
1c0004d8:	03808152 	ori	$r18,$r10,0x20
1c0004dc:	2980022b 	st.w	$r11,$r17,0
1c0004e0:	03bffe74 	ori	$r20,$r19,0xfff
1c0004e4:	29800254 	st.w	$r20,$r18,0
1c0004e8:	53ff77ff 	b	-140(0xfffff74) # 1c00045c <shell8+0xbc>
1c0004ec:	03400000 	andi	$r0,$r0,0x0
1c0004f0:	1c000064 	pcaddu12i	$r4,3(0x3)
1c0004f4:	0282e084 	addi.w	$r4,$r4,184(0xb8)
1c0004f8:	54002800 	bl	40(0x28) # 1c000520 <sha_driver>
1c0004fc:	00150098 	move	$r24,$r4
1c000500:	542fb400 	bl	12212(0x2fb4) # 1c0034b4 <get_count_my>
1c000504:	00150099 	move	$r25,$r4
1c000508:	542f8c00 	bl	12172(0x2f8c) # 1c003494 <get_count>
1c00050c:	0011689a 	sub.w	$r26,$r4,$r26
1c000510:	00116f3b 	sub.w	$r27,$r25,$r27
1c000514:	5fff1b00 	bne	$r24,$r0,-232(0x3ff18) # 1c00042c <shell8+0x8c>
1c000518:	53ff9fff 	b	-100(0xfffff9c) # 1c0004b4 <shell8+0x114>
1c00051c:	03400000 	andi	$r0,$r0,0x0

1c000520 <sha_driver>:
sha_driver():
1c000520:	02bdc063 	addi.w	$r3,$r3,-144(0xf70)
1c000524:	29823061 	st.w	$r1,$r3,140(0x8c)
1c000528:	29822077 	st.w	$r23,$r3,136(0x88)
1c00052c:	29821078 	st.w	$r24,$r3,132(0x84)
1c000530:	2981f07a 	st.w	$r26,$r3,124(0x7c)
1c000534:	2981e07b 	st.w	$r27,$r3,120(0x78)
1c000538:	29820079 	st.w	$r25,$r3,128(0x80)
1c00053c:	5426a400 	bl	9892(0x26a4) # 1c002be0 <fopen>
1c000540:	00150085 	move	$r5,$r4
1c000544:	00150097 	move	$r23,$r4
1c000548:	02805064 	addi.w	$r4,$r3,20(0x14)
1c00054c:	540c6400 	bl	3172(0xc64) # 1c0011b0 <sha_stream>
1c000550:	02805064 	addi.w	$r4,$r3,20(0x14)
1c000554:	54266c00 	bl	9836(0x266c) # 1c002bc0 <sha_print>
1c000558:	1434230c 	lu12i.w	$r12,106776(0x1a118)
1c00055c:	14f53906 	lu12i.w	$r6,502216(0x7a9c8)
1c000560:	15643f28 	lu12i.w	$r8,-318983(0xb21f9)
1c000564:	15be328a 	lu12i.w	$r10,-134764(0xdf194)
1c000568:	14f7d8ed 	lu12i.w	$r13,507591(0x7bec7)
1c00056c:	001502e4 	move	$r4,$r23
1c000570:	03b86185 	ori	$r5,$r12,0xe18
1c000574:	038c2cc7 	ori	$r7,$r6,0x30b
1c000578:	039bc509 	ori	$r9,$r8,0x6f1
1c00057c:	03acfd4b 	ori	$r11,$r10,0xb3f
1c000580:	03ba5dae 	ori	$r14,$r13,0xe97
1c000584:	29800065 	st.w	$r5,$r3,0
1c000588:	29801067 	st.w	$r7,$r3,4(0x4)
1c00058c:	29802069 	st.w	$r9,$r3,8(0x8)
1c000590:	2980306b 	st.w	$r11,$r3,12(0xc)
1c000594:	2980406e 	st.w	$r14,$r3,16(0x10)
1c000598:	02805077 	addi.w	$r23,$r3,20(0x14)
1c00059c:	54276400 	bl	10084(0x2764) # 1c002d00 <fclose>
1c0005a0:	00150078 	move	$r24,$r3
1c0005a4:	0280a07b 	addi.w	$r27,$r3,40(0x28)
1c0005a8:	1c00009a 	pcaddu12i	$r26,4(0x4)
1c0005ac:	02a1a35a 	addi.w	$r26,$r26,-1944(0x868)
1c0005b0:	28800319 	ld.w	$r25,$r24,0
1c0005b4:	288002e5 	ld.w	$r5,$r23,0
1c0005b8:	00150344 	move	$r4,$r26
1c0005bc:	00150326 	move	$r6,$r25
1c0005c0:	54286400 	bl	10340(0x2864) # 1c002e24 <printf>
1c0005c4:	288002e4 	ld.w	$r4,$r23,0
1c0005c8:	02801318 	addi.w	$r24,$r24,4(0x4)
1c0005cc:	028012f7 	addi.w	$r23,$r23,4(0x4)
1c0005d0:	5c003324 	bne	$r25,$r4,48(0x30) # 1c000600 <sha_driver+0xe0>
1c0005d4:	5fffdefb 	bne	$r23,$r27,-36(0x3ffdc) # 1c0005b0 <sha_driver+0x90>
1c0005d8:	28823061 	ld.w	$r1,$r3,140(0x8c)
1c0005dc:	28822077 	ld.w	$r23,$r3,136(0x88)
1c0005e0:	28821078 	ld.w	$r24,$r3,132(0x84)
1c0005e4:	28820079 	ld.w	$r25,$r3,128(0x80)
1c0005e8:	2881f07a 	ld.w	$r26,$r3,124(0x7c)
1c0005ec:	2881e07b 	ld.w	$r27,$r3,120(0x78)
1c0005f0:	00150004 	move	$r4,$r0
1c0005f4:	02824063 	addi.w	$r3,$r3,144(0x90)
1c0005f8:	4c000020 	jirl	$r0,$r1,0
1c0005fc:	03400000 	andi	$r0,$r0,0x0
1c000600:	28823061 	ld.w	$r1,$r3,140(0x8c)
1c000604:	28822077 	ld.w	$r23,$r3,136(0x88)
1c000608:	28821078 	ld.w	$r24,$r3,132(0x84)
1c00060c:	28820079 	ld.w	$r25,$r3,128(0x80)
1c000610:	2881f07a 	ld.w	$r26,$r3,124(0x7c)
1c000614:	2881e07b 	ld.w	$r27,$r3,120(0x78)
1c000618:	02800404 	addi.w	$r4,$r0,1(0x1)
1c00061c:	02824063 	addi.w	$r3,$r3,144(0x90)
1c000620:	4c000020 	jirl	$r0,$r1,0
1c000624:	03400000 	andi	$r0,$r0,0x0
1c000628:	03400000 	andi	$r0,$r0,0x0
1c00062c:	03400000 	andi	$r0,$r0,0x0

1c000630 <sha_transform>:
sha_transform():
1c000630:	02ba8063 	addi.w	$r3,$r3,-352(0xea0)
1c000634:	29856077 	st.w	$r23,$r3,344(0x158)
1c000638:	02807085 	addi.w	$r5,$r4,28(0x1c)
1c00063c:	00150097 	move	$r23,$r4
1c000640:	02810006 	addi.w	$r6,$r0,64(0x40)
1c000644:	00150064 	move	$r4,$r3
1c000648:	29854079 	st.w	$r25,$r3,336(0x150)
1c00064c:	2985307a 	st.w	$r26,$r3,332(0x14c)
1c000650:	29857061 	st.w	$r1,$r3,348(0x15c)
1c000654:	29855078 	st.w	$r24,$r3,340(0x154)
1c000658:	2985207b 	st.w	$r27,$r3,328(0x148)
1c00065c:	542d5000 	bl	11600(0x2d50) # 1c0033ac <memcpy>
1c000660:	2880d06d 	ld.w	$r13,$r3,52(0x34)
1c000664:	2880e079 	ld.w	$r25,$r3,56(0x38)
1c000668:	2880f07a 	ld.w	$r26,$r3,60(0x3c)
1c00066c:	28802072 	ld.w	$r18,$r3,8(0x8)
1c000670:	28803071 	ld.w	$r17,$r3,12(0xc)
1c000674:	28804070 	ld.w	$r16,$r3,16(0x10)
1c000678:	28805069 	ld.w	$r9,$r3,20(0x14)
1c00067c:	28806067 	ld.w	$r7,$r3,24(0x18)
1c000680:	28807068 	ld.w	$r8,$r3,28(0x1c)
1c000684:	0015006c 	move	$r12,$r3
1c000688:	02804014 	addi.w	$r20,$r0,16(0x10)
1c00068c:	02813c04 	addi.w	$r4,$r0,79(0x4f)
1c000690:	28808186 	ld.w	$r6,$r12,32(0x20)
1c000694:	28809193 	ld.w	$r19,$r12,36(0x24)
1c000698:	2880018a 	ld.w	$r10,$r12,0
1c00069c:	2880118f 	ld.w	$r15,$r12,4(0x4)
1c0006a0:	2880a185 	ld.w	$r5,$r12,40(0x28)
1c0006a4:	2880218e 	ld.w	$r14,$r12,8(0x8)
1c0006a8:	0015c9b2 	xor	$r18,$r13,$r18
1c0006ac:	0015e631 	xor	$r17,$r17,$r25
1c0006b0:	0015c34d 	xor	$r13,$r26,$r16
1c0006b4:	00159a41 	xor	$r1,$r18,$r6
1c0006b8:	0015ce30 	xor	$r16,$r17,$r19
1c0006bc:	0015a83b 	xor	$r27,$r1,$r10
1c0006c0:	001595ab 	xor	$r11,$r13,$r5
1c0006c4:	0015be0a 	xor	$r10,$r16,$r15
1c0006c8:	2880b192 	ld.w	$r18,$r12,44(0x2c)
1c0006cc:	2880c191 	ld.w	$r17,$r12,48(0x30)
1c0006d0:	2880d190 	ld.w	$r16,$r12,52(0x34)
1c0006d4:	0015b96f 	xor	$r15,$r11,$r14
1c0006d8:	2880319a 	ld.w	$r26,$r12,12(0xc)
1c0006dc:	28804199 	ld.w	$r25,$r12,16(0x10)
1c0006e0:	28805198 	ld.w	$r24,$r12,20(0x14)
1c0006e4:	0015a769 	xor	$r9,$r27,$r9
1c0006e8:	0015a8e7 	xor	$r7,$r7,$r10
1c0006ec:	0015a1e8 	xor	$r8,$r15,$r8
1c0006f0:	0015c921 	xor	$r1,$r9,$r18
1c0006f4:	0015c4ee 	xor	$r14,$r7,$r17
1c0006f8:	0015c10d 	xor	$r13,$r8,$r16
1c0006fc:	2880e189 	ld.w	$r9,$r12,56(0x38)
1c000700:	2880f187 	ld.w	$r7,$r12,60(0x3c)
1c000704:	0015e5d9 	xor	$r25,$r14,$r25
1c000708:	2981019b 	st.w	$r27,$r12,64(0x40)
1c00070c:	2981118a 	st.w	$r10,$r12,68(0x44)
1c000710:	0015e82a 	xor	$r10,$r1,$r26
1c000714:	0015e1a1 	xor	$r1,$r13,$r24
1c000718:	2880619a 	ld.w	$r26,$r12,24(0x18)
1c00071c:	28807198 	ld.w	$r24,$r12,28(0x1c)
1c000720:	001500cb 	move	$r11,$r6
1c000724:	00150368 	move	$r8,$r27
1c000728:	0015e673 	xor	$r19,$r19,$r25
1c00072c:	00159946 	xor	$r6,$r10,$r6
1c000730:	00159425 	xor	$r5,$r1,$r5
1c000734:	2981218f 	st.w	$r15,$r12,72(0x48)
1c000738:	0015a4db 	xor	$r27,$r6,$r9
1c00073c:	00159e6f 	xor	$r15,$r19,$r7
1c000740:	0015a0ae 	xor	$r14,$r5,$r8
1c000744:	2981318a 	st.w	$r10,$r12,76(0x4c)
1c000748:	29814199 	st.w	$r25,$r12,80(0x50)
1c00074c:	0015eb6d 	xor	$r13,$r27,$r26
1c000750:	0015e1f9 	xor	$r25,$r15,$r24
1c000754:	0015adda 	xor	$r26,$r14,$r11
1c000758:	29815181 	st.w	$r1,$r12,84(0x54)
1c00075c:	2981618d 	st.w	$r13,$r12,88(0x58)
1c000760:	29817199 	st.w	$r25,$r12,92(0x5c)
1c000764:	2981819a 	st.w	$r26,$r12,96(0x60)
1c000768:	02802694 	addi.w	$r20,$r20,9(0x9)
1c00076c:	0280918c 	addi.w	$r12,$r12,36(0x24)
1c000770:	5fff2284 	bne	$r20,$r4,-224(0x3ff20) # 1c000690 <sha_transform+0x60>
1c000774:	288002e7 	ld.w	$r7,$r23,0
1c000778:	288032e5 	ld.w	$r5,$r23,12(0xc)
1c00077c:	288022e8 	ld.w	$r8,$r23,8(0x8)
1c000780:	288012e6 	ld.w	$r6,$r23,4(0x4)
1c000784:	2884c069 	ld.w	$r9,$r3,304(0x130)
1c000788:	28847078 	ld.w	$r24,$r3,284(0x11c)
1c00078c:	004094e4 	slli.w	$r4,$r7,0x5
1c000790:	0044ecf1 	srli.w	$r17,$r7,0x1b
1c000794:	28800070 	ld.w	$r16,$r3,0
1c000798:	14b504f2 	lu12i.w	$r18,370727(0x5a827)
1c00079c:	2884106f 	ld.w	$r15,$r3,260(0x104)
1c0007a0:	00154481 	or	$r1,$r4,$r17
1c0007a4:	0015950a 	xor	$r10,$r8,$r5
1c0007a8:	03a66652 	ori	$r18,$r18,0x999
1c0007ac:	2883f06d 	ld.w	$r13,$r3,252(0xfc)
1c0007b0:	0015e12b 	xor	$r11,$r9,$r24
1c0007b4:	00104833 	add.w	$r19,$r1,$r18
1c0007b8:	0014995b 	and	$r27,$r10,$r6
1c0007bc:	288042e9 	ld.w	$r9,$r23,16(0x10)
1c0007c0:	0015bd6e 	xor	$r14,$r11,$r15
1c0007c4:	00104279 	add.w	$r25,$r19,$r16
1c0007c8:	0015977a 	xor	$r26,$r27,$r5
1c0007cc:	0015b5d4 	xor	$r20,$r14,$r13
1c0007d0:	0040f8ca 	slli.w	$r10,$r6,0x1e
1c0007d4:	00106b24 	add.w	$r4,$r25,$r26
1c0007d8:	004488c1 	srli.w	$r1,$r6,0x2
1c0007dc:	0015054e 	or	$r14,$r10,$r1
1c0007e0:	2984f074 	st.w	$r20,$r3,316(0x13c)
1c0007e4:	02814073 	addi.w	$r19,$r3,80(0x50)
1c0007e8:	02801071 	addi.w	$r17,$r3,4(0x4)
1c0007ec:	001500ec 	move	$r12,$r7
1c0007f0:	001500b0 	move	$r16,$r5
1c0007f4:	0015010b 	move	$r11,$r8
1c0007f8:	0010248a 	add.w	$r10,$r4,$r9
1c0007fc:	5000e000 	b	224(0xe0) # 1c0008dc <sha_transform+0x2ac>
1c000800:	2880122d 	ld.w	$r13,$r17,4(0x4)
1c000804:	28802239 	ld.w	$r25,$r17,8(0x8)
1c000808:	2880322a 	ld.w	$r10,$r17,12(0xc)
1c00080c:	02806231 	addi.w	$r17,$r17,24(0x18)
1c000810:	0010375a 	add.w	$r26,$r26,$r13
1c000814:	00103f4f 	add.w	$r15,$r26,$r15
1c000818:	00102deb 	add.w	$r11,$r15,$r11
1c00081c:	0040957b 	slli.w	$r27,$r11,0x5
1c000820:	0044ed61 	srli.w	$r1,$r11,0x1b
1c000824:	0015076d 	or	$r13,$r27,$r1
1c000828:	001049ba 	add.w	$r26,$r13,$r18
1c00082c:	00106759 	add.w	$r25,$r26,$r25
1c000830:	00106338 	add.w	$r24,$r25,$r24
1c000834:	00103b0e 	add.w	$r14,$r24,$r14
1c000838:	004095db 	slli.w	$r27,$r14,0x5
1c00083c:	0044edcf 	srli.w	$r15,$r14,0x1b
1c000840:	00153f61 	or	$r1,$r27,$r15
1c000844:	0010482d 	add.w	$r13,$r1,$r18
1c000848:	0014ae10 	and	$r16,$r16,$r11
1c00084c:	0015921a 	xor	$r26,$r16,$r4
1c000850:	001029aa 	add.w	$r10,$r13,$r10
1c000854:	00106959 	add.w	$r25,$r10,$r26
1c000858:	00103338 	add.w	$r24,$r25,$r12
1c00085c:	0044896c 	srli.w	$r12,$r11,0x2
1c000860:	0040f96b 	slli.w	$r11,$r11,0x1e
1c000864:	0015317b 	or	$r27,$r11,$r12
1c000868:	28bfe221 	ld.w	$r1,$r17,-8(0xff8)
1c00086c:	0040970d 	slli.w	$r13,$r24,0x5
1c000870:	0044ef0f 	srli.w	$r15,$r24,0x1b
1c000874:	00153db0 	or	$r16,$r13,$r15
1c000878:	0015d36a 	xor	$r10,$r27,$r20
1c00087c:	0014b959 	and	$r25,$r10,$r14
1c000880:	00104a1a 	add.w	$r26,$r16,$r18
1c000884:	0010074c 	add.w	$r12,$r26,$r1
1c000888:	0015d32b 	xor	$r11,$r25,$r20
1c00088c:	00102d81 	add.w	$r1,$r12,$r11
1c000890:	0010102c 	add.w	$r12,$r1,$r4
1c000894:	004489c4 	srli.w	$r4,$r14,0x2
1c000898:	0040f9ce 	slli.w	$r14,$r14,0x1e
1c00089c:	001511cb 	or	$r11,$r14,$r4
1c0008a0:	28bff22d 	ld.w	$r13,$r17,-4(0xffc)
1c0008a4:	0040958f 	slli.w	$r15,$r12,0x5
1c0008a8:	0044ed90 	srli.w	$r16,$r12,0x1b
1c0008ac:	001541ea 	or	$r10,$r15,$r16
1c0008b0:	0015ed7a 	xor	$r26,$r11,$r27
1c0008b4:	00104959 	add.w	$r25,$r10,$r18
1c0008b8:	0014e341 	and	$r1,$r26,$r24
1c0008bc:	0015ec2e 	xor	$r14,$r1,$r27
1c0008c0:	00103724 	add.w	$r4,$r25,$r13
1c0008c4:	0010388d 	add.w	$r13,$r4,$r14
1c0008c8:	00448b0f 	srli.w	$r15,$r24,0x2
1c0008cc:	0040fb18 	slli.w	$r24,$r24,0x1e
1c0008d0:	00150370 	move	$r16,$r27
1c0008d4:	00153f0e 	or	$r14,$r24,$r15
1c0008d8:	001051aa 	add.w	$r10,$r13,$r20
1c0008dc:	00448958 	srli.w	$r24,$r10,0x2
1c0008e0:	0040f95b 	slli.w	$r27,$r10,0x1e
1c0008e4:	0040954f 	slli.w	$r15,$r10,0x5
1c0008e8:	0044ed4d 	srli.w	$r13,$r10,0x1b
1c0008ec:	28800239 	ld.w	$r25,$r17,0
1c0008f0:	00156364 	or	$r4,$r27,$r24
1c0008f4:	0015adda 	xor	$r26,$r14,$r11
1c0008f8:	001535f8 	or	$r24,$r15,$r13
1c0008fc:	00104b0d 	add.w	$r13,$r24,$r18
1c000900:	0014b34f 	and	$r15,$r26,$r12
1c000904:	0015adfa 	xor	$r26,$r15,$r11
1c000908:	001065b9 	add.w	$r25,$r13,$r25
1c00090c:	00106b34 	add.w	$r20,$r25,$r26
1c000910:	0010428d 	add.w	$r13,$r20,$r16
1c000914:	00448981 	srli.w	$r1,$r12,0x2
1c000918:	0040f98c 	slli.w	$r12,$r12,0x1e
1c00091c:	0015058c 	or	$r12,$r12,$r1
1c000920:	004489b9 	srli.w	$r25,$r13,0x2
1c000924:	0040f9b4 	slli.w	$r20,$r13,0x1e
1c000928:	004095b8 	slli.w	$r24,$r13,0x5
1c00092c:	0044edb0 	srli.w	$r16,$r13,0x1b
1c000930:	00156694 	or	$r20,$r20,$r25
1c000934:	0015b981 	xor	$r1,$r12,$r14
1c000938:	0015b099 	xor	$r25,$r4,$r12
1c00093c:	0015430f 	or	$r15,$r24,$r16
1c000940:	0280123b 	addi.w	$r27,$r17,4(0x4)
1c000944:	0014a838 	and	$r24,$r1,$r10
1c000948:	0014b721 	and	$r1,$r25,$r13
1c00094c:	001049fa 	add.w	$r26,$r15,$r18
1c000950:	00159290 	xor	$r16,$r20,$r4
1c000954:	0015bb0f 	xor	$r15,$r24,$r14
1c000958:	0015b038 	xor	$r24,$r1,$r12
1c00095c:	5ffea67b 	bne	$r19,$r27,-348(0x3fea4) # 1c000800 <sha_transform+0x1d0>
1c000960:	004095b1 	slli.w	$r17,$r13,0x5
1c000964:	0044edb2 	srli.w	$r18,$r13,0x1b
1c000968:	14ddb3d3 	lu12i.w	$r19,454046(0x6ed9e)
1c00096c:	00154a3b 	or	$r27,$r17,$r18
1c000970:	2881406f 	ld.w	$r15,$r3,80(0x50)
1c000974:	03ae8673 	ori	$r19,$r19,0xba1
1c000978:	0015b14a 	xor	$r10,$r10,$r12
1c00097c:	00104f74 	add.w	$r20,$r27,$r19
1c000980:	0015b95a 	xor	$r26,$r10,$r14
1c000984:	00105350 	add.w	$r16,$r26,$r20
1c000988:	00103e19 	add.w	$r25,$r16,$r15
1c00098c:	02828074 	addi.w	$r20,$r3,160(0xa0)
1c000990:	02815072 	addi.w	$r18,$r3,84(0x54)
1c000994:	001501af 	move	$r15,$r13
1c000998:	00150091 	move	$r17,$r4
1c00099c:	00102f38 	add.w	$r24,$r25,$r11
1c0009a0:	5000d000 	b	208(0xd0) # 1c000a70 <sha_transform+0x440>
1c0009a4:	2880124a 	ld.w	$r10,$r18,4(0x4)
1c0009a8:	2880224b 	ld.w	$r11,$r18,8(0x8)
1c0009ac:	2880324f 	ld.w	$r15,$r18,12(0xc)
1c0009b0:	02806252 	addi.w	$r18,$r18,24(0x18)
1c0009b4:	00102884 	add.w	$r4,$r4,$r10
1c0009b8:	0010309b 	add.w	$r27,$r4,$r12
1c0009bc:	0040976e 	slli.w	$r14,$r27,0x5
1c0009c0:	0044ef6d 	srli.w	$r13,$r27,0x1b
1c0009c4:	001535cc 	or	$r12,$r14,$r13
1c0009c8:	00104d98 	add.w	$r24,$r12,$r19
1c0009cc:	00106339 	add.w	$r25,$r25,$r24
1c0009d0:	00102f2a 	add.w	$r10,$r25,$r11
1c0009d4:	00104544 	add.w	$r4,$r10,$r17
1c0009d8:	0040948e 	slli.w	$r14,$r4,0x5
1c0009dc:	0044ec8b 	srli.w	$r11,$r4,0x1b
1c0009e0:	00152dcd 	or	$r13,$r14,$r11
1c0009e4:	0015eb71 	xor	$r17,$r27,$r26
1c0009e8:	0015862c 	xor	$r12,$r17,$r1
1c0009ec:	00104db8 	add.w	$r24,$r13,$r19
1c0009f0:	00106199 	add.w	$r25,$r12,$r24
1c0009f4:	00103f2f 	add.w	$r15,$r25,$r15
1c0009f8:	001041f0 	add.w	$r16,$r15,$r16
1c0009fc:	00448b6a 	srli.w	$r10,$r27,0x2
1c000a00:	0040fb7b 	slli.w	$r27,$r27,0x1e
1c000a04:	00152b6e 	or	$r14,$r27,$r10
1c000a08:	0040960d 	slli.w	$r13,$r16,0x5
1c000a0c:	0044ee0b 	srli.w	$r11,$r16,0x1b
1c000a10:	00152dac 	or	$r12,$r13,$r11
1c000a14:	28bfe251 	ld.w	$r17,$r18,-8(0xff8)
1c000a18:	0015b898 	xor	$r24,$r4,$r14
1c000a1c:	0015eb19 	xor	$r25,$r24,$r26
1c000a20:	00104d8f 	add.w	$r15,$r12,$r19
1c000a24:	00103f2a 	add.w	$r10,$r25,$r15
1c000a28:	0010455b 	add.w	$r27,$r10,$r17
1c000a2c:	0010076f 	add.w	$r15,$r27,$r1
1c000a30:	00448881 	srli.w	$r1,$r4,0x2
1c000a34:	0040f884 	slli.w	$r4,$r4,0x1e
1c000a38:	0015048c 	or	$r12,$r4,$r1
1c000a3c:	004095f8 	slli.w	$r24,$r15,0x5
1c000a40:	0044edf1 	srli.w	$r17,$r15,0x1b
1c000a44:	00154719 	or	$r25,$r24,$r17
1c000a48:	28bff24d 	ld.w	$r13,$r18,-4(0xffc)
1c000a4c:	0015b20b 	xor	$r11,$r16,$r12
1c000a50:	0015b96a 	xor	$r10,$r11,$r14
1c000a54:	00104f3b 	add.w	$r27,$r25,$r19
1c000a58:	00106d41 	add.w	$r1,$r10,$r27
1c000a5c:	00448a18 	srli.w	$r24,$r16,0x2
1c000a60:	00103424 	add.w	$r4,$r1,$r13
1c000a64:	0040fa10 	slli.w	$r16,$r16,0x1e
1c000a68:	00156211 	or	$r17,$r16,$r24
1c000a6c:	00106898 	add.w	$r24,$r4,$r26
1c000a70:	00448b0b 	srli.w	$r11,$r24,0x2
1c000a74:	0040fb04 	slli.w	$r4,$r24,0x1e
1c000a78:	00152c81 	or	$r1,$r4,$r11
1c000a7c:	0040970b 	slli.w	$r11,$r24,0x5
1c000a80:	0044ef04 	srli.w	$r4,$r24,0x1b
1c000a84:	0015c5ed 	xor	$r13,$r15,$r17
1c000a88:	00151179 	or	$r25,$r11,$r4
1c000a8c:	2880024a 	ld.w	$r10,$r18,0
1c000a90:	0015b1b0 	xor	$r16,$r13,$r12
1c000a94:	00104f2b 	add.w	$r11,$r25,$r19
1c000a98:	00102e04 	add.w	$r4,$r16,$r11
1c000a9c:	0010288a 	add.w	$r10,$r4,$r10
1c000aa0:	0010394e 	add.w	$r14,$r10,$r14
1c000aa4:	004095da 	slli.w	$r26,$r14,0x5
1c000aa8:	0044edd9 	srli.w	$r25,$r14,0x1b
1c000aac:	00156750 	or	$r16,$r26,$r25
1c000ab0:	004489fb 	srli.w	$r27,$r15,0x2
1c000ab4:	0040f9ed 	slli.w	$r13,$r15,0x1e
1c000ab8:	00104e0b 	add.w	$r11,$r16,$r19
1c000abc:	00156db0 	or	$r16,$r13,$r27
1c000ac0:	0015c31b 	xor	$r27,$r24,$r16
1c000ac4:	0040f9c4 	slli.w	$r4,$r14,0x1e
1c000ac8:	001585ca 	xor	$r10,$r14,$r1
1c000acc:	004489da 	srli.w	$r26,$r14,0x2
1c000ad0:	0015c76d 	xor	$r13,$r27,$r17
1c000ad4:	0280124f 	addi.w	$r15,$r18,4(0x4)
1c000ad8:	0015689a 	or	$r26,$r4,$r26
1c000adc:	0015c159 	xor	$r25,$r10,$r16
1c000ae0:	00102da4 	add.w	$r4,$r13,$r11
1c000ae4:	5ffec28f 	bne	$r20,$r15,-320(0x3fec0) # 1c0009a4 <sha_transform+0x374>
1c000ae8:	004095d3 	slli.w	$r19,$r14,0x5
1c000aec:	0044edd2 	srli.w	$r18,$r14,0x1b
1c000af0:	151e3774 	lu12i.w	$r20,-462405(0x8f1bb)
1c000af4:	2882806d 	ld.w	$r13,$r3,160(0xa0)
1c000af8:	00154a6f 	or	$r15,$r19,$r18
1c000afc:	03b37294 	ori	$r20,$r20,0xcdc
1c000b00:	0015460b 	or	$r11,$r16,$r17
1c000b04:	0014e178 	and	$r24,$r11,$r24
1c000b08:	001051fa 	add.w	$r26,$r15,$r20
1c000b0c:	0014c60a 	and	$r10,$r16,$r17
1c000b10:	00152b1b 	or	$r27,$r24,$r10
1c000b14:	00103744 	add.w	$r4,$r26,$r13
1c000b18:	00101379 	add.w	$r25,$r27,$r4
1c000b1c:	02829073 	addi.w	$r19,$r3,164(0xa4)
1c000b20:	0283c064 	addi.w	$r4,$r3,240(0xf0)
1c000b24:	001501d8 	move	$r24,$r14
1c000b28:	0015002f 	move	$r15,$r1
1c000b2c:	0010332c 	add.w	$r12,$r25,$r12
1c000b30:	50004400 	b	68(0x44) # 1c000b74 <sha_transform+0x544>
1c000b34:	2880126d 	ld.w	$r13,$r19,4(0x4)
1c000b38:	28802261 	ld.w	$r1,$r19,8(0x8)
1c000b3c:	02803273 	addi.w	$r19,$r19,12(0xc)
1c000b40:	0010372c 	add.w	$r12,$r25,$r13
1c000b44:	00103359 	add.w	$r25,$r26,$r12
1c000b48:	00104330 	add.w	$r16,$r25,$r16
1c000b4c:	0040961b 	slli.w	$r27,$r16,0x5
1c000b50:	0044ee1a 	srli.w	$r26,$r16,0x1b
1c000b54:	00156b6e 	or	$r14,$r27,$r26
1c000b58:	001051cd 	add.w	$r13,$r14,$r20
1c000b5c:	001005a1 	add.w	$r1,$r13,$r1
1c000b60:	00100718 	add.w	$r24,$r24,$r1
1c000b64:	00103f0c 	add.w	$r12,$r24,$r15
1c000b68:	00150218 	move	$r24,$r16
1c000b6c:	00152d4f 	or	$r15,$r10,$r11
1c000b70:	00150250 	move	$r16,$r18
1c000b74:	00448981 	srli.w	$r1,$r12,0x2
1c000b78:	0040f98e 	slli.w	$r14,$r12,0x1e
1c000b7c:	001541fa 	or	$r26,$r15,$r16
1c000b80:	001505d2 	or	$r18,$r14,$r1
1c000b84:	0040958b 	slli.w	$r11,$r12,0x5
1c000b88:	0014e34e 	and	$r14,$r26,$r24
1c000b8c:	0044ed8a 	srli.w	$r10,$r12,0x1b
1c000b90:	2880027a 	ld.w	$r26,$r19,0
1c000b94:	00152979 	or	$r25,$r11,$r10
1c000b98:	0010532b 	add.w	$r11,$r25,$r20
1c000b9c:	0014c1e1 	and	$r1,$r15,$r16
1c000ba0:	001505ca 	or	$r10,$r14,$r1
1c000ba4:	0010697b 	add.w	$r27,$r11,$r26
1c000ba8:	00106d4d 	add.w	$r13,$r10,$r27
1c000bac:	001045ad 	add.w	$r13,$r13,$r17
1c000bb0:	00448b01 	srli.w	$r1,$r24,0x2
1c000bb4:	004095b9 	slli.w	$r25,$r13,0x5
1c000bb8:	0040fb18 	slli.w	$r24,$r24,0x1e
1c000bbc:	0044edb1 	srli.w	$r17,$r13,0x1b
1c000bc0:	0015472b 	or	$r11,$r25,$r17
1c000bc4:	00150711 	or	$r17,$r24,$r1
1c000bc8:	00153e3a 	or	$r26,$r17,$r15
1c000bcc:	0014b35b 	and	$r27,$r26,$r12
1c000bd0:	0014be21 	and	$r1,$r17,$r15
1c000bd4:	00154658 	or	$r24,$r18,$r17
1c000bd8:	0015077a 	or	$r26,$r27,$r1
1c000bdc:	0280126e 	addi.w	$r14,$r19,4(0x4)
1c000be0:	0014b701 	and	$r1,$r24,$r13
1c000be4:	0014c65b 	and	$r27,$r18,$r17
1c000be8:	00105179 	add.w	$r25,$r11,$r20
1c000bec:	0040f9aa 	slli.w	$r10,$r13,0x1e
1c000bf0:	004489ab 	srli.w	$r11,$r13,0x2
1c000bf4:	00156c38 	or	$r24,$r1,$r27
1c000bf8:	5fff3c8e 	bne	$r4,$r14,-196(0x3ff3c) # 1c000b34 <sha_transform+0x504>
1c000bfc:	004095b4 	slli.w	$r20,$r13,0x5
1c000c00:	0044eda4 	srli.w	$r4,$r13,0x1b
1c000c04:	1594c593 	lu12i.w	$r19,-219604(0xca62c)
1c000c08:	0015c592 	xor	$r18,$r12,$r17
1c000c0c:	0015128e 	or	$r14,$r20,$r4
1c000c10:	03875a73 	ori	$r19,$r19,0x1d6
1c000c14:	2883c07a 	ld.w	$r26,$r3,240(0xf0)
1c000c18:	00104dcb 	add.w	$r11,$r14,$r19
1c000c1c:	0015be59 	xor	$r25,$r18,$r15
1c000c20:	00102f2a 	add.w	$r10,$r25,$r11
1c000c24:	0044899b 	srli.w	$r27,$r12,0x2
1c000c28:	00106941 	add.w	$r1,$r10,$r26
1c000c2c:	0040f98c 	slli.w	$r12,$r12,0x1e
1c000c30:	02850074 	addi.w	$r20,$r3,320(0x140)
1c000c34:	0283d06e 	addi.w	$r14,$r3,244(0xf4)
1c000c38:	00156d92 	or	$r18,$r12,$r27
1c000c3c:	0010402b 	add.w	$r11,$r1,$r16
1c000c40:	5000d000 	b	208(0xd0) # 1c000d10 <sha_transform+0x6e0>
1c000c44:	288011cc 	ld.w	$r12,$r14,4(0x4)
1c000c48:	288021cb 	ld.w	$r11,$r14,8(0x8)
1c000c4c:	288031cf 	ld.w	$r15,$r14,12(0xc)
1c000c50:	028061ce 	addi.w	$r14,$r14,24(0x18)
1c000c54:	00103030 	add.w	$r16,$r1,$r12
1c000c58:	0010461a 	add.w	$r26,$r16,$r17
1c000c5c:	00409758 	slli.w	$r24,$r26,0x5
1c000c60:	0044ef51 	srli.w	$r17,$r26,0x1b
1c000c64:	00154701 	or	$r1,$r24,$r17
1c000c68:	00104c39 	add.w	$r25,$r1,$r19
1c000c6c:	0010677b 	add.w	$r27,$r27,$r25
1c000c70:	00102f6c 	add.w	$r12,$r27,$r11
1c000c74:	00104998 	add.w	$r24,$r12,$r18
1c000c78:	00409710 	slli.w	$r16,$r24,0x5
1c000c7c:	0044ef0b 	srli.w	$r11,$r24,0x1b
1c000c80:	00152e11 	or	$r17,$r16,$r11
1c000c84:	0015ab52 	xor	$r18,$r26,$r10
1c000c88:	00159241 	xor	$r1,$r18,$r4
1c000c8c:	00104e39 	add.w	$r25,$r17,$r19
1c000c90:	0010643b 	add.w	$r27,$r1,$r25
1c000c94:	00103f6f 	add.w	$r15,$r27,$r15
1c000c98:	001035f2 	add.w	$r18,$r15,$r13
1c000c9c:	00448b4d 	srli.w	$r13,$r26,0x2
1c000ca0:	0040fb5a 	slli.w	$r26,$r26,0x1e
1c000ca4:	0015374f 	or	$r15,$r26,$r13
1c000ca8:	0040964c 	slli.w	$r12,$r18,0x5
1c000cac:	0044ee50 	srli.w	$r16,$r18,0x1b
1c000cb0:	00154181 	or	$r1,$r12,$r16
1c000cb4:	28bfe1cb 	ld.w	$r11,$r14,-8(0xff8)
1c000cb8:	0015bf11 	xor	$r17,$r24,$r15
1c000cbc:	0015aa39 	xor	$r25,$r17,$r10
1c000cc0:	00104c3b 	add.w	$r27,$r1,$r19
1c000cc4:	00106f2d 	add.w	$r13,$r25,$r27
1c000cc8:	00102dba 	add.w	$r26,$r13,$r11
1c000ccc:	0010134d 	add.w	$r13,$r26,$r4
1c000cd0:	00448b04 	srli.w	$r4,$r24,0x2
1c000cd4:	0040fb18 	slli.w	$r24,$r24,0x1e
1c000cd8:	00151311 	or	$r17,$r24,$r4
1c000cdc:	004095ab 	slli.w	$r11,$r13,0x5
1c000ce0:	0044eda1 	srli.w	$r1,$r13,0x1b
1c000ce4:	28bff1cc 	ld.w	$r12,$r14,-4(0xffc)
1c000ce8:	0015c650 	xor	$r16,$r18,$r17
1c000cec:	00150579 	or	$r25,$r11,$r1
1c000cf0:	0015be1b 	xor	$r27,$r16,$r15
1c000cf4:	00104f3a 	add.w	$r26,$r25,$r19
1c000cf8:	00106b64 	add.w	$r4,$r27,$r26
1c000cfc:	00448a4b 	srli.w	$r11,$r18,0x2
1c000d00:	00103098 	add.w	$r24,$r4,$r12
1c000d04:	0040fa52 	slli.w	$r18,$r18,0x1e
1c000d08:	00152e52 	or	$r18,$r18,$r11
1c000d0c:	00102b0b 	add.w	$r11,$r24,$r10
1c000d10:	00448970 	srli.w	$r16,$r11,0x2
1c000d14:	0040f978 	slli.w	$r24,$r11,0x1e
1c000d18:	00154304 	or	$r4,$r24,$r16
1c000d1c:	0040956a 	slli.w	$r10,$r11,0x5
1c000d20:	0044ed70 	srli.w	$r16,$r11,0x1b
1c000d24:	0015c9ba 	xor	$r26,$r13,$r18
1c000d28:	00154158 	or	$r24,$r10,$r16
1c000d2c:	288001d9 	ld.w	$r25,$r14,0
1c000d30:	0015c74c 	xor	$r12,$r26,$r17
1c000d34:	00104f0a 	add.w	$r10,$r24,$r19
1c000d38:	00102990 	add.w	$r16,$r12,$r10
1c000d3c:	00106601 	add.w	$r1,$r16,$r25
1c000d40:	00103c2f 	add.w	$r15,$r1,$r15
1c000d44:	004489ba 	srli.w	$r26,$r13,0x2
1c000d48:	0040f9ad 	slli.w	$r13,$r13,0x1e
1c000d4c:	004095fb 	slli.w	$r27,$r15,0x5
1c000d50:	0044edf8 	srli.w	$r24,$r15,0x1b
1c000d54:	001569ad 	or	$r13,$r13,$r26
1c000d58:	0015636c 	or	$r12,$r27,$r24
1c000d5c:	0015b57a 	xor	$r26,$r11,$r13
1c000d60:	00104d81 	add.w	$r1,$r12,$r19
1c000d64:	001591fb 	xor	$r27,$r15,$r4
1c000d68:	004489f0 	srli.w	$r16,$r15,0x2
1c000d6c:	0040f9ea 	slli.w	$r10,$r15,0x1e
1c000d70:	0015cb58 	xor	$r24,$r26,$r18
1c000d74:	028011d9 	addi.w	$r25,$r14,4(0x4)
1c000d78:	0015414a 	or	$r10,$r10,$r16
1c000d7c:	00100701 	add.w	$r1,$r24,$r1
1c000d80:	0015b77b 	xor	$r27,$r27,$r13
1c000d84:	5ffec299 	bne	$r20,$r25,-320(0x3fec0) # 1c000c44 <sha_transform+0x614>
1c000d88:	28857061 	ld.w	$r1,$r3,348(0x15c)
1c000d8c:	00103ce7 	add.w	$r7,$r7,$r15
1c000d90:	00102cc6 	add.w	$r6,$r6,$r11
1c000d94:	00103508 	add.w	$r8,$r8,$r13
1c000d98:	001048a5 	add.w	$r5,$r5,$r18
1c000d9c:	00104529 	add.w	$r9,$r9,$r17
1c000da0:	298002e7 	st.w	$r7,$r23,0
1c000da4:	298012e6 	st.w	$r6,$r23,4(0x4)
1c000da8:	298022e8 	st.w	$r8,$r23,8(0x8)
1c000dac:	298032e5 	st.w	$r5,$r23,12(0xc)
1c000db0:	298042e9 	st.w	$r9,$r23,16(0x10)
1c000db4:	28855078 	ld.w	$r24,$r3,340(0x154)
1c000db8:	28856077 	ld.w	$r23,$r3,344(0x158)
1c000dbc:	28854079 	ld.w	$r25,$r3,336(0x150)
1c000dc0:	2885307a 	ld.w	$r26,$r3,332(0x14c)
1c000dc4:	2885207b 	ld.w	$r27,$r3,328(0x148)
1c000dc8:	02858063 	addi.w	$r3,$r3,352(0x160)
1c000dcc:	4c000020 	jirl	$r0,$r1,0

1c000dd0 <sha_init>:
sha_init():
1c000dd0:	14ce8a4c 	lu12i.w	$r12,422994(0x67452)
1c000dd4:	15df9b46 	lu12i.w	$r6,-66342(0xefcda)
1c000dd8:	153175a8 	lu12i.w	$r8,-422995(0x98bad)
1c000ddc:	142064aa 	lu12i.w	$r10,66341(0x10325)
1c000de0:	1587a5cd 	lu12i.w	$r13,-246482(0xc3d2e)
1c000de4:	038c0585 	ori	$r5,$r12,0x301
1c000de8:	03ae24c7 	ori	$r7,$r6,0xb89
1c000dec:	03b3f909 	ori	$r9,$r8,0xcfe
1c000df0:	0391d94b 	ori	$r11,$r10,0x476
1c000df4:	0387c1ae 	ori	$r14,$r13,0x1f0
1c000df8:	29800085 	st.w	$r5,$r4,0
1c000dfc:	29801087 	st.w	$r7,$r4,4(0x4)
1c000e00:	29802089 	st.w	$r9,$r4,8(0x8)
1c000e04:	2980308b 	st.w	$r11,$r4,12(0xc)
1c000e08:	2980408e 	st.w	$r14,$r4,16(0x10)
1c000e0c:	29805080 	st.w	$r0,$r4,20(0x14)
1c000e10:	29806080 	st.w	$r0,$r4,24(0x18)
1c000e14:	4c000020 	jirl	$r0,$r1,0
1c000e18:	03400000 	andi	$r0,$r0,0x0
1c000e1c:	03400000 	andi	$r0,$r0,0x0

1c000e20 <sha_update>:
sha_update():
1c000e20:	2880508d 	ld.w	$r13,$r4,20(0x14)
1c000e24:	2880608e 	ld.w	$r14,$r4,24(0x18)
1c000e28:	02bf8063 	addi.w	$r3,$r3,-32(0xfe0)
1c000e2c:	00408ccc 	slli.w	$r12,$r6,0x3
1c000e30:	29807061 	st.w	$r1,$r3,28(0x1c)
1c000e34:	00103581 	add.w	$r1,$r12,$r13
1c000e38:	0012b427 	sltu	$r7,$r1,$r13
1c000e3c:	00101dc8 	add.w	$r8,$r14,$r7
1c000e40:	0044f4c9 	srli.w	$r9,$r6,0x1d
1c000e44:	29806077 	st.w	$r23,$r3,24(0x18)
1c000e48:	29804079 	st.w	$r25,$r3,16(0x10)
1c000e4c:	29805078 	st.w	$r24,$r3,20(0x14)
1c000e50:	2980307a 	st.w	$r26,$r3,12(0xc)
1c000e54:	2980207b 	st.w	$r27,$r3,8(0x8)
1c000e58:	2980107c 	st.w	$r28,$r3,4(0x4)
1c000e5c:	0010212a 	add.w	$r10,$r9,$r8
1c000e60:	29805081 	st.w	$r1,$r4,20(0x14)
1c000e64:	2980608a 	st.w	$r10,$r4,24(0x18)
1c000e68:	0280fc0b 	addi.w	$r11,$r0,63(0x3f)
1c000e6c:	001500b7 	move	$r23,$r5
1c000e70:	02807099 	addi.w	$r25,$r4,28(0x1c)
1c000e74:	64022d66 	bge	$r11,$r6,556(0x22c) # 1c0010a0 <sha_update+0x280>
1c000e78:	02bf00da 	addi.w	$r26,$r6,-64(0xfc0)
1c000e7c:	00449b5c 	srli.w	$r28,$r26,0x6
1c000e80:	00150098 	move	$r24,$r4
1c000e84:	02800784 	addi.w	$r4,$r28,1(0x1)
1c000e88:	00409886 	slli.w	$r6,$r4,0x6
1c000e8c:	02bf00cf 	addi.w	$r15,$r6,-64(0xfc0)
1c000e90:	004499f0 	srli.w	$r16,$r15,0x6
1c000e94:	02800611 	addi.w	$r17,$r16,1(0x1)
1c000e98:	03401e32 	andi	$r18,$r17,0x7
1c000e9c:	001018bb 	add.w	$r27,$r5,$r6
1c000ea0:	5800e240 	beq	$r18,$r0,224(0xe0) # 1c000f80 <sha_update+0x160>
1c000ea4:	02800413 	addi.w	$r19,$r0,1(0x1)
1c000ea8:	5800ba53 	beq	$r18,$r19,184(0xb8) # 1c000f60 <sha_update+0x140>
1c000eac:	02800814 	addi.w	$r20,$r0,2(0x2)
1c000eb0:	58009654 	beq	$r18,$r20,148(0x94) # 1c000f44 <sha_update+0x124>
1c000eb4:	02800c0d 	addi.w	$r13,$r0,3(0x3)
1c000eb8:	5800724d 	beq	$r18,$r13,112(0x70) # 1c000f28 <sha_update+0x108>
1c000ebc:	0280100e 	addi.w	$r14,$r0,4(0x4)
1c000ec0:	58004e4e 	beq	$r18,$r14,76(0x4c) # 1c000f0c <sha_update+0xec>
1c000ec4:	0280140c 	addi.w	$r12,$r0,5(0x5)
1c000ec8:	58002a4c 	beq	$r18,$r12,40(0x28) # 1c000ef0 <sha_update+0xd0>
1c000ecc:	02801801 	addi.w	$r1,$r0,6(0x6)
1c000ed0:	5c01b241 	bne	$r18,$r1,432(0x1b0) # 1c001080 <sha_update+0x260>
1c000ed4:	001502e5 	move	$r5,$r23
1c000ed8:	02810006 	addi.w	$r6,$r0,64(0x40)
1c000edc:	00150324 	move	$r4,$r25
1c000ee0:	5424cc00 	bl	9420(0x24cc) # 1c0033ac <memcpy>
1c000ee4:	00150304 	move	$r4,$r24
1c000ee8:	57f74bff 	bl	-2232(0xffff748) # 1c000630 <sha_transform>
1c000eec:	028102f7 	addi.w	$r23,$r23,64(0x40)
1c000ef0:	001502e5 	move	$r5,$r23
1c000ef4:	02810006 	addi.w	$r6,$r0,64(0x40)
1c000ef8:	00150324 	move	$r4,$r25
1c000efc:	5424b000 	bl	9392(0x24b0) # 1c0033ac <memcpy>
1c000f00:	00150304 	move	$r4,$r24
1c000f04:	57f72fff 	bl	-2260(0xffff72c) # 1c000630 <sha_transform>
1c000f08:	028102f7 	addi.w	$r23,$r23,64(0x40)
1c000f0c:	001502e5 	move	$r5,$r23
1c000f10:	02810006 	addi.w	$r6,$r0,64(0x40)
1c000f14:	00150324 	move	$r4,$r25
1c000f18:	54249400 	bl	9364(0x2494) # 1c0033ac <memcpy>
1c000f1c:	00150304 	move	$r4,$r24
1c000f20:	57f713ff 	bl	-2288(0xffff710) # 1c000630 <sha_transform>
1c000f24:	028102f7 	addi.w	$r23,$r23,64(0x40)
1c000f28:	001502e5 	move	$r5,$r23
1c000f2c:	02810006 	addi.w	$r6,$r0,64(0x40)
1c000f30:	00150324 	move	$r4,$r25
1c000f34:	54247800 	bl	9336(0x2478) # 1c0033ac <memcpy>
1c000f38:	00150304 	move	$r4,$r24
1c000f3c:	57f6f7ff 	bl	-2316(0xffff6f4) # 1c000630 <sha_transform>
1c000f40:	028102f7 	addi.w	$r23,$r23,64(0x40)
1c000f44:	001502e5 	move	$r5,$r23
1c000f48:	02810006 	addi.w	$r6,$r0,64(0x40)
1c000f4c:	00150324 	move	$r4,$r25
1c000f50:	54245c00 	bl	9308(0x245c) # 1c0033ac <memcpy>
1c000f54:	00150304 	move	$r4,$r24
1c000f58:	57f6dbff 	bl	-2344(0xffff6d8) # 1c000630 <sha_transform>
1c000f5c:	028102f7 	addi.w	$r23,$r23,64(0x40)
1c000f60:	001502e5 	move	$r5,$r23
1c000f64:	02810006 	addi.w	$r6,$r0,64(0x40)
1c000f68:	00150324 	move	$r4,$r25
1c000f6c:	54244000 	bl	9280(0x2440) # 1c0033ac <memcpy>
1c000f70:	028102f7 	addi.w	$r23,$r23,64(0x40)
1c000f74:	00150304 	move	$r4,$r24
1c000f78:	57f6bbff 	bl	-2376(0xffff6b8) # 1c000630 <sha_transform>
1c000f7c:	5800cefb 	beq	$r23,$r27,204(0xcc) # 1c001048 <sha_update+0x228>
1c000f80:	001502e5 	move	$r5,$r23
1c000f84:	02810006 	addi.w	$r6,$r0,64(0x40)
1c000f88:	00150324 	move	$r4,$r25
1c000f8c:	54242000 	bl	9248(0x2420) # 1c0033ac <memcpy>
1c000f90:	00150304 	move	$r4,$r24
1c000f94:	57f69fff 	bl	-2404(0xffff69c) # 1c000630 <sha_transform>
1c000f98:	028102e5 	addi.w	$r5,$r23,64(0x40)
1c000f9c:	02810006 	addi.w	$r6,$r0,64(0x40)
1c000fa0:	00150324 	move	$r4,$r25
1c000fa4:	54240800 	bl	9224(0x2408) # 1c0033ac <memcpy>
1c000fa8:	00150304 	move	$r4,$r24
1c000fac:	57f687ff 	bl	-2428(0xffff684) # 1c000630 <sha_transform>
1c000fb0:	028202e5 	addi.w	$r5,$r23,128(0x80)
1c000fb4:	02810006 	addi.w	$r6,$r0,64(0x40)
1c000fb8:	00150324 	move	$r4,$r25
1c000fbc:	5423f000 	bl	9200(0x23f0) # 1c0033ac <memcpy>
1c000fc0:	00150304 	move	$r4,$r24
1c000fc4:	57f66fff 	bl	-2452(0xffff66c) # 1c000630 <sha_transform>
1c000fc8:	028302e5 	addi.w	$r5,$r23,192(0xc0)
1c000fcc:	02810006 	addi.w	$r6,$r0,64(0x40)
1c000fd0:	00150324 	move	$r4,$r25
1c000fd4:	5423d800 	bl	9176(0x23d8) # 1c0033ac <memcpy>
1c000fd8:	00150304 	move	$r4,$r24
1c000fdc:	57f657ff 	bl	-2476(0xffff654) # 1c000630 <sha_transform>
1c000fe0:	028402e5 	addi.w	$r5,$r23,256(0x100)
1c000fe4:	02810006 	addi.w	$r6,$r0,64(0x40)
1c000fe8:	00150324 	move	$r4,$r25
1c000fec:	5423c000 	bl	9152(0x23c0) # 1c0033ac <memcpy>
1c000ff0:	00150304 	move	$r4,$r24
1c000ff4:	57f63fff 	bl	-2500(0xffff63c) # 1c000630 <sha_transform>
1c000ff8:	028502e5 	addi.w	$r5,$r23,320(0x140)
1c000ffc:	02810006 	addi.w	$r6,$r0,64(0x40)
1c001000:	00150324 	move	$r4,$r25
1c001004:	5423a800 	bl	9128(0x23a8) # 1c0033ac <memcpy>
1c001008:	00150304 	move	$r4,$r24
1c00100c:	57f627ff 	bl	-2524(0xffff624) # 1c000630 <sha_transform>
1c001010:	028602e5 	addi.w	$r5,$r23,384(0x180)
1c001014:	02810006 	addi.w	$r6,$r0,64(0x40)
1c001018:	00150324 	move	$r4,$r25
1c00101c:	54239000 	bl	9104(0x2390) # 1c0033ac <memcpy>
1c001020:	00150304 	move	$r4,$r24
1c001024:	57f60fff 	bl	-2548(0xffff60c) # 1c000630 <sha_transform>
1c001028:	028702e5 	addi.w	$r5,$r23,448(0x1c0)
1c00102c:	02810006 	addi.w	$r6,$r0,64(0x40)
1c001030:	00150324 	move	$r4,$r25
1c001034:	54237800 	bl	9080(0x2378) # 1c0033ac <memcpy>
1c001038:	028802f7 	addi.w	$r23,$r23,512(0x200)
1c00103c:	00150304 	move	$r4,$r24
1c001040:	57f5f3ff 	bl	-2576(0xffff5f0) # 1c000630 <sha_transform>
1c001044:	5fff3efb 	bne	$r23,$r27,-196(0x3ff3c) # 1c000f80 <sha_update+0x160>
1c001048:	02bf0005 	addi.w	$r5,$r0,-64(0xfc0)
1c00104c:	001c1787 	mul.w	$r7,$r28,$r5
1c001050:	28807061 	ld.w	$r1,$r3,28(0x1c)
1c001054:	28806077 	ld.w	$r23,$r3,24(0x18)
1c001058:	28805078 	ld.w	$r24,$r3,20(0x14)
1c00105c:	2880107c 	ld.w	$r28,$r3,4(0x4)
1c001060:	00150365 	move	$r5,$r27
1c001064:	00150324 	move	$r4,$r25
1c001068:	2880207b 	ld.w	$r27,$r3,8(0x8)
1c00106c:	28804079 	ld.w	$r25,$r3,16(0x10)
1c001070:	001068e6 	add.w	$r6,$r7,$r26
1c001074:	2880307a 	ld.w	$r26,$r3,12(0xc)
1c001078:	02808063 	addi.w	$r3,$r3,32(0x20)
1c00107c:	50233000 	b	9008(0x2330) # 1c0033ac <memcpy>
1c001080:	02810006 	addi.w	$r6,$r0,64(0x40)
1c001084:	00150324 	move	$r4,$r25
1c001088:	54232400 	bl	8996(0x2324) # 1c0033ac <memcpy>
1c00108c:	00150304 	move	$r4,$r24
1c001090:	57f5a3ff 	bl	-2656(0xffff5a0) # 1c000630 <sha_transform>
1c001094:	028102f7 	addi.w	$r23,$r23,64(0x40)
1c001098:	53fe3fff 	b	-452(0xffffe3c) # 1c000ed4 <sha_update+0xb4>
1c00109c:	03400000 	andi	$r0,$r0,0x0
1c0010a0:	001500bb 	move	$r27,$r5
1c0010a4:	28807061 	ld.w	$r1,$r3,28(0x1c)
1c0010a8:	28806077 	ld.w	$r23,$r3,24(0x18)
1c0010ac:	28805078 	ld.w	$r24,$r3,20(0x14)
1c0010b0:	2880307a 	ld.w	$r26,$r3,12(0xc)
1c0010b4:	2880107c 	ld.w	$r28,$r3,4(0x4)
1c0010b8:	00150365 	move	$r5,$r27
1c0010bc:	00150324 	move	$r4,$r25
1c0010c0:	2880207b 	ld.w	$r27,$r3,8(0x8)
1c0010c4:	28804079 	ld.w	$r25,$r3,16(0x10)
1c0010c8:	02808063 	addi.w	$r3,$r3,32(0x20)
1c0010cc:	5022e000 	b	8928(0x22e0) # 1c0033ac <memcpy>

1c0010d0 <sha_final>:
sha_final():
1c0010d0:	02bf8063 	addi.w	$r3,$r3,-32(0xfe0)
1c0010d4:	29804079 	st.w	$r25,$r3,16(0x10)
1c0010d8:	28805099 	ld.w	$r25,$r4,20(0x14)
1c0010dc:	29807061 	st.w	$r1,$r3,28(0x1c)
1c0010e0:	29805078 	st.w	$r24,$r3,20(0x14)
1c0010e4:	00448f2c 	srli.w	$r12,$r25,0x3
1c0010e8:	02807098 	addi.w	$r24,$r4,28(0x1c)
1c0010ec:	0340fd81 	andi	$r1,$r12,0x3f
1c0010f0:	29806077 	st.w	$r23,$r3,24(0x18)
1c0010f4:	2980307a 	st.w	$r26,$r3,12(0xc)
1c0010f8:	0010070d 	add.w	$r13,$r24,$r1
1c0010fc:	02be000e 	addi.w	$r14,$r0,-128(0xf80)
1c001100:	2880609a 	ld.w	$r26,$r4,24(0x18)
1c001104:	02800425 	addi.w	$r5,$r1,1(0x1)
1c001108:	290001ae 	st.b	$r14,$r13,0
1c00110c:	0280e006 	addi.w	$r6,$r0,56(0x38)
1c001110:	00150097 	move	$r23,$r4
1c001114:	00101704 	add.w	$r4,$r24,$r5
1c001118:	640058c5 	bge	$r6,$r5,88(0x58) # 1c001170 <sha_final+0xa0>
1c00111c:	02810007 	addi.w	$r7,$r0,64(0x40)
1c001120:	001114e6 	sub.w	$r6,$r7,$r5
1c001124:	00150005 	move	$r5,$r0
1c001128:	54226800 	bl	8808(0x2268) # 1c003390 <memset>
1c00112c:	001502e4 	move	$r4,$r23
1c001130:	57f503ff 	bl	-2816(0xffff500) # 1c000630 <sha_transform>
1c001134:	00150304 	move	$r4,$r24
1c001138:	0280e006 	addi.w	$r6,$r0,56(0x38)
1c00113c:	00150005 	move	$r5,$r0
1c001140:	54225000 	bl	8784(0x2250) # 1c003390 <memset>
1c001144:	28807061 	ld.w	$r1,$r3,28(0x1c)
1c001148:	298152fa 	st.w	$r26,$r23,84(0x54)
1c00114c:	298162f9 	st.w	$r25,$r23,88(0x58)
1c001150:	28805078 	ld.w	$r24,$r3,20(0x14)
1c001154:	28804079 	ld.w	$r25,$r3,16(0x10)
1c001158:	2880307a 	ld.w	$r26,$r3,12(0xc)
1c00115c:	001502e4 	move	$r4,$r23
1c001160:	28806077 	ld.w	$r23,$r3,24(0x18)
1c001164:	02808063 	addi.w	$r3,$r3,32(0x20)
1c001168:	53f4cbff 	b	-2872(0xffff4c8) # 1c000630 <sha_transform>
1c00116c:	03400000 	andi	$r0,$r0,0x0
1c001170:	001114c6 	sub.w	$r6,$r6,$r5
1c001174:	00150005 	move	$r5,$r0
1c001178:	54221800 	bl	8728(0x2218) # 1c003390 <memset>
1c00117c:	28807061 	ld.w	$r1,$r3,28(0x1c)
1c001180:	298152fa 	st.w	$r26,$r23,84(0x54)
1c001184:	298162f9 	st.w	$r25,$r23,88(0x58)
1c001188:	28805078 	ld.w	$r24,$r3,20(0x14)
1c00118c:	28804079 	ld.w	$r25,$r3,16(0x10)
1c001190:	2880307a 	ld.w	$r26,$r3,12(0xc)
1c001194:	001502e4 	move	$r4,$r23
1c001198:	28806077 	ld.w	$r23,$r3,24(0x18)
1c00119c:	02808063 	addi.w	$r3,$r3,32(0x20)
1c0011a0:	53f493ff 	b	-2928(0xffff490) # 1c000630 <sha_transform>
1c0011a4:	03400000 	andi	$r0,$r0,0x0
1c0011a8:	03400000 	andi	$r0,$r0,0x0
1c0011ac:	03400000 	andi	$r0,$r0,0x0

1c0011b0 <sha_stream>:
sha_stream():
1c0011b0:	02b1c063 	addi.w	$r3,$r3,-912(0xc70)
1c0011b4:	298e2076 	st.w	$r22,$r3,904(0x388)
1c0011b8:	00150096 	move	$r22,$r4
1c0011bc:	288000a4 	ld.w	$r4,$r5,0
1c0011c0:	028072cc 	addi.w	$r12,$r22,28(0x1c)
1c0011c4:	298e3061 	st.w	$r1,$r3,908(0x38c)
1c0011c8:	2980106c 	st.w	$r12,$r3,4(0x4)
1c0011cc:	298e1077 	st.w	$r23,$r3,900(0x384)
1c0011d0:	298da07e 	st.w	$r30,$r3,872(0x368)
1c0011d4:	298d907f 	st.w	$r31,$r3,868(0x364)
1c0011d8:	29807065 	st.w	$r5,$r3,28(0x1c)
1c0011dc:	298e0078 	st.w	$r24,$r3,896(0x380)
1c0011e0:	298df079 	st.w	$r25,$r3,892(0x37c)
1c0011e4:	298de07a 	st.w	$r26,$r3,888(0x378)
1c0011e8:	298dd07b 	st.w	$r27,$r3,884(0x374)
1c0011ec:	298dc07c 	st.w	$r28,$r3,880(0x370)
1c0011f0:	298db07d 	st.w	$r29,$r3,876(0x36c)
1c0011f4:	54203000 	bl	8240(0x2030) # 1c003224 <strlen>
1c0011f8:	00150085 	move	$r5,$r4
1c0011fc:	1c000064 	pcaddu12i	$r4,3(0x3)
1c001200:	02b08084 	addi.w	$r4,$r4,-992(0xc20)
1c001204:	541c2000 	bl	7200(0x1c20) # 1c002e24 <printf>
1c001208:	15df9b46 	lu12i.w	$r6,-66342(0xefcda)
1c00120c:	03ae24c7 	ori	$r7,$r6,0xb89
1c001210:	14ce8a44 	lu12i.w	$r4,422994(0x67452)
1c001214:	298012c7 	st.w	$r7,$r22,4(0x4)
1c001218:	153175a8 	lu12i.w	$r8,-422995(0x98bad)
1c00121c:	142064aa 	lu12i.w	$r10,66341(0x10325)
1c001220:	1587a5cd 	lu12i.w	$r13,-246482(0xc3d2e)
1c001224:	28807067 	ld.w	$r7,$r3,28(0x1c)
1c001228:	038c0485 	ori	$r5,$r4,0x301
1c00122c:	03b3f909 	ori	$r9,$r8,0xcfe
1c001230:	0391d94b 	ori	$r11,$r10,0x476
1c001234:	0387c1ae 	ori	$r14,$r13,0x1f0
1c001238:	151e3771 	lu12i.w	$r17,-462405(0x8f1bb)
1c00123c:	298002c5 	st.w	$r5,$r22,0
1c001240:	14b504ef 	lu12i.w	$r15,370727(0x5a827)
1c001244:	14ddb3d0 	lu12i.w	$r16,454046(0x6ed9e)
1c001248:	03b37232 	ori	$r18,$r17,0xcdc
1c00124c:	298022c9 	st.w	$r9,$r22,8(0x8)
1c001250:	298032cb 	st.w	$r11,$r22,12(0xc)
1c001254:	298042ce 	st.w	$r14,$r22,16(0x10)
1c001258:	298052c0 	st.w	$r0,$r22,20(0x14)
1c00125c:	298062c0 	st.w	$r0,$r22,24(0x18)
1c001260:	02880006 	addi.w	$r6,$r0,512(0x200)
1c001264:	02800405 	addi.w	$r5,$r0,1(0x1)
1c001268:	02858064 	addi.w	$r4,$r3,352(0x160)
1c00126c:	03a665fe 	ori	$r30,$r15,0x999
1c001270:	03ae861f 	ori	$r31,$r16,0xba1
1c001274:	29800072 	st.w	$r18,$r3,0
1c001278:	5419c800 	bl	6600(0x19c8) # 1c002c40 <fread>
1c00127c:	00150097 	move	$r23,$r4
1c001280:	64060c04 	bge	$r0,$r4,1548(0x60c) # 1c00188c <sha_stream+0x6dc>
1c001284:	001502e5 	move	$r5,$r23
1c001288:	1c000064 	pcaddu12i	$r4,3(0x3)
1c00128c:	02ae8084 	addi.w	$r4,$r4,-1120(0xba0)
1c001290:	541b9400 	bl	7060(0x1b94) # 1c002e24 <printf>
1c001294:	288052c5 	ld.w	$r5,$r22,20(0x14)
1c001298:	00408ee6 	slli.w	$r6,$r23,0x3
1c00129c:	001014c7 	add.w	$r7,$r6,$r5
1c0012a0:	681168e5 	bltu	$r7,$r5,4456(0x1168) # 1c002408 <sha_stream+0x1258>
1c0012a4:	288062c9 	ld.w	$r9,$r22,24(0x18)
1c0012a8:	0044f6f8 	srli.w	$r24,$r23,0x1d
1c0012ac:	0280fc12 	addi.w	$r18,$r0,63(0x3f)
1c0012b0:	00102711 	add.w	$r17,$r24,$r9
1c0012b4:	298052c7 	st.w	$r7,$r22,20(0x14)
1c0012b8:	298062d1 	st.w	$r17,$r22,24(0x18)
1c0012bc:	64116e57 	bge	$r18,$r23,4460(0x116c) # 1c002428 <sha_stream+0x1278>
1c0012c0:	02bf02f7 	addi.w	$r23,$r23,-64(0xfc0)
1c0012c4:	00449ae1 	srli.w	$r1,$r23,0x6
1c0012c8:	29806077 	st.w	$r23,$r3,24(0x18)
1c0012cc:	0280042c 	addi.w	$r12,$r1,1(0x1)
1c0012d0:	288002d7 	ld.w	$r23,$r22,0
1c0012d4:	288012db 	ld.w	$r27,$r22,4(0x4)
1c0012d8:	288022d8 	ld.w	$r24,$r22,8(0x8)
1c0012dc:	288032da 	ld.w	$r26,$r22,12(0xc)
1c0012e0:	288042dd 	ld.w	$r29,$r22,16(0x10)
1c0012e4:	0040999c 	slli.w	$r28,$r12,0x6
1c0012e8:	0285806e 	addi.w	$r14,$r3,352(0x160)
1c0012ec:	0281c079 	addi.w	$r25,$r3,112(0x70)
1c0012f0:	0283006d 	addi.w	$r13,$r3,192(0xc0)
1c0012f4:	1594c58f 	lu12i.w	$r15,-219604(0xca62c)
1c0012f8:	001071ca 	add.w	$r10,$r14,$r28
1c0012fc:	29803079 	st.w	$r25,$r3,12(0xc)
1c001300:	29805061 	st.w	$r1,$r3,20(0x14)
1c001304:	001501dc 	move	$r28,$r14
1c001308:	2980406d 	st.w	$r13,$r3,16(0x10)
1c00130c:	038759f9 	ori	$r25,$r15,0x1d6
1c001310:	28801064 	ld.w	$r4,$r3,4(0x4)
1c001314:	02810006 	addi.w	$r6,$r0,64(0x40)
1c001318:	00150385 	move	$r5,$r28
1c00131c:	2980206a 	st.w	$r10,$r3,8(0x8)
1c001320:	54208c00 	bl	8332(0x208c) # 1c0033ac <memcpy>
1c001324:	288112c6 	ld.w	$r6,$r22,68(0x44)
1c001328:	288122c5 	ld.w	$r5,$r22,72(0x48)
1c00132c:	288092d3 	ld.w	$r19,$r22,36(0x24)
1c001330:	2880a2d2 	ld.w	$r18,$r22,40(0x28)
1c001334:	2880b2d1 	ld.w	$r17,$r22,44(0x2c)
1c001338:	2880c2d0 	ld.w	$r16,$r22,48(0x30)
1c00133c:	2880d2cd 	ld.w	$r13,$r22,52(0x34)
1c001340:	2880e2cc 	ld.w	$r12,$r22,56(0x38)
1c001344:	2880f2c8 	ld.w	$r8,$r22,60(0x3c)
1c001348:	288102c7 	ld.w	$r7,$r22,64(0x40)
1c00134c:	288072c9 	ld.w	$r9,$r22,28(0x1c)
1c001350:	288142ce 	ld.w	$r14,$r22,80(0x50)
1c001354:	288152c4 	ld.w	$r4,$r22,84(0x54)
1c001358:	288162d4 	ld.w	$r20,$r22,88(0x58)
1c00135c:	288082cb 	ld.w	$r11,$r22,32(0x20)
1c001360:	288132ca 	ld.w	$r10,$r22,76(0x4c)
1c001364:	29808069 	st.w	$r9,$r3,32(0x20)
1c001368:	2980906b 	st.w	$r11,$r3,36(0x24)
1c00136c:	2980a073 	st.w	$r19,$r3,40(0x28)
1c001370:	29813065 	st.w	$r5,$r3,76(0x4c)
1c001374:	2981406a 	st.w	$r10,$r3,80(0x50)
1c001378:	2980b072 	st.w	$r18,$r3,44(0x2c)
1c00137c:	2980c071 	st.w	$r17,$r3,48(0x30)
1c001380:	2980d070 	st.w	$r16,$r3,52(0x34)
1c001384:	2980e06d 	st.w	$r13,$r3,56(0x38)
1c001388:	2980f06c 	st.w	$r12,$r3,60(0x3c)
1c00138c:	29810068 	st.w	$r8,$r3,64(0x40)
1c001390:	29811067 	st.w	$r7,$r3,68(0x44)
1c001394:	29812066 	st.w	$r6,$r3,72(0x48)
1c001398:	2981506e 	st.w	$r14,$r3,84(0x54)
1c00139c:	29816064 	st.w	$r4,$r3,88(0x58)
1c0013a0:	29817074 	st.w	$r20,$r3,92(0x5c)
1c0013a4:	2880206a 	ld.w	$r10,$r3,8(0x8)
1c0013a8:	0280806f 	addi.w	$r15,$r3,32(0x20)
1c0013ac:	02804005 	addi.w	$r5,$r0,16(0x10)
1c0013b0:	02813c09 	addi.w	$r9,$r0,79(0x4f)
1c0013b4:	288081e8 	ld.w	$r8,$r15,32(0x20)
1c0013b8:	288091e7 	ld.w	$r7,$r15,36(0x24)
1c0013bc:	2880a1e6 	ld.w	$r6,$r15,40(0x28)
1c0013c0:	288001e1 	ld.w	$r1,$r15,0
1c0013c4:	288011eb 	ld.w	$r11,$r15,4(0x4)
1c0013c8:	0015cdd3 	xor	$r19,$r14,$r19
1c0013cc:	288021ee 	ld.w	$r14,$r15,8(0x8)
1c0013d0:	0015c694 	xor	$r20,$r20,$r17
1c0013d4:	0015c884 	xor	$r4,$r4,$r18
1c0013d8:	00159c92 	xor	$r18,$r4,$r7
1c0013dc:	0015a271 	xor	$r17,$r19,$r8
1c0013e0:	00159a93 	xor	$r19,$r20,$r6
1c0013e4:	0015ba74 	xor	$r20,$r19,$r14
1c0013e8:	0015ae4b 	xor	$r11,$r18,$r11
1c0013ec:	2880b1f3 	ld.w	$r19,$r15,44(0x2c)
1c0013f0:	2880c1f2 	ld.w	$r18,$r15,48(0x30)
1c0013f4:	00158621 	xor	$r1,$r17,$r1
1c0013f8:	0015c030 	xor	$r16,$r1,$r16
1c0013fc:	0015b56d 	xor	$r13,$r11,$r13
1c001400:	2880d1f1 	ld.w	$r17,$r15,52(0x34)
1c001404:	298101e1 	st.w	$r1,$r15,64(0x40)
1c001408:	298111eb 	st.w	$r11,$r15,68(0x44)
1c00140c:	0015c9a4 	xor	$r4,$r13,$r18
1c001410:	0015ce0b 	xor	$r11,$r16,$r19
1c001414:	288051ed 	ld.w	$r13,$r15,20(0x14)
1c001418:	288041f0 	ld.w	$r16,$r15,16(0x10)
1c00141c:	288031ee 	ld.w	$r14,$r15,12(0xc)
1c001420:	0015b28c 	xor	$r12,$r20,$r12
1c001424:	298121f4 	st.w	$r20,$r15,72(0x48)
1c001428:	0015c594 	xor	$r20,$r12,$r17
1c00142c:	0015b96e 	xor	$r14,$r11,$r14
1c001430:	0015b694 	xor	$r20,$r20,$r13
1c001434:	0015c08b 	xor	$r11,$r4,$r16
1c001438:	2880e1f0 	ld.w	$r16,$r15,56(0x38)
1c00143c:	2880f1ed 	ld.w	$r13,$r15,60(0x3c)
1c001440:	0015002c 	move	$r12,$r1
1c001444:	0015a1c1 	xor	$r1,$r14,$r8
1c001448:	298131ee 	st.w	$r14,$r15,76(0x4c)
1c00144c:	298141eb 	st.w	$r11,$r15,80(0x50)
1c001450:	298151f4 	st.w	$r20,$r15,84(0x54)
1c001454:	00159a86 	xor	$r6,$r20,$r6
1c001458:	0015c02e 	xor	$r14,$r1,$r16
1c00145c:	288061f4 	ld.w	$r20,$r15,24(0x18)
1c001460:	288071e1 	ld.w	$r1,$r15,28(0x1c)
1c001464:	00159d67 	xor	$r7,$r11,$r7
1c001468:	0015b4e4 	xor	$r4,$r7,$r13
1c00146c:	0015b0cb 	xor	$r11,$r6,$r12
1c001470:	0015d1ce 	xor	$r14,$r14,$r20
1c001474:	00158484 	xor	$r4,$r4,$r1
1c001478:	0015a174 	xor	$r20,$r11,$r8
1c00147c:	298161ee 	st.w	$r14,$r15,88(0x58)
1c001480:	298171e4 	st.w	$r4,$r15,92(0x5c)
1c001484:	298181f4 	st.w	$r20,$r15,96(0x60)
1c001488:	028024a5 	addi.w	$r5,$r5,9(0x9)
1c00148c:	028091ef 	addi.w	$r15,$r15,36(0x24)
1c001490:	5fff24a9 	bne	$r5,$r9,-220(0x3ff24) # 1c0013b4 <sha_stream+0x204>
1c001494:	28854072 	ld.w	$r18,$r3,336(0x150)
1c001498:	2884f070 	ld.w	$r16,$r3,316(0x13c)
1c00149c:	2884906e 	ld.w	$r14,$r3,292(0x124)
1c0014a0:	004096e9 	slli.w	$r9,$r23,0x5
1c0014a4:	0044eef1 	srli.w	$r17,$r23,0x1b
1c0014a8:	28808073 	ld.w	$r19,$r3,32(0x20)
1c0014ac:	28847074 	ld.w	$r20,$r3,284(0x11c)
1c0014b0:	0015c24d 	xor	$r13,$r18,$r16
1c0014b4:	00154526 	or	$r6,$r9,$r17
1c0014b8:	0015eb0b 	xor	$r11,$r24,$r26
1c0014bc:	0015b9a1 	xor	$r1,$r13,$r14
1c0014c0:	001078c4 	add.w	$r4,$r6,$r30
1c0014c4:	0014ed68 	and	$r8,$r11,$r27
1c0014c8:	00104c8f 	add.w	$r15,$r4,$r19
1c0014cc:	0015d025 	xor	$r5,$r1,$r20
1c0014d0:	0015e909 	xor	$r9,$r8,$r26
1c0014d4:	001025f1 	add.w	$r17,$r15,$r9
1c0014d8:	00448b6d 	srli.w	$r13,$r27,0x2
1c0014dc:	0040fb73 	slli.w	$r19,$r27,0x1e
1c0014e0:	29857065 	st.w	$r5,$r3,348(0x15c)
1c0014e4:	02800c10 	addi.w	$r16,$r0,3(0x3)
1c0014e8:	02800407 	addi.w	$r7,$r0,1(0x1)
1c0014ec:	02809074 	addi.w	$r20,$r3,36(0x24)
1c0014f0:	001502ec 	move	$r12,$r23
1c0014f4:	0015034e 	move	$r14,$r26
1c0014f8:	00150312 	move	$r18,$r24
1c0014fc:	00153673 	or	$r19,$r19,$r13
1c001500:	00107624 	add.w	$r4,$r17,$r29
1c001504:	5800a207 	beq	$r16,$r7,160(0xa0) # 1c0015a4 <sha_stream+0x3f4>
1c001508:	0280080b 	addi.w	$r11,$r0,2(0x2)
1c00150c:	58004e0b 	beq	$r16,$r11,76(0x4c) # 1c001558 <sha_stream+0x3a8>
1c001510:	00409492 	slli.w	$r18,$r4,0x5
1c001514:	0044ec81 	srli.w	$r1,$r4,0x1b
1c001518:	2880906e 	ld.w	$r14,$r3,36(0x24)
1c00151c:	0015e26c 	xor	$r12,$r19,$r24
1c001520:	00150648 	or	$r8,$r18,$r1
1c001524:	00107914 	add.w	$r20,$r8,$r30
1c001528:	0014dd85 	and	$r5,$r12,$r23
1c00152c:	00103a8f 	add.w	$r15,$r20,$r14
1c001530:	0015e0a9 	xor	$r9,$r5,$r24
1c001534:	001025f1 	add.w	$r17,$r15,$r9
1c001538:	00448aed 	srli.w	$r13,$r23,0x2
1c00153c:	0040faf0 	slli.w	$r16,$r23,0x1e
1c001540:	0015008c 	move	$r12,$r4
1c001544:	00150272 	move	$r18,$r19
1c001548:	0280a074 	addi.w	$r20,$r3,40(0x28)
1c00154c:	0015030e 	move	$r14,$r24
1c001550:	00153613 	or	$r19,$r16,$r13
1c001554:	00106a24 	add.w	$r4,$r17,$r26
1c001558:	00409487 	slli.w	$r7,$r4,0x5
1c00155c:	0044ec86 	srli.w	$r6,$r4,0x1b
1c001560:	2880028b 	ld.w	$r11,$r20,0
1c001564:	0015ca61 	xor	$r1,$r19,$r18
1c001568:	001518e8 	or	$r8,$r7,$r6
1c00156c:	0014b025 	and	$r5,$r1,$r12
1c001570:	0010790f 	add.w	$r15,$r8,$r30
1c001574:	0015c8a9 	xor	$r9,$r5,$r18
1c001578:	00102df1 	add.w	$r17,$r15,$r11
1c00157c:	0010262d 	add.w	$r13,$r17,$r9
1c001580:	001039b0 	add.w	$r16,$r13,$r14
1c001584:	00448987 	srli.w	$r7,$r12,0x2
1c001588:	0040f986 	slli.w	$r6,$r12,0x1e
1c00158c:	0015024e 	move	$r14,$r18
1c001590:	0015008c 	move	$r12,$r4
1c001594:	00150272 	move	$r18,$r19
1c001598:	02801294 	addi.w	$r20,$r20,4(0x4)
1c00159c:	00151cd3 	or	$r19,$r6,$r7
1c0015a0:	00150204 	move	$r4,$r16
1c0015a4:	0040948f 	slli.w	$r15,$r4,0x5
1c0015a8:	0044ec8d 	srli.w	$r13,$r4,0x1b
1c0015ac:	2880028b 	ld.w	$r11,$r20,0
1c0015b0:	001535e9 	or	$r9,$r15,$r13
1c0015b4:	0015ca61 	xor	$r1,$r19,$r18
1c0015b8:	0014b031 	and	$r17,$r1,$r12
1c0015bc:	00107927 	add.w	$r7,$r9,$r30
1c0015c0:	00102ce6 	add.w	$r6,$r7,$r11
1c0015c4:	0015ca30 	xor	$r16,$r17,$r18
1c0015c8:	001040cd 	add.w	$r13,$r6,$r16
1c0015cc:	001039a1 	add.w	$r1,$r13,$r14
1c0015d0:	2880306e 	ld.w	$r14,$r3,12(0xc)
1c0015d4:	0044898f 	srli.w	$r15,$r12,0x2
1c0015d8:	0040f98b 	slli.w	$r11,$r12,0x1e
1c0015dc:	0280128c 	addi.w	$r12,$r20,4(0x4)
1c0015e0:	00153d68 	or	$r8,$r11,$r15
1c0015e4:	5c0b31cc 	bne	$r14,$r12,2864(0xb30) # 1c002114 <sha_stream+0xf64>
1c0015e8:	00409434 	slli.w	$r20,$r1,0x5
1c0015ec:	0044ec25 	srli.w	$r5,$r1,0x1b
1c0015f0:	0015a089 	xor	$r9,$r4,$r8
1c0015f4:	00151691 	or	$r17,$r20,$r5
1c0015f8:	2881c067 	ld.w	$r7,$r3,112(0x70)
1c0015fc:	0015cd30 	xor	$r16,$r9,$r19
1c001600:	00107e26 	add.w	$r6,$r17,$r31
1c001604:	00101a0f 	add.w	$r15,$r16,$r6
1c001608:	00101deb 	add.w	$r11,$r15,$r7
1c00160c:	0044888c 	srli.w	$r12,$r4,0x2
1c001610:	0040f885 	slli.w	$r5,$r4,0x1e
1c001614:	02800c0e 	addi.w	$r14,$r0,3(0x3)
1c001618:	02800409 	addi.w	$r9,$r0,1(0x1)
1c00161c:	0010496d 	add.w	$r13,$r11,$r18
1c001620:	00150024 	move	$r4,$r1
1c001624:	00150272 	move	$r18,$r19
1c001628:	0281d074 	addi.w	$r20,$r3,116(0x74)
1c00162c:	00150113 	move	$r19,$r8
1c001630:	001530af 	or	$r15,$r5,$r12
1c001634:	58009dc9 	beq	$r14,$r9,156(0x9c) # 1c0016d0 <sha_stream+0x520>
1c001638:	02800801 	addi.w	$r1,$r0,2(0x2)
1c00163c:	58004dc1 	beq	$r14,$r1,76(0x4c) # 1c001688 <sha_stream+0x4d8>
1c001640:	004095a8 	slli.w	$r8,$r13,0x5
1c001644:	0044edb1 	srli.w	$r17,$r13,0x1b
1c001648:	0015bc87 	xor	$r7,$r4,$r15
1c00164c:	28800294 	ld.w	$r20,$r20,0
1c001650:	00154510 	or	$r16,$r8,$r17
1c001654:	0015cce6 	xor	$r6,$r7,$r19
1c001658:	00107e0b 	add.w	$r11,$r16,$r31
1c00165c:	00102ccc 	add.w	$r12,$r6,$r11
1c001660:	00105185 	add.w	$r5,$r12,$r20
1c001664:	001048a9 	add.w	$r9,$r5,$r18
1c001668:	0044888e 	srli.w	$r14,$r4,0x2
1c00166c:	0040f881 	slli.w	$r1,$r4,0x1e
1c001670:	00150272 	move	$r18,$r19
1c001674:	001501a4 	move	$r4,$r13
1c001678:	001501f3 	move	$r19,$r15
1c00167c:	0281e074 	addi.w	$r20,$r3,120(0x78)
1c001680:	0015382f 	or	$r15,$r1,$r14
1c001684:	0015012d 	move	$r13,$r9
1c001688:	004095a8 	slli.w	$r8,$r13,0x5
1c00168c:	0044edb1 	srli.w	$r17,$r13,0x1b
1c001690:	0015bc87 	xor	$r7,$r4,$r15
1c001694:	28800290 	ld.w	$r16,$r20,0
1c001698:	00154506 	or	$r6,$r8,$r17
1c00169c:	0015cceb 	xor	$r11,$r7,$r19
1c0016a0:	00107ccc 	add.w	$r12,$r6,$r31
1c0016a4:	00103165 	add.w	$r5,$r11,$r12
1c0016a8:	001040a9 	add.w	$r9,$r5,$r16
1c0016ac:	00104921 	add.w	$r1,$r9,$r18
1c0016b0:	0044888e 	srli.w	$r14,$r4,0x2
1c0016b4:	0040f888 	slli.w	$r8,$r4,0x1e
1c0016b8:	00150272 	move	$r18,$r19
1c0016bc:	001501a4 	move	$r4,$r13
1c0016c0:	001501f3 	move	$r19,$r15
1c0016c4:	02801294 	addi.w	$r20,$r20,4(0x4)
1c0016c8:	0015390f 	or	$r15,$r8,$r14
1c0016cc:	0015002d 	move	$r13,$r1
1c0016d0:	004095b0 	slli.w	$r16,$r13,0x5
1c0016d4:	0044edac 	srli.w	$r12,$r13,0x1b
1c0016d8:	00153205 	or	$r5,$r16,$r12
1c0016dc:	0015bc91 	xor	$r17,$r4,$r15
1c0016e0:	28800287 	ld.w	$r7,$r20,0
1c0016e4:	0015ce29 	xor	$r9,$r17,$r19
1c0016e8:	00107ca1 	add.w	$r1,$r5,$r31
1c0016ec:	0010052e 	add.w	$r14,$r9,$r1
1c0016f0:	00101dcc 	add.w	$r12,$r14,$r7
1c0016f4:	00104987 	add.w	$r7,$r12,$r18
1c0016f8:	28804072 	ld.w	$r18,$r3,16(0x10)
1c0016fc:	00448888 	srli.w	$r8,$r4,0x2
1c001700:	02801290 	addi.w	$r16,$r20,4(0x4)
1c001704:	0040f884 	slli.w	$r4,$r4,0x1e
1c001708:	0015208c 	or	$r12,$r4,$r8
1c00170c:	5c096650 	bne	$r18,$r16,2404(0x964) # 1c002070 <sha_stream+0xec0>
1c001710:	2880006e 	ld.w	$r14,$r3,0
1c001714:	004094f1 	slli.w	$r17,$r7,0x5
1c001718:	0044ecf4 	srli.w	$r20,$r7,0x1b
1c00171c:	28830066 	ld.w	$r6,$r3,192(0xc0)
1c001720:	00155225 	or	$r5,$r17,$r20
1c001724:	00153d8b 	or	$r11,$r12,$r15
1c001728:	0014b569 	and	$r9,$r11,$r13
1c00172c:	001038a8 	add.w	$r8,$r5,$r14
1c001730:	0014bd81 	and	$r1,$r12,$r15
1c001734:	00150524 	or	$r4,$r9,$r1
1c001738:	00101910 	add.w	$r16,$r8,$r6
1c00173c:	004489b1 	srli.w	$r17,$r13,0x2
1c001740:	00104086 	add.w	$r6,$r4,$r16
1c001744:	0040f9ad 	slli.w	$r13,$r13,0x1e
1c001748:	02844065 	addi.w	$r5,$r3,272(0x110)
1c00174c:	02831074 	addi.w	$r20,$r3,196(0xc4)
1c001750:	001500f2 	move	$r18,$r7
1c001754:	001545ad 	or	$r13,$r13,$r17
1c001758:	00104cd3 	add.w	$r19,$r6,$r19
1c00175c:	28800071 	ld.w	$r17,$r3,0
1c001760:	0040966e 	slli.w	$r14,$r19,0x5
1c001764:	0044ee70 	srli.w	$r16,$r19,0x1b
1c001768:	28800287 	ld.w	$r7,$r20,0
1c00176c:	001531ab 	or	$r11,$r13,$r12
1c001770:	001541c8 	or	$r8,$r14,$r16
1c001774:	0014c964 	and	$r4,$r11,$r18
1c001778:	0010450e 	add.w	$r14,$r8,$r17
1c00177c:	0014b1a6 	and	$r6,$r13,$r12
1c001780:	00101dd0 	add.w	$r16,$r14,$r7
1c001784:	0015188b 	or	$r11,$r4,$r6
1c001788:	00448a47 	srli.w	$r7,$r18,0x2
1c00178c:	00104169 	add.w	$r9,$r11,$r16
1c001790:	0040fa52 	slli.w	$r18,$r18,0x1e
1c001794:	02801281 	addi.w	$r1,$r20,4(0x4)
1c001798:	00103d2f 	add.w	$r15,$r9,$r15
1c00179c:	00151e4e 	or	$r14,$r18,$r7
1c0017a0:	5c0b30a1 	bne	$r5,$r1,2864(0xb30) # 1c0022d0 <sha_stream+0x1120>
1c0017a4:	004095f4 	slli.w	$r20,$r15,0x5
1c0017a8:	0044ede5 	srli.w	$r5,$r15,0x1b
1c0017ac:	00151688 	or	$r8,$r20,$r5
1c0017b0:	0015ba64 	xor	$r4,$r19,$r14
1c0017b4:	28844071 	ld.w	$r17,$r3,272(0x110)
1c0017b8:	00106506 	add.w	$r6,$r8,$r25
1c0017bc:	0015b48b 	xor	$r11,$r4,$r13
1c0017c0:	00102cd0 	add.w	$r16,$r6,$r11
1c0017c4:	00448a72 	srli.w	$r18,$r19,0x2
1c0017c8:	00104607 	add.w	$r7,$r16,$r17
1c0017cc:	0040fa73 	slli.w	$r19,$r19,0x1e
1c0017d0:	02858065 	addi.w	$r5,$r3,352(0x160)
1c0017d4:	02845074 	addi.w	$r20,$r3,276(0x114)
1c0017d8:	00154a73 	or	$r19,$r19,$r18
1c0017dc:	001030ec 	add.w	$r12,$r7,$r12
1c0017e0:	00409591 	slli.w	$r17,$r12,0x5
1c0017e4:	0044ed90 	srli.w	$r16,$r12,0x1b
1c0017e8:	0015cde9 	xor	$r9,$r15,$r19
1c0017ec:	00154226 	or	$r6,$r17,$r16
1c0017f0:	28800281 	ld.w	$r1,$r20,0
1c0017f4:	0015b92b 	xor	$r11,$r9,$r14
1c0017f8:	001064c7 	add.w	$r7,$r6,$r25
1c0017fc:	00102cf0 	add.w	$r16,$r7,$r11
1c001800:	004489f1 	srli.w	$r17,$r15,0x2
1c001804:	0040f9f2 	slli.w	$r18,$r15,0x1e
1c001808:	00100609 	add.w	$r9,$r16,$r1
1c00180c:	0280128f 	addi.w	$r15,$r20,4(0x4)
1c001810:	0010352d 	add.w	$r13,$r9,$r13
1c001814:	00154641 	or	$r1,$r18,$r17
1c001818:	5c09acaf 	bne	$r5,$r15,2476(0x9ac) # 1c0021c4 <sha_stream+0x1014>
1c00181c:	001036f7 	add.w	$r23,$r23,$r13
1c001820:	0010337b 	add.w	$r27,$r27,$r12
1c001824:	00100718 	add.w	$r24,$r24,$r1
1c001828:	00104f5a 	add.w	$r26,$r26,$r19
1c00182c:	00103bbd 	add.w	$r29,$r29,$r14
1c001830:	298002d7 	st.w	$r23,$r22,0
1c001834:	298012db 	st.w	$r27,$r22,4(0x4)
1c001838:	298022d8 	st.w	$r24,$r22,8(0x8)
1c00183c:	298032da 	st.w	$r26,$r22,12(0xc)
1c001840:	298042dd 	st.w	$r29,$r22,16(0x10)
1c001844:	0281039c 	addi.w	$r28,$r28,64(0x40)
1c001848:	5ffacb8a 	bne	$r28,$r10,-1336(0x3fac8) # 1c001310 <sha_stream+0x160>
1c00184c:	2880506c 	ld.w	$r12,$r3,20(0x14)
1c001850:	02bf0019 	addi.w	$r25,$r0,-64(0xfc0)
1c001854:	28806074 	ld.w	$r20,$r3,24(0x18)
1c001858:	001c658e 	mul.w	$r14,$r12,$r25
1c00185c:	001051d7 	add.w	$r23,$r14,$r20
1c001860:	28801064 	ld.w	$r4,$r3,4(0x4)
1c001864:	001502e6 	move	$r6,$r23
1c001868:	00150145 	move	$r5,$r10
1c00186c:	541b4000 	bl	6976(0x1b40) # 1c0033ac <memcpy>
1c001870:	28807067 	ld.w	$r7,$r3,28(0x1c)
1c001874:	02880006 	addi.w	$r6,$r0,512(0x200)
1c001878:	02800405 	addi.w	$r5,$r0,1(0x1)
1c00187c:	02858064 	addi.w	$r4,$r3,352(0x160)
1c001880:	5413c000 	bl	5056(0x13c0) # 1c002c40 <fread>
1c001884:	00150097 	move	$r23,$r4
1c001888:	63f9fc04 	blt	$r0,$r4,-1540(0x3f9fc) # 1c001284 <sha_stream+0xd4>
1c00188c:	288052d8 	ld.w	$r24,$r22,20(0x14)
1c001890:	288062d7 	ld.w	$r23,$r22,24(0x18)
1c001894:	28801079 	ld.w	$r25,$r3,4(0x4)
1c001898:	02be001c 	addi.w	$r28,$r0,-128(0xf80)
1c00189c:	00448f01 	srli.w	$r1,$r24,0x3
1c0018a0:	0340fc33 	andi	$r19,$r1,0x3f
1c0018a4:	00104f3a 	add.w	$r26,$r25,$r19
1c0018a8:	0280067b 	addi.w	$r27,$r19,1(0x1)
1c0018ac:	2900035c 	st.b	$r28,$r26,0
1c0018b0:	0280e01d 	addi.w	$r29,$r0,56(0x38)
1c0018b4:	00106f24 	add.w	$r4,$r25,$r27
1c0018b8:	600b7bbb 	blt	$r29,$r27,2936(0xb78) # 1c002430 <sha_stream+0x1280>
1c0018bc:	00116fa6 	sub.w	$r6,$r29,$r27
1c0018c0:	00150005 	move	$r5,$r0
1c0018c4:	541acc00 	bl	6860(0x1acc) # 1c003390 <memset>
1c0018c8:	28801065 	ld.w	$r5,$r3,4(0x4)
1c0018cc:	298152d7 	st.w	$r23,$r22,84(0x54)
1c0018d0:	298162d8 	st.w	$r24,$r22,88(0x58)
1c0018d4:	02810006 	addi.w	$r6,$r0,64(0x40)
1c0018d8:	02808064 	addi.w	$r4,$r3,32(0x20)
1c0018dc:	541ad000 	bl	6864(0x1ad0) # 1c0033ac <memcpy>
1c0018e0:	28815065 	ld.w	$r5,$r3,84(0x54)
1c0018e4:	28816069 	ld.w	$r9,$r3,88(0x58)
1c0018e8:	28817072 	ld.w	$r18,$r3,92(0x5c)
1c0018ec:	2880a074 	ld.w	$r20,$r3,40(0x28)
1c0018f0:	2880b07f 	ld.w	$r31,$r3,44(0x2c)
1c0018f4:	2880c068 	ld.w	$r8,$r3,48(0x30)
1c0018f8:	2880d06b 	ld.w	$r11,$r3,52(0x34)
1c0018fc:	2880e06a 	ld.w	$r10,$r3,56(0x38)
1c001900:	2880f06d 	ld.w	$r13,$r3,60(0x3c)
1c001904:	0280806c 	addi.w	$r12,$r3,32(0x20)
1c001908:	02804007 	addi.w	$r7,$r0,16(0x10)
1c00190c:	02813c1d 	addi.w	$r29,$r0,79(0x4f)
1c001910:	28808198 	ld.w	$r24,$r12,32(0x20)
1c001914:	28809197 	ld.w	$r23,$r12,36(0x24)
1c001918:	2880a181 	ld.w	$r1,$r12,40(0x28)
1c00191c:	28800199 	ld.w	$r25,$r12,0
1c001920:	28801191 	ld.w	$r17,$r12,4(0x4)
1c001924:	2880218f 	ld.w	$r15,$r12,8(0x8)
1c001928:	0015969a 	xor	$r26,$r20,$r5
1c00192c:	0015a7f3 	xor	$r19,$r31,$r9
1c001930:	0015c90e 	xor	$r14,$r8,$r18
1c001934:	0015de64 	xor	$r4,$r19,$r23
1c001938:	0015e352 	xor	$r18,$r26,$r24
1c00193c:	001585db 	xor	$r27,$r14,$r1
1c001940:	2880b194 	ld.w	$r20,$r12,44(0x2c)
1c001944:	2880c19f 	ld.w	$r31,$r12,48(0x30)
1c001948:	2880d188 	ld.w	$r8,$r12,52(0x34)
1c00194c:	0015e65e 	xor	$r30,$r18,$r25
1c001950:	0015c490 	xor	$r16,$r4,$r17
1c001954:	0015bf7c 	xor	$r28,$r27,$r15
1c001958:	28803186 	ld.w	$r6,$r12,12(0xc)
1c00195c:	28804185 	ld.w	$r5,$r12,16(0x10)
1c001960:	28805189 	ld.w	$r9,$r12,20(0x14)
1c001964:	0015c14a 	xor	$r10,$r10,$r16
1c001968:	0015f1ad 	xor	$r13,$r13,$r28
1c00196c:	0015f96b 	xor	$r11,$r11,$r30
1c001970:	0015d179 	xor	$r25,$r11,$r20
1c001974:	0015fd51 	xor	$r17,$r10,$r31
1c001978:	0015a1af 	xor	$r15,$r13,$r8
1c00197c:	2880e18b 	ld.w	$r11,$r12,56(0x38)
1c001980:	2880f18a 	ld.w	$r10,$r12,60(0x3c)
1c001984:	0015a5f2 	xor	$r18,$r15,$r9
1c001988:	00159b3a 	xor	$r26,$r25,$r6
1c00198c:	00159633 	xor	$r19,$r17,$r5
1c001990:	2880619b 	ld.w	$r27,$r12,24(0x18)
1c001994:	28807184 	ld.w	$r4,$r12,28(0x1c)
1c001998:	0015030e 	move	$r14,$r24
1c00199c:	0015c821 	xor	$r1,$r1,$r18
1c0019a0:	0015eb18 	xor	$r24,$r24,$r26
1c0019a4:	0015cef7 	xor	$r23,$r23,$r19
1c0019a8:	2981019e 	st.w	$r30,$r12,64(0x40)
1c0019ac:	29811190 	st.w	$r16,$r12,68(0x44)
1c0019b0:	2981219c 	st.w	$r28,$r12,72(0x48)
1c0019b4:	0015af10 	xor	$r16,$r24,$r11
1c0019b8:	0015aafc 	xor	$r28,$r23,$r10
1c0019bc:	0015f826 	xor	$r6,$r1,$r30
1c0019c0:	29815192 	st.w	$r18,$r12,84(0x54)
1c0019c4:	0015ee05 	xor	$r5,$r16,$r27
1c0019c8:	00159389 	xor	$r9,$r28,$r4
1c0019cc:	0015b8d2 	xor	$r18,$r6,$r14
1c0019d0:	2981319a 	st.w	$r26,$r12,76(0x4c)
1c0019d4:	29814193 	st.w	$r19,$r12,80(0x50)
1c0019d8:	29816185 	st.w	$r5,$r12,88(0x58)
1c0019dc:	29817189 	st.w	$r9,$r12,92(0x5c)
1c0019e0:	29818192 	st.w	$r18,$r12,96(0x60)
1c0019e4:	028024e7 	addi.w	$r7,$r7,9(0x9)
1c0019e8:	0280918c 	addi.w	$r12,$r12,36(0x24)
1c0019ec:	001503cd 	move	$r13,$r30
1c0019f0:	5fff20fd 	bne	$r7,$r29,-224(0x3ff20) # 1c001910 <sha_stream+0x760>
1c0019f4:	288002c6 	ld.w	$r6,$r22,0
1c0019f8:	288032c4 	ld.w	$r4,$r22,12(0xc)
1c0019fc:	288022c7 	ld.w	$r7,$r22,8(0x8)
1c001a00:	288012c5 	ld.w	$r5,$r22,4(0x4)
1c001a04:	2884f068 	ld.w	$r8,$r3,316(0x13c)
1c001a08:	28854071 	ld.w	$r17,$r3,336(0x150)
1c001a0c:	2884906f 	ld.w	$r15,$r3,292(0x124)
1c001a10:	004094dd 	slli.w	$r29,$r6,0x5
1c001a14:	0044ecde 	srli.w	$r30,$r6,0x1b
1c001a18:	2880807f 	ld.w	$r31,$r3,32(0x20)
1c001a1c:	14b504f4 	lu12i.w	$r20,370727(0x5a827)
1c001a20:	2884706e 	ld.w	$r14,$r3,284(0x11c)
1c001a24:	03a66694 	ori	$r20,$r20,0x999
1c001a28:	00157bb9 	or	$r25,$r29,$r30
1c001a2c:	001590fa 	xor	$r26,$r7,$r4
1c001a30:	0015c513 	xor	$r19,$r8,$r17
1c001a34:	0010532b 	add.w	$r11,$r25,$r20
1c001a38:	288042c8 	ld.w	$r8,$r22,16(0x10)
1c001a3c:	0014974a 	and	$r10,$r26,$r5
1c001a40:	0015be7b 	xor	$r27,$r19,$r15
1c001a44:	00159157 	xor	$r23,$r10,$r4
1c001a48:	00107d78 	add.w	$r24,$r11,$r31
1c001a4c:	0015bb61 	xor	$r1,$r27,$r14
1c001a50:	00105f1c 	add.w	$r28,$r24,$r23
1c001a54:	004488ac 	srli.w	$r12,$r5,0x2
1c001a58:	0040f8b0 	slli.w	$r16,$r5,0x1e
1c001a5c:	29857061 	st.w	$r1,$r3,348(0x15c)
1c001a60:	0281c069 	addi.w	$r9,$r3,112(0x70)
1c001a64:	02809073 	addi.w	$r19,$r3,36(0x24)
1c001a68:	001500cf 	move	$r15,$r6
1c001a6c:	0015008e 	move	$r14,$r4
1c001a70:	001500f2 	move	$r18,$r7
1c001a74:	00153217 	or	$r23,$r16,$r12
1c001a78:	00102391 	add.w	$r17,$r28,$r8
1c001a7c:	5000e000 	b	224(0xe0) # 1c001b5c <sha_stream+0x9ac>
1c001a80:	28801279 	ld.w	$r25,$r19,4(0x4)
1c001a84:	2880226a 	ld.w	$r10,$r19,8(0x8)
1c001a88:	28803271 	ld.w	$r17,$r19,12(0xc)
1c001a8c:	02806273 	addi.w	$r19,$r19,24(0x18)
1c001a90:	0010656c 	add.w	$r12,$r11,$r25
1c001a94:	0010759d 	add.w	$r29,$r12,$r29
1c001a98:	00104bb8 	add.w	$r24,$r29,$r18
1c001a9c:	0040971f 	slli.w	$r31,$r24,0x5
1c001aa0:	0044ef10 	srli.w	$r16,$r24,0x1b
1c001aa4:	001543fc 	or	$r28,$r31,$r16
1c001aa8:	0010539a 	add.w	$r26,$r28,$r20
1c001aac:	00102b4b 	add.w	$r11,$r26,$r10
1c001ab0:	0010396e 	add.w	$r14,$r11,$r14
1c001ab4:	00105dd9 	add.w	$r25,$r14,$r23
1c001ab8:	00409737 	slli.w	$r23,$r25,0x5
1c001abc:	0044ef2d 	srli.w	$r13,$r25,0x1b
1c001ac0:	001536f2 	or	$r18,$r23,$r13
1c001ac4:	0010524a 	add.w	$r10,$r18,$r20
1c001ac8:	0014e021 	and	$r1,$r1,$r24
1c001acc:	0015f82c 	xor	$r12,$r1,$r30
1c001ad0:	00104551 	add.w	$r17,$r10,$r17
1c001ad4:	0010323d 	add.w	$r29,$r17,$r12
1c001ad8:	00103fbf 	add.w	$r31,$r29,$r15
1c001adc:	00448b0f 	srli.w	$r15,$r24,0x2
1c001ae0:	0040fb18 	slli.w	$r24,$r24,0x1e
1c001ae4:	00153f1c 	or	$r28,$r24,$r15
1c001ae8:	28bfe270 	ld.w	$r16,$r19,-8(0xff8)
1c001aec:	004097fa 	slli.w	$r26,$r31,0x5
1c001af0:	0044efeb 	srli.w	$r11,$r31,0x1b
1c001af4:	00152f57 	or	$r23,$r26,$r11
1c001af8:	0015ef8e 	xor	$r14,$r28,$r27
1c001afc:	0014e5d2 	and	$r18,$r14,$r25
1c001b00:	001052ed 	add.w	$r13,$r23,$r20
1c001b04:	001041aa 	add.w	$r10,$r13,$r16
1c001b08:	0015ee41 	xor	$r1,$r18,$r27
1c001b0c:	00100551 	add.w	$r17,$r10,$r1
1c001b10:	00107a2f 	add.w	$r15,$r17,$r30
1c001b14:	00448b3e 	srli.w	$r30,$r25,0x2
1c001b18:	0040fb39 	slli.w	$r25,$r25,0x1e
1c001b1c:	28bff27d 	ld.w	$r29,$r19,-4(0xffc)
1c001b20:	00157b32 	or	$r18,$r25,$r30
1c001b24:	004095f8 	slli.w	$r24,$r15,0x5
1c001b28:	0044edec 	srli.w	$r12,$r15,0x1b
1c001b2c:	00153310 	or	$r16,$r24,$r12
1c001b30:	0015f25a 	xor	$r26,$r18,$r28
1c001b34:	0014ff57 	and	$r23,$r26,$r31
1c001b38:	0010520b 	add.w	$r11,$r16,$r20
1c001b3c:	0010756e 	add.w	$r14,$r11,$r29
1c001b40:	0015f2ed 	xor	$r13,$r23,$r28
1c001b44:	001035ca 	add.w	$r10,$r14,$r13
1c001b48:	00448be1 	srli.w	$r1,$r31,0x2
1c001b4c:	0040fbff 	slli.w	$r31,$r31,0x1e
1c001b50:	0015038e 	move	$r14,$r28
1c001b54:	001507f7 	or	$r23,$r31,$r1
1c001b58:	00106d51 	add.w	$r17,$r10,$r27
1c001b5c:	00448a2d 	srli.w	$r13,$r17,0x2
1c001b60:	0040fa3d 	slli.w	$r29,$r17,0x1e
1c001b64:	001537be 	or	$r30,$r29,$r13
1c001b68:	00409630 	slli.w	$r16,$r17,0x5
1c001b6c:	0044ee2d 	srli.w	$r13,$r17,0x1b
1c001b70:	2880027f 	ld.w	$r31,$r19,0
1c001b74:	0015360a 	or	$r10,$r16,$r13
1c001b78:	0015caf9 	xor	$r25,$r23,$r18
1c001b7c:	0014bf3b 	and	$r27,$r25,$r15
1c001b80:	00105158 	add.w	$r24,$r10,$r20
1c001b84:	00107f1c 	add.w	$r28,$r24,$r31
1c001b88:	0015cb61 	xor	$r1,$r27,$r18
1c001b8c:	00100790 	add.w	$r16,$r28,$r1
1c001b90:	004489fd 	srli.w	$r29,$r15,0x2
1c001b94:	0040f9ef 	slli.w	$r15,$r15,0x1e
1c001b98:	00103a0d 	add.w	$r13,$r16,$r14
1c001b9c:	001575ef 	or	$r15,$r15,$r29
1c001ba0:	004095bf 	slli.w	$r31,$r13,0x5
1c001ba4:	0044edae 	srli.w	$r14,$r13,0x1b
1c001ba8:	004489ba 	srli.w	$r26,$r13,0x2
1c001bac:	0040f9aa 	slli.w	$r10,$r13,0x1e
1c001bb0:	0015ddf8 	xor	$r24,$r15,$r23
1c001bb4:	0015bfd0 	xor	$r16,$r30,$r15
1c001bb8:	00153bf9 	or	$r25,$r31,$r14
1c001bbc:	0015695b 	or	$r27,$r10,$r26
1c001bc0:	0014c71c 	and	$r28,$r24,$r17
1c001bc4:	0014b61f 	and	$r31,$r16,$r13
1c001bc8:	0280126c 	addi.w	$r12,$r19,4(0x4)
1c001bcc:	0010532b 	add.w	$r11,$r25,$r20
1c001bd0:	0015fb61 	xor	$r1,$r27,$r30
1c001bd4:	0015df9d 	xor	$r29,$r28,$r23
1c001bd8:	0015bfee 	xor	$r14,$r31,$r15
1c001bdc:	5ffea52c 	bne	$r9,$r12,-348(0x3fea4) # 1c001a80 <sha_stream+0x8d0>
1c001be0:	004095b4 	slli.w	$r20,$r13,0x5
1c001be4:	0044edb3 	srli.w	$r19,$r13,0x1b
1c001be8:	14ddb3c9 	lu12i.w	$r9,454046(0x6ed9e)
1c001bec:	001502ec 	move	$r12,$r23
1c001bf0:	0015be31 	xor	$r17,$r17,$r15
1c001bf4:	00154e97 	or	$r23,$r20,$r19
1c001bf8:	03ae8529 	ori	$r9,$r9,0xba1
1c001bfc:	2881c079 	ld.w	$r25,$r3,112(0x70)
1c001c00:	0015b23a 	xor	$r26,$r17,$r12
1c001c04:	001026eb 	add.w	$r11,$r23,$r9
1c001c08:	0010696a 	add.w	$r10,$r11,$r26
1c001c0c:	0010655b 	add.w	$r27,$r10,$r25
1c001c10:	0281d074 	addi.w	$r20,$r3,116(0x74)
1c001c14:	0283006a 	addi.w	$r10,$r3,192(0xc0)
1c001c18:	001501ae 	move	$r14,$r13
1c001c1c:	001503d1 	move	$r17,$r30
1c001c20:	00104b72 	add.w	$r18,$r27,$r18
1c001c24:	5000d400 	b	212(0xd4) # 1c001cf8 <sha_stream+0xb48>
1c001c28:	2880129d 	ld.w	$r29,$r20,4(0x4)
1c001c2c:	28802298 	ld.w	$r24,$r20,8(0x8)
1c001c30:	2880329f 	ld.w	$r31,$r20,12(0xc)
1c001c34:	02806294 	addi.w	$r20,$r20,24(0x18)
1c001c38:	00107772 	add.w	$r18,$r27,$r29
1c001c3c:	00103e5b 	add.w	$r27,$r18,$r15
1c001c40:	0040976f 	slli.w	$r15,$r27,0x5
1c001c44:	0044ef77 	srli.w	$r23,$r27,0x1b
1c001c48:	00155dee 	or	$r14,$r15,$r23
1c001c4c:	001025cc 	add.w	$r12,$r14,$r9
1c001c50:	0010799e 	add.w	$r30,$r12,$r30
1c001c54:	001063d0 	add.w	$r16,$r30,$r24
1c001c58:	00104611 	add.w	$r17,$r16,$r17
1c001c5c:	0040963c 	slli.w	$r28,$r17,0x5
1c001c60:	0044ee3a 	srli.w	$r26,$r17,0x1b
1c001c64:	00156b8b 	or	$r11,$r28,$r26
1c001c68:	0015e773 	xor	$r19,$r27,$r25
1c001c6c:	00158678 	xor	$r24,$r19,$r1
1c001c70:	0010257d 	add.w	$r29,$r11,$r9
1c001c74:	001063b2 	add.w	$r18,$r29,$r24
1c001c78:	00107e5f 	add.w	$r31,$r18,$r31
1c001c7c:	001037ed 	add.w	$r13,$r31,$r13
1c001c80:	00448b77 	srli.w	$r23,$r27,0x2
1c001c84:	0040fb7b 	slli.w	$r27,$r27,0x1e
1c001c88:	00155f6c 	or	$r12,$r27,$r23
1c001c8c:	004095ae 	slli.w	$r14,$r13,0x5
1c001c90:	0044edaf 	srli.w	$r15,$r13,0x1b
1c001c94:	00153dd0 	or	$r16,$r14,$r15
1c001c98:	28bfe29e 	ld.w	$r30,$r20,-8(0xff8)
1c001c9c:	0015b23c 	xor	$r28,$r17,$r12
1c001ca0:	0010261a 	add.w	$r26,$r16,$r9
1c001ca4:	0015e78b 	xor	$r11,$r28,$r25
1c001ca8:	00102f53 	add.w	$r19,$r26,$r11
1c001cac:	00107a7d 	add.w	$r29,$r19,$r30
1c001cb0:	001007ae 	add.w	$r14,$r29,$r1
1c001cb4:	00448a21 	srli.w	$r1,$r17,0x2
1c001cb8:	0040fa31 	slli.w	$r17,$r17,0x1e
1c001cbc:	00150638 	or	$r24,$r17,$r1
1c001cc0:	004095d2 	slli.w	$r18,$r14,0x5
1c001cc4:	0044eddf 	srli.w	$r31,$r14,0x1b
1c001cc8:	0015e1af 	xor	$r15,$r13,$r24
1c001ccc:	28bff297 	ld.w	$r23,$r20,-4(0xffc)
1c001cd0:	00157e5b 	or	$r27,$r18,$r31
1c001cd4:	0015b1f0 	xor	$r16,$r15,$r12
1c001cd8:	0010277e 	add.w	$r30,$r27,$r9
1c001cdc:	001043dc 	add.w	$r28,$r30,$r16
1c001ce0:	004489ab 	srli.w	$r11,$r13,0x2
1c001ce4:	00105f9a 	add.w	$r26,$r28,$r23
1c001ce8:	0040f9ad 	slli.w	$r13,$r13,0x1e
1c001cec:	0015030f 	move	$r15,$r24
1c001cf0:	00152db1 	or	$r17,$r13,$r11
1c001cf4:	00106752 	add.w	$r18,$r26,$r25
1c001cf8:	00409653 	slli.w	$r19,$r18,0x5
1c001cfc:	0044ee50 	srli.w	$r16,$r18,0x1b
1c001d00:	00154277 	or	$r23,$r19,$r16
1c001d04:	0015c5dc 	xor	$r28,$r14,$r17
1c001d08:	28800298 	ld.w	$r24,$r20,0
1c001d0c:	0015bf99 	xor	$r25,$r28,$r15
1c001d10:	001026eb 	add.w	$r11,$r23,$r9
1c001d14:	0010657a 	add.w	$r26,$r11,$r25
1c001d18:	00448a5e 	srli.w	$r30,$r18,0x2
1c001d1c:	0040fa4d 	slli.w	$r13,$r18,0x1e
1c001d20:	001579a1 	or	$r1,$r13,$r30
1c001d24:	0010634d 	add.w	$r13,$r26,$r24
1c001d28:	001031ac 	add.w	$r12,$r13,$r12
1c001d2c:	004489db 	srli.w	$r27,$r14,0x2
1c001d30:	0040f9de 	slli.w	$r30,$r14,0x1e
1c001d34:	00156fcd 	or	$r13,$r30,$r27
1c001d38:	00409593 	slli.w	$r19,$r12,0x5
1c001d3c:	0044ed90 	srli.w	$r16,$r12,0x1b
1c001d40:	0015427c 	or	$r28,$r19,$r16
1c001d44:	0015b64b 	xor	$r11,$r18,$r13
1c001d48:	0010279d 	add.w	$r29,$r28,$r9
1c001d4c:	00158598 	xor	$r24,$r12,$r1
1c001d50:	0044899f 	srli.w	$r31,$r12,0x2
1c001d54:	0040f997 	slli.w	$r23,$r12,0x1e
1c001d58:	0015c57a 	xor	$r26,$r11,$r17
1c001d5c:	0280128e 	addi.w	$r14,$r20,4(0x4)
1c001d60:	00157ef9 	or	$r25,$r23,$r31
1c001d64:	00106bbb 	add.w	$r27,$r29,$r26
1c001d68:	0015b71e 	xor	$r30,$r24,$r13
1c001d6c:	5ffebd4e 	bne	$r10,$r14,-324(0x3febc) # 1c001c28 <sha_stream+0xa78>
1c001d70:	00409589 	slli.w	$r9,$r12,0x5
1c001d74:	0044ed8a 	srli.w	$r10,$r12,0x1b
1c001d78:	28830061 	ld.w	$r1,$r3,192(0xc0)
1c001d7c:	151e3774 	lu12i.w	$r20,-462405(0x8f1bb)
1c001d80:	00152933 	or	$r19,$r9,$r10
1c001d84:	03b37294 	ori	$r20,$r20,0xcdc
1c001d88:	001545ae 	or	$r14,$r13,$r17
1c001d8c:	0010527c 	add.w	$r28,$r19,$r20
1c001d90:	0014c9dd 	and	$r29,$r14,$r18
1c001d94:	0014c5b0 	and	$r16,$r13,$r17
1c001d98:	00100798 	add.w	$r24,$r28,$r1
1c001d9c:	001543bf 	or	$r31,$r29,$r16
1c001da0:	00448a59 	srli.w	$r25,$r18,0x2
1c001da4:	00107f17 	add.w	$r23,$r24,$r31
1c001da8:	0040fa52 	slli.w	$r18,$r18,0x1e
1c001dac:	02844069 	addi.w	$r9,$r3,272(0x110)
1c001db0:	02831073 	addi.w	$r19,$r3,196(0xc4)
1c001db4:	00156652 	or	$r18,$r18,$r25
1c001db8:	00103eeb 	add.w	$r11,$r23,$r15
1c001dbc:	50004000 	b	64(0x40) # 1c001dfc <sha_stream+0xc4c>
1c001dc0:	28801277 	ld.w	$r23,$r19,4(0x4)
1c001dc4:	2880226e 	ld.w	$r14,$r19,8(0x8)
1c001dc8:	02803273 	addi.w	$r19,$r19,12(0xc)
1c001dcc:	00105f9e 	add.w	$r30,$r28,$r23
1c001dd0:	001043cc 	add.w	$r12,$r30,$r16
1c001dd4:	0010358c 	add.w	$r12,$r12,$r13
1c001dd8:	0044ed8b 	srli.w	$r11,$r12,0x1b
1c001ddc:	00409590 	slli.w	$r16,$r12,0x5
1c001de0:	00152e19 	or	$r25,$r16,$r11
1c001de4:	00105321 	add.w	$r1,$r25,$r20
1c001de8:	0010383c 	add.w	$r28,$r1,$r14
1c001dec:	00103f9a 	add.w	$r26,$r28,$r15
1c001df0:	00104b4b 	add.w	$r11,$r26,$r18
1c001df4:	0015036d 	move	$r13,$r27
1c001df8:	00157712 	or	$r18,$r24,$r29
1c001dfc:	0044896f 	srli.w	$r15,$r11,0x2
1c001e00:	0040f97a 	slli.w	$r26,$r11,0x1e
1c001e04:	00153f5b 	or	$r27,$r26,$r15
1c001e08:	00409570 	slli.w	$r16,$r11,0x5
1c001e0c:	0044ed6f 	srli.w	$r15,$r11,0x1b
1c001e10:	2880027e 	ld.w	$r30,$r19,0
1c001e14:	00153e1c 	or	$r28,$r16,$r15
1c001e18:	0015364a 	or	$r10,$r18,$r13
1c001e1c:	0014b158 	and	$r24,$r10,$r12
1c001e20:	0010539f 	add.w	$r31,$r28,$r20
1c001e24:	0014b64e 	and	$r14,$r18,$r13
1c001e28:	00107bfa 	add.w	$r26,$r31,$r30
1c001e2c:	00153b10 	or	$r16,$r24,$r14
1c001e30:	0044899e 	srli.w	$r30,$r12,0x2
1c001e34:	0040f999 	slli.w	$r25,$r12,0x1e
1c001e38:	0010434c 	add.w	$r12,$r26,$r16
1c001e3c:	0010458e 	add.w	$r14,$r12,$r17
1c001e40:	004095d1 	slli.w	$r17,$r14,0x5
1c001e44:	0044edcf 	srli.w	$r15,$r14,0x1b
1c001e48:	00153e21 	or	$r1,$r17,$r15
1c001e4c:	00157b31 	or	$r17,$r25,$r30
1c001e50:	00154a3f 	or	$r31,$r17,$r18
1c001e54:	0015477e 	or	$r30,$r27,$r17
1c001e58:	0014affa 	and	$r26,$r31,$r11
1c001e5c:	0014ca37 	and	$r23,$r17,$r18
1c001e60:	0014bbd9 	and	$r25,$r30,$r14
1c001e64:	0014c76c 	and	$r12,$r27,$r17
1c001e68:	0280126a 	addi.w	$r10,$r19,4(0x4)
1c001e6c:	0010503c 	add.w	$r28,$r1,$r20
1c001e70:	004489dd 	srli.w	$r29,$r14,0x2
1c001e74:	0040f9d8 	slli.w	$r24,$r14,0x1e
1c001e78:	00155f50 	or	$r16,$r26,$r23
1c001e7c:	0015332f 	or	$r15,$r25,$r12
1c001e80:	5fff412a 	bne	$r9,$r10,-192(0x3ff40) # 1c001dc0 <sha_stream+0xc10>
1c001e84:	004095d4 	slli.w	$r20,$r14,0x5
1c001e88:	0044edd3 	srli.w	$r19,$r14,0x1b
1c001e8c:	1594c589 	lu12i.w	$r9,-219604(0xca62c)
1c001e90:	00154e8a 	or	$r10,$r20,$r19
1c001e94:	0015c57b 	xor	$r27,$r11,$r17
1c001e98:	03875929 	ori	$r9,$r9,0x1d6
1c001e9c:	28844061 	ld.w	$r1,$r3,272(0x110)
1c001ea0:	0010255d 	add.w	$r29,$r10,$r9
1c001ea4:	0015cb7c 	xor	$r28,$r27,$r18
1c001ea8:	00107798 	add.w	$r24,$r28,$r29
1c001eac:	0044897a 	srli.w	$r26,$r11,0x2
1c001eb0:	0010071f 	add.w	$r31,$r24,$r1
1c001eb4:	0040f96b 	slli.w	$r11,$r11,0x1e
1c001eb8:	02858074 	addi.w	$r20,$r3,352(0x160)
1c001ebc:	0284506a 	addi.w	$r10,$r3,276(0x114)
1c001ec0:	0015022c 	move	$r12,$r17
1c001ec4:	0015696f 	or	$r15,$r11,$r26
1c001ec8:	001037ed 	add.w	$r13,$r31,$r13
1c001ecc:	5000d000 	b	208(0xd0) # 1c001f9c <sha_stream+0xdec>
1c001ed0:	2880114d 	ld.w	$r13,$r10,4(0x4)
1c001ed4:	2880214b 	ld.w	$r11,$r10,8(0x8)
1c001ed8:	28803152 	ld.w	$r18,$r10,12(0xc)
1c001edc:	0280614a 	addi.w	$r10,$r10,24(0x18)
1c001ee0:	001035d0 	add.w	$r16,$r14,$r13
1c001ee4:	00103219 	add.w	$r25,$r16,$r12
1c001ee8:	00409733 	slli.w	$r19,$r25,0x5
1c001eec:	0044ef2c 	srli.w	$r12,$r25,0x1b
1c001ef0:	0015327b 	or	$r27,$r19,$r12
1c001ef4:	00102761 	add.w	$r1,$r27,$r9
1c001ef8:	0010063c 	add.w	$r28,$r17,$r1
1c001efc:	00102f98 	add.w	$r24,$r28,$r11
1c001f00:	00103f0f 	add.w	$r15,$r24,$r15
1c001f04:	004095fa 	slli.w	$r26,$r15,0x5
1c001f08:	0044edee 	srli.w	$r14,$r15,0x1b
1c001f0c:	00153b57 	or	$r23,$r26,$r14
1c001f10:	0015f731 	xor	$r17,$r25,$r29
1c001f14:	0015fa2b 	xor	$r11,$r17,$r30
1c001f18:	001026ed 	add.w	$r13,$r23,$r9
1c001f1c:	00103570 	add.w	$r16,$r11,$r13
1c001f20:	00104a12 	add.w	$r18,$r16,$r18
1c001f24:	00107e5f 	add.w	$r31,$r18,$r31
1c001f28:	00448b33 	srli.w	$r19,$r25,0x2
1c001f2c:	0040fb39 	slli.w	$r25,$r25,0x1e
1c001f30:	00154f32 	or	$r18,$r25,$r19
1c001f34:	004097ec 	slli.w	$r12,$r31,0x5
1c001f38:	0044effb 	srli.w	$r27,$r31,0x1b
1c001f3c:	00156d98 	or	$r24,$r12,$r27
1c001f40:	28bfe141 	ld.w	$r1,$r10,-8(0xff8)
1c001f44:	0015c9fc 	xor	$r28,$r15,$r18
1c001f48:	0015f79a 	xor	$r26,$r28,$r29
1c001f4c:	0010270e 	add.w	$r14,$r24,$r9
1c001f50:	00103b51 	add.w	$r17,$r26,$r14
1c001f54:	00100637 	add.w	$r23,$r17,$r1
1c001f58:	00107aee 	add.w	$r14,$r23,$r30
1c001f5c:	004489fe 	srli.w	$r30,$r15,0x2
1c001f60:	0040f9ef 	slli.w	$r15,$r15,0x1e
1c001f64:	001579ec 	or	$r12,$r15,$r30
1c001f68:	004095d0 	slli.w	$r16,$r14,0x5
1c001f6c:	0044edcb 	srli.w	$r11,$r14,0x1b
1c001f70:	0015b3ed 	xor	$r13,$r31,$r12
1c001f74:	28bff153 	ld.w	$r19,$r10,-4(0xffc)
1c001f78:	00152e19 	or	$r25,$r16,$r11
1c001f7c:	0015c9bb 	xor	$r27,$r13,$r18
1c001f80:	00102721 	add.w	$r1,$r25,$r9
1c001f84:	0010077c 	add.w	$r28,$r27,$r1
1c001f88:	00448bfa 	srli.w	$r26,$r31,0x2
1c001f8c:	00104f98 	add.w	$r24,$r28,$r19
1c001f90:	0040fbff 	slli.w	$r31,$r31,0x1e
1c001f94:	00156bef 	or	$r15,$r31,$r26
1c001f98:	0010770d 	add.w	$r13,$r24,$r29
1c001f9c:	004095ab 	slli.w	$r11,$r13,0x5
1c001fa0:	0044edb0 	srli.w	$r16,$r13,0x1b
1c001fa4:	0015417c 	or	$r28,$r11,$r16
1c001fa8:	0015bdd9 	xor	$r25,$r14,$r15
1c001fac:	28800153 	ld.w	$r19,$r10,0
1c001fb0:	0015b33d 	xor	$r29,$r25,$r12
1c001fb4:	00102798 	add.w	$r24,$r28,$r9
1c001fb8:	001063bf 	add.w	$r31,$r29,$r24
1c001fbc:	004489b1 	srli.w	$r17,$r13,0x2
1c001fc0:	0040f9b7 	slli.w	$r23,$r13,0x1e
1c001fc4:	001546fe 	or	$r30,$r23,$r17
1c001fc8:	00104ff1 	add.w	$r17,$r31,$r19
1c001fcc:	00104a32 	add.w	$r18,$r17,$r18
1c001fd0:	004489da 	srli.w	$r26,$r14,0x2
1c001fd4:	0040f9ce 	slli.w	$r14,$r14,0x1e
1c001fd8:	001569df 	or	$r31,$r14,$r26
1c001fdc:	0040964b 	slli.w	$r11,$r18,0x5
1c001fe0:	0044ee50 	srli.w	$r16,$r18,0x1b
1c001fe4:	00154179 	or	$r25,$r11,$r16
1c001fe8:	0015fdb8 	xor	$r24,$r13,$r31
1c001fec:	00102733 	add.w	$r19,$r25,$r9
1c001ff0:	0015fa5b 	xor	$r27,$r18,$r30
1c001ff4:	00448a41 	srli.w	$r1,$r18,0x2
1c001ff8:	0040fa5c 	slli.w	$r28,$r18,0x1e
1c001ffc:	0015bf1a 	xor	$r26,$r24,$r15
1c002000:	02801157 	addi.w	$r23,$r10,4(0x4)
1c002004:	0015079d 	or	$r29,$r28,$r1
1c002008:	00104f4e 	add.w	$r14,$r26,$r19
1c00200c:	0015ff71 	xor	$r17,$r27,$r31
1c002010:	5ffec297 	bne	$r20,$r23,-320(0x3fec0) # 1c001ed0 <sha_stream+0xd20>
1c002014:	00107ce7 	add.w	$r7,$r7,$r31
1c002018:	001048c6 	add.w	$r6,$r6,$r18
1c00201c:	001034a5 	add.w	$r5,$r5,$r13
1c002020:	00103c84 	add.w	$r4,$r4,$r15
1c002024:	00103108 	add.w	$r8,$r8,$r12
1c002028:	298002c6 	st.w	$r6,$r22,0
1c00202c:	298012c5 	st.w	$r5,$r22,4(0x4)
1c002030:	298022c7 	st.w	$r7,$r22,8(0x8)
1c002034:	298032c4 	st.w	$r4,$r22,12(0xc)
1c002038:	298042c8 	st.w	$r8,$r22,16(0x10)
1c00203c:	288e3061 	ld.w	$r1,$r3,908(0x38c)
1c002040:	288e2076 	ld.w	$r22,$r3,904(0x388)
1c002044:	288e1077 	ld.w	$r23,$r3,900(0x384)
1c002048:	288e0078 	ld.w	$r24,$r3,896(0x380)
1c00204c:	288df079 	ld.w	$r25,$r3,892(0x37c)
1c002050:	288de07a 	ld.w	$r26,$r3,888(0x378)
1c002054:	288dd07b 	ld.w	$r27,$r3,884(0x374)
1c002058:	288dc07c 	ld.w	$r28,$r3,880(0x370)
1c00205c:	288db07d 	ld.w	$r29,$r3,876(0x36c)
1c002060:	288da07e 	ld.w	$r30,$r3,872(0x368)
1c002064:	288d907f 	ld.w	$r31,$r3,868(0x364)
1c002068:	028e4063 	addi.w	$r3,$r3,912(0x390)
1c00206c:	4c000020 	jirl	$r0,$r1,0
1c002070:	004094e5 	slli.w	$r5,$r7,0x5
1c002074:	0044ecf0 	srli.w	$r16,$r7,0x1b
1c002078:	001540a1 	or	$r1,$r5,$r16
1c00207c:	0015b1b2 	xor	$r18,$r13,$r12
1c002080:	28801284 	ld.w	$r4,$r20,4(0x4)
1c002084:	0015be46 	xor	$r6,$r18,$r15
1c002088:	00107c31 	add.w	$r17,$r1,$r31
1c00208c:	001044c9 	add.w	$r9,$r6,$r17
1c002090:	00101128 	add.w	$r8,$r9,$r4
1c002094:	00104d0b 	add.w	$r11,$r8,$r19
1c002098:	004489ae 	srli.w	$r14,$r13,0x2
1c00209c:	0040f9ad 	slli.w	$r13,$r13,0x1e
1c0020a0:	001539b2 	or	$r18,$r13,$r14
1c0020a4:	00409565 	slli.w	$r5,$r11,0x5
1c0020a8:	0044ed73 	srli.w	$r19,$r11,0x1b
1c0020ac:	00154ca4 	or	$r4,$r5,$r19
1c0020b0:	28802281 	ld.w	$r1,$r20,8(0x8)
1c0020b4:	0015c8f0 	xor	$r16,$r7,$r18
1c0020b8:	0015b206 	xor	$r6,$r16,$r12
1c0020bc:	00107c91 	add.w	$r17,$r4,$r31
1c0020c0:	001044c9 	add.w	$r9,$r6,$r17
1c0020c4:	00100528 	add.w	$r8,$r9,$r1
1c0020c8:	00103d04 	add.w	$r4,$r8,$r15
1c0020cc:	004488ef 	srli.w	$r15,$r7,0x2
1c0020d0:	0040f8e7 	slli.w	$r7,$r7,0x1e
1c0020d4:	00153cf3 	or	$r19,$r7,$r15
1c0020d8:	00409485 	slli.w	$r5,$r4,0x5
1c0020dc:	0044ec81 	srli.w	$r1,$r4,0x1b
1c0020e0:	0015cd6d 	xor	$r13,$r11,$r19
1c0020e4:	2880328e 	ld.w	$r14,$r20,12(0xc)
1c0020e8:	001504b0 	or	$r16,$r5,$r1
1c0020ec:	0015c9a6 	xor	$r6,$r13,$r18
1c0020f0:	00107e11 	add.w	$r17,$r16,$r31
1c0020f4:	001044c9 	add.w	$r9,$r6,$r17
1c0020f8:	00448967 	srli.w	$r7,$r11,0x2
1c0020fc:	00103928 	add.w	$r8,$r9,$r14
1c002100:	0040f96b 	slli.w	$r11,$r11,0x1e
1c002104:	02804294 	addi.w	$r20,$r20,16(0x10)
1c002108:	00151d6f 	or	$r15,$r11,$r7
1c00210c:	0010310d 	add.w	$r13,$r8,$r12
1c002110:	53f5c3ff 	b	-2624(0xffff5c0) # 1c0016d0 <sha_stream+0x520>
1c002114:	2880128f 	ld.w	$r15,$r20,4(0x4)
1c002118:	00409425 	slli.w	$r5,$r1,0x5
1c00211c:	0044ec2e 	srli.w	$r14,$r1,0x1b
1c002120:	001538ad 	or	$r13,$r5,$r14
1c002124:	0015cd0c 	xor	$r12,$r8,$r19
1c002128:	00149186 	and	$r6,$r12,$r4
1c00212c:	001079b0 	add.w	$r16,$r13,$r30
1c002130:	0015ccd1 	xor	$r17,$r6,$r19
1c002134:	00103e09 	add.w	$r9,$r16,$r15
1c002138:	00104527 	add.w	$r7,$r9,$r17
1c00213c:	001048eb 	add.w	$r11,$r7,$r18
1c002140:	00448892 	srli.w	$r18,$r4,0x2
1c002144:	0040f884 	slli.w	$r4,$r4,0x1e
1c002148:	0015488e 	or	$r14,$r4,$r18
1c00214c:	2880228f 	ld.w	$r15,$r20,8(0x8)
1c002150:	00409565 	slli.w	$r5,$r11,0x5
1c002154:	0044ed6c 	srli.w	$r12,$r11,0x1b
1c002158:	001530ad 	or	$r13,$r5,$r12
1c00215c:	0015a1c6 	xor	$r6,$r14,$r8
1c002160:	001484d1 	and	$r17,$r6,$r1
1c002164:	001079b0 	add.w	$r16,$r13,$r30
1c002168:	00103e09 	add.w	$r9,$r16,$r15
1c00216c:	0015a227 	xor	$r7,$r17,$r8
1c002170:	00101d32 	add.w	$r18,$r9,$r7
1c002174:	00104e4c 	add.w	$r12,$r18,$r19
1c002178:	00448833 	srli.w	$r19,$r1,0x2
1c00217c:	0040f821 	slli.w	$r1,$r1,0x1e
1c002180:	00154c32 	or	$r18,$r1,$r19
1c002184:	2880328f 	ld.w	$r15,$r20,12(0xc)
1c002188:	00409584 	slli.w	$r4,$r12,0x5
1c00218c:	0044ed85 	srli.w	$r5,$r12,0x1b
1c002190:	0015148d 	or	$r13,$r4,$r5
1c002194:	0015ba46 	xor	$r6,$r18,$r14
1c002198:	0014acd1 	and	$r17,$r6,$r11
1c00219c:	001079b0 	add.w	$r16,$r13,$r30
1c0021a0:	00103e09 	add.w	$r9,$r16,$r15
1c0021a4:	0015ba27 	xor	$r7,$r17,$r14
1c0021a8:	00448973 	srli.w	$r19,$r11,0x2
1c0021ac:	00101d21 	add.w	$r1,$r9,$r7
1c0021b0:	0040f96b 	slli.w	$r11,$r11,0x1e
1c0021b4:	02804294 	addi.w	$r20,$r20,16(0x10)
1c0021b8:	00154d73 	or	$r19,$r11,$r19
1c0021bc:	00102024 	add.w	$r4,$r1,$r8
1c0021c0:	53f3e7ff 	b	-3100(0xffff3e4) # 1c0015a4 <sha_stream+0x3f4>
1c0021c4:	004095a8 	slli.w	$r8,$r13,0x5
1c0021c8:	0044eda4 	srli.w	$r4,$r13,0x1b
1c0021cc:	00158586 	xor	$r6,$r12,$r1
1c0021d0:	00151107 	or	$r7,$r8,$r4
1c0021d4:	2880128b 	ld.w	$r11,$r20,4(0x4)
1c0021d8:	0015ccd0 	xor	$r16,$r6,$r19
1c0021dc:	001064f1 	add.w	$r17,$r7,$r25
1c0021e0:	00104232 	add.w	$r18,$r17,$r16
1c0021e4:	00102e49 	add.w	$r9,$r18,$r11
1c0021e8:	0010392e 	add.w	$r14,$r9,$r14
1c0021ec:	0044898f 	srli.w	$r15,$r12,0x2
1c0021f0:	0040f98c 	slli.w	$r12,$r12,0x1e
1c0021f4:	00153d88 	or	$r8,$r12,$r15
1c0021f8:	004095c4 	slli.w	$r4,$r14,0x5
1c0021fc:	0044edc6 	srli.w	$r6,$r14,0x1b
1c002200:	00151887 	or	$r7,$r4,$r6
1c002204:	0015a1b0 	xor	$r16,$r13,$r8
1c002208:	2880228b 	ld.w	$r11,$r20,8(0x8)
1c00220c:	00158612 	xor	$r18,$r16,$r1
1c002210:	001064f1 	add.w	$r17,$r7,$r25
1c002214:	00104a29 	add.w	$r9,$r17,$r18
1c002218:	00102d2f 	add.w	$r15,$r9,$r11
1c00221c:	00104df3 	add.w	$r19,$r15,$r19
1c002220:	004489ac 	srli.w	$r12,$r13,0x2
1c002224:	0040f9ad 	slli.w	$r13,$r13,0x1e
1c002228:	001531a4 	or	$r4,$r13,$r12
1c00222c:	00409666 	slli.w	$r6,$r19,0x5
1c002230:	0044ee6b 	srli.w	$r11,$r19,0x1b
1c002234:	00152cd0 	or	$r16,$r6,$r11
1c002238:	28803287 	ld.w	$r7,$r20,12(0xc)
1c00223c:	001591d1 	xor	$r17,$r14,$r4
1c002240:	0015a229 	xor	$r9,$r17,$r8
1c002244:	00106612 	add.w	$r18,$r16,$r25
1c002248:	0010264f 	add.w	$r15,$r18,$r9
1c00224c:	00101dec 	add.w	$r12,$r15,$r7
1c002250:	00100581 	add.w	$r1,$r12,$r1
1c002254:	004489cd 	srli.w	$r13,$r14,0x2
1c002258:	0040f9ce 	slli.w	$r14,$r14,0x1e
1c00225c:	001535cd 	or	$r13,$r14,$r13
1c002260:	00409426 	slli.w	$r6,$r1,0x5
1c002264:	0044ec2b 	srli.w	$r11,$r1,0x1b
1c002268:	00152cd0 	or	$r16,$r6,$r11
1c00226c:	28804287 	ld.w	$r7,$r20,16(0x10)
1c002270:	0015b671 	xor	$r17,$r19,$r13
1c002274:	00106612 	add.w	$r18,$r16,$r25
1c002278:	00159229 	xor	$r9,$r17,$r4
1c00227c:	0010264f 	add.w	$r15,$r18,$r9
1c002280:	00101dec 	add.w	$r12,$r15,$r7
1c002284:	0010218f 	add.w	$r15,$r12,$r8
1c002288:	00448a68 	srli.w	$r8,$r19,0x2
1c00228c:	0040fa73 	slli.w	$r19,$r19,0x1e
1c002290:	0015226e 	or	$r14,$r19,$r8
1c002294:	004095e6 	slli.w	$r6,$r15,0x5
1c002298:	0044edeb 	srli.w	$r11,$r15,0x1b
1c00229c:	28805287 	ld.w	$r7,$r20,20(0x14)
1c0022a0:	0015b831 	xor	$r17,$r1,$r14
1c0022a4:	00152cd0 	or	$r16,$r6,$r11
1c0022a8:	00106612 	add.w	$r18,$r16,$r25
1c0022ac:	0015b629 	xor	$r9,$r17,$r13
1c0022b0:	0010264c 	add.w	$r12,$r18,$r9
1c0022b4:	00448833 	srli.w	$r19,$r1,0x2
1c0022b8:	00101d88 	add.w	$r8,$r12,$r7
1c0022bc:	0040f821 	slli.w	$r1,$r1,0x1e
1c0022c0:	02806294 	addi.w	$r20,$r20,24(0x18)
1c0022c4:	00154c33 	or	$r19,$r1,$r19
1c0022c8:	0010110c 	add.w	$r12,$r8,$r4
1c0022cc:	53f517ff 	b	-2796(0xffff514) # 1c0017e0 <sha_stream+0x630>
1c0022d0:	28800069 	ld.w	$r9,$r3,0
1c0022d4:	004095e6 	slli.w	$r6,$r15,0x5
1c0022d8:	0044ede4 	srli.w	$r4,$r15,0x1b
1c0022dc:	2880128b 	ld.w	$r11,$r20,4(0x4)
1c0022e0:	001535c7 	or	$r7,$r14,$r13
1c0022e4:	001510d1 	or	$r17,$r6,$r4
1c0022e8:	0014ccf0 	and	$r16,$r7,$r19
1c0022ec:	0014b5d2 	and	$r18,$r14,$r13
1c0022f0:	00102628 	add.w	$r8,$r17,$r9
1c0022f4:	00154a01 	or	$r1,$r16,$r18
1c0022f8:	00102d0b 	add.w	$r11,$r8,$r11
1c0022fc:	00102c26 	add.w	$r6,$r1,$r11
1c002300:	001030cc 	add.w	$r12,$r6,$r12
1c002304:	00448a64 	srli.w	$r4,$r19,0x2
1c002308:	0040fa73 	slli.w	$r19,$r19,0x1e
1c00230c:	00151267 	or	$r7,$r19,$r4
1c002310:	00409591 	slli.w	$r17,$r12,0x5
1c002314:	0044ed88 	srli.w	$r8,$r12,0x1b
1c002318:	28802292 	ld.w	$r18,$r20,8(0x8)
1c00231c:	001538f0 	or	$r16,$r7,$r14
1c002320:	00152221 	or	$r1,$r17,$r8
1c002324:	0014be0b 	and	$r11,$r16,$r15
1c002328:	0014b8e6 	and	$r6,$r7,$r14
1c00232c:	00102424 	add.w	$r4,$r1,$r9
1c002330:	00151973 	or	$r19,$r11,$r6
1c002334:	00104892 	add.w	$r18,$r4,$r18
1c002338:	00104a71 	add.w	$r17,$r19,$r18
1c00233c:	0010362d 	add.w	$r13,$r17,$r13
1c002340:	004489e8 	srli.w	$r8,$r15,0x2
1c002344:	0040f9ef 	slli.w	$r15,$r15,0x1e
1c002348:	001521f0 	or	$r16,$r15,$r8
1c00234c:	28803281 	ld.w	$r1,$r20,12(0xc)
1c002350:	004095ab 	slli.w	$r11,$r13,0x5
1c002354:	0044eda6 	srli.w	$r6,$r13,0x1b
1c002358:	00151973 	or	$r19,$r11,$r6
1c00235c:	00151e04 	or	$r4,$r16,$r7
1c002360:	0014b092 	and	$r18,$r4,$r12
1c002364:	00102668 	add.w	$r8,$r19,$r9
1c002368:	00149e11 	and	$r17,$r16,$r7
1c00236c:	0015464b 	or	$r11,$r18,$r17
1c002370:	0010050f 	add.w	$r15,$r8,$r1
1c002374:	00103d61 	add.w	$r1,$r11,$r15
1c002378:	0010382e 	add.w	$r14,$r1,$r14
1c00237c:	00448986 	srli.w	$r6,$r12,0x2
1c002380:	0040f98c 	slli.w	$r12,$r12,0x1e
1c002384:	0015198f 	or	$r15,$r12,$r6
1c002388:	28804293 	ld.w	$r19,$r20,16(0x10)
1c00238c:	004095d1 	slli.w	$r17,$r14,0x5
1c002390:	0044edc4 	srli.w	$r4,$r14,0x1b
1c002394:	00151228 	or	$r8,$r17,$r4
1c002398:	001541f2 	or	$r18,$r15,$r16
1c00239c:	0014b64b 	and	$r11,$r18,$r13
1c0023a0:	00102506 	add.w	$r6,$r8,$r9
1c0023a4:	0014c1e1 	and	$r1,$r15,$r16
1c0023a8:	00150571 	or	$r17,$r11,$r1
1c0023ac:	00104ccc 	add.w	$r12,$r6,$r19
1c0023b0:	00103233 	add.w	$r19,$r17,$r12
1c0023b4:	00101e72 	add.w	$r18,$r19,$r7
1c0023b8:	004489a7 	srli.w	$r7,$r13,0x2
1c0023bc:	0040f9ad 	slli.w	$r13,$r13,0x1e
1c0023c0:	00151dac 	or	$r12,$r13,$r7
1c0023c4:	28805288 	ld.w	$r8,$r20,20(0x14)
1c0023c8:	0040964b 	slli.w	$r11,$r18,0x5
1c0023cc:	0044ee44 	srli.w	$r4,$r18,0x1b
1c0023d0:	00151166 	or	$r6,$r11,$r4
1c0023d4:	00153d81 	or	$r1,$r12,$r15
1c0023d8:	0014b831 	and	$r17,$r1,$r14
1c0023dc:	0014bd93 	and	$r19,$r12,$r15
1c0023e0:	001024c9 	add.w	$r9,$r6,$r9
1c0023e4:	00154e27 	or	$r7,$r17,$r19
1c0023e8:	0010212d 	add.w	$r13,$r9,$r8
1c0023ec:	001034e8 	add.w	$r8,$r7,$r13
1c0023f0:	004489cb 	srli.w	$r11,$r14,0x2
1c0023f4:	0040f9ce 	slli.w	$r14,$r14,0x1e
1c0023f8:	02806294 	addi.w	$r20,$r20,24(0x18)
1c0023fc:	00152dcd 	or	$r13,$r14,$r11
1c002400:	00104113 	add.w	$r19,$r8,$r16
1c002404:	53f35bff 	b	-3240(0xffff358) # 1c00175c <sha_stream+0x5ac>
1c002408:	288062c8 	ld.w	$r8,$r22,24(0x18)
1c00240c:	0044f6f8 	srli.w	$r24,$r23,0x1d
1c002410:	0280fc12 	addi.w	$r18,$r0,63(0x3f)
1c002414:	02800509 	addi.w	$r9,$r8,1(0x1)
1c002418:	00102711 	add.w	$r17,$r24,$r9
1c00241c:	298052c7 	st.w	$r7,$r22,20(0x14)
1c002420:	298062d1 	st.w	$r17,$r22,24(0x18)
1c002424:	63ee9e57 	blt	$r18,$r23,-4452(0x3ee9c) # 1c0012c0 <sha_stream+0x110>
1c002428:	0285806a 	addi.w	$r10,$r3,352(0x160)
1c00242c:	53f437ff 	b	-3020(0xffff434) # 1c001860 <sha_stream+0x6b0>
1c002430:	0281001e 	addi.w	$r30,$r0,64(0x40)
1c002434:	00116fc6 	sub.w	$r6,$r30,$r27
1c002438:	00150005 	move	$r5,$r0
1c00243c:	540f5400 	bl	3924(0xf54) # 1c003390 <memset>
1c002440:	02810006 	addi.w	$r6,$r0,64(0x40)
1c002444:	00150325 	move	$r5,$r25
1c002448:	02808064 	addi.w	$r4,$r3,32(0x20)
1c00244c:	540f6000 	bl	3936(0xf60) # 1c0033ac <memcpy>
1c002450:	28815064 	ld.w	$r4,$r3,84(0x54)
1c002454:	2881607c 	ld.w	$r28,$r3,88(0x58)
1c002458:	2881707d 	ld.w	$r29,$r3,92(0x5c)
1c00245c:	2880a07e 	ld.w	$r30,$r3,40(0x28)
1c002460:	2880b074 	ld.w	$r20,$r3,44(0x2c)
1c002464:	2880c073 	ld.w	$r19,$r3,48(0x30)
1c002468:	2880d06a 	ld.w	$r10,$r3,52(0x34)
1c00246c:	2880e069 	ld.w	$r9,$r3,56(0x38)
1c002470:	2880f06d 	ld.w	$r13,$r3,60(0x3c)
1c002474:	0280806c 	addi.w	$r12,$r3,32(0x20)
1c002478:	02804006 	addi.w	$r6,$r0,16(0x10)
1c00247c:	02813c1f 	addi.w	$r31,$r0,79(0x4f)
1c002480:	2880a185 	ld.w	$r5,$r12,40(0x28)
1c002484:	28808187 	ld.w	$r7,$r12,32(0x20)
1c002488:	2880918b 	ld.w	$r11,$r12,36(0x24)
1c00248c:	28802190 	ld.w	$r16,$r12,8(0x8)
1c002490:	2880018f 	ld.w	$r15,$r12,0
1c002494:	28801192 	ld.w	$r18,$r12,4(0x4)
1c002498:	0015f66e 	xor	$r14,$r19,$r29
1c00249c:	0015f288 	xor	$r8,$r20,$r28
1c0024a0:	001595d3 	xor	$r19,$r14,$r5
1c0024a4:	001593c4 	xor	$r4,$r30,$r4
1c0024a8:	0015c27d 	xor	$r29,$r19,$r16
1c0024ac:	00159c81 	xor	$r1,$r4,$r7
1c0024b0:	0015ad11 	xor	$r17,$r8,$r11
1c0024b4:	2880b19e 	ld.w	$r30,$r12,44(0x2c)
1c0024b8:	2880c194 	ld.w	$r20,$r12,48(0x30)
1c0024bc:	2880d193 	ld.w	$r19,$r12,52(0x34)
1c0024c0:	0015bc39 	xor	$r25,$r1,$r15
1c0024c4:	0015ca3c 	xor	$r28,$r17,$r18
1c0024c8:	2880319b 	ld.w	$r27,$r12,12(0xc)
1c0024cc:	2880419a 	ld.w	$r26,$r12,16(0x10)
1c0024d0:	28805192 	ld.w	$r18,$r12,20(0x14)
1c0024d4:	0015f129 	xor	$r9,$r9,$r28
1c0024d8:	0015f5af 	xor	$r15,$r13,$r29
1c0024dc:	0015e54a 	xor	$r10,$r10,$r25
1c0024e0:	0015f94d 	xor	$r13,$r10,$r30
1c0024e4:	0015d130 	xor	$r16,$r9,$r20
1c0024e8:	0015cde4 	xor	$r4,$r15,$r19
1c0024ec:	2880e18a 	ld.w	$r10,$r12,56(0x38)
1c0024f0:	2880f189 	ld.w	$r9,$r12,60(0x3c)
1c0024f4:	0015eda1 	xor	$r1,$r13,$r27
1c0024f8:	28806191 	ld.w	$r17,$r12,24(0x18)
1c0024fc:	28807188 	ld.w	$r8,$r12,28(0x1c)
1c002500:	29810199 	st.w	$r25,$r12,64(0x40)
1c002504:	2981119c 	st.w	$r28,$r12,68(0x44)
1c002508:	2981219d 	st.w	$r29,$r12,72(0x48)
1c00250c:	0015ea1c 	xor	$r28,$r16,$r26
1c002510:	0015c89d 	xor	$r29,$r4,$r18
1c002514:	001500ee 	move	$r14,$r7
1c002518:	0015f16b 	xor	$r11,$r11,$r28
1c00251c:	0015f4a5 	xor	$r5,$r5,$r29
1c002520:	001584e7 	xor	$r7,$r7,$r1
1c002524:	0015a8fb 	xor	$r27,$r7,$r10
1c002528:	0015a57a 	xor	$r26,$r11,$r9
1c00252c:	0015e4b2 	xor	$r18,$r5,$r25
1c002530:	29813181 	st.w	$r1,$r12,76(0x4c)
1c002534:	2981419c 	st.w	$r28,$r12,80(0x50)
1c002538:	2981519d 	st.w	$r29,$r12,84(0x54)
1c00253c:	0015c764 	xor	$r4,$r27,$r17
1c002540:	0015a35c 	xor	$r28,$r26,$r8
1c002544:	0015ba5d 	xor	$r29,$r18,$r14
1c002548:	29816184 	st.w	$r4,$r12,88(0x58)
1c00254c:	2981719c 	st.w	$r28,$r12,92(0x5c)
1c002550:	2981819d 	st.w	$r29,$r12,96(0x60)
1c002554:	028024c6 	addi.w	$r6,$r6,9(0x9)
1c002558:	0280918c 	addi.w	$r12,$r12,36(0x24)
1c00255c:	0015032d 	move	$r13,$r25
1c002560:	5fff20df 	bne	$r6,$r31,-224(0x3ff20) # 1c002480 <sha_stream+0x12d0>
1c002564:	288002c7 	ld.w	$r7,$r22,0
1c002568:	288032c5 	ld.w	$r5,$r22,12(0xc)
1c00256c:	288022c8 	ld.w	$r8,$r22,8(0x8)
1c002570:	288012c6 	ld.w	$r6,$r22,4(0x4)
1c002574:	2885406f 	ld.w	$r15,$r3,336(0x150)
1c002578:	2884f061 	ld.w	$r1,$r3,316(0x13c)
1c00257c:	004094ff 	slli.w	$r31,$r7,0x5
1c002580:	2880807e 	ld.w	$r30,$r3,32(0x20)
1c002584:	14b504f4 	lu12i.w	$r20,370727(0x5a827)
1c002588:	0044ecf9 	srli.w	$r25,$r7,0x1b
1c00258c:	2884907b 	ld.w	$r27,$r3,292(0x124)
1c002590:	03a66691 	ori	$r17,$r20,0x999
1c002594:	001567f3 	or	$r19,$r31,$r25
1c002598:	00159510 	xor	$r16,$r8,$r5
1c00259c:	2884707c 	ld.w	$r28,$r3,284(0x11c)
1c0025a0:	0015bc2a 	xor	$r10,$r1,$r15
1c0025a4:	00149a0b 	and	$r11,$r16,$r6
1c0025a8:	288042c9 	ld.w	$r9,$r22,16(0x10)
1c0025ac:	0010466e 	add.w	$r14,$r19,$r17
1c0025b0:	001079d2 	add.w	$r18,$r14,$r30
1c0025b4:	0015ed5a 	xor	$r26,$r10,$r27
1c0025b8:	00159564 	xor	$r4,$r11,$r5
1c0025bc:	0010125f 	add.w	$r31,$r18,$r4
1c0025c0:	0015f35d 	xor	$r29,$r26,$r28
1c0025c4:	004488cd 	srli.w	$r13,$r6,0x2
1c0025c8:	0040f8de 	slli.w	$r30,$r6,0x1e
1c0025cc:	2985707d 	st.w	$r29,$r3,348(0x15c)
1c0025d0:	0281c072 	addi.w	$r18,$r3,112(0x70)
1c0025d4:	02809070 	addi.w	$r16,$r3,36(0x24)
1c0025d8:	001500ec 	move	$r12,$r7
1c0025dc:	001500b4 	move	$r20,$r5
1c0025e0:	0015010a 	move	$r10,$r8
1c0025e4:	001537cf 	or	$r15,$r30,$r13
1c0025e8:	001027eb 	add.w	$r11,$r31,$r9
1c0025ec:	5000e000 	b	224(0xe0) # 1c0026cc <sha_stream+0x151c>
1c0025f0:	2880121c 	ld.w	$r28,$r16,4(0x4)
1c0025f4:	28802219 	ld.w	$r25,$r16,8(0x8)
1c0025f8:	2880320b 	ld.w	$r11,$r16,12(0xc)
1c0025fc:	02806210 	addi.w	$r16,$r16,24(0x18)
1c002600:	001073ad 	add.w	$r13,$r29,$r28
1c002604:	001051bd 	add.w	$r29,$r13,$r20
1c002608:	00102bae 	add.w	$r14,$r29,$r10
1c00260c:	004095d4 	slli.w	$r20,$r14,0x5
1c002610:	0044edda 	srli.w	$r26,$r14,0x1b
1c002614:	00156a8c 	or	$r12,$r20,$r26
1c002618:	00104581 	add.w	$r1,$r12,$r17
1c00261c:	0010642a 	add.w	$r10,$r1,$r25
1c002620:	00107d5f 	add.w	$r31,$r10,$r31
1c002624:	00103ffc 	add.w	$r28,$r31,$r15
1c002628:	00409799 	slli.w	$r25,$r28,0x5
1c00262c:	0044ef8f 	srli.w	$r15,$r28,0x1b
1c002630:	00153f2d 	or	$r13,$r25,$r15
1c002634:	001045bd 	add.w	$r29,$r13,$r17
1c002638:	0014ba73 	and	$r19,$r19,$r14
1c00263c:	0015ee74 	xor	$r20,$r19,$r27
1c002640:	00102fab 	add.w	$r11,$r29,$r11
1c002644:	0010517a 	add.w	$r26,$r11,$r20
1c002648:	00101344 	add.w	$r4,$r26,$r4
1c00264c:	004489cc 	srli.w	$r12,$r14,0x2
1c002650:	0040f9ce 	slli.w	$r14,$r14,0x1e
1c002654:	001531c1 	or	$r1,$r14,$r12
1c002658:	28bfe20a 	ld.w	$r10,$r16,-8(0xff8)
1c00265c:	0040949f 	slli.w	$r31,$r4,0x5
1c002660:	0044ec99 	srli.w	$r25,$r4,0x1b
1c002664:	001567ed 	or	$r13,$r31,$r25
1c002668:	0015f82f 	xor	$r15,$r1,$r30
1c00266c:	0014f1f3 	and	$r19,$r15,$r28
1c002670:	001045bd 	add.w	$r29,$r13,$r17
1c002674:	00102bab 	add.w	$r11,$r29,$r10
1c002678:	0015fa74 	xor	$r20,$r19,$r30
1c00267c:	0010517a 	add.w	$r26,$r11,$r20
1c002680:	00106f4c 	add.w	$r12,$r26,$r27
1c002684:	00448b9b 	srli.w	$r27,$r28,0x2
1c002688:	0040fb9c 	slli.w	$r28,$r28,0x1e
1c00268c:	00156f8a 	or	$r10,$r28,$r27
1c002690:	28bff20e 	ld.w	$r14,$r16,-4(0xffc)
1c002694:	0040959f 	slli.w	$r31,$r12,0x5
1c002698:	0044ed99 	srli.w	$r25,$r12,0x1b
1c00269c:	0015854f 	xor	$r15,$r10,$r1
1c0026a0:	001567ed 	or	$r13,$r31,$r25
1c0026a4:	001491f3 	and	$r19,$r15,$r4
1c0026a8:	001045bd 	add.w	$r29,$r13,$r17
1c0026ac:	00103bab 	add.w	$r11,$r29,$r14
1c0026b0:	00158674 	xor	$r20,$r19,$r1
1c0026b4:	0010517a 	add.w	$r26,$r11,$r20
1c0026b8:	0044889b 	srli.w	$r27,$r4,0x2
1c0026bc:	0040f884 	slli.w	$r4,$r4,0x1e
1c0026c0:	00150034 	move	$r20,$r1
1c0026c4:	00156c8f 	or	$r15,$r4,$r27
1c0026c8:	00107b4b 	add.w	$r11,$r26,$r30
1c0026cc:	00448979 	srli.w	$r25,$r11,0x2
1c0026d0:	0040f973 	slli.w	$r19,$r11,0x1e
1c0026d4:	0015667b 	or	$r27,$r19,$r25
1c0026d8:	0040956d 	slli.w	$r13,$r11,0x5
1c0026dc:	0044ed79 	srli.w	$r25,$r11,0x1b
1c0026e0:	28800201 	ld.w	$r1,$r16,0
1c0026e4:	001565bc 	or	$r28,$r13,$r25
1c0026e8:	0015a9ee 	xor	$r14,$r15,$r10
1c0026ec:	0014b1dd 	and	$r29,$r14,$r12
1c0026f0:	0010479f 	add.w	$r31,$r28,$r17
1c0026f4:	001007f3 	add.w	$r19,$r31,$r1
1c0026f8:	0015abbe 	xor	$r30,$r29,$r10
1c0026fc:	00448981 	srli.w	$r1,$r12,0x2
1c002700:	0040f984 	slli.w	$r4,$r12,0x1e
1c002704:	00107a6c 	add.w	$r12,$r19,$r30
1c002708:	00105199 	add.w	$r25,$r12,$r20
1c00270c:	00150484 	or	$r4,$r4,$r1
1c002710:	00409734 	slli.w	$r20,$r25,0x5
1c002714:	0044ef3a 	srli.w	$r26,$r25,0x1b
1c002718:	00156a9c 	or	$r28,$r20,$r26
1c00271c:	00448b3f 	srli.w	$r31,$r25,0x2
1c002720:	0040fb2e 	slli.w	$r14,$r25,0x1e
1c002724:	0015bc81 	xor	$r1,$r4,$r15
1c002728:	0015937a 	xor	$r26,$r27,$r4
1c00272c:	00157dde 	or	$r30,$r14,$r31
1c002730:	0010479d 	add.w	$r29,$r28,$r17
1c002734:	0014ac2c 	and	$r12,$r1,$r11
1c002738:	0014e75c 	and	$r28,$r26,$r25
1c00273c:	0280120d 	addi.w	$r13,$r16,4(0x4)
1c002740:	0015efd3 	xor	$r19,$r30,$r27
1c002744:	0015bd94 	xor	$r20,$r12,$r15
1c002748:	0015939f 	xor	$r31,$r28,$r4
1c00274c:	5ffea64d 	bne	$r18,$r13,-348(0x3fea4) # 1c0025f0 <sha_stream+0x1440>
1c002750:	00409730 	slli.w	$r16,$r25,0x5
1c002754:	0044ef32 	srli.w	$r18,$r25,0x1b
1c002758:	14ddb3d1 	lu12i.w	$r17,454046(0x6ed9e)
1c00275c:	00154a0d 	or	$r13,$r16,$r18
1c002760:	0015917b 	xor	$r27,$r11,$r4
1c002764:	03ae8631 	ori	$r17,$r17,0xba1
1c002768:	2881c07d 	ld.w	$r29,$r3,112(0x70)
1c00276c:	0015bf6e 	xor	$r14,$r27,$r15
1c002770:	001045be 	add.w	$r30,$r13,$r17
1c002774:	001079d3 	add.w	$r19,$r14,$r30
1c002778:	0044896c 	srli.w	$r12,$r11,0x2
1c00277c:	00107661 	add.w	$r1,$r19,$r29
1c002780:	0040f96b 	slli.w	$r11,$r11,0x1e
1c002784:	02830072 	addi.w	$r18,$r3,192(0xc0)
1c002788:	0281d070 	addi.w	$r16,$r3,116(0x74)
1c00278c:	0015008d 	move	$r13,$r4
1c002790:	0015316e 	or	$r14,$r11,$r12
1c002794:	0010282a 	add.w	$r10,$r1,$r10
1c002798:	5000d400 	b	212(0xd4) # 1c00286c <sha_stream+0x16bc>
1c00279c:	03400000 	andi	$r0,$r0,0x0
1c0027a0:	2880121f 	ld.w	$r31,$r16,4(0x4)
1c0027a4:	28802214 	ld.w	$r20,$r16,8(0x8)
1c0027a8:	28803204 	ld.w	$r4,$r16,12(0xc)
1c0027ac:	02806210 	addi.w	$r16,$r16,24(0x18)
1c0027b0:	00107def 	add.w	$r15,$r15,$r31
1c0027b4:	001035fd 	add.w	$r29,$r15,$r13
1c0027b8:	004097ba 	slli.w	$r26,$r29,0x5
1c0027bc:	0044efac 	srli.w	$r12,$r29,0x1b
1c0027c0:	00153341 	or	$r1,$r26,$r12
1c0027c4:	0010443b 	add.w	$r27,$r1,$r17
1c0027c8:	00106e7e 	add.w	$r30,$r19,$r27
1c0027cc:	001053ca 	add.w	$r10,$r30,$r20
1c0027d0:	00103953 	add.w	$r19,$r10,$r14
1c0027d4:	0040966d 	slli.w	$r13,$r19,0x5
1c0027d8:	0044ee7f 	srli.w	$r31,$r19,0x1b
1c0027dc:	00157db4 	or	$r20,$r13,$r31
1c0027e0:	0015afae 	xor	$r14,$r29,$r11
1c0027e4:	0015f1da 	xor	$r26,$r14,$r28
1c0027e8:	0010468f 	add.w	$r15,$r20,$r17
1c0027ec:	00103f4c 	add.w	$r12,$r26,$r15
1c0027f0:	00101184 	add.w	$r4,$r12,$r4
1c0027f4:	00106481 	add.w	$r1,$r4,$r25
1c0027f8:	00448bb9 	srli.w	$r25,$r29,0x2
1c0027fc:	0040fbbd 	slli.w	$r29,$r29,0x1e
1c002800:	001567af 	or	$r15,$r29,$r25
1c002804:	0040943b 	slli.w	$r27,$r1,0x5
1c002808:	0044ec3e 	srli.w	$r30,$r1,0x1b
1c00280c:	00157b6d 	or	$r13,$r27,$r30
1c002810:	28bfe20a 	ld.w	$r10,$r16,-8(0xff8)
1c002814:	0015be7f 	xor	$r31,$r19,$r15
1c002818:	0015afee 	xor	$r14,$r31,$r11
1c00281c:	001045b4 	add.w	$r20,$r13,$r17
1c002820:	001051da 	add.w	$r26,$r14,$r20
1c002824:	00102b4c 	add.w	$r12,$r26,$r10
1c002828:	00107199 	add.w	$r25,$r12,$r28
1c00282c:	00448a7c 	srli.w	$r28,$r19,0x2
1c002830:	0040fa73 	slli.w	$r19,$r19,0x1e
1c002834:	0015726d 	or	$r13,$r19,$r28
1c002838:	0040973d 	slli.w	$r29,$r25,0x5
1c00283c:	0044ef24 	srli.w	$r4,$r25,0x1b
1c002840:	28bff21b 	ld.w	$r27,$r16,-4(0xffc)
1c002844:	0015b43e 	xor	$r30,$r1,$r13
1c002848:	001513bf 	or	$r31,$r29,$r4
1c00284c:	0015bfca 	xor	$r10,$r30,$r15
1c002850:	001047ee 	add.w	$r14,$r31,$r17
1c002854:	00103954 	add.w	$r20,$r10,$r14
1c002858:	0044882c 	srli.w	$r12,$r1,0x2
1c00285c:	00106e9a 	add.w	$r26,$r20,$r27
1c002860:	0040f821 	slli.w	$r1,$r1,0x1e
1c002864:	0015302e 	or	$r14,$r1,$r12
1c002868:	00102f4a 	add.w	$r10,$r26,$r11
1c00286c:	00448944 	srli.w	$r4,$r10,0x2
1c002870:	0040f954 	slli.w	$r20,$r10,0x1e
1c002874:	0015129c 	or	$r28,$r20,$r4
1c002878:	0044ed53 	srli.w	$r19,$r10,0x1b
1c00287c:	00409544 	slli.w	$r4,$r10,0x5
1c002880:	00154c9e 	or	$r30,$r4,$r19
1c002884:	0015bb3a 	xor	$r26,$r25,$r14
1c002888:	2880021f 	ld.w	$r31,$r16,0
1c00288c:	0015b741 	xor	$r1,$r26,$r13
1c002890:	001047cc 	add.w	$r12,$r30,$r17
1c002894:	0010302b 	add.w	$r11,$r1,$r12
1c002898:	00107d64 	add.w	$r4,$r11,$r31
1c00289c:	00103c8c 	add.w	$r12,$r4,$r15
1c0028a0:	00448b34 	srli.w	$r20,$r25,0x2
1c0028a4:	0040fb39 	slli.w	$r25,$r25,0x1e
1c0028a8:	0040958f 	slli.w	$r15,$r12,0x5
1c0028ac:	0044ed93 	srli.w	$r19,$r12,0x1b
1c0028b0:	00155339 	or	$r25,$r25,$r20
1c0028b4:	00154dff 	or	$r31,$r15,$r19
1c0028b8:	0015e554 	xor	$r20,$r10,$r25
1c0028bc:	001047fb 	add.w	$r27,$r31,$r17
1c0028c0:	0015f19d 	xor	$r29,$r12,$r28
1c0028c4:	0044899e 	srli.w	$r30,$r12,0x2
1c0028c8:	0040f981 	slli.w	$r1,$r12,0x1e
1c0028cc:	0015ba84 	xor	$r4,$r20,$r14
1c0028d0:	0280121a 	addi.w	$r26,$r16,4(0x4)
1c0028d4:	0015782b 	or	$r11,$r1,$r30
1c0028d8:	00106c8f 	add.w	$r15,$r4,$r27
1c0028dc:	0015e7b3 	xor	$r19,$r29,$r25
1c0028e0:	5ffec25a 	bne	$r18,$r26,-320(0x3fec0) # 1c0027a0 <sha_stream+0x15f0>
1c0028e4:	0040959c 	slli.w	$r28,$r12,0x5
1c0028e8:	0044ed92 	srli.w	$r18,$r12,0x1b
1c0028ec:	28830071 	ld.w	$r17,$r3,192(0xc0)
1c0028f0:	151e3770 	lu12i.w	$r16,-462405(0x8f1bb)
1c0028f4:	03b37214 	ori	$r20,$r16,0xcdc
1c0028f8:	00153b3f 	or	$r31,$r25,$r14
1c0028fc:	00154b9b 	or	$r27,$r28,$r18
1c002900:	0014abfd 	and	$r29,$r31,$r10
1c002904:	0014bb3e 	and	$r30,$r25,$r14
1c002908:	00105361 	add.w	$r1,$r27,$r20
1c00290c:	00104424 	add.w	$r4,$r1,$r17
1c002910:	00157bab 	or	$r11,$r29,$r30
1c002914:	0010117a 	add.w	$r26,$r11,$r4
1c002918:	0044894f 	srli.w	$r15,$r10,0x2
1c00291c:	0040f94a 	slli.w	$r10,$r10,0x1e
1c002920:	02844064 	addi.w	$r4,$r3,272(0x110)
1c002924:	02831073 	addi.w	$r19,$r3,196(0xc4)
1c002928:	00153d4f 	or	$r15,$r10,$r15
1c00292c:	0010374d 	add.w	$r13,$r26,$r13
1c002930:	50004000 	b	64(0x40) # 1c002970 <sha_stream+0x17c0>
1c002934:	2880127d 	ld.w	$r29,$r19,4(0x4)
1c002938:	28802270 	ld.w	$r16,$r19,8(0x8)
1c00293c:	02803273 	addi.w	$r19,$r19,12(0xc)
1c002940:	0010774c 	add.w	$r12,$r26,$r29
1c002944:	0010323a 	add.w	$r26,$r17,$r12
1c002948:	0010674c 	add.w	$r12,$r26,$r25
1c00294c:	0040958b 	slli.w	$r11,$r12,0x5
1c002950:	0044ed81 	srli.w	$r1,$r12,0x1b
1c002954:	0015057b 	or	$r27,$r11,$r1
1c002958:	0010537e 	add.w	$r30,$r27,$r20
1c00295c:	001043d1 	add.w	$r17,$r30,$r16
1c002960:	0010454a 	add.w	$r10,$r10,$r17
1c002964:	00103d4d 	add.w	$r13,$r10,$r15
1c002968:	001503f9 	move	$r25,$r31
1c00296c:	0015724f 	or	$r15,$r18,$r28
1c002970:	004095ab 	slli.w	$r11,$r13,0x5
1c002974:	0044edaa 	srli.w	$r10,$r13,0x1b
1c002978:	2880027b 	ld.w	$r27,$r19,0
1c00297c:	0015297e 	or	$r30,$r11,$r10
1c002980:	004489bc 	srli.w	$r28,$r13,0x2
1c002984:	0040f9b2 	slli.w	$r18,$r13,0x1e
1c002988:	001565f1 	or	$r17,$r15,$r25
1c00298c:	0015725f 	or	$r31,$r18,$r28
1c002990:	0014b23a 	and	$r26,$r17,$r12
1c002994:	001053dc 	add.w	$r28,$r30,$r20
1c002998:	0014e5e1 	and	$r1,$r15,$r25
1c00299c:	00150752 	or	$r18,$r26,$r1
1c0029a0:	00106f8a 	add.w	$r10,$r28,$r27
1c0029a4:	00102a51 	add.w	$r17,$r18,$r10
1c0029a8:	00103a30 	add.w	$r16,$r17,$r14
1c0029ac:	0044898b 	srli.w	$r11,$r12,0x2
1c0029b0:	0040f99b 	slli.w	$r27,$r12,0x1e
1c0029b4:	0040961d 	slli.w	$r29,$r16,0x5
1c0029b8:	0044ee0e 	srli.w	$r14,$r16,0x1b
1c0029bc:	00153bbe 	or	$r30,$r29,$r14
1c0029c0:	00152f6e 	or	$r14,$r27,$r11
1c0029c4:	00153dc1 	or	$r1,$r14,$r15
1c0029c8:	00153bfb 	or	$r27,$r31,$r14
1c0029cc:	0014b42a 	and	$r10,$r1,$r13
1c0029d0:	001053da 	add.w	$r26,$r30,$r20
1c0029d4:	0014bdcb 	and	$r11,$r14,$r15
1c0029d8:	0014c37d 	and	$r29,$r27,$r16
1c0029dc:	0014bbfe 	and	$r30,$r31,$r14
1c0029e0:	0280126c 	addi.w	$r12,$r19,4(0x4)
1c0029e4:	00152d51 	or	$r17,$r10,$r11
1c0029e8:	00448a1c 	srli.w	$r28,$r16,0x2
1c0029ec:	0040fa12 	slli.w	$r18,$r16,0x1e
1c0029f0:	00157baa 	or	$r10,$r29,$r30
1c0029f4:	5fff408c 	bne	$r4,$r12,-192(0x3ff40) # 1c002934 <sha_stream+0x1784>
1c0029f8:	0044ee13 	srli.w	$r19,$r16,0x1b
1c0029fc:	00409614 	slli.w	$r20,$r16,0x5
1c002a00:	1594c584 	lu12i.w	$r4,-219604(0xca62c)
1c002a04:	0015b9bf 	xor	$r31,$r13,$r14
1c002a08:	00154e9a 	or	$r26,$r20,$r19
1c002a0c:	03875892 	ori	$r18,$r4,0x1d6
1c002a10:	2884407c 	ld.w	$r28,$r3,272(0x110)
1c002a14:	0015bfec 	xor	$r12,$r31,$r15
1c002a18:	00104b41 	add.w	$r1,$r26,$r18
1c002a1c:	0010058b 	add.w	$r11,$r12,$r1
1c002a20:	004489bd 	srli.w	$r29,$r13,0x2
1c002a24:	0010717b 	add.w	$r27,$r11,$r28
1c002a28:	0040f9ad 	slli.w	$r13,$r13,0x1e
1c002a2c:	02858073 	addi.w	$r19,$r3,352(0x160)
1c002a30:	02845071 	addi.w	$r17,$r3,276(0x114)
1c002a34:	001575ad 	or	$r13,$r13,$r29
1c002a38:	00106779 	add.w	$r25,$r27,$r25
1c002a3c:	5000d000 	b	208(0xd0) # 1c002b0c <sha_stream+0x195c>
1c002a40:	2880123b 	ld.w	$r27,$r17,4(0x4)
1c002a44:	28802239 	ld.w	$r25,$r17,8(0x8)
1c002a48:	2880322f 	ld.w	$r15,$r17,12(0xc)
1c002a4c:	02806231 	addi.w	$r17,$r17,24(0x18)
1c002a50:	00106e94 	add.w	$r20,$r20,$r27
1c002a54:	00103a90 	add.w	$r16,$r20,$r14
1c002a58:	0040960c 	slli.w	$r12,$r16,0x5
1c002a5c:	0044ee1a 	srli.w	$r26,$r16,0x1b
1c002a60:	0015698b 	or	$r11,$r12,$r26
1c002a64:	0010496a 	add.w	$r10,$r11,$r18
1c002a68:	00102b9c 	add.w	$r28,$r28,$r10
1c002a6c:	00106781 	add.w	$r1,$r28,$r25
1c002a70:	0010343f 	add.w	$r31,$r1,$r13
1c002a74:	004097ee 	slli.w	$r14,$r31,0x5
1c002a78:	0044effb 	srli.w	$r27,$r31,0x1b
1c002a7c:	00156dd9 	or	$r25,$r14,$r27
1c002a80:	0015f60d 	xor	$r13,$r16,$r29
1c002a84:	001591ac 	xor	$r12,$r13,$r4
1c002a88:	00104b34 	add.w	$r20,$r25,$r18
1c002a8c:	0010519a 	add.w	$r26,$r12,$r20
1c002a90:	00103f4f 	add.w	$r15,$r26,$r15
1c002a94:	001079fe 	add.w	$r30,$r15,$r30
1c002a98:	00448a0b 	srli.w	$r11,$r16,0x2
1c002a9c:	0040fa10 	slli.w	$r16,$r16,0x1e
1c002aa0:	00152e0f 	or	$r15,$r16,$r11
1c002aa4:	004097ca 	slli.w	$r10,$r30,0x5
1c002aa8:	0044efdc 	srli.w	$r28,$r30,0x1b
1c002aac:	0015714e 	or	$r14,$r10,$r28
1c002ab0:	28bfe221 	ld.w	$r1,$r17,-8(0xff8)
1c002ab4:	0015bffb 	xor	$r27,$r31,$r15
1c002ab8:	0015f76d 	xor	$r13,$r27,$r29
1c002abc:	001049d9 	add.w	$r25,$r14,$r18
1c002ac0:	001065ac 	add.w	$r12,$r13,$r25
1c002ac4:	00100594 	add.w	$r20,$r12,$r1
1c002ac8:	00101290 	add.w	$r16,$r20,$r4
1c002acc:	00448be4 	srli.w	$r4,$r31,0x2
1c002ad0:	0040fbff 	slli.w	$r31,$r31,0x1e
1c002ad4:	001513ee 	or	$r14,$r31,$r4
1c002ad8:	0040961a 	slli.w	$r26,$r16,0x5
1c002adc:	0044ee0b 	srli.w	$r11,$r16,0x1b
1c002ae0:	28bff22a 	ld.w	$r10,$r17,-4(0xffc)
1c002ae4:	0015bbdc 	xor	$r28,$r30,$r14
1c002ae8:	00152f41 	or	$r1,$r26,$r11
1c002aec:	0010482d 	add.w	$r13,$r1,$r18
1c002af0:	0015bf9b 	xor	$r27,$r28,$r15
1c002af4:	00103779 	add.w	$r25,$r27,$r13
1c002af8:	00448bd4 	srli.w	$r20,$r30,0x2
1c002afc:	00102b24 	add.w	$r4,$r25,$r10
1c002b00:	0040fbde 	slli.w	$r30,$r30,0x1e
1c002b04:	001553cd 	or	$r13,$r30,$r20
1c002b08:	00107499 	add.w	$r25,$r4,$r29
1c002b0c:	00448b3e 	srli.w	$r30,$r25,0x2
1c002b10:	0040fb2a 	slli.w	$r10,$r25,0x1e
1c002b14:	00157944 	or	$r4,$r10,$r30
1c002b18:	0044ef34 	srli.w	$r20,$r25,0x1b
1c002b1c:	0040972a 	slli.w	$r10,$r25,0x5
1c002b20:	00155141 	or	$r1,$r10,$r20
1c002b24:	0015b61f 	xor	$r31,$r16,$r13
1c002b28:	2880023c 	ld.w	$r28,$r17,0
1c002b2c:	0015bbeb 	xor	$r11,$r31,$r14
1c002b30:	0010483b 	add.w	$r27,$r1,$r18
1c002b34:	00106d7d 	add.w	$r29,$r11,$r27
1c002b38:	001073aa 	add.w	$r10,$r29,$r28
1c002b3c:	00103d4f 	add.w	$r15,$r10,$r15
1c002b40:	00448a1e 	srli.w	$r30,$r16,0x2
1c002b44:	0040fa10 	slli.w	$r16,$r16,0x1e
1c002b48:	004095f4 	slli.w	$r20,$r15,0x5
1c002b4c:	0044edfc 	srli.w	$r28,$r15,0x1b
1c002b50:	00157a1e 	or	$r30,$r16,$r30
1c002b54:	0015729a 	or	$r26,$r20,$r28
1c002b58:	0015fb30 	xor	$r16,$r25,$r30
1c002b5c:	00104b41 	add.w	$r1,$r26,$r18
1c002b60:	001591ec 	xor	$r12,$r15,$r4
1c002b64:	004489eb 	srli.w	$r11,$r15,0x2
1c002b68:	0040f9fb 	slli.w	$r27,$r15,0x1e
1c002b6c:	0015b60a 	xor	$r10,$r16,$r13
1c002b70:	0280123f 	addi.w	$r31,$r17,4(0x4)
1c002b74:	00152f7d 	or	$r29,$r27,$r11
1c002b78:	00100554 	add.w	$r20,$r10,$r1
1c002b7c:	0015f99c 	xor	$r28,$r12,$r30
1c002b80:	5ffec27f 	bne	$r19,$r31,-320(0x3fec0) # 1c002a40 <sha_stream+0x1890>
1c002b84:	28801064 	ld.w	$r4,$r3,4(0x4)
1c002b88:	001064c6 	add.w	$r6,$r6,$r25
1c002b8c:	001034a5 	add.w	$r5,$r5,$r13
1c002b90:	00103ce7 	add.w	$r7,$r7,$r15
1c002b94:	00107908 	add.w	$r8,$r8,$r30
1c002b98:	00103929 	add.w	$r9,$r9,$r14
1c002b9c:	298002c7 	st.w	$r7,$r22,0
1c002ba0:	298012c6 	st.w	$r6,$r22,4(0x4)
1c002ba4:	298022c8 	st.w	$r8,$r22,8(0x8)
1c002ba8:	298032c5 	st.w	$r5,$r22,12(0xc)
1c002bac:	298042c9 	st.w	$r9,$r22,16(0x10)
1c002bb0:	0280e006 	addi.w	$r6,$r0,56(0x38)
1c002bb4:	00150005 	move	$r5,$r0
1c002bb8:	5407d800 	bl	2008(0x7d8) # 1c003390 <memset>
1c002bbc:	53ed0fff 	b	-4852(0xfffed0c) # 1c0018c8 <sha_stream+0x718>

1c002bc0 <sha_print>:
sha_print():
1c002bc0:	28804089 	ld.w	$r9,$r4,16(0x10)
1c002bc4:	28803088 	ld.w	$r8,$r4,12(0xc)
1c002bc8:	28802087 	ld.w	$r7,$r4,8(0x8)
1c002bcc:	28801086 	ld.w	$r6,$r4,4(0x4)
1c002bd0:	28800085 	ld.w	$r5,$r4,0
1c002bd4:	1c000024 	pcaddu12i	$r4,1(0x1)
1c002bd8:	02896084 	addi.w	$r4,$r4,600(0x258)
1c002bdc:	50024800 	b	584(0x248) # 1c002e24 <printf>

1c002be0 <fopen>:
fopen():
/home/wwt/work/perf_func/lib/stdio.c:22
1c002be0:	1c000050 	pcaddu12i	$r16,2(0x2)
1c002be4:	02ae5210 	addi.w	$r16,$r16,-1132(0xb94)
1c002be8:	0015020d 	move	$r13,$r16
1c002bec:	0015000c 	move	$r12,$r0
1c002bf0:	0280280f 	addi.w	$r15,$r0,10(0xa)
/home/wwt/work/perf_func/lib/stdio.c:23
1c002bf4:	288001ae 	ld.w	$r14,$r13,0
1c002bf8:	028021ad 	addi.w	$r13,$r13,8(0x8)
1c002bfc:	580029c0 	beq	$r14,$r0,40(0x28) # 1c002c24 <fopen+0x44>
/home/wwt/work/perf_func/lib/stdio.c:22 (discriminator 2)
1c002c00:	0280058c 	addi.w	$r12,$r12,1(0x1)
/home/wwt/work/perf_func/lib/stdio.c:22
1c002c04:	5ffff18f 	bne	$r12,$r15,-16(0x3fff0) # 1c002bf4 <fopen+0x14>
/home/wwt/work/perf_func/lib/stdio.c:27
1c002c08:	00408d8c 	slli.w	$r12,$r12,0x3
1c002c0c:	0010320c 	add.w	$r12,$r16,$r12
1c002c10:	0281400d 	addi.w	$r13,$r0,80(0x50)
1c002c14:	29800184 	st.w	$r4,$r12,0
/home/wwt/work/perf_func/lib/stdio.c:28
1c002c18:	29801180 	st.w	$r0,$r12,4(0x4)
/home/wwt/work/perf_func/lib/stdio.c:30
1c002c1c:	00103604 	add.w	$r4,$r16,$r13
1c002c20:	4c000020 	jirl	$r0,$r1,0
1c002c24:	00408d8c 	slli.w	$r12,$r12,0x3
1c002c28:	0015018d 	move	$r13,$r12
/home/wwt/work/perf_func/lib/stdio.c:27
1c002c2c:	0010320c 	add.w	$r12,$r16,$r12
1c002c30:	29800184 	st.w	$r4,$r12,0
/home/wwt/work/perf_func/lib/stdio.c:28
1c002c34:	29801180 	st.w	$r0,$r12,4(0x4)
/home/wwt/work/perf_func/lib/stdio.c:30
1c002c38:	00103604 	add.w	$r4,$r16,$r13
1c002c3c:	4c000020 	jirl	$r0,$r1,0

1c002c40 <fread>:
fread():
/home/wwt/work/perf_func/lib/stdio.c:32
1c002c40:	02bf8063 	addi.w	$r3,$r3,-32(0xfe0)
1c002c44:	29804079 	st.w	$r25,$r3,16(0x10)
/home/wwt/work/perf_func/lib/stdio.c:34
1c002c48:	288000f9 	ld.w	$r25,$r7,0
/home/wwt/work/perf_func/lib/stdio.c:32
1c002c4c:	2980307a 	st.w	$r26,$r3,12(0xc)
1c002c50:	0015009a 	move	$r26,$r4
/home/wwt/work/perf_func/lib/stdio.c:35
1c002c54:	00150324 	move	$r4,$r25
/home/wwt/work/perf_func/lib/stdio.c:32
1c002c58:	29806077 	st.w	$r23,$r3,24(0x18)
1c002c5c:	29805078 	st.w	$r24,$r3,20(0x14)
1c002c60:	2980207b 	st.w	$r27,$r3,8(0x8)
1c002c64:	001500f7 	move	$r23,$r7
1c002c68:	29807061 	st.w	$r1,$r3,28(0x1c)
1c002c6c:	001500b8 	move	$r24,$r5
1c002c70:	001500db 	move	$r27,$r6
/home/wwt/work/perf_func/lib/stdio.c:35
1c002c74:	5405b000 	bl	1456(0x5b0) # 1c003224 <strlen>
/home/wwt/work/perf_func/lib/stdio.c:36
1c002c78:	288012ec 	ld.w	$r12,$r23,4(0x4)
1c002c7c:	58005d84 	beq	$r12,$r4,92(0x5c) # 1c002cd8 <fread+0x98>
/home/wwt/work/perf_func/lib/stdio.c:40
1c002c80:	001c6f05 	mul.w	$r5,$r24,$r27
1c002c84:	0015000d 	move	$r13,$r0
1c002c88:	50002000 	b	32(0x20) # 1c002ca8 <fread+0x68>
/home/wwt/work/perf_func/lib/stdio.c:41
1c002c8c:	298012ee 	st.w	$r14,$r23,4(0x4)
1c002c90:	2800018e 	ld.b	$r14,$r12,0
1c002c94:	028005ad 	addi.w	$r13,$r13,1(0x1)
1c002c98:	0010374c 	add.w	$r12,$r26,$r13
1c002c9c:	293ffd8e 	st.b	$r14,$r12,-1(0xfff)
/home/wwt/work/perf_func/lib/stdio.c:42
1c002ca0:	288012ec 	ld.w	$r12,$r23,4(0x4)
1c002ca4:	58001184 	beq	$r12,$r4,16(0x10) # 1c002cb4 <fread+0x74>
/home/wwt/work/perf_func/lib/stdio.c:41
1c002ca8:	0280058e 	addi.w	$r14,$r12,1(0x1)
1c002cac:	0010332c 	add.w	$r12,$r25,$r12
/home/wwt/work/perf_func/lib/stdio.c:40
1c002cb0:	5fffdcad 	bne	$r5,$r13,-36(0x3ffdc) # 1c002c8c <fread+0x4c>
/home/wwt/work/perf_func/lib/stdio.c:47
1c002cb4:	28807061 	ld.w	$r1,$r3,28(0x1c)
1c002cb8:	28806077 	ld.w	$r23,$r3,24(0x18)
1c002cbc:	28805078 	ld.w	$r24,$r3,20(0x14)
1c002cc0:	28804079 	ld.w	$r25,$r3,16(0x10)
1c002cc4:	2880307a 	ld.w	$r26,$r3,12(0xc)
1c002cc8:	2880207b 	ld.w	$r27,$r3,8(0x8)
1c002ccc:	001501a4 	move	$r4,$r13
1c002cd0:	02808063 	addi.w	$r3,$r3,32(0x20)
1c002cd4:	4c000020 	jirl	$r0,$r1,0
1c002cd8:	28807061 	ld.w	$r1,$r3,28(0x1c)
/home/wwt/work/perf_func/lib/stdio.c:37
1c002cdc:	0015000d 	move	$r13,$r0
/home/wwt/work/perf_func/lib/stdio.c:47
1c002ce0:	28806077 	ld.w	$r23,$r3,24(0x18)
1c002ce4:	28805078 	ld.w	$r24,$r3,20(0x14)
1c002ce8:	28804079 	ld.w	$r25,$r3,16(0x10)
1c002cec:	2880307a 	ld.w	$r26,$r3,12(0xc)
1c002cf0:	2880207b 	ld.w	$r27,$r3,8(0x8)
1c002cf4:	001501a4 	move	$r4,$r13
1c002cf8:	02808063 	addi.w	$r3,$r3,32(0x20)
1c002cfc:	4c000020 	jirl	$r0,$r1,0

1c002d00 <fclose>:
fclose():
/home/wwt/work/perf_func/lib/stdio.c:68
1c002d00:	29800080 	st.w	$r0,$r4,0
/home/wwt/work/perf_func/lib/stdio.c:69
1c002d04:	29801080 	st.w	$r0,$r4,4(0x4)
/home/wwt/work/perf_func/lib/stdio.c:70
1c002d08:	4c000020 	jirl	$r0,$r1,0

1c002d0c <fgets>:
fgets():
/home/wwt/work/perf_func/lib/stdio.c:72
1c002d0c:	02bfc063 	addi.w	$r3,$r3,-16(0xff0)
1c002d10:	29801078 	st.w	$r24,$r3,4(0x4)
/home/wwt/work/perf_func/lib/stdio.c:73
1c002d14:	288000d8 	ld.w	$r24,$r6,0
/home/wwt/work/perf_func/lib/stdio.c:72
1c002d18:	29800079 	st.w	$r25,$r3,0
1c002d1c:	00150099 	move	$r25,$r4
/home/wwt/work/perf_func/lib/stdio.c:74
1c002d20:	00150304 	move	$r4,$r24
/home/wwt/work/perf_func/lib/stdio.c:72
1c002d24:	29802077 	st.w	$r23,$r3,8(0x8)
1c002d28:	29803061 	st.w	$r1,$r3,12(0xc)
1c002d2c:	001500d7 	move	$r23,$r6
/home/wwt/work/perf_func/lib/stdio.c:74
1c002d30:	5404f400 	bl	1268(0x4f4) # 1c003224 <strlen>
/home/wwt/work/perf_func/lib/stdio.c:77
1c002d34:	288012ec 	ld.w	$r12,$r23,4(0x4)
1c002d38:	58004d84 	beq	$r12,$r4,76(0x4c) # 1c002d84 <fgets+0x78>
/home/wwt/work/perf_func/lib/stdio.c:78
1c002d3c:	0010330d 	add.w	$r13,$r24,$r12
1c002d40:	280001af 	ld.b	$r15,$r13,0
1c002d44:	0280280e 	addi.w	$r14,$r0,10(0xa)
1c002d48:	580059ee 	beq	$r15,$r14,88(0x58) # 1c002da0 <fgets+0x94>
/home/wwt/work/perf_func/lib/stdio.c:75
1c002d4c:	0015000e 	move	$r14,$r0
/home/wwt/work/perf_func/lib/stdio.c:78
1c002d50:	02802811 	addi.w	$r17,$r0,10(0xa)
1c002d54:	50000c00 	b	12(0xc) # 1c002d60 <fgets+0x54>
1c002d58:	280001b0 	ld.b	$r16,$r13,0
1c002d5c:	58004a11 	beq	$r16,$r17,72(0x48) # 1c002da4 <fgets+0x98>
/home/wwt/work/perf_func/lib/stdio.c:82
1c002d60:	0280058c 	addi.w	$r12,$r12,1(0x1)
1c002d64:	298012ec 	st.w	$r12,$r23,4(0x4)
1c002d68:	280001ac 	ld.b	$r12,$r13,0
1c002d6c:	028005ce 	addi.w	$r14,$r14,1(0x1)
1c002d70:	00103b2f 	add.w	$r15,$r25,$r14
1c002d74:	293ffdec 	st.b	$r12,$r15,-1(0xfff)
/home/wwt/work/perf_func/lib/stdio.c:77
1c002d78:	288012ec 	ld.w	$r12,$r23,4(0x4)
/home/wwt/work/perf_func/lib/stdio.c:78
1c002d7c:	0010330d 	add.w	$r13,$r24,$r12
/home/wwt/work/perf_func/lib/stdio.c:77
1c002d80:	5fffd984 	bne	$r12,$r4,-40(0x3ffd8) # 1c002d58 <fgets+0x4c>
/home/wwt/work/perf_func/lib/stdio.c:86
1c002d84:	28803061 	ld.w	$r1,$r3,12(0xc)
1c002d88:	28802077 	ld.w	$r23,$r3,8(0x8)
1c002d8c:	28801078 	ld.w	$r24,$r3,4(0x4)
1c002d90:	28800079 	ld.w	$r25,$r3,0
1c002d94:	00150004 	move	$r4,$r0
1c002d98:	02804063 	addi.w	$r3,$r3,16(0x10)
1c002d9c:	4c000020 	jirl	$r0,$r1,0
/home/wwt/work/perf_func/lib/stdio.c:78
1c002da0:	0015032f 	move	$r15,$r25
/home/wwt/work/perf_func/lib/stdio.c:79
1c002da4:	0280058c 	addi.w	$r12,$r12,1(0x1)
1c002da8:	298012ec 	st.w	$r12,$r23,4(0x4)
1c002dac:	280001ac 	ld.b	$r12,$r13,0
/home/wwt/work/perf_func/lib/stdio.c:86
1c002db0:	00150004 	move	$r4,$r0
/home/wwt/work/perf_func/lib/stdio.c:79
1c002db4:	290001ec 	st.b	$r12,$r15,0
/home/wwt/work/perf_func/lib/stdio.c:86
1c002db8:	28803061 	ld.w	$r1,$r3,12(0xc)
1c002dbc:	28802077 	ld.w	$r23,$r3,8(0x8)
1c002dc0:	28801078 	ld.w	$r24,$r3,4(0x4)
1c002dc4:	28800079 	ld.w	$r25,$r3,0
1c002dc8:	02804063 	addi.w	$r3,$r3,16(0x10)
1c002dcc:	4c000020 	jirl	$r0,$r1,0

1c002dd0 <getc>:
getc():
/home/wwt/work/perf_func/lib/stdio.c:88
1c002dd0:	02bfc063 	addi.w	$r3,$r3,-16(0xff0)
1c002dd4:	29802077 	st.w	$r23,$r3,8(0x8)
/home/wwt/work/perf_func/lib/stdio.c:89
1c002dd8:	28800097 	ld.w	$r23,$r4,0
/home/wwt/work/perf_func/lib/stdio.c:88
1c002ddc:	29801078 	st.w	$r24,$r3,4(0x4)
1c002de0:	00150098 	move	$r24,$r4
/home/wwt/work/perf_func/lib/stdio.c:90
1c002de4:	001502e4 	move	$r4,$r23
/home/wwt/work/perf_func/lib/stdio.c:88
1c002de8:	29803061 	st.w	$r1,$r3,12(0xc)
/home/wwt/work/perf_func/lib/stdio.c:90
1c002dec:	54043800 	bl	1080(0x438) # 1c003224 <strlen>
/home/wwt/work/perf_func/lib/stdio.c:91
1c002df0:	2880130c 	ld.w	$r12,$r24,4(0x4)
1c002df4:	58002984 	beq	$r12,$r4,40(0x28) # 1c002e1c <getc+0x4c>
/home/wwt/work/perf_func/lib/stdio.c:94
1c002df8:	0280058d 	addi.w	$r13,$r12,1(0x1)
1c002dfc:	2980130d 	st.w	$r13,$r24,4(0x4)
1c002e00:	001032f7 	add.w	$r23,$r23,$r12
1c002e04:	2a0002e4 	ld.bu	$r4,$r23,0
/home/wwt/work/perf_func/lib/stdio.c:97
1c002e08:	28803061 	ld.w	$r1,$r3,12(0xc)
1c002e0c:	28802077 	ld.w	$r23,$r3,8(0x8)
1c002e10:	28801078 	ld.w	$r24,$r3,4(0x4)
1c002e14:	02804063 	addi.w	$r3,$r3,16(0x10)
1c002e18:	4c000020 	jirl	$r0,$r1,0
/home/wwt/work/perf_func/lib/stdio.c:92
1c002e1c:	02bffc04 	addi.w	$r4,$r0,-1(0xfff)
1c002e20:	53ffebff 	b	-24(0xfffffe8) # 1c002e08 <getc+0x38>

1c002e24 <printf>:
printf():
/home/wwt/work/perf_func/lib/printf.c:2
1c002e24:	02be8063 	addi.w	$r3,$r3,-96(0xfa0)
1c002e28:	2980b07a 	st.w	$r26,$r3,44(0x2c)
1c002e2c:	2980f061 	st.w	$r1,$r3,60(0x3c)
1c002e30:	2980e077 	st.w	$r23,$r3,56(0x38)
1c002e34:	2980d078 	st.w	$r24,$r3,52(0x34)
1c002e38:	2980c079 	st.w	$r25,$r3,48(0x30)
1c002e3c:	2980a07b 	st.w	$r27,$r3,40(0x28)
1c002e40:	2980907c 	st.w	$r28,$r3,36(0x24)
/home/wwt/work/perf_func/lib/printf.c:10
1c002e44:	28000097 	ld.b	$r23,$r4,0
/home/wwt/work/perf_func/lib/printf.c:8
1c002e48:	0281107a 	addi.w	$r26,$r3,68(0x44)
/home/wwt/work/perf_func/lib/printf.c:2
1c002e4c:	29811065 	st.w	$r5,$r3,68(0x44)
1c002e50:	29812066 	st.w	$r6,$r3,72(0x48)
1c002e54:	29813067 	st.w	$r7,$r3,76(0x4c)
1c002e58:	29814068 	st.w	$r8,$r3,80(0x50)
1c002e5c:	29815069 	st.w	$r9,$r3,84(0x54)
1c002e60:	2981606a 	st.w	$r10,$r3,88(0x58)
1c002e64:	2981706b 	st.w	$r11,$r3,92(0x5c)
/home/wwt/work/perf_func/lib/printf.c:8
1c002e68:	2980707a 	st.w	$r26,$r3,28(0x1c)
/home/wwt/work/perf_func/lib/printf.c:10
1c002e6c:	580086e0 	beq	$r23,$r0,132(0x84) # 1c002ef0 <printf+0xcc>
1c002e70:	00150099 	move	$r25,$r4
1c002e74:	00150018 	move	$r24,$r0
1c002e78:	1c00003c 	pcaddu12i	$r28,1(0x1)
1c002e7c:	02bf539c 	addi.w	$r28,$r28,-44(0xfd4)
1c002e80:	0280201b 	addi.w	$r27,$r0,8(0x8)
1c002e84:	50001c00 	b	28(0x1c) # 1c002ea0 <printf+0x7c>
/home/wwt/work/perf_func/lib/printf.c:80
1c002e88:	001502e4 	move	$r4,$r23
1c002e8c:	5401c400 	bl	452(0x1c4) # 1c003050 <putchar>
/home/wwt/work/perf_func/lib/printf.c:10 (discriminator 2)
1c002e90:	02800718 	addi.w	$r24,$r24,1(0x1)
/home/wwt/work/perf_func/lib/printf.c:10
1c002e94:	0010632c 	add.w	$r12,$r25,$r24
1c002e98:	28000197 	ld.b	$r23,$r12,0
1c002e9c:	580056e0 	beq	$r23,$r0,84(0x54) # 1c002ef0 <printf+0xcc>
/home/wwt/work/perf_func/lib/printf.c:13
1c002ea0:	0280940c 	addi.w	$r12,$r0,37(0x25)
1c002ea4:	58001aec 	beq	$r23,$r12,24(0x18) # 1c002ebc <printf+0x98>
/home/wwt/work/perf_func/lib/printf.c:79
1c002ea8:	0280280c 	addi.w	$r12,$r0,10(0xa)
1c002eac:	5fffdeec 	bne	$r23,$r12,-36(0x3ffdc) # 1c002e88 <printf+0x64>
/home/wwt/work/perf_func/lib/printf.c:79 (discriminator 1)
1c002eb0:	02803404 	addi.w	$r4,$r0,13(0xd)
1c002eb4:	54019c00 	bl	412(0x19c) # 1c003050 <putchar>
1c002eb8:	53ffd3ff 	b	-48(0xfffffd0) # 1c002e88 <printf+0x64>
1c002ebc:	0010632c 	add.w	$r12,$r25,$r24
1c002ec0:	2800058d 	ld.b	$r13,$r12,1(0x1)
/home/wwt/work/perf_func/lib/printf.c:15
1c002ec4:	02800405 	addi.w	$r5,$r0,1(0x1)
/home/wwt/work/perf_func/lib/printf.c:17
1c002ec8:	02814c10 	addi.w	$r16,$r0,83(0x53)
/home/wwt/work/perf_func/lib/printf.c:68
1c002ecc:	0280280f 	addi.w	$r15,$r0,10(0xa)
/home/wwt/work/perf_func/lib/printf.c:17
1c002ed0:	02bf6dac 	addi.w	$r12,$r13,-37(0xfdb)
1c002ed4:	2980306c 	st.w	$r12,$r3,12(0xc)
1c002ed8:	2a00306c 	ld.bu	$r12,$r3,12(0xc)
1c002edc:	68016a0c 	bltu	$r16,$r12,360(0x168) # 1c003044 <printf+0x220>
1c002ee0:	0040898c 	slli.w	$r12,$r12,0x2
1c002ee4:	0010338c 	add.w	$r12,$r28,$r12
1c002ee8:	2880018c 	ld.w	$r12,$r12,0
1c002eec:	4c000180 	jirl	$r0,$r12,0
/home/wwt/work/perf_func/lib/printf.c:84
1c002ef0:	2880f061 	ld.w	$r1,$r3,60(0x3c)
1c002ef4:	2880e077 	ld.w	$r23,$r3,56(0x38)
1c002ef8:	2880d078 	ld.w	$r24,$r3,52(0x34)
1c002efc:	2880c079 	ld.w	$r25,$r3,48(0x30)
1c002f00:	2880b07a 	ld.w	$r26,$r3,44(0x2c)
1c002f04:	2880a07b 	ld.w	$r27,$r3,40(0x28)
1c002f08:	2880907c 	ld.w	$r28,$r3,36(0x24)
1c002f0c:	00150004 	move	$r4,$r0
1c002f10:	02818063 	addi.w	$r3,$r3,96(0x60)
1c002f14:	4c000020 	jirl	$r0,$r1,0
/home/wwt/work/perf_func/lib/printf.c:65
1c002f18:	0010632c 	add.w	$r12,$r25,$r24
1c002f1c:	2800098d 	ld.b	$r13,$r12,2(0x2)
1c002f20:	02800718 	addi.w	$r24,$r24,1(0x1)
/home/wwt/work/perf_func/lib/printf.c:67 (discriminator 1)
1c002f24:	02bf3dac 	addi.w	$r12,$r13,-49(0xfcf)
/home/wwt/work/perf_func/lib/printf.c:67
1c002f28:	2980306c 	st.w	$r12,$r3,12(0xc)
1c002f2c:	2a00306c 	ld.bu	$r12,$r3,12(0xc)
1c002f30:	00150005 	move	$r5,$r0
1c002f34:	6bff9f6c 	bltu	$r27,$r12,-100(0x3ff9c) # 1c002ed0 <printf+0xac>
/home/wwt/work/perf_func/lib/printf.c:68
1c002f38:	001c3ca5 	mul.w	$r5,$r5,$r15
/home/wwt/work/perf_func/lib/printf.c:67
1c002f3c:	02800718 	addi.w	$r24,$r24,1(0x1)
1c002f40:	0010632c 	add.w	$r12,$r25,$r24
/home/wwt/work/perf_func/lib/printf.c:68
1c002f44:	02bf41ae 	addi.w	$r14,$r13,-48(0xfd0)
/home/wwt/work/perf_func/lib/printf.c:67
1c002f48:	2800058d 	ld.b	$r13,$r12,1(0x1)
1c002f4c:	02bf3dac 	addi.w	$r12,$r13,-49(0xfcf)
1c002f50:	2980306c 	st.w	$r12,$r3,12(0xc)
1c002f54:	2a00306c 	ld.bu	$r12,$r3,12(0xc)
/home/wwt/work/perf_func/lib/printf.c:68
1c002f58:	001015c5 	add.w	$r5,$r14,$r5
/home/wwt/work/perf_func/lib/printf.c:67
1c002f5c:	6fffdf6c 	bgeu	$r27,$r12,-36(0x3ffdc) # 1c002f38 <printf+0x114>
1c002f60:	53ff73ff 	b	-144(0xfffff70) # 1c002ed0 <printf+0xac>
/home/wwt/work/perf_func/lib/printf.c:50
1c002f64:	28800344 	ld.w	$r4,$r26,0
1c002f68:	00150007 	move	$r7,$r0
1c002f6c:	02800806 	addi.w	$r6,$r0,2(0x2)
1c002f70:	5401cc00 	bl	460(0x1cc) # 1c00313c <printbase>
/home/wwt/work/perf_func/lib/printf.c:51
1c002f74:	0280135a 	addi.w	$r26,$r26,4(0x4)
/home/wwt/work/perf_func/lib/printf.c:52
1c002f78:	02800718 	addi.w	$r24,$r24,1(0x1)
/home/wwt/work/perf_func/lib/printf.c:53
1c002f7c:	53ff17ff 	b	-236(0xfffff14) # 1c002e90 <printf+0x6c>
/home/wwt/work/perf_func/lib/printf.c:25
1c002f80:	28800344 	ld.w	$r4,$r26,0
/home/wwt/work/perf_func/lib/printf.c:27
1c002f84:	02800718 	addi.w	$r24,$r24,1(0x1)
/home/wwt/work/perf_func/lib/printf.c:26
1c002f88:	0280135a 	addi.w	$r26,$r26,4(0x4)
/home/wwt/work/perf_func/lib/printf.c:25
1c002f8c:	5400c400 	bl	196(0xc4) # 1c003050 <putchar>
/home/wwt/work/perf_func/lib/printf.c:28
1c002f90:	53ff03ff 	b	-256(0xfffff00) # 1c002e90 <printf+0x6c>
/home/wwt/work/perf_func/lib/printf.c:35
1c002f94:	28800344 	ld.w	$r4,$r26,0
1c002f98:	02800407 	addi.w	$r7,$r0,1(0x1)
1c002f9c:	02802806 	addi.w	$r6,$r0,10(0xa)
1c002fa0:	54019c00 	bl	412(0x19c) # 1c00313c <printbase>
/home/wwt/work/perf_func/lib/printf.c:36
1c002fa4:	0280135a 	addi.w	$r26,$r26,4(0x4)
/home/wwt/work/perf_func/lib/printf.c:37
1c002fa8:	02800718 	addi.w	$r24,$r24,1(0x1)
/home/wwt/work/perf_func/lib/printf.c:38
1c002fac:	53fee7ff 	b	-284(0xffffee4) # 1c002e90 <printf+0x6c>
/home/wwt/work/perf_func/lib/printf.c:40
1c002fb0:	28800344 	ld.w	$r4,$r26,0
1c002fb4:	00150007 	move	$r7,$r0
1c002fb8:	02802806 	addi.w	$r6,$r0,10(0xa)
1c002fbc:	54018000 	bl	384(0x180) # 1c00313c <printbase>
/home/wwt/work/perf_func/lib/printf.c:41
1c002fc0:	0280135a 	addi.w	$r26,$r26,4(0x4)
/home/wwt/work/perf_func/lib/printf.c:42
1c002fc4:	02800b18 	addi.w	$r24,$r24,2(0x2)
/home/wwt/work/perf_func/lib/printf.c:43
1c002fc8:	53fecbff 	b	-312(0xffffec8) # 1c002e90 <printf+0x6c>
/home/wwt/work/perf_func/lib/printf.c:45
1c002fcc:	28800344 	ld.w	$r4,$r26,0
1c002fd0:	00150007 	move	$r7,$r0
1c002fd4:	02802006 	addi.w	$r6,$r0,8(0x8)
1c002fd8:	54016400 	bl	356(0x164) # 1c00313c <printbase>
/home/wwt/work/perf_func/lib/printf.c:46
1c002fdc:	0280135a 	addi.w	$r26,$r26,4(0x4)
/home/wwt/work/perf_func/lib/printf.c:47
1c002fe0:	02800718 	addi.w	$r24,$r24,1(0x1)
/home/wwt/work/perf_func/lib/printf.c:48
1c002fe4:	53feafff 	b	-340(0xffffeac) # 1c002e90 <printf+0x6c>
/home/wwt/work/perf_func/lib/printf.c:56
1c002fe8:	28800344 	ld.w	$r4,$r26,0
1c002fec:	00150007 	move	$r7,$r0
1c002ff0:	02804006 	addi.w	$r6,$r0,16(0x10)
1c002ff4:	54014800 	bl	328(0x148) # 1c00313c <printbase>
/home/wwt/work/perf_func/lib/printf.c:57
1c002ff8:	0280135a 	addi.w	$r26,$r26,4(0x4)
/home/wwt/work/perf_func/lib/printf.c:58
1c002ffc:	02800718 	addi.w	$r24,$r24,1(0x1)
/home/wwt/work/perf_func/lib/printf.c:59
1c003000:	53fe93ff 	b	-368(0xffffe90) # 1c002e90 <printf+0x6c>
/home/wwt/work/perf_func/lib/printf.c:20
1c003004:	28800344 	ld.w	$r4,$r26,0
/home/wwt/work/perf_func/lib/printf.c:22
1c003008:	02800718 	addi.w	$r24,$r24,1(0x1)
/home/wwt/work/perf_func/lib/printf.c:21
1c00300c:	0280135a 	addi.w	$r26,$r26,4(0x4)
/home/wwt/work/perf_func/lib/printf.c:20
1c003010:	54008c00 	bl	140(0x8c) # 1c00309c <putstring>
/home/wwt/work/perf_func/lib/printf.c:23
1c003014:	53fe7fff 	b	-388(0xffffe7c) # 1c002e90 <printf+0x6c>
/home/wwt/work/perf_func/lib/printf.c:30
1c003018:	28800344 	ld.w	$r4,$r26,0
1c00301c:	00150007 	move	$r7,$r0
1c003020:	02802806 	addi.w	$r6,$r0,10(0xa)
1c003024:	54011800 	bl	280(0x118) # 1c00313c <printbase>
/home/wwt/work/perf_func/lib/printf.c:31
1c003028:	0280135a 	addi.w	$r26,$r26,4(0x4)
/home/wwt/work/perf_func/lib/printf.c:32
1c00302c:	02800718 	addi.w	$r24,$r24,1(0x1)
/home/wwt/work/perf_func/lib/printf.c:33
1c003030:	53fe63ff 	b	-416(0xffffe60) # 1c002e90 <printf+0x6c>
/home/wwt/work/perf_func/lib/printf.c:61
1c003034:	02809404 	addi.w	$r4,$r0,37(0x25)
1c003038:	54001800 	bl	24(0x18) # 1c003050 <putchar>
/home/wwt/work/perf_func/lib/printf.c:62
1c00303c:	02800718 	addi.w	$r24,$r24,1(0x1)
/home/wwt/work/perf_func/lib/printf.c:63
1c003040:	53fe53ff 	b	-432(0xffffe50) # 1c002e90 <printf+0x6c>
/home/wwt/work/perf_func/lib/printf.c:73
1c003044:	02809404 	addi.w	$r4,$r0,37(0x25)
1c003048:	54000800 	bl	8(0x8) # 1c003050 <putchar>
/home/wwt/work/perf_func/lib/printf.c:74
1c00304c:	53fe47ff 	b	-444(0xffffe44) # 1c002e90 <printf+0x6c>

1c003050 <putchar>:
putchar():
/home/wwt/work/perf_func/lib/putchar.c:2
1c003050:	02bfc063 	addi.w	$r3,$r3,-16(0xff0)
1c003054:	29803079 	st.w	$r25,$r3,12(0xc)
/home/wwt/work/perf_func/lib/putchar.c:9
1c003058:	157f5ff9 	lu12i.w	$r25,-263425(0xbfaff)
1c00305c:	03bc4339 	ori	$r25,$r25,0xf10
1c003060:	29000324 	st.b	$r4,$r25,0
1c003064:	03400000 	andi	$r0,$r0,0x0
/home/wwt/work/perf_func/lib/putchar.c:5
1c003068:	00150004 	move	$r4,$r0
1c00306c:	28803079 	ld.w	$r25,$r3,12(0xc)
1c003070:	02804063 	addi.w	$r3,$r3,16(0x10)
1c003074:	4c000020 	jirl	$r0,$r1,0

1c003078 <tgt_putchar>:
tgt_putchar():
/home/wwt/work/perf_func/lib/putchar.c:8
1c003078:	02bfc063 	addi.w	$r3,$r3,-16(0xff0)
1c00307c:	29803079 	st.w	$r25,$r3,12(0xc)
/home/wwt/work/perf_func/lib/putchar.c:9
1c003080:	157f5ff9 	lu12i.w	$r25,-263425(0xbfaff)
1c003084:	03bc4339 	ori	$r25,$r25,0xf10
1c003088:	29000324 	st.b	$r4,$r25,0
1c00308c:	03400000 	andi	$r0,$r0,0x0
/home/wwt/work/perf_func/lib/putchar.c:16
1c003090:	28803079 	ld.w	$r25,$r3,12(0xc)
1c003094:	02804063 	addi.w	$r3,$r3,16(0x10)
1c003098:	4c000020 	jirl	$r0,$r1,0

1c00309c <putstring>:
putstring():
/home/wwt/work/perf_func/lib/puts.c:2
1c00309c:	02bfc063 	addi.w	$r3,$r3,-16(0xff0)
1c0030a0:	29803061 	st.w	$r1,$r3,12(0xc)
1c0030a4:	29802077 	st.w	$r23,$r3,8(0x8)
1c0030a8:	29801078 	st.w	$r24,$r3,4(0x4)
1c0030ac:	29800079 	st.w	$r25,$r3,0
/home/wwt/work/perf_func/lib/puts.c:4
1c0030b0:	28000097 	ld.b	$r23,$r4,0
1c0030b4:	580042e0 	beq	$r23,$r0,64(0x40) # 1c0030f4 <putstring+0x58>
1c0030b8:	00150098 	move	$r24,$r4
/home/wwt/work/perf_func/lib/puts.c:6
1c0030bc:	02802819 	addi.w	$r25,$r0,10(0xa)
1c0030c0:	50001400 	b	20(0x14) # 1c0030d4 <putstring+0x38>
/home/wwt/work/perf_func/lib/puts.c:7
1c0030c4:	001502e4 	move	$r4,$r23
1c0030c8:	57ff8bff 	bl	-120(0xfffff88) # 1c003050 <putchar>
/home/wwt/work/perf_func/lib/puts.c:4
1c0030cc:	28000317 	ld.b	$r23,$r24,0
1c0030d0:	580026e0 	beq	$r23,$r0,36(0x24) # 1c0030f4 <putstring+0x58>
/home/wwt/work/perf_func/lib/puts.c:8
1c0030d4:	02800718 	addi.w	$r24,$r24,1(0x1)
/home/wwt/work/perf_func/lib/puts.c:6
1c0030d8:	5fffeef9 	bne	$r23,$r25,-20(0x3ffec) # 1c0030c4 <putstring+0x28>
/home/wwt/work/perf_func/lib/puts.c:6 (discriminator 1)
1c0030dc:	02803404 	addi.w	$r4,$r0,13(0xd)
1c0030e0:	57ff73ff 	bl	-144(0xfffff70) # 1c003050 <putchar>
/home/wwt/work/perf_func/lib/puts.c:7
1c0030e4:	001502e4 	move	$r4,$r23
1c0030e8:	57ff6bff 	bl	-152(0xfffff68) # 1c003050 <putchar>
/home/wwt/work/perf_func/lib/puts.c:4
1c0030ec:	28000317 	ld.b	$r23,$r24,0
1c0030f0:	5fffe6e0 	bne	$r23,$r0,-28(0x3ffe4) # 1c0030d4 <putstring+0x38>
/home/wwt/work/perf_func/lib/puts.c:11
1c0030f4:	28803061 	ld.w	$r1,$r3,12(0xc)
1c0030f8:	28802077 	ld.w	$r23,$r3,8(0x8)
1c0030fc:	28801078 	ld.w	$r24,$r3,4(0x4)
1c003100:	28800079 	ld.w	$r25,$r3,0
1c003104:	00150004 	move	$r4,$r0
1c003108:	02804063 	addi.w	$r3,$r3,16(0x10)
1c00310c:	4c000020 	jirl	$r0,$r1,0

1c003110 <puts>:
puts():
/home/wwt/work/perf_func/lib/puts.c:15
1c003110:	02bfc063 	addi.w	$r3,$r3,-16(0xff0)
1c003114:	29803061 	st.w	$r1,$r3,12(0xc)
/home/wwt/work/perf_func/lib/puts.c:16
1c003118:	57ff87ff 	bl	-124(0xfffff84) # 1c00309c <putstring>
/home/wwt/work/perf_func/lib/puts.c:17
1c00311c:	02803404 	addi.w	$r4,$r0,13(0xd)
1c003120:	57ff33ff 	bl	-208(0xfffff30) # 1c003050 <putchar>
/home/wwt/work/perf_func/lib/puts.c:18
1c003124:	02802804 	addi.w	$r4,$r0,10(0xa)
1c003128:	57ff2bff 	bl	-216(0xfffff28) # 1c003050 <putchar>
/home/wwt/work/perf_func/lib/puts.c:20
1c00312c:	28803061 	ld.w	$r1,$r3,12(0xc)
1c003130:	00150004 	move	$r4,$r0
1c003134:	02804063 	addi.w	$r3,$r3,16(0x10)
1c003138:	4c000020 	jirl	$r0,$r1,0

1c00313c <printbase>:
printbase():
/home/wwt/work/perf_func/lib/printbase.c:2
1c00313c:	02be8063 	addi.w	$r3,$r3,-96(0xfa0)
1c003140:	29816077 	st.w	$r23,$r3,88(0x58)
1c003144:	29817061 	st.w	$r1,$r3,92(0x5c)
1c003148:	29815078 	st.w	$r24,$r3,84(0x54)
1c00314c:	29814079 	st.w	$r25,$r3,80(0x50)
1c003150:	00150097 	move	$r23,$r4
/home/wwt/work/perf_func/lib/printbase.c:7
1c003154:	580008e0 	beq	$r7,$r0,8(0x8) # 1c00315c <printbase+0x20>
/home/wwt/work/perf_func/lib/printbase.c:7 (discriminator 1)
1c003158:	6000a080 	blt	$r4,$r0,160(0xa0) # 1c0031f8 <printbase+0xbc>
/home/wwt/work/perf_func/lib/printbase.c:14
1c00315c:	5800bee0 	beq	$r23,$r0,188(0xbc) # 1c003218 <printbase+0xdc>
1c003160:	0280406c 	addi.w	$r12,$r3,16(0x10)
1c003164:	0280040e 	addi.w	$r14,$r0,1(0x1)
1c003168:	001131ce 	sub.w	$r14,$r14,$r12
1c00316c:	50000800 	b	8(0x8) # 1c003174 <printbase+0x38>
/home/wwt/work/perf_func/lib/printbase.c:17
1c003170:	001501b7 	move	$r23,$r13
/home/wwt/work/perf_func/lib/printbase.c:16
1c003174:	00219aed 	mod.wu	$r13,$r23,$r6
1c003178:	5c0008c0 	bne	$r6,$r0,8(0x8) # 1c003180 <printbase+0x44>
1c00317c:	002a0007 	break	0x7
1c003180:	2900018d 	st.b	$r13,$r12,0
/home/wwt/work/perf_func/lib/printbase.c:17
1c003184:	001031d8 	add.w	$r24,$r14,$r12
1c003188:	00211aed 	div.wu	$r13,$r23,$r6
1c00318c:	5c0008c0 	bne	$r6,$r0,8(0x8) # 1c003194 <printbase+0x58>
1c003190:	002a0007 	break	0x7
1c003194:	0280058c 	addi.w	$r12,$r12,1(0x1)
/home/wwt/work/perf_func/lib/printbase.c:14
1c003198:	6fffdae6 	bgeu	$r23,$r6,-40(0x3ffd8) # 1c003170 <printbase+0x34>
/home/wwt/work/perf_func/lib/printbase.c:22
1c00319c:	600054b8 	blt	$r5,$r24,84(0x54) # 1c0031f0 <printbase+0xb4>
1c0031a0:	001500b7 	move	$r23,$r5
/home/wwt/work/perf_func/lib/printbase.c:25
1c0031a4:	02802419 	addi.w	$r25,$r0,9(0x9)
/home/wwt/work/perf_func/lib/printbase.c:24
1c0031a8:	0280406c 	addi.w	$r12,$r3,16(0x10)
1c0031ac:	00105d8c 	add.w	$r12,$r12,$r23
1c0031b0:	0280c004 	addi.w	$r4,$r0,48(0x30)
1c0031b4:	60001717 	blt	$r24,$r23,20(0x14) # 1c0031c8 <printbase+0x8c>
1c0031b8:	283ffd8c 	ld.b	$r12,$r12,-1(0xfff)
/home/wwt/work/perf_func/lib/printbase.c:25 (discriminator 1)
1c0031bc:	02815d84 	addi.w	$r4,$r12,87(0x57)
1c0031c0:	60000b2c 	blt	$r25,$r12,8(0x8) # 1c0031c8 <printbase+0x8c>
1c0031c4:	0280c184 	addi.w	$r4,$r12,48(0x30)
1c0031c8:	02bffef7 	addi.w	$r23,$r23,-1(0xfff)
1c0031cc:	57fe87ff 	bl	-380(0xffffe84) # 1c003050 <putchar>
/home/wwt/work/perf_func/lib/printbase.c:22 (discriminator 4)
1c0031d0:	5fffdae0 	bne	$r23,$r0,-40(0x3ffd8) # 1c0031a8 <printbase+0x6c>
/home/wwt/work/perf_func/lib/printbase.c:28
1c0031d4:	28817061 	ld.w	$r1,$r3,92(0x5c)
1c0031d8:	28816077 	ld.w	$r23,$r3,88(0x58)
1c0031dc:	28815078 	ld.w	$r24,$r3,84(0x54)
1c0031e0:	28814079 	ld.w	$r25,$r3,80(0x50)
1c0031e4:	00150004 	move	$r4,$r0
1c0031e8:	02818063 	addi.w	$r3,$r3,96(0x60)
1c0031ec:	4c000020 	jirl	$r0,$r1,0
/home/wwt/work/perf_func/lib/printbase.c:22
1c0031f0:	00150305 	move	$r5,$r24
1c0031f4:	53ffafff 	b	-84(0xfffffac) # 1c0031a0 <printbase+0x64>
/home/wwt/work/perf_func/lib/printbase.c:10
1c0031f8:	0280b404 	addi.w	$r4,$r0,45(0x2d)
1c0031fc:	29803066 	st.w	$r6,$r3,12(0xc)
1c003200:	29802065 	st.w	$r5,$r3,8(0x8)
1c003204:	57fe4fff 	bl	-436(0xffffe4c) # 1c003050 <putchar>
/home/wwt/work/perf_func/lib/printbase.c:9
1c003208:	00115c17 	sub.w	$r23,$r0,$r23
/home/wwt/work/perf_func/lib/printbase.c:10
1c00320c:	28802065 	ld.w	$r5,$r3,8(0x8)
1c003210:	28803066 	ld.w	$r6,$r3,12(0xc)
1c003214:	53ff4fff 	b	-180(0xfffff4c) # 1c003160 <printbase+0x24>
/home/wwt/work/perf_func/lib/printbase.c:22
1c003218:	67ffbc05 	bge	$r0,$r5,-68(0x3ffbc) # 1c0031d4 <printbase+0x98>
1c00321c:	00150018 	move	$r24,$r0
1c003220:	53ff83ff 	b	-128(0xfffff80) # 1c0031a0 <printbase+0x64>

1c003224 <strlen>:
strlen():
/home/wwt/work/perf_func/lib/string.c:14
1c003224:	2800008c 	ld.b	$r12,$r4,0
1c003228:	58002180 	beq	$r12,$r0,32(0x20) # 1c003248 <strlen+0x24>
/home/wwt/work/perf_func/lib/string.c:13
1c00322c:	0015000c 	move	$r12,$r0
/home/wwt/work/perf_func/lib/string.c:15
1c003230:	0280058c 	addi.w	$r12,$r12,1(0x1)
/home/wwt/work/perf_func/lib/string.c:14
1c003234:	0010308d 	add.w	$r13,$r4,$r12
1c003238:	280001ad 	ld.b	$r13,$r13,0
1c00323c:	5ffff5a0 	bne	$r13,$r0,-12(0x3fff4) # 1c003230 <strlen+0xc>
/home/wwt/work/perf_func/lib/string.c:18
1c003240:	00150184 	move	$r4,$r12
1c003244:	4c000020 	jirl	$r0,$r1,0
/home/wwt/work/perf_func/lib/string.c:13
1c003248:	0015000c 	move	$r12,$r0
/home/wwt/work/perf_func/lib/string.c:18
1c00324c:	00150184 	move	$r4,$r12
1c003250:	4c000020 	jirl	$r0,$r1,0

1c003254 <strnlen>:
strnlen():
/home/wwt/work/perf_func/lib/string.c:36
1c003254:	580030a0 	beq	$r5,$r0,48(0x30) # 1c003284 <strnlen+0x30>
1c003258:	2800008c 	ld.b	$r12,$r4,0
1c00325c:	58002980 	beq	$r12,$r0,40(0x28) # 1c003284 <strnlen+0x30>
/home/wwt/work/perf_func/lib/string.c:35
1c003260:	0015000c 	move	$r12,$r0
1c003264:	50000c00 	b	12(0xc) # 1c003270 <strnlen+0x1c>
/home/wwt/work/perf_func/lib/string.c:36 (discriminator 1)
1c003268:	280001ad 	ld.b	$r13,$r13,0
1c00326c:	580011a0 	beq	$r13,$r0,16(0x10) # 1c00327c <strnlen+0x28>
/home/wwt/work/perf_func/lib/string.c:37
1c003270:	0280058c 	addi.w	$r12,$r12,1(0x1)
/home/wwt/work/perf_func/lib/string.c:36
1c003274:	0010308d 	add.w	$r13,$r4,$r12
1c003278:	5ffff0ac 	bne	$r5,$r12,-16(0x3fff0) # 1c003268 <strnlen+0x14>
/home/wwt/work/perf_func/lib/string.c:40
1c00327c:	00150184 	move	$r4,$r12
1c003280:	4c000020 	jirl	$r0,$r1,0
/home/wwt/work/perf_func/lib/string.c:35
1c003284:	0015000c 	move	$r12,$r0
/home/wwt/work/perf_func/lib/string.c:40
1c003288:	00150184 	move	$r4,$r12
1c00328c:	4c000020 	jirl	$r0,$r1,0

1c003290 <strcpy>:
strcpy():
/home/wwt/work/perf_func/lib/string.c:59
1c003290:	0015008c 	move	$r12,$r4
/home/wwt/work/perf_func/lib/string.c:60
1c003294:	028004a5 	addi.w	$r5,$r5,1(0x1)
1c003298:	283ffcad 	ld.b	$r13,$r5,-1(0xfff)
1c00329c:	0280058c 	addi.w	$r12,$r12,1(0x1)
1c0032a0:	293ffd8d 	st.b	$r13,$r12,-1(0xfff)
1c0032a4:	5ffff1a0 	bne	$r13,$r0,-16(0x3fff0) # 1c003294 <strcpy+0x4>
/home/wwt/work/perf_func/lib/string.c:64
1c0032a8:	4c000020 	jirl	$r0,$r1,0

1c0032ac <strncpy>:
strncpy():
/home/wwt/work/perf_func/lib/string.c:79
1c0032ac:	580024c0 	beq	$r6,$r0,36(0x24) # 1c0032d0 <strncpy+0x24>
1c0032b0:	00101886 	add.w	$r6,$r4,$r6
/home/wwt/work/perf_func/lib/string.c:78
1c0032b4:	0015008d 	move	$r13,$r4
/home/wwt/work/perf_func/lib/string.c:80
1c0032b8:	280000ac 	ld.b	$r12,$r5,0
/home/wwt/work/perf_func/lib/string.c:83
1c0032bc:	028005ad 	addi.w	$r13,$r13,1(0x1)
/home/wwt/work/perf_func/lib/string.c:80
1c0032c0:	293ffdac 	st.b	$r12,$r13,-1(0xfff)
/home/wwt/work/perf_func/lib/string.c:81
1c0032c4:	0012b00c 	sltu	$r12,$r0,$r12
1c0032c8:	001030a5 	add.w	$r5,$r5,$r12
/home/wwt/work/perf_func/lib/string.c:79
1c0032cc:	5fffeda6 	bne	$r13,$r6,-20(0x3ffec) # 1c0032b8 <strncpy+0xc>
/home/wwt/work/perf_func/lib/string.c:86
1c0032d0:	4c000020 	jirl	$r0,$r1,0

1c0032d4 <strncmp>:
strncmp():
/home/wwt/work/perf_func/lib/string.c:101
1c0032d4:	58003cc0 	beq	$r6,$r0,60(0x3c) # 1c003310 <strncmp+0x3c>
1c0032d8:	2800008d 	ld.b	$r13,$r4,0
1c0032dc:	280000ae 	ld.b	$r14,$r5,0
1c0032e0:	58003da0 	beq	$r13,$r0,60(0x3c) # 1c00331c <strncmp+0x48>
1c0032e4:	5c0039ae 	bne	$r13,$r14,56(0x38) # 1c00331c <strncmp+0x48>
1c0032e8:	001018a6 	add.w	$r6,$r5,$r6
1c0032ec:	50001800 	b	24(0x18) # 1c003304 <strncmp+0x30>
/home/wwt/work/perf_func/lib/string.c:101 (discriminator 1)
1c0032f0:	2800008d 	ld.b	$r13,$r4,0
/home/wwt/work/perf_func/lib/string.c:101
1c0032f4:	580025a0 	beq	$r13,$r0,36(0x24) # 1c003318 <strncmp+0x44>
/home/wwt/work/perf_func/lib/string.c:101 (discriminator 2)
1c0032f8:	2800018e 	ld.b	$r14,$r12,0
1c0032fc:	00150185 	move	$r5,$r12
/home/wwt/work/perf_func/lib/string.c:101
1c003300:	5c001dae 	bne	$r13,$r14,28(0x1c) # 1c00331c <strncmp+0x48>
/home/wwt/work/perf_func/lib/string.c:102
1c003304:	028004ac 	addi.w	$r12,$r5,1(0x1)
1c003308:	02800484 	addi.w	$r4,$r4,1(0x1)
/home/wwt/work/perf_func/lib/string.c:101
1c00330c:	5fffe586 	bne	$r12,$r6,-28(0x3ffe4) # 1c0032f0 <strncmp+0x1c>
/home/wwt/work/perf_func/lib/string.c:104
1c003310:	00150004 	move	$r4,$r0
/home/wwt/work/perf_func/lib/string.c:105
1c003314:	4c000020 	jirl	$r0,$r1,0
1c003318:	280004ae 	ld.b	$r14,$r5,1(0x1)
/home/wwt/work/perf_func/lib/string.c:100
1c00331c:	02bfc063 	addi.w	$r3,$r3,-16(0xff0)
/home/wwt/work/perf_func/lib/string.c:104
1c003320:	2980306d 	st.w	$r13,$r3,12(0xc)
1c003324:	2a00306d 	ld.bu	$r13,$r3,12(0xc)
1c003328:	2980306e 	st.w	$r14,$r3,12(0xc)
1c00332c:	2a003064 	ld.bu	$r4,$r3,12(0xc)
/home/wwt/work/perf_func/lib/string.c:105
1c003330:	02804063 	addi.w	$r3,$r3,16(0x10)
/home/wwt/work/perf_func/lib/string.c:104
1c003334:	001111a4 	sub.w	$r4,$r13,$r4
/home/wwt/work/perf_func/lib/string.c:105
1c003338:	4c000020 	jirl	$r0,$r1,0

1c00333c <strchr>:
strchr():
/home/wwt/work/perf_func/lib/string.c:117
1c00333c:	2800008c 	ld.b	$r12,$r4,0
1c003340:	58001d80 	beq	$r12,$r0,28(0x1c) # 1c00335c <strchr+0x20>
/home/wwt/work/perf_func/lib/string.c:118
1c003344:	5c000d85 	bne	$r12,$r5,12(0xc) # 1c003350 <strchr+0x14>
1c003348:	50001c00 	b	28(0x1c) # 1c003364 <strchr+0x28>
1c00334c:	58001585 	beq	$r12,$r5,20(0x14) # 1c003360 <strchr+0x24>
/home/wwt/work/perf_func/lib/string.c:121
1c003350:	02800484 	addi.w	$r4,$r4,1(0x1)
/home/wwt/work/perf_func/lib/string.c:117
1c003354:	2800008c 	ld.b	$r12,$r4,0
1c003358:	5ffff580 	bne	$r12,$r0,-12(0x3fff4) # 1c00334c <strchr+0x10>
/home/wwt/work/perf_func/lib/string.c:123
1c00335c:	00150004 	move	$r4,$r0
/home/wwt/work/perf_func/lib/string.c:124
1c003360:	4c000020 	jirl	$r0,$r1,0
1c003364:	4c000020 	jirl	$r0,$r1,0

1c003368 <strfind>:
strfind():
/home/wwt/work/perf_func/lib/string.c:137
1c003368:	2800008c 	ld.b	$r12,$r4,0
1c00336c:	58001d80 	beq	$r12,$r0,28(0x1c) # 1c003388 <strfind+0x20>
/home/wwt/work/perf_func/lib/string.c:138
1c003370:	5c000cac 	bne	$r5,$r12,12(0xc) # 1c00337c <strfind+0x14>
1c003374:	50001800 	b	24(0x18) # 1c00338c <strfind+0x24>
1c003378:	58001185 	beq	$r12,$r5,16(0x10) # 1c003388 <strfind+0x20>
/home/wwt/work/perf_func/lib/string.c:141
1c00337c:	02800484 	addi.w	$r4,$r4,1(0x1)
/home/wwt/work/perf_func/lib/string.c:137
1c003380:	2800008c 	ld.b	$r12,$r4,0
1c003384:	5ffff580 	bne	$r12,$r0,-12(0x3fff4) # 1c003378 <strfind+0x10>
/home/wwt/work/perf_func/lib/string.c:144
1c003388:	4c000020 	jirl	$r0,$r1,0
1c00338c:	4c000020 	jirl	$r0,$r1,0

1c003390 <memset>:
memset():
/home/wwt/work/perf_func/lib/string.c:251
1c003390:	580018c0 	beq	$r6,$r0,24(0x18) # 1c0033a8 <memset+0x18>
1c003394:	00101886 	add.w	$r6,$r4,$r6
/home/wwt/work/perf_func/lib/string.c:250
1c003398:	0015008c 	move	$r12,$r4
/home/wwt/work/perf_func/lib/string.c:252
1c00339c:	0280058c 	addi.w	$r12,$r12,1(0x1)
1c0033a0:	293ffd85 	st.b	$r5,$r12,-1(0xfff)
/home/wwt/work/perf_func/lib/string.c:251
1c0033a4:	5ffff986 	bne	$r12,$r6,-8(0x3fff8) # 1c00339c <memset+0xc>
/home/wwt/work/perf_func/lib/string.c:256
1c0033a8:	4c000020 	jirl	$r0,$r1,0

1c0033ac <memcpy>:
memcpy():
/home/wwt/work/perf_func/lib/string.c:279
1c0033ac:	580020c0 	beq	$r6,$r0,32(0x20) # 1c0033cc <memcpy+0x20>
1c0033b0:	001018a6 	add.w	$r6,$r5,$r6
/home/wwt/work/perf_func/lib/string.c:278
1c0033b4:	0015008c 	move	$r12,$r4
/home/wwt/work/perf_func/lib/string.c:280
1c0033b8:	028004a5 	addi.w	$r5,$r5,1(0x1)
1c0033bc:	283ffcad 	ld.b	$r13,$r5,-1(0xfff)
1c0033c0:	0280058c 	addi.w	$r12,$r12,1(0x1)
1c0033c4:	293ffd8d 	st.b	$r13,$r12,-1(0xfff)
/home/wwt/work/perf_func/lib/string.c:279
1c0033c8:	5ffff0a6 	bne	$r5,$r6,-16(0x3fff0) # 1c0033b8 <memcpy+0xc>
/home/wwt/work/perf_func/lib/string.c:284
1c0033cc:	4c000020 	jirl	$r0,$r1,0

1c0033d0 <memmove>:
memmove():
/home/wwt/work/perf_func/lib/string.c:302
1c0033d0:	6c002ca4 	bgeu	$r5,$r4,44(0x2c) # 1c0033fc <memmove+0x2c>
/home/wwt/work/perf_func/lib/string.c:302 (discriminator 1)
1c0033d4:	001018ac 	add.w	$r12,$r5,$r6
/home/wwt/work/perf_func/lib/string.c:302
1c0033d8:	6c00248c 	bgeu	$r4,$r12,36(0x24) # 1c0033fc <memmove+0x2c>
/home/wwt/work/perf_func/lib/string.c:303
1c0033dc:	0010188d 	add.w	$r13,$r4,$r6
/home/wwt/work/perf_func/lib/string.c:304
1c0033e0:	58003cc0 	beq	$r6,$r0,60(0x3c) # 1c00341c <memmove+0x4c>
/home/wwt/work/perf_func/lib/string.c:305
1c0033e4:	02bffd8c 	addi.w	$r12,$r12,-1(0xfff)
1c0033e8:	2800018e 	ld.b	$r14,$r12,0
1c0033ec:	02bffdad 	addi.w	$r13,$r13,-1(0xfff)
1c0033f0:	290001ae 	st.b	$r14,$r13,0
/home/wwt/work/perf_func/lib/string.c:304
1c0033f4:	5ffff0ac 	bne	$r5,$r12,-16(0x3fff0) # 1c0033e4 <memmove+0x14>
1c0033f8:	4c000020 	jirl	$r0,$r1,0
1c0033fc:	001018ae 	add.w	$r14,$r5,$r6
/home/wwt/work/perf_func/lib/string.c:308
1c003400:	0015008c 	move	$r12,$r4
1c003404:	58001cc0 	beq	$r6,$r0,28(0x1c) # 1c003420 <memmove+0x50>
/home/wwt/work/perf_func/lib/string.c:309
1c003408:	028004a5 	addi.w	$r5,$r5,1(0x1)
1c00340c:	283ffcad 	ld.b	$r13,$r5,-1(0xfff)
1c003410:	0280058c 	addi.w	$r12,$r12,1(0x1)
1c003414:	293ffd8d 	st.b	$r13,$r12,-1(0xfff)
/home/wwt/work/perf_func/lib/string.c:308
1c003418:	5ffff0ae 	bne	$r5,$r14,-16(0x3fff0) # 1c003408 <memmove+0x38>
/home/wwt/work/perf_func/lib/string.c:314
1c00341c:	4c000020 	jirl	$r0,$r1,0
1c003420:	4c000020 	jirl	$r0,$r1,0

1c003424 <memcmp>:
memcmp():
/home/wwt/work/perf_func/lib/string.c:334
1c003424:	580030c0 	beq	$r6,$r0,48(0x30) # 1c003454 <memcmp+0x30>
/home/wwt/work/perf_func/lib/string.c:335
1c003428:	2800008c 	ld.b	$r12,$r4,0
1c00342c:	280000ad 	ld.b	$r13,$r5,0
1c003430:	00101886 	add.w	$r6,$r4,$r6
1c003434:	580015ac 	beq	$r13,$r12,20(0x14) # 1c003448 <memcmp+0x24>
1c003438:	50002400 	b	36(0x24) # 1c00345c <memcmp+0x38>
1c00343c:	2800008c 	ld.b	$r12,$r4,0
1c003440:	280000ad 	ld.b	$r13,$r5,0
1c003444:	5c00198d 	bne	$r12,$r13,24(0x18) # 1c00345c <memcmp+0x38>
/home/wwt/work/perf_func/lib/string.c:338
1c003448:	02800484 	addi.w	$r4,$r4,1(0x1)
1c00344c:	028004a5 	addi.w	$r5,$r5,1(0x1)
/home/wwt/work/perf_func/lib/string.c:334
1c003450:	5fffec86 	bne	$r4,$r6,-20(0x3ffec) # 1c00343c <memcmp+0x18>
/home/wwt/work/perf_func/lib/string.c:340
1c003454:	00150004 	move	$r4,$r0
/home/wwt/work/perf_func/lib/string.c:341
1c003458:	4c000020 	jirl	$r0,$r1,0
/home/wwt/work/perf_func/lib/string.c:331
1c00345c:	02bfc063 	addi.w	$r3,$r3,-16(0xff0)
/home/wwt/work/perf_func/lib/string.c:336
1c003460:	2980306c 	st.w	$r12,$r3,12(0xc)
1c003464:	2a00306c 	ld.bu	$r12,$r3,12(0xc)
1c003468:	2980306d 	st.w	$r13,$r3,12(0xc)
1c00346c:	2a003064 	ld.bu	$r4,$r3,12(0xc)
/home/wwt/work/perf_func/lib/string.c:341
1c003470:	02804063 	addi.w	$r3,$r3,16(0x10)
/home/wwt/work/perf_func/lib/string.c:336
1c003474:	00111184 	sub.w	$r4,$r12,$r4
/home/wwt/work/perf_func/lib/string.c:341
1c003478:	4c000020 	jirl	$r0,$r1,0

1c00347c <bzero>:
memset():
/home/wwt/work/perf_func/lib/string.c:251
1c00347c:	580014a0 	beq	$r5,$r0,20(0x14) # 1c003490 <bzero+0x14>
1c003480:	00101485 	add.w	$r5,$r4,$r5
/home/wwt/work/perf_func/lib/string.c:252
1c003484:	02800484 	addi.w	$r4,$r4,1(0x1)
1c003488:	293ffc80 	st.b	$r0,$r4,-1(0xfff)
/home/wwt/work/perf_func/lib/string.c:251
1c00348c:	5ffff885 	bne	$r4,$r5,-8(0x3fff8) # 1c003484 <bzero+0x8>
bzero():
/home/wwt/work/perf_func/lib/string.c:345
1c003490:	4c000020 	jirl	$r0,$r1,0

1c003494 <get_count>:
get_count():
/home/wwt/work/perf_func/lib/time.c:18
1c003494:	02bfc063 	addi.w	$r3,$r3,-16(0xff0)
1c003498:	29803079 	st.w	$r25,$r3,12(0xc)
/home/wwt/work/perf_func/lib/time.c:7
1c00349c:	157f5fd9 	lu12i.w	$r25,-263426(0xbfafe)
1c0034a0:	28800324 	ld.w	$r4,$r25,0
/home/wwt/work/perf_func/lib/time.c:20
1c0034a4:	28803079 	ld.w	$r25,$r3,12(0xc)
1c0034a8:	02804063 	addi.w	$r3,$r3,16(0x10)
1c0034ac:	4c000020 	jirl	$r0,$r1,0

1c0034b0 <_get_count>:
_get_count():
/home/wwt/work/perf_func/lib/time.c:20
1c0034b0:	53ffe7ff 	b	-28(0xfffffe4) # 1c003494 <get_count>

1c0034b4 <get_count_my>:
get_count_my():
/home/wwt/work/perf_func/lib/time.c:25
1c0034b4:	00006004 	rdtimel.w	$r4,$r0
/home/wwt/work/perf_func/lib/time.c:30
1c0034b8:	4c000020 	jirl	$r0,$r1,0

1c0034bc <clock_gettime>:
clock_gettime():
/home/wwt/work/perf_func/lib/time.c:33
1c0034bc:	02bfc063 	addi.w	$r3,$r3,-16(0xff0)
1c0034c0:	29803079 	st.w	$r25,$r3,12(0xc)
_get_count():
/home/wwt/work/perf_func/lib/time.c:7
1c0034c4:	157f5fd9 	lu12i.w	$r25,-263426(0xbfafe)
1c0034c8:	2880032f 	ld.w	$r15,$r25,0
clock_gettime():
/home/wwt/work/perf_func/lib/time.c:36
1c0034cc:	0280280d 	addi.w	$r13,$r0,10(0xa)
1c0034d0:	001c35ed 	mul.w	$r13,$r15,$r13
/home/wwt/work/perf_func/lib/time.c:37
1c0034d4:	02819010 	addi.w	$r16,$r0,100(0x64)
/home/wwt/work/perf_func/lib/time.c:36
1c0034d8:	028fa00c 	addi.w	$r12,$r0,1000(0x3e8)
/home/wwt/work/perf_func/lib/time.c:37
1c0034dc:	002141ee 	div.wu	$r14,$r15,$r16
1c0034e0:	5c000a00 	bne	$r16,$r0,8(0x8) # 1c0034e8 <clock_gettime+0x2c>
1c0034e4:	002a0007 	break	0x7
1c0034e8:	0021b1d1 	mod.wu	$r17,$r14,$r12
1c0034ec:	5c000980 	bne	$r12,$r0,8(0x8) # 1c0034f4 <clock_gettime+0x38>
1c0034f0:	002a0007 	break	0x7
/home/wwt/work/perf_func/lib/time.c:38
1c0034f4:	1400030e 	lu12i.w	$r14,24(0x18)
1c0034f8:	039a81ce 	ori	$r14,$r14,0x6a0
1c0034fc:	002139f0 	div.wu	$r16,$r15,$r14
1c003500:	5c0009c0 	bne	$r14,$r0,8(0x8) # 1c003508 <clock_gettime+0x4c>
1c003504:	002a0007 	break	0x7
1c003508:	0021b20e 	mod.wu	$r14,$r16,$r12
1c00350c:	5c000980 	bne	$r12,$r0,8(0x8) # 1c003514 <clock_gettime+0x58>
1c003510:	002a0007 	break	0x7
/home/wwt/work/perf_func/lib/time.c:37
1c003514:	298020b1 	st.w	$r17,$r5,8(0x8)
/home/wwt/work/perf_func/lib/time.c:38
1c003518:	298030ae 	st.w	$r14,$r5,12(0xc)
/home/wwt/work/perf_func/lib/time.c:39
1c00351c:	298000a0 	st.w	$r0,$r5,0
/home/wwt/work/perf_func/lib/time.c:42
1c003520:	28803079 	ld.w	$r25,$r3,12(0xc)
1c003524:	00150004 	move	$r4,$r0
/home/wwt/work/perf_func/lib/time.c:36
1c003528:	0021b1ae 	mod.wu	$r14,$r13,$r12
1c00352c:	5c000980 	bne	$r12,$r0,8(0x8) # 1c003534 <clock_gettime+0x78>
1c003530:	002a0007 	break	0x7
1c003534:	298010ae 	st.w	$r14,$r5,4(0x4)
/home/wwt/work/perf_func/lib/time.c:42
1c003538:	02804063 	addi.w	$r3,$r3,16(0x10)
1c00353c:	4c000020 	jirl	$r0,$r1,0

1c003540 <get_clock>:
get_clock():
/home/wwt/work/perf_func/lib/time.c:42
1c003540:	53ff57ff 	b	-172(0xfffff54) # 1c003494 <get_count>

1c003544 <get_ns>:
get_ns():
/home/wwt/work/perf_func/lib/time.c:52
1c003544:	02bfc063 	addi.w	$r3,$r3,-16(0xff0)
1c003548:	29803079 	st.w	$r25,$r3,12(0xc)
_get_count():
/home/wwt/work/perf_func/lib/time.c:7
1c00354c:	157f5fd9 	lu12i.w	$r25,-263426(0xbfafe)
1c003550:	28800324 	ld.w	$r4,$r25,0
get_ns():
/home/wwt/work/perf_func/lib/time.c:55
1c003554:	0280280c 	addi.w	$r12,$r0,10(0xa)
/home/wwt/work/perf_func/lib/time.c:57
1c003558:	28803079 	ld.w	$r25,$r3,12(0xc)
1c00355c:	001c3084 	mul.w	$r4,$r4,$r12
1c003560:	02804063 	addi.w	$r3,$r3,16(0x10)
1c003564:	4c000020 	jirl	$r0,$r1,0

1c003568 <get_us>:
get_us():
/home/wwt/work/perf_func/lib/time.c:61
1c003568:	02bfc063 	addi.w	$r3,$r3,-16(0xff0)
1c00356c:	29803079 	st.w	$r25,$r3,12(0xc)
_get_count():
/home/wwt/work/perf_func/lib/time.c:7
1c003570:	157f5fd9 	lu12i.w	$r25,-263426(0xbfafe)
1c003574:	28800324 	ld.w	$r4,$r25,0
get_us():
/home/wwt/work/perf_func/lib/time.c:64
1c003578:	0281900c 	addi.w	$r12,$r0,100(0x64)
/home/wwt/work/perf_func/lib/time.c:66
1c00357c:	28803079 	ld.w	$r25,$r3,12(0xc)
1c003580:	0021308d 	div.wu	$r13,$r4,$r12
1c003584:	5c000980 	bne	$r12,$r0,8(0x8) # 1c00358c <get_us+0x24>
1c003588:	002a0007 	break	0x7
1c00358c:	001501a4 	move	$r4,$r13
1c003590:	02804063 	addi.w	$r3,$r3,16(0x10)
1c003594:	4c000020 	jirl	$r0,$r1,0

Disassembly of section .data:

1c003598 <__CTOR_LIST__-0xa04>:
1c003598:	20616873 	ll.w	$r19,$r3,24936(0x6168)
1c00359c:	74736574 	xvmin.w	$xr20,$xr11,$xr25
1c0035a0:	67656220 	bge	$r17,$r0,-39584(0x36560) # 1bff9b00 <data_size+0x1bff90e4>
1c0035a4:	002e6e69 	0x002e6e69
1c0035a8:	7373616c 	0x7373616c
1c0035ac:	3739666f 	0x3739666f
1c0035b0:	72616557 	0x72616557
1c0035b4:	736e7573 	vssrarni.du.q	$vr19,$vr11,0x1d
1c0035b8:	65657263 	bge	$r19,$r3,91504(0x16570) # 1c019b28 <_stack+0x5bac>
1c0035bc:	4966496e 	bcnez	$fcc3,3761736(0x396648) # 1c399c04 <_stack+0x385c88>
1c0035c0:	6c756f63 	bgeu	$r27,$r3,30060(0x756c) # 1c00ab2c <_heap+0x632c>
1c0035c4:	66666f64 	bge	$r27,$r4,-104852(0x2666c) # 1bfe9c30 <data_size+0x1bfe9214>
1c0035c8:	6f797265 	bgeu	$r19,$r5,-34448(0x37970) # 1bffaf38 <data_size+0x1bffa51c>
1c0035cc:	6c6e6f75 	bgeu	$r27,$r21,28268(0x6e6c) # 1c00a438 <_heap+0x5c38>
1c0035d0:	656e6f79 	bge	$r27,$r25,93804(0x16e6c) # 1c01a43c <_stack+0x64c0>
1c0035d4:	66706974 	bge	$r11,$r20,-102296(0x27068) # 1bfea63c <data_size+0x1bfe9c20>
1c0035d8:	6874726f 	bltu	$r19,$r15,29808(0x7470) # 1c00aa48 <_heap+0x6248>
1c0035dc:	74756665 	xvmax.wu	$xr5,$xr19,$xr25
1c0035e0:	4b657275 	0x4b657275
1c0035e4:	56747275 	bl	-103386000(0x9d67470) # 15d6aa54 <data_size+0x15d6a038>
1c0035e8:	656e6e6f 	bge	$r19,$r15,93804(0x16e6c) # 1c01a454 <_stack+0x64d8>
1c0035ec:	73747567 	0x73747567
1c0035f0:	6d6d6f43 	bgeu	$r26,$r3,93548(0x16d6c) # 1c01a35c <_stack+0x63e0>
1c0035f4:	65636e65 	bge	$r19,$r5,90988(0x1636c) # 1c019960 <_stack+0x59e4>
1c0035f8:	746e656d 	0x746e656d
1c0035fc:	72646441 	0x72646441
1c003600:	61737365 	blt	$r27,$r5,95088(0x17370) # 1c01a970 <_stack+0x69f4>
1c003604:	54494d74 	bl	97536332(0x5d0494c) # 21d07f50 <_stack+0x5cf3fd4>
1c003608:	6964614c 	bltu	$r10,$r12,91232(0x16460) # 1c019a68 <_stack+0x5aec>
1c00360c:	6e617365 	bgeu	$r27,$r5,-106128(0x26170) # 1bfe977c <data_size+0x1bfe8d60>
1c003610:	6e656764 	bgeu	$r27,$r4,-105116(0x26564) # 1bfe9b74 <data_size+0x1bfe9158>
1c003614:	6d656c74 	bgeu	$r3,$r20,91500(0x1656c) # 1c019b80 <_stack+0x5c04>
1c003618:	666f6e65 	bge	$r19,$r5,-102548(0x26f6c) # 1bfea584 <data_size+0x1bfe9b68>
1c00361c:	63656874 	blt	$r3,$r20,-39576(0x36568) # 1bff9b84 <data_size+0x1bff9168>
1c003620:	7373616c 	0x7373616c
1c003624:	3739666f 	0x3739666f
1c003628:	72616557 	0x72616557
1c00362c:	736e7573 	vssrarni.du.q	$vr19,$vr11,0x1d
1c003630:	65657263 	bge	$r19,$r3,91504(0x16570) # 1c019ba0 <_stack+0x5c24>
1c003634:	4966496e 	bcnez	$fcc3,3761736(0x396648) # 1c399c7c <_stack+0x385d00>
1c003638:	6c756f63 	bgeu	$r27,$r3,30060(0x756c) # 1c00aba4 <_heap+0x63a4>
1c00363c:	66666f64 	bge	$r27,$r4,-104852(0x2666c) # 1bfe9ca8 <data_size+0x1bfe928c>
1c003640:	6f797265 	bgeu	$r19,$r5,-34448(0x37970) # 1bffafb0 <data_size+0x1bffa594>
1c003644:	6c6e6f75 	bgeu	$r27,$r21,28268(0x6e6c) # 1c00a4b0 <_heap+0x5cb0>
1c003648:	656e6f79 	bge	$r27,$r25,93804(0x16e6c) # 1c01a4b4 <_stack+0x6538>
1c00364c:	66706974 	bge	$r11,$r20,-102296(0x27068) # 1bfea6b4 <data_size+0x1bfe9c98>
1c003650:	6874726f 	bltu	$r19,$r15,29808(0x7470) # 1c00aac0 <_heap+0x62c0>
1c003654:	74756665 	xvmax.wu	$xr5,$xr19,$xr25
1c003658:	73657275 	vssrani.wu.d	$vr21,$vr19,0x1c
1c00365c:	63736e75 	blt	$r19,$r21,-35988(0x3736c) # 1bffa9c8 <data_size+0x1bff9fac>
1c003660:	6e656572 	bgeu	$r11,$r18,-105116(0x26564) # 1bfe9bc4 <data_size+0x1bfe91a8>
1c003664:	6c756f77 	bgeu	$r27,$r23,30060(0x756c) # 1c00abd0 <_heap+0x63d0>
1c003668:	69656264 	bltu	$r19,$r4,91488(0x16560) # 1c019bc8 <_stack+0x5c4c>
1c00366c:	65685474 	bge	$r3,$r20,92244(0x16854) # 1c019ec0 <_stack+0x5f44>
1c003670:	676e6f6c 	bge	$r27,$r12,-37268(0x36e6c) # 1bffa4dc <data_size+0x1bff9ac0>
1c003674:	6d726574 	bgeu	$r11,$r20,94820(0x17264) # 1c01a8d8 <_stack+0x695c>
1c003678:	656e6562 	bge	$r11,$r2,93796(0x16e64) # 1c01a4dc <_stack+0x6560>
1c00367c:	73746966 	0x73746966
1c003680:	7573666f 	0x7573666f
1c003684:	7263736e 	0x7263736e
1c003688:	686e6565 	bltu	$r11,$r5,28260(0x6e64) # 1c00a4ec <_heap+0x5cec>
1c00368c:	62657661 	blt	$r19,$r1,-105100(0x26574) # 1bfe9c00 <data_size+0x1bfe91e4>
1c003690:	706e6565 	0x706e6565
1c003694:	65766f72 	bge	$r27,$r18,95852(0x1766c) # 1c01ad00 <_stack+0x6d84>
1c003698:	73796264 	0x73796264
1c00369c:	6e656963 	bgeu	$r11,$r3,-105112(0x26568) # 1bfe9c04 <data_size+0x1bfe91e8>
1c0036a0:	74736974 	xvmin.w	$xr20,$xr11,$xr26
1c0036a4:	65687773 	bge	$r27,$r19,92276(0x16874) # 1c019f18 <_stack+0x5f9c>
1c0036a8:	73616572 	vssrani.w.d	$vr18,$vr11,0x19
1c0036ac:	72656874 	0x72656874
1c0036b0:	6f747365 	bgeu	$r27,$r5,-35728(0x37470) # 1bffab20 <data_size+0x1bffa104>
1c0036b4:	61796d66 	blt	$r11,$r6,96620(0x1796c) # 1c01b020 <_stack+0x70a4>
1c0036b8:	63697664 	blt	$r19,$r4,-38540(0x36974) # 1bffa02c <data_size+0x1bff9610>
1c0036bc:	73616865 	vssrani.w.d	$vr5,$vr3,0x1a
1c0036c0:	61626f6e 	blt	$r27,$r14,90732(0x1626c) # 1c01992c <_stack+0x59b0>
1c0036c4:	6d736973 	bgeu	$r11,$r19,95080(0x17368) # 1c01aa2c <_stack+0x6ab0>
1c0036c8:	7265726f 	0x7265726f
1c0036cc:	61696c65 	blt	$r3,$r5,92524(0x1696c) # 1c01a038 <_stack+0x60bc>
1c0036d0:	74656c62 	xvavg.w	$xr2,$xr3,$xr27
1c0036d4:	6d6e6168 	bgeu	$r11,$r8,93792(0x16e60) # 1c01a534 <_stack+0x65b8>
1c0036d8:	6e776f79 	bgeu	$r27,$r25,-100500(0x2776c) # 1bfeae44 <data_size+0x1bfea428>
1c0036dc:	6e61656d 	bgeu	$r11,$r13,-106140(0x26164) # 1bfe9840 <data_size+0x1bfe8e24>
1c0036e0:	69726564 	bltu	$r11,$r4,94820(0x17264) # 1c01a944 <_stack+0x69c8>
1c0036e4:	7865676e 	0x7865676e
1c0036e8:	69726570 	bltu	$r11,$r16,94820(0x17264) # 1c01a94c <_stack+0x69d0>
1c0036ec:	65636e65 	bge	$r19,$r5,90988(0x1636c) # 1c019a58 <_stack+0x5adc>
1c0036f0:	6c697749 	bgeu	$r26,$r9,26996(0x6974) # 1c00a064 <_heap+0x5864>
1c0036f4:	7369646c 	vssrarni.w.d	$vr12,$vr3,0x19
1c0036f8:	736e6570 	vssrarni.du.q	$vr16,$vr11,0x19
1c0036fc:	69687465 	bltu	$r3,$r5,92276(0x16874) # 1c019f70 <_stack+0x5ff4>
1c003700:	76646173 	0x76646173
1c003704:	6e656369 	bgeu	$r27,$r9,-105120(0x26560) # 1bfe9c64 <data_size+0x1bfe9248>
1c003708:	6e45776f 	bgeu	$r27,$r15,-113292(0x24574) # 1bfe7c7c <data_size+0x1bfe7260>
1c00370c:	74796f6a 	0x74796f6a
1c003710:	6f706568 	bgeu	$r11,$r8,-36764(0x37064) # 1bffa774 <data_size+0x1bff9d58>
1c003714:	61726577 	blt	$r11,$r23,94820(0x17264) # 1c01a978 <_stack+0x69fc>
1c003718:	6562646e 	bge	$r3,$r14,90724(0x16264) # 1c01997c <_stack+0x5a00>
1c00371c:	79747561 	0x79747561
1c003720:	6f79666f 	bgeu	$r19,$r15,-34460(0x37964) # 1bffb084 <data_size+0x1bffa668>
1c003724:	6f797275 	bgeu	$r19,$r21,-34448(0x37970) # 1bffb094 <data_size+0x1bffa678>
1c003728:	4f687475 	jirl	$r21,$r3,-38796(0x36874)
1c00372c:	76656e68 	0x76656e68
1c003730:	696d7265 	bltu	$r19,$r5,93552(0x16d70) # 1c01a4a0 <_stack+0x6524>
1c003734:	6f59646e 	bgeu	$r3,$r14,-42652(0x35964) # 1bff9098 <data_size+0x1bff867c>
1c003738:	6c697775 	bgeu	$r27,$r21,26996(0x6974) # 1c00a0ac <_heap+0x58ac>
1c00373c:	746f6e6c 	0x746f6e6c
1c003740:	65646e75 	bge	$r19,$r21,91244(0x1646c) # 1c019bac <_stack+0x5c30>
1c003744:	61747372 	blt	$r27,$r18,95344(0x17470) # 1c01abb4 <_stack+0x6c38>
1c003748:	6874646e 	bltu	$r3,$r14,29796(0x7464) # 1c00abac <_heap+0x63ac>
1c00374c:	776f7065 	xvssrarni.du.q	$xr5,$xr3,0x5c
1c003750:	6e617265 	bgeu	$r19,$r5,-106128(0x26170) # 1bfe98c0 <data_size+0x1bfe8ea4>
1c003754:	61656264 	blt	$r19,$r4,91488(0x16560) # 1c019cb4 <_stack+0x5d38>
1c003758:	6f797475 	bgeu	$r3,$r21,-34444(0x37974) # 1bffb0cc <data_size+0x1bffa6b0>
1c00375c:	756f7966 	0x756f7966
1c003760:	756f7972 	0x756f7972
1c003764:	6e756874 	bgeu	$r3,$r20,-101016(0x27568) # 1bfeaccc <data_size+0x1bfea2b0>
1c003768:	746c6974 	0x746c6974
1c00376c:	76796568 	0x76796568
1c003770:	64616665 	bge	$r19,$r5,24932(0x6164) # 1c0098d4 <_heap+0x50d4>
1c003774:	75426465 	0x75426465
1c003778:	75727474 	0x75727474
1c00377c:	656d7473 	bge	$r3,$r19,93556(0x16d74) # 1c01a4f0 <_stack+0x6574>
1c003780:	30326e69 	0x30326e69
1c003784:	72616579 	0x72616579
1c003788:	756f7973 	0x756f7973
1c00378c:	6f6c6c6c 	bgeu	$r3,$r12,-37780(0x36c6c) # 1bffa3f8 <data_size+0x1bff99dc>
1c003790:	61626b6f 	blt	$r27,$r15,90728(0x16268) # 1c0199f8 <_stack+0x5a7c>
1c003794:	74616b63 	xvabsd.w	$xr3,$xr27,$xr26
1c003798:	746f6870 	0x746f6870
1c00379c:	666f736f 	bge	$r27,$r15,-102544(0x26f70) # 1bfea70c <data_size+0x1bfe9cf0>
1c0037a0:	72756f79 	0x72756f79
1c0037a4:	666c6573 	bge	$r11,$r19,-103324(0x26c64) # 1bfea408 <data_size+0x1bfe99ec>
1c0037a8:	72646e61 	0x72646e61
1c0037ac:	6c616365 	bgeu	$r27,$r5,24928(0x6160) # 1c00990c <_heap+0x510c>
1c0037b0:	616e696c 	blt	$r11,$r12,93800(0x16e68) # 1c01a618 <_stack+0x669c>
1c0037b4:	79796177 	0x79796177
1c0037b8:	6163756f 	blt	$r11,$r15,90996(0x16374) # 1c019b2c <_stack+0x5bb0>
1c0037bc:	7267746e 	0x7267746e
1c0037c0:	6e707361 	bgeu	$r27,$r1,-102288(0x27070) # 1bfea830 <data_size+0x1bfe9e14>
1c0037c4:	6f68776f 	bgeu	$r27,$r15,-38796(0x36874) # 1bffa038 <data_size+0x1bff961c>
1c0037c8:	63756d77 	blt	$r11,$r23,-35476(0x3756c) # 1bffad34 <data_size+0x1bffa318>
1c0037cc:	736f7068 	vssrarni.du.q	$vr8,$vr3,0x5c
1c0037d0:	69626973 	bltu	$r11,$r19,90728(0x16268) # 1c019a38 <_stack+0x5abc>
1c0037d4:	7974696c 	0x7974696c
1c0037d8:	6279616c 	blt	$r11,$r12,-100000(0x27960) # 1bfeb138 <data_size+0x1bfea71c>
1c0037dc:	726f6665 	0x726f6665
1c0037e0:	756f7965 	0x756f7965
1c0037e4:	68646e61 	bltu	$r19,$r1,25708(0x646c) # 1c009c50 <_heap+0x5450>
1c0037e8:	6166776f 	blt	$r27,$r15,91764(0x16674) # 1c019e5c <_stack+0x5ee0>
1c0037ec:	6f6c7562 	bgeu	$r11,$r2,-37772(0x36c74) # 1bffa460 <data_size+0x1bff9a44>
1c0037f0:	6f797375 	bgeu	$r27,$r21,-34448(0x37970) # 1bffb160 <data_size+0x1bffa744>
1c0037f4:	61657275 	blt	$r19,$r21,91504(0x16570) # 1c019d64 <_stack+0x5de8>
1c0037f8:	6c796c6c 	bgeu	$r3,$r12,31084(0x796c) # 1c00b164 <_heap+0x6964>
1c0037fc:	656b6f6f 	bge	$r27,$r15,93036(0x16b6c) # 1c01a368 <_stack+0x63ec>
1c003800:	756f5964 	0x756f5964
1c003804:	6e657261 	bgeu	$r19,$r1,-105104(0x26570) # 1bfe9d74 <data_size+0x1bfe9358>
1c003808:	7361746f 	vssrani.w.d	$vr15,$vr3,0x1d
1c00380c:	61746166 	blt	$r11,$r6,95328(0x17460) # 1c01ac6c <_stack+0x6cf0>
1c003810:	756f7973 	0x756f7973
1c003814:	67616d69 	bge	$r11,$r9,-40596(0x3616c) # 1bff9980 <data_size+0x1bff8f64>
1c003818:	44656e69 	bnez	$r19,2385260(0x24656c) # 1c249d84 <_stack+0x235e08>
1c00381c:	77746e6f 	0x77746e6f
1c003820:	7972726f 	0x7972726f
1c003824:	756f6261 	0x756f6261
1c003828:	65687474 	bge	$r3,$r20,92276(0x16874) # 1c01a09c <_stack+0x6120>
1c00382c:	75747566 	0x75747566
1c003830:	724f6572 	0x724f6572
1c003834:	72726f77 	0x72726f77
1c003838:	74756279 	xvmax.wu	$xr25,$xr19,$xr24
1c00383c:	776f6e6b 	xvssrarni.du.q	$xr11,$xr19,0x5b
1c003840:	74616874 	xvabsd.w	$xr20,$xr3,$xr26
1c003844:	7472754b 	xvmin.b	$xr11,$xr10,$xr29
1c003848:	6e6e6f56 	bgeu	$r26,$r22,-102804(0x26e6c) # 1bfea6b4 <data_size+0x1bfe9c98>
1c00384c:	74756765 	xvmax.wu	$xr5,$xr27,$xr25
1c003850:	6d6f4373 	bgeu	$r27,$r19,94016(0x16f40) # 1c01a790 <_stack+0x6814>
1c003854:	636e656d 	blt	$r11,$r13,-37276(0x36e64) # 1bffa6b8 <data_size+0x1bff9c9c>
1c003858:	6e656d65 	bgeu	$r11,$r5,-105108(0x2656c) # 1bfe9dc4 <data_size+0x1bfe93a8>
1c00385c:	64644174 	bge	$r11,$r20,25664(0x6440) # 1c009c9c <_heap+0x549c>
1c003860:	73736572 	0x73736572
1c003864:	494d7461 	bceqz	$fcc3,347508(0x54d74) # 1c0585d8 <_stack+0x4465c>
1c003868:	64614c54 	bge	$r2,$r20,24908(0x614c) # 1c0099b4 <_heap+0x51b4>
1c00386c:	61736569 	blt	$r11,$r9,95076(0x17364) # 1c01abd0 <_stack+0x6c54>
1c003870:	6567646e 	bge	$r3,$r14,92004(0x16764) # 1c019fd4 <_stack+0x6058>
1c003874:	656c746e 	bge	$r3,$r14,93300(0x16c74) # 1c01a4e8 <_stack+0x656c>
1c003878:	6f6e656d 	bgeu	$r11,$r13,-37276(0x36e64) # 1bffa6dc <data_size+0x1bff9cc0>
1c00387c:	65687466 	bge	$r3,$r6,92276(0x16874) # 1c01a0f0 <_stack+0x6174>
1c003880:	73616c63 	vssrani.w.d	$vr3,$vr3,0x1b
1c003884:	39666f73 	0x39666f73
1c003888:	61655737 	blt	$r25,$r23,91476(0x16554) # 1c019ddc <_stack+0x5e60>
1c00388c:	6e757372 	bgeu	$r27,$r18,-101008(0x27570) # 1bfeadfc <data_size+0x1bfea3e0>
1c003890:	65726373 	bge	$r27,$r19,94816(0x17260) # 1c01aaf0 <_stack+0x6b74>
1c003894:	66496e65 	bge	$r19,$r5,-112276(0x2496c) # 1bfe8200 <data_size+0x1bfe77e4>
1c003898:	756f6349 	0x756f6349
1c00389c:	666f646c 	bge	$r3,$r12,-102556(0x26f64) # 1bfea800 <data_size+0x1bfe9de4>
1c0038a0:	79726566 	0x79726566
1c0038a4:	6e6f756f 	bgeu	$r11,$r15,-102540(0x26f74) # 1bfea818 <data_size+0x1bfe9dfc>
1c0038a8:	6e6f796c 	bgeu	$r11,$r12,-102536(0x26f78) # 1bfea820 <data_size+0x1bfe9e04>
1c0038ac:	70697465 	vavgr.w	$vr5,$vr3,$vr29
1c0038b0:	74726f66 	xvmin.b	$xr6,$xr27,$xr27
1c0038b4:	75666568 	0x75666568
1c0038b8:	65727574 	bge	$r11,$r20,94836(0x17274) # 1c01ab2c <_stack+0x6bb0>
1c0038bc:	736e7573 	vssrarni.du.q	$vr19,$vr11,0x1d
1c0038c0:	65657263 	bge	$r19,$r3,91504(0x16570) # 1c019e30 <_stack+0x5eb4>
1c0038c4:	756f776e 	0x756f776e
1c0038c8:	6562646c 	bge	$r3,$r12,90724(0x16264) # 1c019b2c <_stack+0x5bb0>
1c0038cc:	68547469 	bltu	$r3,$r9,21620(0x5474) # 1c008d40 <_heap+0x4540>
1c0038d0:	6e6f6c65 	bgeu	$r3,$r5,-102548(0x26f6c) # 1bfea83c <data_size+0x1bfe9e20>
1c0038d4:	72657467 	0x72657467
1c0038d8:	6e65626d 	bgeu	$r19,$r13,-105120(0x26560) # 1bfe9e38 <data_size+0x1bfe941c>
1c0038dc:	74696665 	xvavgr.w	$xr5,$xr19,$xr25
1c0038e0:	73666f73 	vssrani.du.q	$vr19,$vr27,0x1b
1c0038e4:	63736e75 	blt	$r19,$r21,-35988(0x3736c) # 1bffac50 <data_size+0x1bffa234>
1c0038e8:	6e656572 	bgeu	$r11,$r18,-105116(0x26564) # 1bfe9e4c <data_size+0x1bfe9430>
1c0038ec:	65766168 	bge	$r11,$r8,95840(0x17660) # 1c01af4c <_stack+0x6fd0>
1c0038f0:	6e656562 	bgeu	$r11,$r2,-105116(0x26564) # 1bfe9e54 <data_size+0x1bfe9438>
1c0038f4:	766f7270 	0x766f7270
1c0038f8:	79626465 	0x79626465
1c0038fc:	65696373 	bge	$r27,$r19,92512(0x16960) # 1c01a25c <_stack+0x62e0>
1c003900:	7369746e 	vssrarni.w.d	$vr14,$vr3,0x1d
1c003904:	68777374 	bltu	$r27,$r20,30576(0x7770) # 1c00b074 <_heap+0x6874>
1c003908:	61657265 	blt	$r19,$r5,91504(0x16570) # 1c019e78 <_stack+0x5efc>
1c00390c:	65687473 	bge	$r3,$r19,92276(0x16874) # 1c01a180 <_stack+0x6204>
1c003910:	74736572 	xvmin.w	$xr18,$xr11,$xr25
1c003914:	796d666f 	0x796d666f
1c003918:	69766461 	bltu	$r3,$r1,95844(0x17664) # 1c01af7c <_stack+0x7000>
1c00391c:	61686563 	blt	$r11,$r3,92260(0x16864) # 1c01a180 <_stack+0x6204>
1c003920:	626f6e73 	blt	$r19,$r19,-102548(0x26f6c) # 1bfea88c <data_size+0x1bfe9e70>
1c003924:	73697361 	vssrarni.w.d	$vr1,$vr27,0x1c
1c003928:	65726f6d 	bge	$r27,$r13,94828(0x1726c) # 1c01ab94 <_stack+0x6c18>
1c00392c:	696c6572 	bltu	$r11,$r18,93284(0x16c64) # 1c01a590 <_stack+0x6614>
1c003930:	656c6261 	bge	$r19,$r1,93280(0x16c60) # 1c01a590 <_stack+0x6614>
1c003934:	6e616874 	bgeu	$r3,$r20,-106136(0x26168) # 1bfe9a9c <data_size+0x1bfe9080>
1c003938:	776f796d 	xvssrarni.du.q	$xr13,$xr11,0x5e
1c00393c:	61656d6e 	blt	$r11,$r14,91500(0x1656c) # 1c019ea8 <_stack+0x5f2c>
1c003940:	7265646e 	0x7265646e
1c003944:	65676e69 	bge	$r19,$r9,92012(0x1676c) # 1c01a0b0 <_stack+0x6134>
1c003948:	72657078 	0x72657078
1c00394c:	636e6569 	blt	$r11,$r9,-37276(0x36e64) # 1bffa7b0 <data_size+0x1bff9d94>
1c003950:	69774965 	bltu	$r11,$r5,96072(0x17748) # 1c01b098 <_stack+0x711c>
1c003954:	69646c6c 	bltu	$r3,$r12,91244(0x1646c) # 1c019dc0 <_stack+0x5e44>
1c003958:	6e657073 	bgeu	$r3,$r19,-105104(0x26570) # 1bfe9ec8 <data_size+0x1bfe94ac>
1c00395c:	68746573 	bltu	$r11,$r19,29796(0x7464) # 1c00adc0 <_heap+0x65c0>
1c003960:	64617369 	bge	$r27,$r9,24944(0x6170) # 1c009ad0 <_heap+0x52d0>
1c003964:	65636976 	bge	$r11,$r22,90984(0x16368) # 1c019ccc <_stack+0x5d50>
1c003968:	45776f6e 	bnez	$r27,3766124(0x39776c) # 1c39b0d4 <_stack+0x387158>
1c00396c:	796f6a6e 	0x796f6a6e
1c003970:	70656874 	vavg.w	$vr20,$vr3,$vr26
1c003974:	7265776f 	0x7265776f
1c003978:	62646e61 	blt	$r19,$r1,-105364(0x2646c) # 1bfe9de4 <data_size+0x1bfe93c8>
1c00397c:	74756165 	xvmax.wu	$xr5,$xr11,$xr24
1c003980:	79666f79 	0x79666f79
1c003984:	7972756f 	0x7972756f
1c003988:	6874756f 	bltu	$r11,$r15,29812(0x7474) # 1c00adfc <_heap+0x65fc>
1c00398c:	656e684f 	bge	$r2,$r15,93800(0x16e68) # 1c01a7f4 <_stack+0x6878>
1c003990:	6d726576 	bgeu	$r11,$r22,94820(0x17264) # 1c01abf4 <_stack+0x6c78>
1c003994:	59646e69 	beq	$r19,$r9,91244(0x1646c) # 1c019e00 <_stack+0x5e84>
1c003998:	6977756f 	bltu	$r11,$r15,96116(0x17774) # 1c01b10c <_stack+0x7190>
1c00399c:	6f6e6c6c 	bgeu	$r3,$r12,-37268(0x36e6c) # 1bffa808 <data_size+0x1bff9dec>
1c0039a0:	646e7574 	bge	$r11,$r20,28276(0x6e74) # 1c00a814 <_heap+0x6014>
1c0039a4:	74737265 	xvmin.w	$xr5,$xr19,$xr28
1c0039a8:	74646e61 	xvavg.b	$xr1,$xr19,$xr27
1c0039ac:	6f706568 	bgeu	$r11,$r8,-36764(0x37064) # 1bffaa10 <data_size+0x1bff9ff4>
1c0039b0:	61726577 	blt	$r11,$r23,94820(0x17264) # 1c01ac14 <_stack+0x6c98>
1c0039b4:	6562646e 	bge	$r3,$r14,90724(0x16264) # 1c019c18 <_stack+0x5c9c>
1c0039b8:	79747561 	0x79747561
1c0039bc:	6f79666f 	bgeu	$r19,$r15,-34460(0x37964) # 1bffb320 <data_size+0x1bffa904>
1c0039c0:	6f797275 	bgeu	$r19,$r21,-34448(0x37970) # 1bffb330 <data_size+0x1bffa914>
1c0039c4:	75687475 	0x75687475
1c0039c8:	6c69746e 	bgeu	$r3,$r14,26996(0x6974) # 1c00a33c <_heap+0x5b3c>
1c0039cc:	79656874 	0x79656874
1c0039d0:	61666576 	blt	$r11,$r22,91748(0x16664) # 1c01a034 <_stack+0x60b8>
1c0039d4:	42646564 	beqz	$r11,1205348(0x126464) # 1c129e38 <_stack+0x115ebc>
1c0039d8:	72747475 	0x72747475
1c0039dc:	6d747375 	bgeu	$r27,$r21,95344(0x17470) # 1c01ae4c <_stack+0x6ed0>
1c0039e0:	326e6965 	0x326e6965
1c0039e4:	61657930 	blt	$r9,$r16,91512(0x16578) # 1c019f5c <_stack+0x5fe0>
1c0039e8:	6f797372 	bgeu	$r27,$r18,-34448(0x37970) # 1bffb358 <data_size+0x1bffa93c>
1c0039ec:	6c6c6c75 	bgeu	$r3,$r21,27756(0x6c6c) # 1c00a658 <_heap+0x5e58>
1c0039f0:	626b6f6f 	blt	$r27,$r15,-103572(0x26b6c) # 1bfea55c <data_size+0x1bfe9b40>
1c0039f4:	616b6361 	blt	$r27,$r1,93024(0x16b60) # 1c01a554 <_stack+0x65d8>
1c0039f8:	6f687074 	bgeu	$r3,$r20,-38800(0x36870) # 1bffa268 <data_size+0x1bff984c>
1c0039fc:	6f736f74 	bgeu	$r27,$r20,-35988(0x3736c) # 1bffad68 <data_size+0x1bffa34c>
1c003a00:	756f7966 	0x756f7966
1c003a04:	6c657372 	bgeu	$r27,$r18,25968(0x6570) # 1c009f74 <_heap+0x5774>
1c003a08:	646e6166 	bge	$r11,$r6,28256(0x6e60) # 1c00a868 <_heap+0x6068>
1c003a0c:	61636572 	blt	$r11,$r18,90980(0x16364) # 1c019d70 <_stack+0x5df4>
1c003a10:	6e696c6c 	bgeu	$r3,$r12,-104084(0x2696c) # 1bfea37c <data_size+0x1bfe9960>
1c003a14:	79617761 	0x79617761
1c003a18:	63756f79 	blt	$r27,$r25,-35476(0x3756c) # 1bffaf84 <data_size+0x1bffa568>
1c003a1c:	67746e61 	bge	$r19,$r1,-35732(0x3746c) # 1bffae88 <data_size+0x1bffa46c>
1c003a20:	70736172 	vmin.w	$vr18,$vr11,$vr24
1c003a24:	68776f6e 	bltu	$r27,$r14,30572(0x776c) # 1c00b190 <_heap+0x6990>
1c003a28:	756d776f 	0x756d776f
1c003a2c:	6f706863 	bgeu	$r3,$r3,-36760(0x37068) # 1bffaa94 <data_size+0x1bffa078>
1c003a30:	62697373 	blt	$r27,$r19,-104080(0x26970) # 1bfea3a0 <data_size+0x1bfe9984>
1c003a34:	74696c69 	xvavgr.w	$xr9,$xr3,$xr27
1c003a38:	79616c79 	0x79616c79
1c003a3c:	6f666562 	bgeu	$r11,$r2,-39324(0x36664) # 1bffa0a0 <data_size+0x1bff9684>
1c003a40:	6f796572 	bgeu	$r11,$r18,-34460(0x37964) # 1bffb3a4 <data_size+0x1bffa988>
1c003a44:	646e6175 	bge	$r11,$r21,28256(0x6e60) # 1c00a8a4 <_heap+0x60a4>
1c003a48:	66776f68 	bge	$r27,$r8,-100500(0x2776c) # 1bfeb1b4 <data_size+0x1bfea798>
1c003a4c:	6c756261 	bgeu	$r19,$r1,30048(0x7560) # 1c00afac <_heap+0x67ac>
1c003a50:	7973756f 	0x7973756f
1c003a54:	6572756f 	bge	$r11,$r15,94836(0x17274) # 1c01acc8 <_stack+0x6d4c>
1c003a58:	796c6c61 	0x796c6c61
1c003a5c:	6b6f6f6c 	bltu	$r27,$r12,-37012(0x36f6c) # 1bffa9c8 <data_size+0x1bff9fac>
1c003a60:	6f596465 	bgeu	$r3,$r5,-42652(0x35964) # 1bff93c4 <data_size+0x1bff89a8>
1c003a64:	65726175 	bge	$r11,$r21,94816(0x17260) # 1c01acc4 <_stack+0x6d48>
1c003a68:	61746f6e 	blt	$r27,$r14,95340(0x1746c) # 1c01aed4 <_stack+0x6f58>
1c003a6c:	74616673 	xvabsd.w	$xr19,$xr19,$xr25
1c003a70:	6f797361 	bgeu	$r27,$r1,-34448(0x37970) # 1bffb3e0 <data_size+0x1bffa9c4>
1c003a74:	616d6975 	blt	$r11,$r21,93544(0x16d68) # 1c01a7dc <_stack+0x6860>
1c003a78:	656e6967 	bge	$r11,$r7,93800(0x16e68) # 1c01a8e0 <_stack+0x6964>
1c003a7c:	746e6f44 	0x746e6f44
1c003a80:	72726f77 	0x72726f77
1c003a84:	6f626179 	bgeu	$r11,$r25,-40352(0x36260) # 1bff9ce4 <data_size+0x1bff92c8>
1c003a88:	68747475 	bltu	$r3,$r21,29812(0x7474) # 1c00aefc <_heap+0x66fc>
1c003a8c:	74756665 	xvmax.wu	$xr5,$xr19,$xr25
1c003a90:	4f657275 	jirl	$r21,$r19,-39568(0x36570)
1c003a94:	726f7772 	0x726f7772
1c003a98:	75627972 	0x75627972
1c003a9c:	6f6e6b74 	bgeu	$r27,$r20,-37272(0x36e68) # 1bffa904 <data_size+0x1bff9ee8>
1c003aa0:	61687477 	blt	$r3,$r23,92276(0x16874) # 1c01a314 <_stack+0x6398>
1c003aa4:	72754b74 	0x72754b74
1c003aa8:	6e6f5674 	bgeu	$r19,$r20,-102572(0x26f54) # 1bfea9fc <data_size+0x1bfe9fe0>
1c003aac:	7567656e 	0x7567656e
1c003ab0:	6f437374 	bgeu	$r27,$r20,-48272(0x34370) # 1bff7e20 <data_size+0x1bff7404>
1c003ab4:	6e656d6d 	bgeu	$r11,$r13,-105108(0x2656c) # 1bfea020 <data_size+0x1bfe9604>
1c003ab8:	656d6563 	bge	$r11,$r3,93540(0x16d64) # 1c01a81c <_stack+0x68a0>
1c003abc:	6441746e 	bge	$r3,$r14,16756(0x4174) # 1c007c30 <_heap+0x3430>
1c003ac0:	73657264 	vssrani.wu.d	$vr4,$vr19,0x1c
1c003ac4:	4d746173 	jirl	$r19,$r11,95328(0x17460)
1c003ac8:	614c5449 	blt	$r2,$r9,85076(0x14c54) # 1c01871c <_stack+0x47a0>
1c003acc:	73656964 	vssrani.wu.d	$vr4,$vr11,0x1a
1c003ad0:	67646e61 	bge	$r19,$r1,-39828(0x3646c) # 1bff9f3c <data_size+0x1bff9520>
1c003ad4:	6c746e65 	bgeu	$r19,$r5,29804(0x746c) # 1c00af40 <_heap+0x6740>
1c003ad8:	6e656d65 	bgeu	$r11,$r5,-105108(0x2656c) # 1bfea044 <data_size+0x1bfe9628>
1c003adc:	6874666f 	bltu	$r19,$r15,29796(0x7464) # 1c00af40 <_heap+0x6740>
1c003ae0:	616c6365 	blt	$r27,$r5,93280(0x16c60) # 1c01a740 <_stack+0x67c4>
1c003ae4:	666f7373 	bge	$r27,$r19,-102544(0x26f70) # 1bfeaa54 <data_size+0x1bfea038>
1c003ae8:	65573739 	bge	$r25,$r25,87860(0x15734) # 1c01921c <_stack+0x52a0>
1c003aec:	75737261 	0x75737261
1c003af0:	7263736e 	0x7263736e
1c003af4:	496e6565 	bcnez	$fcc3,1404516(0x156e64) # 1c15a958 <_stack+0x1469dc>
1c003af8:	6f634966 	bgeu	$r11,$r6,-40120(0x36348) # 1bff9e40 <data_size+0x1bff9424>
1c003afc:	6f646c75 	bgeu	$r3,$r21,-39828(0x3646c) # 1bff9f68 <data_size+0x1bff954c>
1c003b00:	72656666 	0x72656666
1c003b04:	6f756f79 	bgeu	$r27,$r25,-35476(0x3756c) # 1bffb070 <data_size+0x1bffa654>
1c003b08:	6f796c6e 	bgeu	$r3,$r14,-34452(0x3796c) # 1bffb474 <data_size+0x1bffaa58>
1c003b0c:	6974656e 	bltu	$r11,$r14,95332(0x17464) # 1c01af70 <_stack+0x6ff4>
1c003b10:	726f6670 	0x726f6670
1c003b14:	66656874 	bge	$r3,$r20,-105112(0x26568) # 1bfea07c <data_size+0x1bfe9660>
1c003b18:	72757475 	0x72757475
1c003b1c:	6e757365 	bgeu	$r27,$r5,-101008(0x27570) # 1bfeb08c <data_size+0x1bfea670>
1c003b20:	65726373 	bge	$r27,$r19,94816(0x17260) # 1c01ad80 <_stack+0x6e04>
1c003b24:	6f776e65 	bgeu	$r19,$r5,-34964(0x3776c) # 1bffb290 <data_size+0x1bffa874>
1c003b28:	62646c75 	blt	$r3,$r21,-105364(0x2646c) # 1bfe9f94 <data_size+0x1bfe9578>
1c003b2c:	54746965 	bl	93615208(0x5947468) # 2194af94 <_stack+0x5937018>
1c003b30:	6f6c6568 	bgeu	$r11,$r8,-37788(0x36c64) # 1bffa794 <data_size+0x1bff9d78>
1c003b34:	6574676e 	bge	$r27,$r14,95332(0x17464) # 1c01af98 <_stack+0x701c>
1c003b38:	65626d72 	bge	$r11,$r18,90732(0x1626c) # 1c019da4 <_stack+0x5e28>
1c003b3c:	6966656e 	bltu	$r11,$r14,91748(0x16664) # 1c01a1a0 <_stack+0x6224>
1c003b40:	666f7374 	bge	$r27,$r20,-102544(0x26f70) # 1bfeaab0 <data_size+0x1bfea094>
1c003b44:	736e7573 	vssrarni.du.q	$vr19,$vr11,0x1d
1c003b48:	65657263 	bge	$r19,$r3,91504(0x16570) # 1c01a0b8 <_stack+0x613c>
1c003b4c:	7661686e 	0x7661686e
1c003b50:	65656265 	bge	$r19,$r5,91488(0x16560) # 1c01a0b0 <_stack+0x6134>
1c003b54:	6f72706e 	bgeu	$r3,$r14,-36240(0x37270) # 1bffadc4 <data_size+0x1bffa3a8>
1c003b58:	62646576 	blt	$r11,$r22,-105372(0x26464) # 1bfe9fbc <data_size+0x1bfe95a0>
1c003b5c:	69637379 	bltu	$r27,$r25,90992(0x16370) # 1c019ecc <_stack+0x5f50>
1c003b60:	69746e65 	bltu	$r19,$r5,95340(0x1746c) # 1c01afcc <_stack+0x7050>
1c003b64:	77737473 	0x77737473
1c003b68:	65726568 	bge	$r11,$r8,94820(0x17264) # 1c01adcc <_stack+0x6e50>
1c003b6c:	68747361 	bltu	$r27,$r1,29808(0x7470) # 1c00afdc <_heap+0x67dc>
1c003b70:	73657265 	vssrani.wu.d	$vr5,$vr19,0x1c
1c003b74:	6d666f74 	bgeu	$r27,$r20,91756(0x1666c) # 1c01a1e0 <_stack+0x6264>
1c003b78:	76646179 	0x76646179
1c003b7c:	68656369 	bltu	$r27,$r9,25952(0x6560) # 1c00a0dc <_heap+0x58dc>
1c003b80:	6f6e7361 	bgeu	$r27,$r1,-37264(0x36e70) # 1bffa9f0 <data_size+0x1bff9fd4>
1c003b84:	69736162 	bltu	$r11,$r2,95072(0x17360) # 1c01aee4 <_stack+0x6f68>
1c003b88:	726f6d73 	0x726f6d73
1c003b8c:	6c657265 	bgeu	$r19,$r5,25968(0x6570) # 1c00a0fc <_heap+0x58fc>
1c003b90:	6c626169 	bgeu	$r11,$r9,25184(0x6260) # 1c009df0 <_heap+0x55f0>
1c003b94:	61687465 	blt	$r3,$r5,92276(0x16874) # 1c01a408 <_stack+0x648c>
1c003b98:	6f796d6e 	bgeu	$r11,$r14,-34452(0x3796c) # 1bffb504 <data_size+0x1bffaae8>
1c003b9c:	656d6e77 	bge	$r19,$r23,93548(0x16d6c) # 1c01a908 <_stack+0x698c>
1c003ba0:	65646e61 	bge	$r19,$r1,91244(0x1646c) # 1c01a00c <_stack+0x6090>
1c003ba4:	676e6972 	bge	$r11,$r18,-37272(0x36e68) # 1bffaa0c <data_size+0x1bff9ff0>
1c003ba8:	65707865 	bge	$r3,$r5,94328(0x17078) # 1c01ac20 <_stack+0x6ca4>
1c003bac:	6e656972 	bgeu	$r11,$r18,-105112(0x26568) # 1bfea114 <data_size+0x1bfe96f8>
1c003bb0:	77496563 	xvssrlni.w.d	$xr3,$xr11,0x19
1c003bb4:	646c6c69 	bge	$r3,$r9,27756(0x6c6c) # 1c00a820 <_heap+0x6020>
1c003bb8:	65707369 	bge	$r27,$r9,94320(0x17070) # 1c01ac28 <_stack+0x6cac>
1c003bbc:	7465736e 	xvavg.w	$xr14,$xr27,$xr28
1c003bc0:	61736968 	blt	$r11,$r8,95080(0x17368) # 1c01af28 <_stack+0x6fac>
1c003bc4:	63697664 	blt	$r19,$r4,-38540(0x36974) # 1bffa538 <data_size+0x1bff9b1c>
1c003bc8:	776f6e65 	xvssrarni.du.q	$xr5,$xr19,0x5b
1c003bcc:	6f6a6e45 	bgeu	$r18,$r5,-38292(0x36a6c) # 1bffa638 <data_size+0x1bff9c1c>
1c003bd0:	65687479 	bge	$r3,$r25,92276(0x16874) # 1c01a444 <_stack+0x64c8>
1c003bd4:	65776f70 	bge	$r27,$r16,96108(0x1776c) # 1c01b340 <_stack+0x73c4>
1c003bd8:	646e6172 	bge	$r11,$r18,28256(0x6e60) # 1c00aa38 <_heap+0x6238>
1c003bdc:	75616562 	0x75616562
1c003be0:	666f7974 	bge	$r11,$r20,-102536(0x26f78) # 1bfeab58 <data_size+0x1bfea13c>
1c003be4:	72756f79 	0x72756f79
1c003be8:	74756f79 	xvmax.wu	$xr25,$xr27,$xr27
1c003bec:	6e684f68 	bgeu	$r27,$r8,-104372(0x2684c) # 1bfea438 <data_size+0x1bfe9a1c>
1c003bf0:	72657665 	0x72657665
1c003bf4:	646e696d 	bge	$r11,$r13,28264(0x6e68) # 1c00aa5c <_heap+0x625c>
1c003bf8:	77756f59 	0x77756f59
1c003bfc:	6e6c6c69 	bgeu	$r3,$r9,-103316(0x26c6c) # 1bfea868 <data_size+0x1bfe9e4c>
1c003c00:	6e75746f 	bgeu	$r3,$r15,-101004(0x27574) # 1bfeb174 <data_size+0x1bfea758>
1c003c04:	73726564 	0x73726564
1c003c08:	646e6174 	bge	$r11,$r20,28256(0x6e60) # 1c00aa68 <_heap+0x6268>
1c003c0c:	70656874 	vavg.w	$vr20,$vr3,$vr26
1c003c10:	7265776f 	0x7265776f
1c003c14:	62646e61 	blt	$r19,$r1,-105364(0x2646c) # 1bfea080 <data_size+0x1bfe9664>
1c003c18:	74756165 	xvmax.wu	$xr5,$xr11,$xr24
1c003c1c:	79666f79 	0x79666f79
1c003c20:	7972756f 	0x7972756f
1c003c24:	6874756f 	bltu	$r11,$r15,29812(0x7474) # 1c00b098 <_heap+0x6898>
1c003c28:	69746e75 	bltu	$r19,$r21,95340(0x1746c) # 1c01b094 <_stack+0x7118>
1c003c2c:	6568746c 	bge	$r3,$r12,92276(0x16874) # 1c01a4a0 <_stack+0x6524>
1c003c30:	66657679 	bge	$r19,$r25,-105100(0x26574) # 1bfea1a4 <data_size+0x1bfe9788>
1c003c34:	64656461 	bge	$r3,$r1,25956(0x6564) # 1c00a198 <_heap+0x5998>
1c003c38:	74747542 	xvmax.bu	$xr2,$xr10,$xr29
1c003c3c:	74737572 	xvmin.w	$xr18,$xr11,$xr29
1c003c40:	6e69656d 	bgeu	$r11,$r13,-104092(0x26964) # 1bfea5a4 <data_size+0x1bfe9b88>
1c003c44:	65793032 	bge	$r1,$r18,96560(0x17930) # 1c01b574 <_stack+0x75f8>
1c003c48:	79737261 	0x79737261
1c003c4c:	6c6c756f 	bgeu	$r11,$r15,27764(0x6c74) # 1c00a8c0 <_heap+0x60c0>
1c003c50:	6b6f6f6c 	bltu	$r27,$r12,-37012(0x36f6c) # 1bffabbc <data_size+0x1bffa1a0>
1c003c54:	6b636162 	bltu	$r11,$r2,-40096(0x36360) # 1bff9fb4 <data_size+0x1bff9598>
1c003c58:	68707461 	bltu	$r3,$r1,28788(0x7074) # 1c00accc <_heap+0x64cc>
1c003c5c:	736f746f 	vssrarni.du.q	$vr15,$vr3,0x5d
1c003c60:	6f79666f 	bgeu	$r19,$r15,-34460(0x37964) # 1bffb5c4 <data_size+0x1bffaba8>
1c003c64:	65737275 	bge	$r19,$r21,95088(0x17370) # 1c01afd4 <_stack+0x7058>
1c003c68:	6e61666c 	bgeu	$r19,$r12,-106140(0x26164) # 1bfe9dcc <data_size+0x1bfe93b0>
1c003c6c:	63657264 	blt	$r19,$r4,-39568(0x36570) # 1bffa1dc <data_size+0x1bff97c0>
1c003c70:	696c6c61 	bltu	$r3,$r1,93292(0x16c6c) # 1c01a8dc <_stack+0x6960>
1c003c74:	6177616e 	blt	$r11,$r14,96096(0x17760) # 1c01b3d4 <_stack+0x7458>
1c003c78:	756f7979 	0x756f7979
1c003c7c:	746e6163 	0x746e6163
1c003c80:	73617267 	vssrani.w.d	$vr7,$vr19,0x1c
1c003c84:	776f6e70 	xvssrarni.du.q	$xr16,$xr19,0x5b
1c003c88:	6d776f68 	bgeu	$r27,$r8,96108(0x1776c) # 1c01b3f4 <_stack+0x7478>
1c003c8c:	70686375 	vavgr.b	$vr21,$vr27,$vr24
1c003c90:	6973736f 	bltu	$r27,$r15,95088(0x17370) # 1c01b000 <_stack+0x7084>
1c003c94:	696c6962 	bltu	$r11,$r2,93288(0x16c68) # 1c01a8fc <_stack+0x6980>
1c003c98:	616c7974 	blt	$r11,$r20,93304(0x16c78) # 1c01a910 <_stack+0x6994>
1c003c9c:	66656279 	bge	$r19,$r25,-105120(0x26560) # 1bfea1fc <data_size+0x1bfe97e0>
1c003ca0:	7965726f 	0x7965726f
1c003ca4:	6e61756f 	bgeu	$r11,$r15,-106124(0x26174) # 1bfe9e18 <data_size+0x1bfe93fc>
1c003ca8:	776f6864 	xvssrarni.du.q	$xr4,$xr3,0x5a
1c003cac:	75626166 	0x75626166
1c003cb0:	73756f6c 	0x73756f6c
1c003cb4:	72756f79 	0x72756f79
1c003cb8:	6c6c6165 	bgeu	$r11,$r5,27744(0x6c60) # 1c00a918 <_heap+0x6118>
1c003cbc:	6f6f6c79 	bgeu	$r3,$r25,-37012(0x36f6c) # 1bffac28 <data_size+0x1bffa20c>
1c003cc0:	5964656b 	beq	$r11,$r11,91236(0x16464) # 1c01a124 <_stack+0x61a8>
1c003cc4:	7261756f 	0x7261756f
1c003cc8:	746f6e65 	0x746f6e65
1c003ccc:	61667361 	blt	$r27,$r1,91760(0x16670) # 1c01a33c <_stack+0x63c0>
1c003cd0:	79736174 	0x79736174
1c003cd4:	6d69756f 	bgeu	$r11,$r15,92532(0x16974) # 1c01a648 <_stack+0x66cc>
1c003cd8:	6e696761 	bgeu	$r27,$r1,-104092(0x26964) # 1bfea63c <data_size+0x1bfe9c20>
1c003cdc:	6e6f4465 	bgeu	$r3,$r5,-102588(0x26f44) # 1bfeac20 <data_size+0x1bfea204>
1c003ce0:	726f7774 	0x726f7774
1c003ce4:	62617972 	blt	$r11,$r18,-106120(0x26178) # 1bfe9e5c <data_size+0x1bfe9440>
1c003ce8:	7474756f 	xvmax.bu	$xr15,$xr11,$xr29
1c003cec:	75666568 	0x75666568
1c003cf0:	65727574 	bge	$r11,$r20,94836(0x17274) # 1c01af64 <_stack+0x6fe8>
1c003cf4:	6f77724f 	bgeu	$r18,$r15,-34960(0x37770) # 1bffb464 <data_size+0x1bffaa48>
1c003cf8:	62797272 	blt	$r19,$r18,-99984(0x27970) # 1bfeb668 <data_size+0x1bfeac4c>
1c003cfc:	6e6b7475 	bgeu	$r3,$r21,-103564(0x26b74) # 1bfea870 <data_size+0x1bfe9e54>
1c003d00:	6874776f 	bltu	$r27,$r15,29812(0x7474) # 1c00b174 <_heap+0x6974>
1c003d04:	75737461 	0x75737461
1c003d08:	7263736e 	0x7263736e
1c003d0c:	776e6565 	xvssrarni.du.q	$xr5,$xr11,0x19
1c003d10:	646c756f 	bge	$r11,$r15,27764(0x6c74) # 1c00a984 <_heap+0x6184>
1c003d14:	74696562 	xvavgr.w	$xr2,$xr11,$xr25
1c003d18:	6c656854 	bgeu	$r2,$r20,25960(0x6568) # 1c00a280 <_heap+0x5a80>
1c003d1c:	74676e6f 	xvavg.wu	$xr15,$xr19,$xr27
1c003d20:	626d7265 	blt	$r19,$r5,-103056(0x26d70) # 1bfeaa90 <data_size+0x1bfea074>
1c003d24:	66656e65 	bge	$r19,$r5,-105108(0x2656c) # 1bfea290 <data_size+0x1bfe9874>
1c003d28:	6f737469 	bgeu	$r3,$r9,-35980(0x37374) # 1bffb09c <data_size+0x1bffa680>
1c003d2c:	6e757366 	bgeu	$r27,$r6,-101008(0x27570) # 1bfeb29c <data_size+0x1bfea880>
1c003d30:	65726373 	bge	$r27,$r19,94816(0x17260) # 1c01af90 <_stack+0x7014>
1c003d34:	61686e65 	blt	$r19,$r5,92268(0x1686c) # 1c01a5a0 <_stack+0x6624>
1c003d38:	65626576 	bge	$r11,$r22,90724(0x16264) # 1c019f9c <_stack+0x6020>
1c003d3c:	72706e65 	0x72706e65
1c003d40:	6465766f 	bge	$r19,$r15,25972(0x6574) # 1c00a2b4 <_heap+0x5ab4>
1c003d44:	63737962 	blt	$r11,$r2,-35976(0x37378) # 1bffb0bc <data_size+0x1bffa6a0>
1c003d48:	746e6569 	0x746e6569
1c003d4c:	73747369 	0x73747369
1c003d50:	72656877 	0x72656877
1c003d54:	74736165 	xvmin.w	$xr5,$xr11,$xr24
1c003d58:	65726568 	bge	$r11,$r8,94820(0x17264) # 1c01afbc <_stack+0x7040>
1c003d5c:	666f7473 	bge	$r3,$r19,-102540(0x26f74) # 1bfeacd0 <data_size+0x1bfea2b4>
1c003d60:	6461796d 	bge	$r11,$r13,24952(0x6178) # 1c009ed8 <_heap+0x56d8>
1c003d64:	65636976 	bge	$r11,$r22,90984(0x16368) # 1c01a0cc <_stack+0x6150>
1c003d68:	6e736168 	bgeu	$r11,$r8,-101536(0x27360) # 1bfeb0c8 <data_size+0x1bfea6ac>
1c003d6c:	7361626f 	vssrani.w.d	$vr15,$vr19,0x18
1c003d70:	6f6d7369 	bgeu	$r27,$r9,-37520(0x36d70) # 1bffaae0 <data_size+0x1bffa0c4>
1c003d74:	65726572 	bge	$r11,$r18,94820(0x17264) # 1c01afd8 <_stack+0x705c>
1c003d78:	6261696c 	blt	$r11,$r12,-106136(0x26168) # 1bfe9ee0 <data_size+0x1bfe94c4>
1c003d7c:	6874656c 	bltu	$r11,$r12,29796(0x7464) # 1c00b1e0 <_heap+0x69e0>
1c003d80:	796d6e61 	0x796d6e61
1c003d84:	6d6e776f 	bgeu	$r27,$r15,93812(0x16e74) # 1c01abf8 <_stack+0x6c7c>
1c003d88:	646e6165 	bge	$r11,$r5,28256(0x6e60) # 1c00abe8 <_heap+0x63e8>
1c003d8c:	6e697265 	bgeu	$r19,$r5,-104080(0x26970) # 1bfea6fc <data_size+0x1bfe9ce0>
1c003d90:	70786567 	0x70786567
1c003d94:	65697265 	bge	$r19,$r5,92528(0x16970) # 1c01a704 <_stack+0x6788>
1c003d98:	4965636e 	0x4965636e
1c003d9c:	6c6c6977 	bgeu	$r11,$r23,27752(0x6c68) # 1c00aa04 <_heap+0x6204>
1c003da0:	70736964 	vmin.w	$vr4,$vr11,$vr26
1c003da4:	65736e65 	bge	$r19,$r5,95084(0x1736c) # 1c01b110 <_stack+0x7194>
1c003da8:	00000000 	0x00000000
1c003dac:	20616873 	ll.w	$r19,$r3,24936(0x6168)
1c003db0:	53534150 	b	88298304(0x5435340) # 214390f0 <_stack+0x5425174>
1c003db4:	00000021 	0x00000021
1c003db8:	20616873 	ll.w	$r19,$r3,24936(0x6168)
1c003dbc:	4f525245 	jirl	$r5,$r18,-44464(0x35250)
1c003dc0:	21212152 	sc.w	$r18,$r10,8480(0x2120)
1c003dc4:	00000000 	0x00000000
1c003dc8:	3a616873 	0x3a616873
1c003dcc:	746f5420 	0x746f5420
1c003dd0:	43206c61 	beqz	$r3,467052(0x7206c) # 1c075e3c <_stack+0x61ec0>
1c003dd4:	746e756f 	0x746e756f
1c003dd8:	436f5328 	beqz	$r25,2322256(0x236f50) # 1c23ad28 <_stack+0x226dac>
1c003ddc:	756f6320 	0x756f6320
1c003de0:	2029746e 	ll.w	$r14,$r3,10612(0x2974)
1c003de4:	7830203d 	0x7830203d
1c003de8:	000a7825 	0x000a7825
1c003dec:	3a616873 	0x3a616873
1c003df0:	746f5420 	0x746f5420
1c003df4:	43206c61 	beqz	$r3,467052(0x7206c) # 1c075e60 <_stack+0x61ee4>
1c003df8:	746e756f 	0x746e756f
1c003dfc:	55504328 	bl	-56537024(0xca15040) # 18a18e3c <data_size+0x18a18420>
1c003e00:	756f6320 	0x756f6320
1c003e04:	2029746e 	ll.w	$r14,$r3,10612(0x2974)
1c003e08:	7830203d 	0x7830203d
1c003e0c:	000a7825 	0x000a7825
1c003e10:	20756c25 	ll.w	$r5,$r1,30060(0x756c)
1c003e14:	6c25203a 	bgeu	$r1,$r26,9504(0x2520) # 1c006334 <_heap+0x1b34>
1c003e18:	00000a75 	0x00000a75
1c003e1c:	3a6e656c 	0x3a6e656c
1c003e20:	0a642520 	xvfmsub.d	$xr0,$xr9,$xr9,$xr8
1c003e24:	00000000 	0x00000000
1c003e28:	000a6425 	0x000a6425
1c003e2c:	6c383025 	bgeu	$r1,$r5,14384(0x3830) # 1c00765c <_heap+0x2e5c>
1c003e30:	30252078 	vldrepl.w	$vr24,$r3,1312(0x520)
1c003e34:	20786c38 	ll.w	$r24,$r1,30828(0x786c)
1c003e38:	6c383025 	bgeu	$r1,$r5,14384(0x3830) # 1c007668 <_heap+0x2e68>
1c003e3c:	30252078 	vldrepl.w	$vr24,$r3,1312(0x520)
1c003e40:	20786c38 	ll.w	$r24,$r1,30828(0x786c)
1c003e44:	6c383025 	bgeu	$r1,$r5,14384(0x3830) # 1c007674 <_heap+0x2e74>
1c003e48:	00000a78 	0x00000a78
1c003e4c:	1c003034 	pcaddu12i	$r20,385(0x181)
1c003e50:	1c003044 	pcaddu12i	$r4,386(0x182)
1c003e54:	1c003044 	pcaddu12i	$r4,386(0x182)
1c003e58:	1c003044 	pcaddu12i	$r4,386(0x182)
1c003e5c:	1c003044 	pcaddu12i	$r4,386(0x182)
1c003e60:	1c003044 	pcaddu12i	$r4,386(0x182)
1c003e64:	1c003044 	pcaddu12i	$r4,386(0x182)
1c003e68:	1c003044 	pcaddu12i	$r4,386(0x182)
1c003e6c:	1c003044 	pcaddu12i	$r4,386(0x182)
1c003e70:	1c003044 	pcaddu12i	$r4,386(0x182)
1c003e74:	1c003044 	pcaddu12i	$r4,386(0x182)
1c003e78:	1c002f18 	pcaddu12i	$r24,376(0x178)
1c003e7c:	1c002f24 	pcaddu12i	$r4,377(0x179)
1c003e80:	1c002f24 	pcaddu12i	$r4,377(0x179)
1c003e84:	1c002f24 	pcaddu12i	$r4,377(0x179)
1c003e88:	1c002f24 	pcaddu12i	$r4,377(0x179)
1c003e8c:	1c002f24 	pcaddu12i	$r4,377(0x179)
1c003e90:	1c002f24 	pcaddu12i	$r4,377(0x179)
1c003e94:	1c002f24 	pcaddu12i	$r4,377(0x179)
1c003e98:	1c002f24 	pcaddu12i	$r4,377(0x179)
1c003e9c:	1c002f24 	pcaddu12i	$r4,377(0x179)
1c003ea0:	1c003044 	pcaddu12i	$r4,386(0x182)
1c003ea4:	1c003044 	pcaddu12i	$r4,386(0x182)
1c003ea8:	1c003044 	pcaddu12i	$r4,386(0x182)
1c003eac:	1c003044 	pcaddu12i	$r4,386(0x182)
1c003eb0:	1c003044 	pcaddu12i	$r4,386(0x182)
1c003eb4:	1c003044 	pcaddu12i	$r4,386(0x182)
1c003eb8:	1c003044 	pcaddu12i	$r4,386(0x182)
1c003ebc:	1c003044 	pcaddu12i	$r4,386(0x182)
1c003ec0:	1c003044 	pcaddu12i	$r4,386(0x182)
1c003ec4:	1c003044 	pcaddu12i	$r4,386(0x182)
1c003ec8:	1c003044 	pcaddu12i	$r4,386(0x182)
1c003ecc:	1c003044 	pcaddu12i	$r4,386(0x182)
1c003ed0:	1c003044 	pcaddu12i	$r4,386(0x182)
1c003ed4:	1c003044 	pcaddu12i	$r4,386(0x182)
1c003ed8:	1c003044 	pcaddu12i	$r4,386(0x182)
1c003edc:	1c003044 	pcaddu12i	$r4,386(0x182)
1c003ee0:	1c003044 	pcaddu12i	$r4,386(0x182)
1c003ee4:	1c003044 	pcaddu12i	$r4,386(0x182)
1c003ee8:	1c003044 	pcaddu12i	$r4,386(0x182)
1c003eec:	1c003044 	pcaddu12i	$r4,386(0x182)
1c003ef0:	1c003044 	pcaddu12i	$r4,386(0x182)
1c003ef4:	1c003044 	pcaddu12i	$r4,386(0x182)
1c003ef8:	1c003044 	pcaddu12i	$r4,386(0x182)
1c003efc:	1c003044 	pcaddu12i	$r4,386(0x182)
1c003f00:	1c003044 	pcaddu12i	$r4,386(0x182)
1c003f04:	1c003044 	pcaddu12i	$r4,386(0x182)
1c003f08:	1c003044 	pcaddu12i	$r4,386(0x182)
1c003f0c:	1c003044 	pcaddu12i	$r4,386(0x182)
1c003f10:	1c003044 	pcaddu12i	$r4,386(0x182)
1c003f14:	1c003044 	pcaddu12i	$r4,386(0x182)
1c003f18:	1c003044 	pcaddu12i	$r4,386(0x182)
1c003f1c:	1c003044 	pcaddu12i	$r4,386(0x182)
1c003f20:	1c003044 	pcaddu12i	$r4,386(0x182)
1c003f24:	1c003044 	pcaddu12i	$r4,386(0x182)
1c003f28:	1c003044 	pcaddu12i	$r4,386(0x182)
1c003f2c:	1c003044 	pcaddu12i	$r4,386(0x182)
1c003f30:	1c003044 	pcaddu12i	$r4,386(0x182)
1c003f34:	1c003044 	pcaddu12i	$r4,386(0x182)
1c003f38:	1c003044 	pcaddu12i	$r4,386(0x182)
1c003f3c:	1c003044 	pcaddu12i	$r4,386(0x182)
1c003f40:	1c002f64 	pcaddu12i	$r4,379(0x17b)
1c003f44:	1c002f80 	pcaddu12i	$r0,380(0x17c)
1c003f48:	1c002f94 	pcaddu12i	$r20,380(0x17c)
1c003f4c:	1c003044 	pcaddu12i	$r4,386(0x182)
1c003f50:	1c003044 	pcaddu12i	$r4,386(0x182)
1c003f54:	1c003044 	pcaddu12i	$r4,386(0x182)
1c003f58:	1c003044 	pcaddu12i	$r4,386(0x182)
1c003f5c:	1c003044 	pcaddu12i	$r4,386(0x182)
1c003f60:	1c003044 	pcaddu12i	$r4,386(0x182)
1c003f64:	1c003044 	pcaddu12i	$r4,386(0x182)
1c003f68:	1c002fb0 	pcaddu12i	$r16,381(0x17d)
1c003f6c:	1c003044 	pcaddu12i	$r4,386(0x182)
1c003f70:	1c003044 	pcaddu12i	$r4,386(0x182)
1c003f74:	1c002fcc 	pcaddu12i	$r12,382(0x17e)
1c003f78:	1c002fe8 	pcaddu12i	$r8,383(0x17f)
1c003f7c:	1c003044 	pcaddu12i	$r4,386(0x182)
1c003f80:	1c003044 	pcaddu12i	$r4,386(0x182)
1c003f84:	1c003004 	pcaddu12i	$r4,384(0x180)
1c003f88:	1c003044 	pcaddu12i	$r4,386(0x182)
1c003f8c:	1c003018 	pcaddu12i	$r24,384(0x180)
1c003f90:	1c003044 	pcaddu12i	$r4,386(0x182)
1c003f94:	1c003044 	pcaddu12i	$r4,386(0x182)
1c003f98:	1c002fe8 	pcaddu12i	$r8,383(0x17f)

1c003f9c <__CTOR_LIST__>:
	...

1c003fa4 <__CTOR_END__>:
	...

1c003fac <__DTOR_END__>:
__DTOR_END__():
1c003fac:	00000000 	0x00000000
1c003fb0:	1c013f7c 	pcaddu12i	$r28,2555(0x9fb)

Disassembly of section .eh_frame:

1c003fb4 <.eh_frame>:
1c003fb4:	0000000c 	0x0000000c
1c003fb8:	00000000 	0x00000000
1c003fbc:	7c010003 	0x7c010003
1c003fc0:	00030c01 	0x00030c01
1c003fc4:	00000058 	0x00000058
1c003fc8:	00000014 	0x00000014
1c003fcc:	1c0003a0 	pcaddu12i	$r0,29(0x1d)
1c003fd0:	0000017c 	0x0000017c
1c003fd4:	00000404 	0x00000404
1c003fd8:	04200e00 	csrxchg	$r0,$r16,0x803
1c003fdc:	0000001c 	0x0000001c
1c003fe0:	059a0181 	0x059a0181
1c003fe4:	0297069b 	addi.w	$r27,$r20,1473(0x5c1)
1c003fe8:	04990398 	csrxchg	$r24,$r28,0x2640
1c003fec:	0000cc04 	0x0000cc04
1c003ff0:	04c10a00 	csrxchg	$r0,$r16,0x3042
1c003ff4:	00000004 	0x00000004
1c003ff8:	000404d7 	alsl.w	$r23,$r6,$r1,0x1
1c003ffc:	04d80000 	csrrd	$r0,0x3600
1c004000:	00000004 	0x00000004
1c004004:	000404d9 	alsl.w	$r25,$r6,$r1,0x1
1c004008:	04da0000 	csrrd	$r0,0x3680
1c00400c:	00000008 	0x00000008
1c004010:	000c04db 	bytepick.d	$r27,$r6,$r1,0x0
1c004014:	000e0000 	bytepick.d	$r0,$r0,$r0,0x4
1c004018:	00000404 	0x00000404
1c00401c:	00000b00 	0x00000b00
1c004020:	00000084 	0x00000084
1c004024:	00000070 	0x00000070
1c004028:	1c000520 	pcaddu12i	$r0,41(0x29)
1c00402c:	00000104 	0x00000104
1c004030:	00000404 	0x00000404
1c004034:	01900e00 	0x01900e00
1c004038:	00001804 	cto.w	$r4,$r0
1c00403c:	97018100 	0x97018100
1c004040:	9a039802 	0x9a039802
1c004044:	99069b05 	0x99069b05
1c004048:	00a00404 	bstrins.d	$r4,$r0,0x20,0x1
1c00404c:	c10a0000 	0xc10a0000
1c004050:	00000404 	0x00000404
1c004054:	0404d700 	csrxchg	$r0,$r24,0x135
1c004058:	d8000000 	0xd8000000
1c00405c:	00000404 	0x00000404
1c004060:	0404d900 	csrxchg	$r0,$r8,0x136
1c004064:	da000000 	0xda000000
1c004068:	00000404 	0x00000404
1c00406c:	0804db00 	0x0804db00
1c004070:	0e000000 	0x0e000000
1c004074:	00080400 	bytepick.w	$r0,$r0,$r1,0x0
1c004078:	040b0000 	csrrd	$r0,0x2c0
1c00407c:	00000004 	0x00000004
1c004080:	000404c1 	alsl.w	$r1,$r6,$r1,0x1
1c004084:	04d70000 	csrrd	$r0,0x35c0
1c004088:	00000004 	0x00000004
1c00408c:	000404d8 	alsl.w	$r24,$r6,$r1,0x1
1c004090:	04d90000 	csrrd	$r0,0x3640
1c004094:	00000004 	0x00000004
1c004098:	000404da 	alsl.w	$r26,$r6,$r1,0x1
1c00409c:	04db0000 	csrrd	$r0,0x36c0
1c0040a0:	00000008 	0x00000008
1c0040a4:	0000000e 	0x0000000e
1c0040a8:	00000058 	0x00000058
1c0040ac:	000000f8 	0x000000f8
1c0040b0:	1c000630 	pcaddu12i	$r16,49(0x31)
1c0040b4:	000007a0 	0x000007a0
1c0040b8:	00000404 	0x00000404
1c0040bc:	02e00e00 	addi.d	$r0,$r16,-2045(0x803)
1c0040c0:	00000804 	0x00000804
1c0040c4:	04029700 	csrxchg	$r0,$r24,0xa5
1c0040c8:	00000020 	0x00000020
1c0040cc:	059a0499 	0x059a0499
1c0040d0:	03980181 	ori	$r1,$r12,0x600
1c0040d4:	3004069b 	0x3004069b
1c0040d8:	c1000007 	0xc1000007
1c0040dc:	00002c04 	ctz.d	$r4,$r0
1c0040e0:	0404d800 	csrrd	$r0,0x136
1c0040e4:	d7000000 	0xd7000000
1c0040e8:	00000404 	0x00000404
1c0040ec:	0404d900 	csrxchg	$r0,$r8,0x136
1c0040f0:	da000000 	0xda000000
1c0040f4:	00000404 	0x00000404
1c0040f8:	0404db00 	csrxchg	$r0,$r24,0x136
1c0040fc:	0e000000 	0x0e000000
1c004100:	00000000 	0x00000000
1c004104:	0000000c 	0x0000000c
1c004108:	00000154 	0x00000154
1c00410c:	1c000dd0 	pcaddu12i	$r16,110(0x6e)
1c004110:	00000048 	0x00000048
1c004114:	00000094 	0x00000094
1c004118:	00000164 	0x00000164
1c00411c:	1c000e20 	pcaddu12i	$r0,113(0x71)
1c004120:	000002b0 	0x000002b0
1c004124:	00000c04 	0x00000c04
1c004128:	04200e00 	csrxchg	$r0,$r16,0x803
1c00412c:	00000008 	0x00000008
1c004130:	28040181 	ld.b	$r1,$r12,256(0x100)
1c004134:	97000000 	0x97000000
1c004138:	98049902 	0x98049902
1c00413c:	9b059a03 	0x9b059a03
1c004140:	04079c06 	csrrd	$r6,0x1e7
1c004144:	000001f8 	0x000001f8
1c004148:	0404c10a 	csrxchg	$r10,$r8,0x130
1c00414c:	d7000000 	0xd7000000
1c004150:	00000404 	0x00000404
1c004154:	0404d800 	csrrd	$r0,0x136
1c004158:	dc000000 	0xdc000000
1c00415c:	00000c04 	0x00000c04
1c004160:	0404db00 	csrxchg	$r0,$r24,0x136
1c004164:	d9000000 	0xd9000000
1c004168:	00000804 	0x00000804
1c00416c:	0404da00 	csrxchg	$r0,$r16,0x136
1c004170:	0e000000 	0x0e000000
1c004174:	00040400 	alsl.w	$r0,$r0,$r1,0x1
1c004178:	040b0000 	csrrd	$r0,0x2c0
1c00417c:	00000028 	0x00000028
1c004180:	000404c1 	alsl.w	$r1,$r6,$r1,0x1
1c004184:	04d70000 	csrrd	$r0,0x35c0
1c004188:	00000004 	0x00000004
1c00418c:	000404d8 	alsl.w	$r24,$r6,$r1,0x1
1c004190:	04da0000 	csrrd	$r0,0x3680
1c004194:	00000004 	0x00000004
1c004198:	000c04dc 	bytepick.d	$r28,$r6,$r1,0x0
1c00419c:	04db0000 	csrrd	$r0,0x36c0
1c0041a0:	00000004 	0x00000004
1c0041a4:	000404d9 	alsl.w	$r25,$r6,$r1,0x1
1c0041a8:	000e0000 	bytepick.d	$r0,$r0,$r0,0x4
1c0041ac:	00000080 	0x00000080
1c0041b0:	000001fc 	0x000001fc
1c0041b4:	1c0010d0 	pcaddu12i	$r16,134(0x86)
1c0041b8:	000000d4 	0x000000d4
1c0041bc:	00000404 	0x00000404
1c0041c0:	04200e00 	csrxchg	$r0,$r16,0x803
1c0041c4:	00000004 	0x00000004
1c0041c8:	10040499 	addu16i.d	$r25,$r4,257(0x101)
1c0041cc:	81000000 	0x81000000
1c0041d0:	04039801 	csrrd	$r1,0xe6
1c0041d4:	00000010 	0x00000010
1c0041d8:	059a0297 	0x059a0297
1c0041dc:	00005004 	bitrev.w	$r4,$r0
1c0041e0:	04c10a00 	csrxchg	$r0,$r16,0x3042
1c0041e4:	0000000c 	0x0000000c
1c0041e8:	000404d8 	alsl.w	$r24,$r6,$r1,0x1
1c0041ec:	04d90000 	csrrd	$r0,0x3640
1c0041f0:	00000004 	0x00000004
1c0041f4:	000804da 	bytepick.w	$r26,$r6,$r1,0x0
1c0041f8:	04d70000 	csrrd	$r0,0x35c0
1c0041fc:	00000004 	0x00000004
1c004200:	0804000e 	0x0804000e
1c004204:	0b000000 	0x0b000000
1c004208:	00001004 	clo.w	$r4,$r0
1c00420c:	0c04c100 	0x0c04c100
1c004210:	d8000000 	0xd8000000
1c004214:	00000404 	0x00000404
1c004218:	0404d900 	csrxchg	$r0,$r8,0x136
1c00421c:	da000000 	0xda000000
1c004220:	00000804 	0x00000804
1c004224:	0404d700 	csrxchg	$r0,$r24,0x135
1c004228:	0e000000 	0x0e000000
1c00422c:	00000000 	0x00000000
1c004230:	00000084 	0x00000084
1c004234:	00000280 	0x00000280
1c004238:	1c0011b0 	pcaddu12i	$r16,141(0x8d)
1c00423c:	00001a10 	cto.w	$r16,$r16
1c004240:	00000404 	0x00000404
1c004244:	07900e00 	0x07900e00
1c004248:	00000404 	0x00000404
1c00424c:	04029600 	csrxchg	$r0,$r16,0xa5
1c004250:	0000003c 	0x0000003c
1c004254:	03970181 	ori	$r1,$r12,0x5c0
1c004258:	0b9f0a9e 	0x0b9f0a9e
1c00425c:	05990498 	0x05990498
1c004260:	079b069a 	0x079b069a
1c004264:	099d089c 	vfnmadd.s	$vr28,$vr4,$vr2,$vr26
1c004268:	000e4c04 	bytepick.d	$r4,$r0,$r19,0x4
1c00426c:	04c10a00 	csrxchg	$r0,$r16,0x3042
1c004270:	00000004 	0x00000004
1c004274:	000404d6 	alsl.w	$r22,$r6,$r1,0x1
1c004278:	04d70000 	csrrd	$r0,0x35c0
1c00427c:	00000004 	0x00000004
1c004280:	000404d8 	alsl.w	$r24,$r6,$r1,0x1
1c004284:	04d90000 	csrrd	$r0,0x3640
1c004288:	00000004 	0x00000004
1c00428c:	000404da 	alsl.w	$r26,$r6,$r1,0x1
1c004290:	04db0000 	csrrd	$r0,0x36c0
1c004294:	00000004 	0x00000004
1c004298:	000404dc 	alsl.w	$r28,$r6,$r1,0x1
1c00429c:	04dd0000 	csrrd	$r0,0x3740
1c0042a0:	00000004 	0x00000004
1c0042a4:	000404de 	alsl.w	$r30,$r6,$r1,0x1
1c0042a8:	04df0000 	csrrd	$r0,0x37c0
1c0042ac:	00000004 	0x00000004
1c0042b0:	0404000e 	csrrd	$r14,0x100
1c0042b4:	0b000000 	0x0b000000
1c0042b8:	0000000c 	0x0000000c
1c0042bc:	00000308 	0x00000308
1c0042c0:	1c002bc0 	pcaddu12i	$r0,350(0x15e)
1c0042c4:	00000020 	0x00000020
1c0042c8:	0000000c 	0x0000000c
1c0042cc:	00000318 	0x00000318
1c0042d0:	1c002be0 	pcaddu12i	$r0,351(0x15f)
1c0042d4:	00000060 	0x00000060
1c0042d8:	00000090 	0x00000090
1c0042dc:	00000328 	0x00000328
1c0042e0:	1c002c40 	pcaddu12i	$r0,354(0x162)
1c0042e4:	000000c0 	0x000000c0
1c0042e8:	00000404 	0x00000404
1c0042ec:	04200e00 	csrxchg	$r0,$r16,0x803
1c0042f0:	00000004 	0x00000004
1c0042f4:	08040499 	0x08040499
1c0042f8:	9a000000 	0x9a000000
1c0042fc:	00140405 	nor	$r5,$r0,$r1
1c004300:	02970000 	addi.w	$r0,$r0,1472(0x5c0)
1c004304:	069b0398 	0x069b0398
1c004308:	00000804 	0x00000804
1c00430c:	04018100 	csrxchg	$r0,$r8,0x60
1c004310:	0000004c 	0x0000004c
1c004314:	0404c10a 	csrxchg	$r10,$r8,0x130
1c004318:	d7000000 	0xd7000000
1c00431c:	00000404 	0x00000404
1c004320:	0404d800 	csrrd	$r0,0x136
1c004324:	d9000000 	0xd9000000
1c004328:	00000404 	0x00000404
1c00432c:	0404da00 	csrxchg	$r0,$r16,0x136
1c004330:	db000000 	0xdb000000
1c004334:	00000804 	0x00000804
1c004338:	04000e00 	csrxchg	$r0,$r16,0x3
1c00433c:	00000004 	0x00000004
1c004340:	0004040b 	alsl.w	$r11,$r0,$r1,0x1
1c004344:	04c10000 	csrrd	$r0,0x3040
1c004348:	00000008 	0x00000008
1c00434c:	000404d7 	alsl.w	$r23,$r6,$r1,0x1
1c004350:	04d80000 	csrrd	$r0,0x3600
1c004354:	00000004 	0x00000004
1c004358:	000404d9 	alsl.w	$r25,$r6,$r1,0x1
1c00435c:	04da0000 	csrrd	$r0,0x3680
1c004360:	00000004 	0x00000004
1c004364:	000804db 	bytepick.w	$r27,$r6,$r1,0x0
1c004368:	000e0000 	bytepick.d	$r0,$r0,$r0,0x4
1c00436c:	0000000c 	0x0000000c
1c004370:	000003bc 	0x000003bc
1c004374:	1c002d00 	pcaddu12i	$r0,360(0x168)
1c004378:	0000000c 	0x0000000c
1c00437c:	00000070 	0x00000070
1c004380:	000003cc 	0x000003cc
1c004384:	1c002d0c 	pcaddu12i	$r12,360(0x168)
1c004388:	000000c4 	0x000000c4
1c00438c:	00000404 	0x00000404
1c004390:	04100e00 	csrxchg	$r0,$r16,0x403
1c004394:	00000004 	0x00000004
1c004398:	08040398 	0x08040398
1c00439c:	99000000 	0x99000000
1c0043a0:	00100404 	add.w	$r4,$r0,$r1
1c0043a4:	02970000 	addi.w	$r0,$r0,1472(0x5c0)
1c0043a8:	5c040181 	bne	$r12,$r1,1024(0x400) # 1c0047a8 <files+0x34>
1c0043ac:	0a000000 	0x0a000000
1c0043b0:	000404c1 	alsl.w	$r1,$r6,$r1,0x1
1c0043b4:	04d70000 	csrrd	$r0,0x35c0
1c0043b8:	00000004 	0x00000004
1c0043bc:	000404d8 	alsl.w	$r24,$r6,$r1,0x1
1c0043c0:	04d90000 	csrrd	$r0,0x3640
1c0043c4:	00000008 	0x00000008
1c0043c8:	0404000e 	csrrd	$r14,0x100
1c0043cc:	0b000000 	0x0b000000
1c0043d0:	00001c04 	ctz.w	$r4,$r0
1c0043d4:	0404c100 	csrxchg	$r0,$r8,0x130
1c0043d8:	d7000000 	0xd7000000
1c0043dc:	00000404 	0x00000404
1c0043e0:	0404d800 	csrrd	$r0,0x136
1c0043e4:	d9000000 	0xd9000000
1c0043e8:	00000404 	0x00000404
1c0043ec:	00000e00 	0x00000e00
1c0043f0:	00000048 	0x00000048
1c0043f4:	00000440 	0x00000440
1c0043f8:	1c002dd0 	pcaddu12i	$r16,366(0x16e)
1c0043fc:	00000054 	0x00000054
1c004400:	00000404 	0x00000404
1c004404:	04100e00 	csrxchg	$r0,$r16,0x403
1c004408:	00000004 	0x00000004
1c00440c:	08040297 	0x08040297
1c004410:	98000000 	0x98000000
1c004414:	000c0403 	bytepick.d	$r3,$r0,$r1,0x0
1c004418:	01810000 	0x01810000
1c00441c:	00002004 	clo.d	$r4,$r0
1c004420:	04c10a00 	csrxchg	$r0,$r16,0x3042
1c004424:	00000004 	0x00000004
1c004428:	000404d7 	alsl.w	$r23,$r6,$r1,0x1
1c00442c:	04d80000 	csrrd	$r0,0x3600
1c004430:	00000004 	0x00000004
1c004434:	0404000e 	csrrd	$r14,0x100
1c004438:	0b000000 	0x0b000000
1c00443c:	00000060 	0x00000060
1c004440:	0000048c 	0x0000048c
1c004444:	1c002e24 	pcaddu12i	$r4,369(0x171)
1c004448:	0000022c 	0x0000022c
1c00444c:	00000404 	0x00000404
1c004450:	04600e00 	csrxchg	$r0,$r16,0x1803
1c004454:	0000001c 	0x0000001c
1c004458:	09810d9a 	0x09810d9a
1c00445c:	0b980a97 	0x0b980a97
1c004460:	0e9b0c99 	0x0e9b0c99
1c004464:	b0040f9c 	0xb0040f9c
1c004468:	0a000000 	0x0a000000
1c00446c:	000404c1 	alsl.w	$r1,$r6,$r1,0x1
1c004470:	04d70000 	csrrd	$r0,0x35c0
1c004474:	00000004 	0x00000004
1c004478:	000404d8 	alsl.w	$r24,$r6,$r1,0x1
1c00447c:	04d90000 	csrrd	$r0,0x3640
1c004480:	00000004 	0x00000004
1c004484:	000404da 	alsl.w	$r26,$r6,$r1,0x1
1c004488:	04db0000 	csrrd	$r0,0x36c0
1c00448c:	00000004 	0x00000004
1c004490:	000804dc 	bytepick.w	$r28,$r6,$r1,0x0
1c004494:	000e0000 	bytepick.d	$r0,$r0,$r0,0x4
1c004498:	00000404 	0x00000404
1c00449c:	00000b00 	0x00000b00
1c0044a0:	00000028 	0x00000028
1c0044a4:	000004f0 	0x000004f0
1c0044a8:	1c003050 	pcaddu12i	$r16,386(0x182)
1c0044ac:	00000028 	0x00000028
1c0044b0:	00000404 	0x00000404
1c0044b4:	04100e00 	csrxchg	$r0,$r16,0x403
1c0044b8:	00000004 	0x00000004
1c0044bc:	18040199 	pcaddi	$r25,8204(0x200c)
1c0044c0:	d9000000 	0xd9000000
1c0044c4:	00000404 	0x00000404
1c0044c8:	00000e00 	0x00000e00
1c0044cc:	00000028 	0x00000028
1c0044d0:	0000051c 	0x0000051c
1c0044d4:	1c003078 	pcaddu12i	$r24,387(0x183)
1c0044d8:	00000024 	0x00000024
1c0044dc:	00000404 	0x00000404
1c0044e0:	04100e00 	csrxchg	$r0,$r16,0x403
1c0044e4:	00000004 	0x00000004
1c0044e8:	14040199 	lu12i.w	$r25,8204(0x200c)
1c0044ec:	d9000000 	0xd9000000
1c0044f0:	00000404 	0x00000404
1c0044f4:	00000e00 	0x00000e00
1c0044f8:	00000040 	0x00000040
1c0044fc:	00000548 	0x00000548
1c004500:	1c00309c 	pcaddu12i	$r28,388(0x184)
1c004504:	00000074 	0x00000074
1c004508:	00000404 	0x00000404
1c00450c:	04100e00 	csrxchg	$r0,$r16,0x403
1c004510:	00000010 	0x00000010
1c004514:	02970181 	addi.w	$r1,$r12,1472(0x5c0)
1c004518:	04990398 	csrxchg	$r24,$r28,0x2640
1c00451c:	00004804 	bitrev.4b	$r4,$r0
1c004520:	0404c100 	csrxchg	$r0,$r8,0x130
1c004524:	d7000000 	0xd7000000
1c004528:	00000404 	0x00000404
1c00452c:	0404d800 	csrrd	$r0,0x136
1c004530:	d9000000 	0xd9000000
1c004534:	00000804 	0x00000804
1c004538:	00000e00 	0x00000e00
1c00453c:	00000028 	0x00000028
1c004540:	0000058c 	0x0000058c
1c004544:	1c003110 	pcaddu12i	$r16,392(0x188)
1c004548:	0000002c 	0x0000002c
1c00454c:	00000404 	0x00000404
1c004550:	04100e00 	csrxchg	$r0,$r16,0x403
1c004554:	00000004 	0x00000004
1c004558:	18040181 	pcaddi	$r1,8204(0x200c)
1c00455c:	c1000000 	0xc1000000
1c004560:	00000804 	0x00000804
1c004564:	00000e00 	0x00000e00
1c004568:	00000048 	0x00000048
1c00456c:	000005b8 	0x000005b8
1c004570:	1c00313c 	pcaddu12i	$r28,393(0x189)
1c004574:	000000e8 	0x000000e8
1c004578:	00000404 	0x00000404
1c00457c:	04600e00 	csrxchg	$r0,$r16,0x1803
1c004580:	00000010 	0x00000010
1c004584:	01810297 	0x01810297
1c004588:	04990398 	csrxchg	$r24,$r28,0x2640
1c00458c:	00008804 	0x00008804
1c004590:	04c10a00 	csrxchg	$r0,$r16,0x3042
1c004594:	00000004 	0x00000004
1c004598:	000404d7 	alsl.w	$r23,$r6,$r1,0x1
1c00459c:	04d80000 	csrrd	$r0,0x3600
1c0045a0:	00000004 	0x00000004
1c0045a4:	000804d9 	bytepick.w	$r25,$r6,$r1,0x0
1c0045a8:	000e0000 	bytepick.d	$r0,$r0,$r0,0x4
1c0045ac:	00000404 	0x00000404
1c0045b0:	00000b00 	0x00000b00
1c0045b4:	0000000c 	0x0000000c
1c0045b8:	00000604 	0x00000604
1c0045bc:	1c003224 	pcaddu12i	$r4,401(0x191)
1c0045c0:	00000030 	0x00000030
1c0045c4:	0000000c 	0x0000000c
1c0045c8:	00000614 	0x00000614
1c0045cc:	1c003254 	pcaddu12i	$r20,402(0x192)
1c0045d0:	0000003c 	0x0000003c
1c0045d4:	0000000c 	0x0000000c
1c0045d8:	00000624 	0x00000624
1c0045dc:	1c003290 	pcaddu12i	$r16,404(0x194)
1c0045e0:	0000001c 	0x0000001c
1c0045e4:	0000000c 	0x0000000c
1c0045e8:	00000634 	0x00000634
1c0045ec:	1c0032ac 	pcaddu12i	$r12,405(0x195)
1c0045f0:	00000028 	0x00000028
1c0045f4:	0000001c 	0x0000001c
1c0045f8:	00000644 	0x00000644
1c0045fc:	1c0032d4 	pcaddu12i	$r20,406(0x196)
1c004600:	00000068 	0x00000068
1c004604:	00004c04 	bitrev.8b	$r4,$r0
1c004608:	04100e00 	csrxchg	$r0,$r16,0x403
1c00460c:	00000014 	0x00000014
1c004610:	0000000e 	0x0000000e
1c004614:	0000000c 	0x0000000c
1c004618:	00000664 	0x00000664
1c00461c:	1c00333c 	pcaddu12i	$r28,409(0x199)
1c004620:	0000002c 	0x0000002c
1c004624:	0000000c 	0x0000000c
1c004628:	00000674 	0x00000674
1c00462c:	1c003368 	pcaddu12i	$r8,411(0x19b)
1c004630:	00000028 	0x00000028
1c004634:	0000000c 	0x0000000c
1c004638:	00000684 	0x00000684
1c00463c:	1c003390 	pcaddu12i	$r16,412(0x19c)
1c004640:	0000001c 	0x0000001c
1c004644:	0000000c 	0x0000000c
1c004648:	00000694 	0x00000694
1c00464c:	1c0033ac 	pcaddu12i	$r12,413(0x19d)
1c004650:	00000024 	0x00000024
1c004654:	0000000c 	0x0000000c
1c004658:	000006a4 	0x000006a4
1c00465c:	1c0033d0 	pcaddu12i	$r16,414(0x19e)
1c004660:	00000054 	0x00000054
1c004664:	0000001c 	0x0000001c
1c004668:	000006b4 	0x000006b4
1c00466c:	1c003424 	pcaddu12i	$r4,417(0x1a1)
1c004670:	00000058 	0x00000058
1c004674:	00003c04 	revb.d	$r4,$r0
1c004678:	04100e00 	csrxchg	$r0,$r16,0x403
1c00467c:	00000014 	0x00000014
1c004680:	0000000e 	0x0000000e
1c004684:	0000000c 	0x0000000c
1c004688:	000006d4 	0x000006d4
1c00468c:	1c00347c 	pcaddu12i	$r28,419(0x1a3)
1c004690:	00000018 	0x00000018
1c004694:	00000028 	0x00000028
1c004698:	000006e4 	0x000006e4
1c00469c:	1c003494 	pcaddu12i	$r20,420(0x1a4)
1c0046a0:	0000001c 	0x0000001c
1c0046a4:	00000404 	0x00000404
1c0046a8:	04100e00 	csrxchg	$r0,$r16,0x403
1c0046ac:	00000004 	0x00000004
1c0046b0:	0c040199 	0x0c040199
1c0046b4:	d9000000 	0xd9000000
1c0046b8:	00000404 	0x00000404
1c0046bc:	00000e00 	0x00000e00
1c0046c0:	0000000c 	0x0000000c
1c0046c4:	00000710 	0x00000710
1c0046c8:	1c0034b0 	pcaddu12i	$r16,421(0x1a5)
1c0046cc:	00000004 	0x00000004
1c0046d0:	0000000c 	0x0000000c
1c0046d4:	00000720 	0x00000720
1c0046d8:	1c0034b4 	pcaddu12i	$r20,421(0x1a5)
1c0046dc:	00000008 	0x00000008
1c0046e0:	00000028 	0x00000028
1c0046e4:	00000730 	0x00000730
1c0046e8:	1c0034bc 	pcaddu12i	$r28,421(0x1a5)
1c0046ec:	00000084 	0x00000084
1c0046f0:	00000404 	0x00000404
1c0046f4:	04100e00 	csrxchg	$r0,$r16,0x403
1c0046f8:	00000004 	0x00000004
1c0046fc:	60040199 	blt	$r12,$r25,1024(0x400) # 1c004afc <_heap+0x2fc>
1c004700:	d9000000 	0xd9000000
1c004704:	00001804 	cto.w	$r4,$r0
1c004708:	00000e00 	0x00000e00
1c00470c:	0000000c 	0x0000000c
1c004710:	0000075c 	0x0000075c
1c004714:	1c003540 	pcaddu12i	$r0,426(0x1aa)
1c004718:	00000004 	0x00000004
1c00471c:	00000028 	0x00000028
1c004720:	0000076c 	0x0000076c
1c004724:	1c003544 	pcaddu12i	$r4,426(0x1aa)
1c004728:	00000024 	0x00000024
1c00472c:	00000404 	0x00000404
1c004730:	04100e00 	csrxchg	$r0,$r16,0x403
1c004734:	00000004 	0x00000004
1c004738:	10040199 	addu16i.d	$r25,$r12,256(0x100)
1c00473c:	d9000000 	0xd9000000
1c004740:	00000804 	0x00000804
1c004744:	00000e00 	0x00000e00
1c004748:	00000028 	0x00000028
1c00474c:	00000798 	0x00000798
1c004750:	1c003568 	pcaddu12i	$r8,427(0x1ab)
1c004754:	00000030 	0x00000030
1c004758:	00000404 	0x00000404
1c00475c:	04100e00 	csrxchg	$r0,$r16,0x403
1c004760:	00000004 	0x00000004
1c004764:	10040199 	addu16i.d	$r25,$r12,256(0x100)
1c004768:	d9000000 	0xd9000000
1c00476c:	00001404 	clz.w	$r4,$r0
1c004770:	00000e00 	0x00000e00

Disassembly of section .bss:

1c004774 <files>:
	...

Disassembly of section .debug_aranges:

00000000 <.debug_aranges>:
   0:	0000001c 	0x0000001c
   4:	00000002 	0x00000002
   8:	00040000 	alsl.w	$r0,$r0,$r0,0x1
   c:	00000000 	0x00000000
  10:	1c002be0 	pcaddu12i	$r0,351(0x15f)
  14:	00000244 	0x00000244
	...
  20:	0000001c 	0x0000001c
  24:	03ba0002 	ori	$r2,$r0,0xe80
  28:	00040000 	alsl.w	$r0,$r0,$r0,0x1
  2c:	00000000 	0x00000000
  30:	1c002e24 	pcaddu12i	$r4,369(0x171)
  34:	0000022c 	0x0000022c
	...
  40:	0000001c 	0x0000001c
  44:	06d00002 	0x06d00002
  48:	00040000 	alsl.w	$r0,$r0,$r0,0x1
  4c:	00000000 	0x00000000
  50:	1c003050 	pcaddu12i	$r16,386(0x182)
  54:	0000004c 	0x0000004c
	...
  60:	0000001c 	0x0000001c
  64:	08400002 	0x08400002
  68:	00040000 	alsl.w	$r0,$r0,$r0,0x1
  6c:	00000000 	0x00000000
  70:	1c00309c 	pcaddu12i	$r28,388(0x184)
  74:	000000a0 	0x000000a0
	...
  80:	0000001c 	0x0000001c
  84:	0a5a0002 	xvfmsub.s	$xr2,$xr0,$xr0,$xr20
  88:	00040000 	alsl.w	$r0,$r0,$r0,0x1
  8c:	00000000 	0x00000000
  90:	1c00313c 	pcaddu12i	$r28,393(0x189)
  94:	000000e8 	0x000000e8
	...
  a0:	0000001c 	0x0000001c
  a4:	0c740002 	0x0c740002
  a8:	00040000 	alsl.w	$r0,$r0,$r0,0x1
  ac:	00000000 	0x00000000
  b0:	1c003224 	pcaddu12i	$r4,401(0x191)
  b4:	00000270 	0x00000270
	...
  c0:	0000001c 	0x0000001c
  c4:	11970002 	addu16i.d	$r2,$r0,26048(0x65c0)
  c8:	00040000 	alsl.w	$r0,$r0,$r0,0x1
  cc:	00000000 	0x00000000
  d0:	1c003494 	pcaddu12i	$r20,420(0x1a4)
  d4:	00000104 	0x00000104
	...

Disassembly of section .comment:

00000000 <.comment>:
   0:	3a434347 	0x3a434347
   4:	4e472820 	jirl	$r0,$r1,-112856(0x24728)
   8:	38202955 	ldx.bu	$r21,$r10,$r10
   c:	302e332e 	vldrepl.w	$vr14,$r25,-464(0xe30)
	...

Disassembly of section .debug_frame:

00000000 <.debug_frame>:
   0:	0000000c 	0x0000000c
   4:	ffffffff 	0xffffffff
   8:	7c010003 	0x7c010003
   c:	00030c01 	0x00030c01
  10:	0000000c 	0x0000000c
  14:	00000000 	0x00000000
  18:	1c002be0 	pcaddu12i	$r0,351(0x15f)
  1c:	00000060 	0x00000060
  20:	00000090 	0x00000090
  24:	00000000 	0x00000000
  28:	1c002c40 	pcaddu12i	$r0,354(0x162)
  2c:	000000c0 	0x000000c0
  30:	00000404 	0x00000404
  34:	04200e00 	csrxchg	$r0,$r16,0x803
  38:	00000004 	0x00000004
  3c:	08040499 	0x08040499
  40:	9a000000 	0x9a000000
  44:	00140405 	nor	$r5,$r0,$r1
  48:	02970000 	addi.w	$r0,$r0,1472(0x5c0)
  4c:	069b0398 	0x069b0398
  50:	00000804 	0x00000804
  54:	04018100 	csrxchg	$r0,$r8,0x60
  58:	0000004c 	0x0000004c
  5c:	0404c10a 	csrxchg	$r10,$r8,0x130
  60:	d7000000 	0xd7000000
  64:	00000404 	0x00000404
  68:	0404d800 	csrrd	$r0,0x136
  6c:	d9000000 	0xd9000000
  70:	00000404 	0x00000404
  74:	0404da00 	csrxchg	$r0,$r16,0x136
  78:	db000000 	0xdb000000
  7c:	00000804 	0x00000804
  80:	04000e00 	csrxchg	$r0,$r16,0x3
  84:	00000004 	0x00000004
  88:	0004040b 	alsl.w	$r11,$r0,$r1,0x1
  8c:	04c10000 	csrrd	$r0,0x3040
  90:	00000008 	0x00000008
  94:	000404d7 	alsl.w	$r23,$r6,$r1,0x1
  98:	04d80000 	csrrd	$r0,0x3600
  9c:	00000004 	0x00000004
  a0:	000404d9 	alsl.w	$r25,$r6,$r1,0x1
  a4:	04da0000 	csrrd	$r0,0x3680
  a8:	00000004 	0x00000004
  ac:	000804db 	bytepick.w	$r27,$r6,$r1,0x0
  b0:	000e0000 	bytepick.d	$r0,$r0,$r0,0x4
  b4:	0000000c 	0x0000000c
  b8:	00000000 	0x00000000
  bc:	1c002d00 	pcaddu12i	$r0,360(0x168)
  c0:	0000000c 	0x0000000c
  c4:	00000070 	0x00000070
  c8:	00000000 	0x00000000
  cc:	1c002d0c 	pcaddu12i	$r12,360(0x168)
  d0:	000000c4 	0x000000c4
  d4:	00000404 	0x00000404
  d8:	04100e00 	csrxchg	$r0,$r16,0x403
  dc:	00000004 	0x00000004
  e0:	08040398 	0x08040398
  e4:	99000000 	0x99000000
  e8:	00100404 	add.w	$r4,$r0,$r1
  ec:	02970000 	addi.w	$r0,$r0,1472(0x5c0)
  f0:	5c040181 	bne	$r12,$r1,1024(0x400) # 4f0 <data_size-0x52c>
  f4:	0a000000 	0x0a000000
  f8:	000404c1 	alsl.w	$r1,$r6,$r1,0x1
  fc:	04d70000 	csrrd	$r0,0x35c0
 100:	00000004 	0x00000004
 104:	000404d8 	alsl.w	$r24,$r6,$r1,0x1
 108:	04d90000 	csrrd	$r0,0x3640
 10c:	00000008 	0x00000008
 110:	0404000e 	csrrd	$r14,0x100
 114:	0b000000 	0x0b000000
 118:	00001c04 	ctz.w	$r4,$r0
 11c:	0404c100 	csrxchg	$r0,$r8,0x130
 120:	d7000000 	0xd7000000
 124:	00000404 	0x00000404
 128:	0404d800 	csrrd	$r0,0x136
 12c:	d9000000 	0xd9000000
 130:	00000404 	0x00000404
 134:	00000e00 	0x00000e00
 138:	00000048 	0x00000048
 13c:	00000000 	0x00000000
 140:	1c002dd0 	pcaddu12i	$r16,366(0x16e)
 144:	00000054 	0x00000054
 148:	00000404 	0x00000404
 14c:	04100e00 	csrxchg	$r0,$r16,0x403
 150:	00000004 	0x00000004
 154:	08040297 	0x08040297
 158:	98000000 	0x98000000
 15c:	000c0403 	bytepick.d	$r3,$r0,$r1,0x0
 160:	01810000 	0x01810000
 164:	00002004 	clo.d	$r4,$r0
 168:	04c10a00 	csrxchg	$r0,$r16,0x3042
 16c:	00000004 	0x00000004
 170:	000404d7 	alsl.w	$r23,$r6,$r1,0x1
 174:	04d80000 	csrrd	$r0,0x3600
 178:	00000004 	0x00000004
 17c:	0404000e 	csrrd	$r14,0x100
 180:	0b000000 	0x0b000000
 184:	0000000c 	0x0000000c
 188:	ffffffff 	0xffffffff
 18c:	7c010003 	0x7c010003
 190:	00030c01 	0x00030c01
 194:	00000060 	0x00000060
 198:	00000184 	0x00000184
 19c:	1c002e24 	pcaddu12i	$r4,369(0x171)
 1a0:	0000022c 	0x0000022c
 1a4:	00000404 	0x00000404
 1a8:	04600e00 	csrxchg	$r0,$r16,0x1803
 1ac:	0000001c 	0x0000001c
 1b0:	09810d9a 	0x09810d9a
 1b4:	0b980a97 	0x0b980a97
 1b8:	0e9b0c99 	0x0e9b0c99
 1bc:	b0040f9c 	0xb0040f9c
 1c0:	0a000000 	0x0a000000
 1c4:	000404c1 	alsl.w	$r1,$r6,$r1,0x1
 1c8:	04d70000 	csrrd	$r0,0x35c0
 1cc:	00000004 	0x00000004
 1d0:	000404d8 	alsl.w	$r24,$r6,$r1,0x1
 1d4:	04d90000 	csrrd	$r0,0x3640
 1d8:	00000004 	0x00000004
 1dc:	000404da 	alsl.w	$r26,$r6,$r1,0x1
 1e0:	04db0000 	csrrd	$r0,0x36c0
 1e4:	00000004 	0x00000004
 1e8:	000804dc 	bytepick.w	$r28,$r6,$r1,0x0
 1ec:	000e0000 	bytepick.d	$r0,$r0,$r0,0x4
 1f0:	00000404 	0x00000404
 1f4:	00000b00 	0x00000b00
 1f8:	0000000c 	0x0000000c
 1fc:	ffffffff 	0xffffffff
 200:	7c010003 	0x7c010003
 204:	00030c01 	0x00030c01
 208:	00000028 	0x00000028
 20c:	000001f8 	0x000001f8
 210:	1c003050 	pcaddu12i	$r16,386(0x182)
 214:	00000028 	0x00000028
 218:	00000404 	0x00000404
 21c:	04100e00 	csrxchg	$r0,$r16,0x403
 220:	00000004 	0x00000004
 224:	18040199 	pcaddi	$r25,8204(0x200c)
 228:	d9000000 	0xd9000000
 22c:	00000404 	0x00000404
 230:	00000e00 	0x00000e00
 234:	00000028 	0x00000028
 238:	000001f8 	0x000001f8
 23c:	1c003078 	pcaddu12i	$r24,387(0x183)
 240:	00000024 	0x00000024
 244:	00000404 	0x00000404
 248:	04100e00 	csrxchg	$r0,$r16,0x403
 24c:	00000004 	0x00000004
 250:	14040199 	lu12i.w	$r25,8204(0x200c)
 254:	d9000000 	0xd9000000
 258:	00000404 	0x00000404
 25c:	00000e00 	0x00000e00
 260:	0000000c 	0x0000000c
 264:	ffffffff 	0xffffffff
 268:	7c010003 	0x7c010003
 26c:	00030c01 	0x00030c01
 270:	00000040 	0x00000040
 274:	00000260 	0x00000260
 278:	1c00309c 	pcaddu12i	$r28,388(0x184)
 27c:	00000074 	0x00000074
 280:	00000404 	0x00000404
 284:	04100e00 	csrxchg	$r0,$r16,0x403
 288:	00000010 	0x00000010
 28c:	02970181 	addi.w	$r1,$r12,1472(0x5c0)
 290:	04990398 	csrxchg	$r24,$r28,0x2640
 294:	00004804 	bitrev.4b	$r4,$r0
 298:	0404c100 	csrxchg	$r0,$r8,0x130
 29c:	d7000000 	0xd7000000
 2a0:	00000404 	0x00000404
 2a4:	0404d800 	csrrd	$r0,0x136
 2a8:	d9000000 	0xd9000000
 2ac:	00000804 	0x00000804
 2b0:	00000e00 	0x00000e00
 2b4:	00000028 	0x00000028
 2b8:	00000260 	0x00000260
 2bc:	1c003110 	pcaddu12i	$r16,392(0x188)
 2c0:	0000002c 	0x0000002c
 2c4:	00000404 	0x00000404
 2c8:	04100e00 	csrxchg	$r0,$r16,0x403
 2cc:	00000004 	0x00000004
 2d0:	18040181 	pcaddi	$r1,8204(0x200c)
 2d4:	c1000000 	0xc1000000
 2d8:	00000804 	0x00000804
 2dc:	00000e00 	0x00000e00
 2e0:	0000000c 	0x0000000c
 2e4:	ffffffff 	0xffffffff
 2e8:	7c010003 	0x7c010003
 2ec:	00030c01 	0x00030c01
 2f0:	00000048 	0x00000048
 2f4:	000002e0 	0x000002e0
 2f8:	1c00313c 	pcaddu12i	$r28,393(0x189)
 2fc:	000000e8 	0x000000e8
 300:	00000404 	0x00000404
 304:	04600e00 	csrxchg	$r0,$r16,0x1803
 308:	00000010 	0x00000010
 30c:	01810297 	0x01810297
 310:	04990398 	csrxchg	$r24,$r28,0x2640
 314:	00008804 	0x00008804
 318:	04c10a00 	csrxchg	$r0,$r16,0x3042
 31c:	00000004 	0x00000004
 320:	000404d7 	alsl.w	$r23,$r6,$r1,0x1
 324:	04d80000 	csrrd	$r0,0x3600
 328:	00000004 	0x00000004
 32c:	000804d9 	bytepick.w	$r25,$r6,$r1,0x0
 330:	000e0000 	bytepick.d	$r0,$r0,$r0,0x4
 334:	00000404 	0x00000404
 338:	00000b00 	0x00000b00
 33c:	0000000c 	0x0000000c
 340:	ffffffff 	0xffffffff
 344:	7c010003 	0x7c010003
 348:	00030c01 	0x00030c01
 34c:	0000000c 	0x0000000c
 350:	0000033c 	0x0000033c
 354:	1c003224 	pcaddu12i	$r4,401(0x191)
 358:	00000030 	0x00000030
 35c:	0000000c 	0x0000000c
 360:	0000033c 	0x0000033c
 364:	1c003254 	pcaddu12i	$r20,402(0x192)
 368:	0000003c 	0x0000003c
 36c:	0000000c 	0x0000000c
 370:	0000033c 	0x0000033c
 374:	1c003290 	pcaddu12i	$r16,404(0x194)
 378:	0000001c 	0x0000001c
 37c:	0000000c 	0x0000000c
 380:	0000033c 	0x0000033c
 384:	1c0032ac 	pcaddu12i	$r12,405(0x195)
 388:	00000028 	0x00000028
 38c:	0000001c 	0x0000001c
 390:	0000033c 	0x0000033c
 394:	1c0032d4 	pcaddu12i	$r20,406(0x196)
 398:	00000068 	0x00000068
 39c:	00004c04 	bitrev.8b	$r4,$r0
 3a0:	04100e00 	csrxchg	$r0,$r16,0x403
 3a4:	00000014 	0x00000014
 3a8:	0000000e 	0x0000000e
 3ac:	0000000c 	0x0000000c
 3b0:	0000033c 	0x0000033c
 3b4:	1c00333c 	pcaddu12i	$r28,409(0x199)
 3b8:	0000002c 	0x0000002c
 3bc:	0000000c 	0x0000000c
 3c0:	0000033c 	0x0000033c
 3c4:	1c003368 	pcaddu12i	$r8,411(0x19b)
 3c8:	00000028 	0x00000028
 3cc:	0000000c 	0x0000000c
 3d0:	0000033c 	0x0000033c
 3d4:	1c003390 	pcaddu12i	$r16,412(0x19c)
 3d8:	0000001c 	0x0000001c
 3dc:	0000000c 	0x0000000c
 3e0:	0000033c 	0x0000033c
 3e4:	1c0033ac 	pcaddu12i	$r12,413(0x19d)
 3e8:	00000024 	0x00000024
 3ec:	0000000c 	0x0000000c
 3f0:	0000033c 	0x0000033c
 3f4:	1c0033d0 	pcaddu12i	$r16,414(0x19e)
 3f8:	00000054 	0x00000054
 3fc:	0000001c 	0x0000001c
 400:	0000033c 	0x0000033c
 404:	1c003424 	pcaddu12i	$r4,417(0x1a1)
 408:	00000058 	0x00000058
 40c:	00003c04 	revb.d	$r4,$r0
 410:	04100e00 	csrxchg	$r0,$r16,0x403
 414:	00000014 	0x00000014
 418:	0000000e 	0x0000000e
 41c:	0000000c 	0x0000000c
 420:	0000033c 	0x0000033c
 424:	1c00347c 	pcaddu12i	$r28,419(0x1a3)
 428:	00000018 	0x00000018
 42c:	0000000c 	0x0000000c
 430:	ffffffff 	0xffffffff
 434:	7c010003 	0x7c010003
 438:	00030c01 	0x00030c01
 43c:	00000028 	0x00000028
 440:	0000042c 	0x0000042c
 444:	1c003494 	pcaddu12i	$r20,420(0x1a4)
 448:	0000001c 	0x0000001c
 44c:	00000404 	0x00000404
 450:	04100e00 	csrxchg	$r0,$r16,0x403
 454:	00000004 	0x00000004
 458:	0c040199 	0x0c040199
 45c:	d9000000 	0xd9000000
 460:	00000404 	0x00000404
 464:	00000e00 	0x00000e00
 468:	0000000c 	0x0000000c
 46c:	0000042c 	0x0000042c
 470:	1c0034b0 	pcaddu12i	$r16,421(0x1a5)
 474:	00000004 	0x00000004
 478:	0000000c 	0x0000000c
 47c:	0000042c 	0x0000042c
 480:	1c0034b4 	pcaddu12i	$r20,421(0x1a5)
 484:	00000008 	0x00000008
 488:	00000028 	0x00000028
 48c:	0000042c 	0x0000042c
 490:	1c0034bc 	pcaddu12i	$r28,421(0x1a5)
 494:	00000084 	0x00000084
 498:	00000404 	0x00000404
 49c:	04100e00 	csrxchg	$r0,$r16,0x403
 4a0:	00000004 	0x00000004
 4a4:	60040199 	blt	$r12,$r25,1024(0x400) # 8a4 <data_size-0x178>
 4a8:	d9000000 	0xd9000000
 4ac:	00001804 	cto.w	$r4,$r0
 4b0:	00000e00 	0x00000e00
 4b4:	0000000c 	0x0000000c
 4b8:	0000042c 	0x0000042c
 4bc:	1c003540 	pcaddu12i	$r0,426(0x1aa)
 4c0:	00000004 	0x00000004
 4c4:	00000028 	0x00000028
 4c8:	0000042c 	0x0000042c
 4cc:	1c003544 	pcaddu12i	$r4,426(0x1aa)
 4d0:	00000024 	0x00000024
 4d4:	00000404 	0x00000404
 4d8:	04100e00 	csrxchg	$r0,$r16,0x403
 4dc:	00000004 	0x00000004
 4e0:	10040199 	addu16i.d	$r25,$r12,256(0x100)
 4e4:	d9000000 	0xd9000000
 4e8:	00000804 	0x00000804
 4ec:	00000e00 	0x00000e00
 4f0:	00000028 	0x00000028
 4f4:	0000042c 	0x0000042c
 4f8:	1c003568 	pcaddu12i	$r8,427(0x1ab)
 4fc:	00000030 	0x00000030
 500:	00000404 	0x00000404
 504:	04100e00 	csrxchg	$r0,$r16,0x403
 508:	00000004 	0x00000004
 50c:	10040199 	addu16i.d	$r25,$r12,256(0x100)
 510:	d9000000 	0xd9000000
 514:	00001404 	clz.w	$r4,$r0
 518:	00000e00 	0x00000e00

Disassembly of section .debug_info:

00000000 <.debug_info>:
       0:	000003b6 	0x000003b6
       4:	00000004 	0x00000004
       8:	01040000 	0x01040000
       c:	20554e47 	ll.w	$r7,$r18,21836(0x554c)
      10:	20373143 	ll.w	$r3,$r10,14128(0x3730)
      14:	2e332e38 	0x2e332e38
      18:	6d2d2030 	bgeu	$r1,$r16,77088(0x12d20) # 12d38 <data_size+0x1231c>
      1c:	3d696261 	0x3d696261
      20:	33706c69 	xvstelm.h	$xr9,$r3,54(0x36),0xc
      24:	2d207332 	0x2d207332
      28:	6372616d 	blt	$r11,$r13,-36256(0x37260) # ffff7288 <_stack+0xe3fe330c>
      2c:	6f6c3d68 	bgeu	$r11,$r8,-37828(0x36c3c) # ffff6c68 <_stack+0xe3fe2cec>
      30:	61676e6f 	blt	$r19,$r15,92012(0x1676c) # 1679c <data_size+0x15d80>
      34:	33686372 	xvstelm.h	$xr18,$r27,48(0x30),0xa
      38:	2d207232 	0x2d207232
      3c:	7570666d 	0x7570666d
      40:	6e6f6e3d 	bgeu	$r17,$r29,-102548(0x26f6c) # fffe6fac <_stack+0xe3fd3030>
      44:	6d2d2065 	bgeu	$r3,$r5,77088(0x12d20) # 12d64 <data_size+0x12348>
      48:	646f6d63 	bge	$r11,$r3,28524(0x6f6c) # 6fb4 <data_size+0x6598>
      4c:	6e3d6c65 	bgeu	$r3,$r5,-115348(0x23d6c) # fffe3db8 <_stack+0xe3fcfe3c>
      50:	616d726f 	blt	$r19,$r15,93552(0x16d70) # 16dc0 <data_size+0x163a4>
      54:	6d2d206c 	bgeu	$r3,$r12,77088(0x12d20) # 12d74 <data_size+0x12358>
      58:	656e7574 	bge	$r11,$r20,93812(0x16e74) # 16ecc <data_size+0x164b0>
      5c:	6f6f6c3d 	bgeu	$r1,$r29,-37012(0x36f6c) # ffff6fc8 <_stack+0xe3fe304c>
      60:	7261676e 	0x7261676e
      64:	32336863 	0x32336863
      68:	672d2072 	bge	$r3,$r18,-53984(0x32d20) # ffff2d88 <_stack+0xe3fdee0c>
      6c:	324f2d20 	xvldrepl.h	$xr0,$r9,1942(0x796)
      70:	6e662d20 	bgeu	$r9,$r0,-104916(0x2662c) # fffe669c <_stack+0xe3fd2720>
      74:	75622d6f 	0x75622d6f
      78:	69746c69 	bltu	$r3,$r9,95340(0x1746c) # 174e4 <data_size+0x16ac8>
      7c:	662d206e 	bge	$r3,$r14,-119520(0x22d20) # fffe2d9c <_stack+0xe3fcee20>
      80:	702d6f6e 	0x702d6f6e
      84:	0c006369 	0x0c006369
      88:	69647473 	bltu	$r3,$r19,91252(0x16474) # 164fc <data_size+0x15ae0>
      8c:	00632e6f 	bstrins.w	$r15,$r19,0x3,0xb
      90:	6d6f682f 	bgeu	$r1,$r15,94056(0x16f68) # 16ff8 <data_size+0x165dc>
      94:	77772f65 	0x77772f65
      98:	6f772f74 	bgeu	$r27,$r20,-35028(0x3772c) # ffff77c4 <_stack+0xe3fe3848>
      9c:	702f6b72 	vaddwev.d.wu	$vr18,$vr27,$vr26
      a0:	5f667265 	bne	$r19,$r5,-39312(0x36670) # ffff6710 <_stack+0xe3fe2794>
      a4:	636e7566 	blt	$r11,$r6,-37260(0x36e74) # ffff6f18 <_stack+0xe3fe2f9c>
      a8:	62696c2f 	blt	$r1,$r15,-104084(0x2696c) # fffe6a14 <_stack+0xe3fd2a98>
      ac:	002be000 	0x002be000
      b0:	0002441c 	0x0002441c
      b4:	00000000 	0x00000000
      b8:	03040200 	lu52i.d	$r0,$r16,256(0x100)
      bc:	6e750704 	bgeu	$r24,$r4,-101116(0x27504) # fffe75c0 <_stack+0xe3fd3644>
      c0:	6e676973 	bgeu	$r11,$r19,-104600(0x26768) # fffe6828 <_stack+0xe3fd28ac>
      c4:	69206465 	bltu	$r3,$r5,73828(0x12064) # 12128 <data_size+0x1170c>
      c8:	0300746e 	lu52i.d	$r14,$r3,29(0x1d)
      cc:	6f6c0704 	bgeu	$r24,$r4,-37884(0x36c04) # ffff6cd0 <_stack+0xe3fe2d54>
      d0:	7520676e 	xvpickod.b	$xr14,$xr27,$xr25
      d4:	6769736e 	bge	$r27,$r14,-38544(0x36970) # ffff6a44 <_stack+0xe3fe2ac8>
      d8:	2064656e 	ll.w	$r14,$r11,25700(0x6464)
      dc:	00746e69 	bstrins.w	$r9,$r19,0x14,0x1b
      e0:	7a697304 	0x7a697304
      e4:	00745f65 	bstrins.w	$r5,$r27,0x14,0x17
      e8:	bb160f03 	0xbb160f03
      ec:	05000000 	0x05000000
      f0:	454c4946 	bnez	$r10,1657928(0x194c48) # 194d38 <data_size+0x19431c>
      f4:	09020800 	0x09020800
      f8:	00011808 	0x00011808
      fc:	74730600 	xvmin.w	$xr0,$xr16,$xr1
     100:	0a020072 	0x0a020072
     104:	00011808 	0x00011808
     108:	70060000 	vslt.b	$vr0,$vr0,$vr0
     10c:	0200736f 	slti	$r15,$r27,28(0x1c)
     110:	00e0090b 	bstrpick.d	$r11,$r8,0x20,0x2
     114:	00040000 	alsl.w	$r0,$r0,$r0,0x1
     118:	011e0407 	0x011e0407
     11c:	01030000 	fsub.d	$f0,$f0,$f0
     120:	61686306 	blt	$r24,$r6,92256(0x16860) # 16980 <data_size+0x15f64>
     124:	46040072 	bnez	$r3,-3537920(0x4a0400) # ffca0524 <_stack+0xe3c8c5a8>
     128:	00454c49 	srli.d	$r9,$r2,0x13
     12c:	ef150e02 	0xef150e02
     130:	08000000 	0x08000000
     134:	00000126 	0x00000126
     138:	00000143 	0x00000143
     13c:	0000bb09 	0x0000bb09
     140:	0a000900 	0x0a000900
     144:	656c6966 	bge	$r11,$r6,93288(0x16c68) # 16dac <data_size+0x16390>
     148:	05010073 	0x05010073
     14c:	00013306 	0x00013306
     150:	74030500 	xvsle.w	$xr0,$xr8,$xr1
     154:	0b1c0047 	0x0b1c0047
     158:	63746567 	blt	$r11,$r7,-35740(0x37464) # ffff75bc <_stack+0xe3fe3640>
     15c:	05580100 	0x05580100
     160:	000001c7 	0x000001c7
     164:	1c002dd0 	pcaddu12i	$r16,366(0x16e)
     168:	00000054 	0x00000054
     16c:	01c79c01 	0x01c79c01
     170:	070c0000 	0x070c0000
     174:	01000000 	0x01000000
     178:	01ce1058 	0x01ce1058
     17c:	00000000 	0x00000000
     180:	730d0000 	vextl.qu.du	$vr0,$vr0
     184:	01007274 	0x01007274
     188:	01180859 	0x01180859
     18c:	00370000 	0x00370000
     190:	740d0000 	xvsub.w	$xr0,$xr0,$xr0
     194:	6c61746f 	bgeu	$r3,$r15,24948(0x6174) # 6308 <data_size+0x58ec>
     198:	095a0100 	vfmsub.s	$vr0,$vr8,$vr0,$vr20
     19c:	000000e0 	0x000000e0
     1a0:	00000055 	0x00000055
     1a4:	0000000e 	0x0000000e
     1a8:	11230100 	addu16i.d	$r0,$r8,18624(0x48c0)
     1ac:	000001c7 	0x000001c7
     1b0:	000001b6 	0x000001b6
     1b4:	f010000f 	0xf010000f
     1b8:	ad1c002d 	0xad1c002d
     1bc:	11000003 	addu16i.d	$r3,$r0,16384(0x4000)
     1c0:	87025401 	0x87025401
     1c4:	03000000 	lu52i.d	$r0,$r0,0
     1c8:	6e690504 	bgeu	$r8,$r4,-104188(0x26904) # fffe6acc <_stack+0xe3fd2b50>
     1cc:	04070074 	csrxchg	$r20,$r3,0x1c0
     1d0:	00000126 	0x00000126
     1d4:	6567660b 	bge	$r16,$r11,92004(0x16764) # 16938 <data_size+0x15f1c>
     1d8:	01007374 	0x01007374
     1dc:	01180748 	0x01180748
     1e0:	2d0c0000 	0x2d0c0000
     1e4:	00c41c00 	bstrpick.d	$r0,$r0,0x4,0x7
     1e8:	9c010000 	0x9c010000
     1ec:	0000027d 	0x0000027d
     1f0:	01007312 	0x01007312
     1f4:	01181348 	0x01181348
     1f8:	00730000 	bstrins.w	$r0,$r0,0x13,0x0
     1fc:	73120000 	0x73120000
     200:	00657a69 	bstrins.w	$r9,$r19,0x5,0x1e
     204:	c71a4801 	0xc71a4801
     208:	b8000001 	0xb8000001
     20c:	0c000000 	0x0c000000
     210:	00000007 	0x00000007
     214:	ce264801 	0xce264801
     218:	d9000001 	0xd9000001
     21c:	0d000000 	fsel	$f0,$f0,$f0,$fcc0
     220:	00727473 	bstrins.w	$r19,$r3,0x12,0x1d
     224:	18084901 	pcaddi	$r1,16968(0x4248)
     228:	1e000001 	pcaddu18i	$r1,0
     22c:	0d000001 	fsel	$f1,$f0,$f0,$fcc0
     230:	61746f74 	blt	$r27,$r20,95340(0x1746c) # 1769c <data_size+0x16c80>
     234:	4a01006c 	bceqz	$fcc3,3277056(0x320100) # 320334 <data_size+0x31f918>
     238:	0000e009 	0x0000e009
     23c:	00013c00 	asrtle.d	$r0,$r15
     240:	00000e00 	0x00000e00
     244:	23010000 	sc.d	$r0,$r0,256(0x100)
     248:	0001c711 	0x0001c711
     24c:	00025300 	0x00025300
     250:	0d000f00 	fsel	$f0,$f24,$f3,$fcc0
     254:	4b010063 	bceqz	$fcc3,983296(0xf0100) # f0354 <data_size+0xef938>
     258:	0000e009 	0x0000e009
     25c:	00015a00 	asrtle.d	$r16,$r22
     260:	00721300 	bstrins.w	$r0,$r24,0x12,0x4
     264:	18084c01 	pcaddi	$r1,16992(0x4260)
     268:	00000001 	0x00000001
     26c:	002d3410 	alsl.d	$r16,$r0,$r13,0x3
     270:	0003ad1c 	0x0003ad1c
     274:	54011100 	bl	67109136(0x4000110) # 4000384 <data_size+0x3fff968>
     278:	00008802 	0x00008802
     27c:	63661400 	blt	$r0,$r0,-39404(0x36614) # ffff6890 <_stack+0xe3fe2914>
     280:	65736f6c 	bge	$r27,$r12,95084(0x1736c) # 175ec <data_size+0x16bd0>
     284:	063d0100 	cacop	0x0,$r8,-192(0xf40)
     288:	1c002d00 	pcaddu12i	$r0,360(0x168)
     28c:	0000000c 	0x0000000c
     290:	02b09c01 	addi.w	$r1,$r0,-985(0xc27)
     294:	07150000 	0x07150000
     298:	01000000 	0x01000000
     29c:	01ce133d 	0x01ce133d
     2a0:	54010000 	bl	256(0x100) # 3a0 <data_size-0x67c>
     2a4:	01006913 	0x01006913
     2a8:	01c7063e 	0x01c7063e
     2ac:	00000000 	0x00000000
     2b0:	6572660b 	bge	$r16,$r11,94820(0x17264) # 17514 <data_size+0x16af8>
     2b4:	01006461 	0x01006461
     2b8:	00e00820 	bstrpick.d	$r0,$r1,0x20,0x2
     2bc:	2c400000 	vst	$vr0,$r0,0
     2c0:	00c01c00 	bstrpick.d	$r0,$r0,0x0,0x7
     2c4:	9c010000 	0x9c010000
     2c8:	00000372 	0x00000372
     2cc:	72747012 	0x72747012
     2d0:	14200100 	lu12i.w	$r0,65544(0x10008)
     2d4:	000000b9 	0x000000b9
     2d8:	00000185 	0x00000185
     2dc:	7a697312 	0x7a697312
     2e0:	20010065 	ll.w	$r5,$r3,256(0x100)
     2e4:	0000e020 	0x0000e020
     2e8:	0001ca00 	asrtgt.d	$r16,$r18
     2ec:	6d6e1200 	bgeu	$r16,$r0,93712(0x16e10) # 170fc <data_size+0x166e0>
     2f0:	00626d65 	bstrins.w	$r5,$r11,0x2,0x1b
     2f4:	e02d2001 	0xe02d2001
     2f8:	0f000000 	0x0f000000
     2fc:	0c000002 	0x0c000002
     300:	00000007 	0x00000007
     304:	ce3a2001 	0xce3a2001
     308:	54000001 	bl	262144(0x40000) # 40308 <data_size+0x3f8ec>
     30c:	0d000002 	fsel	$f2,$f0,$f0,$fcc0
     310:	0074756f 	bstrins.w	$r15,$r11,0x14,0x1d
     314:	18082101 	pcaddi	$r1,16648(0x4108)
     318:	99000001 	0x99000001
     31c:	0d000002 	fsel	$f2,$f0,$f0,$fcc0
     320:	00727473 	bstrins.w	$r19,$r3,0x12,0x1d
     324:	18082201 	pcaddi	$r1,16656(0x4110)
     328:	de000001 	0xde000001
     32c:	0d000002 	fsel	$f2,$f0,$f0,$fcc0
     330:	61746f74 	blt	$r27,$r20,95340(0x1746c) # 1779c <data_size+0x16d80>
     334:	2301006c 	sc.d	$r12,$r3,256(0x100)
     338:	0000e009 	0x0000e009
     33c:	0002fc00 	0x0002fc00
     340:	00000e00 	0x00000e00
     344:	23010000 	sc.d	$r0,$r0,256(0x100)
     348:	0001c711 	0x0001c711
     34c:	00035300 	0x00035300
     350:	0d000f00 	fsel	$f0,$f24,$f3,$fcc0
     354:	27010063 	stptr.d	$r3,$r3,256(0x100)
     358:	0000e009 	0x0000e009
     35c:	00031a00 	0x00031a00
     360:	2c781000 	vst	$vr0,$r0,-508(0xe04)
     364:	03ad1c00 	ori	$r0,$r0,0xb47
     368:	01110000 	fscaleb.d	$f0,$f0,$f0
     36c:	00890254 	bstrins.d	$r20,$r18,0x9,0x0
     370:	660b0000 	bge	$r0,$r0,-128256(0x20b00) # fffe0e70 <_stack+0xe3fccef4>
     374:	6e65706f 	bgeu	$r3,$r15,-105104(0x26570) # fffe68e4 <_stack+0xe3fd2968>
     378:	07140100 	0x07140100
     37c:	000001ce 	0x000001ce
     380:	1c002be0 	pcaddu12i	$r0,351(0x15f)
     384:	00000060 	0x00000060
     388:	03ad9c01 	ori	$r1,$r0,0xb67
     38c:	73120000 	0x73120000
     390:	01007274 	0x01007274
     394:	01181314 	0x01181314
     398:	032d0000 	lu52i.d	$r0,$r0,-1216(0xb40)
     39c:	690d0000 	bltu	$r0,$r0,68864(0x10d00) # 1109c <data_size+0x10680>
     3a0:	06150100 	cacop	0x0,$r8,1344(0x540)
     3a4:	000001c7 	0x000001c7
     3a8:	00000363 	0x00000363
     3ac:	00001600 	clz.w	$r0,$r16
     3b0:	00000000 	0x00000000
     3b4:	23010000 	sc.d	$r0,$r0,256(0x100)
     3b8:	03120011 	lu52i.d	$r17,$r0,1152(0x480)
     3bc:	00040000 	alsl.w	$r0,$r0,$r0,0x1
     3c0:	00000158 	0x00000158
     3c4:	4e470104 	jirl	$r4,$r8,-112896(0x24700)
     3c8:	31432055 	vstelm.h	$vr21,$r2,-112(0x190),0x0
     3cc:	2e382037 	0x2e382037
     3d0:	20302e33 	ll.w	$r19,$r17,12332(0x302c)
     3d4:	62616d2d 	blt	$r9,$r13,-106132(0x2616c) # fffe6540 <_stack+0xe3fd25c4>
     3d8:	6c693d69 	bgeu	$r11,$r9,26940(0x693c) # 6d14 <data_size+0x62f8>
     3dc:	73323370 	0x73323370
     3e0:	616d2d20 	blt	$r9,$r0,93484(0x16d2c) # 1710c <data_size+0x166f0>
     3e4:	3d686372 	0x3d686372
     3e8:	6e6f6f6c 	bgeu	$r27,$r12,-102548(0x26f6c) # fffe7354 <_stack+0xe3fd33d8>
     3ec:	63726167 	blt	$r11,$r7,-36256(0x37260) # ffff764c <_stack+0xe3fe36d0>
     3f0:	72323368 	0x72323368
     3f4:	666d2d20 	bge	$r9,$r0,-103124(0x26d2c) # fffe7120 <_stack+0xe3fd31a4>
     3f8:	6e3d7570 	bgeu	$r11,$r16,-115340(0x23d74) # fffe416c <_stack+0xe3fd01f0>
     3fc:	20656e6f 	ll.w	$r15,$r19,25964(0x656c)
     400:	6d636d2d 	bgeu	$r9,$r13,90988(0x1636c) # 1676c <data_size+0x15d50>
     404:	6c65646f 	bgeu	$r3,$r15,25956(0x6564) # 6968 <data_size+0x5f4c>
     408:	726f6e3d 	0x726f6e3d
     40c:	206c616d 	ll.w	$r13,$r11,27744(0x6c60)
     410:	75746d2d 	0x75746d2d
     414:	6c3d656e 	bgeu	$r11,$r14,15716(0x3d64) # 4178 <data_size+0x375c>
     418:	676e6f6f 	bge	$r27,$r15,-37268(0x36e6c) # ffff7284 <_stack+0xe3fe3308>
     41c:	68637261 	bltu	$r19,$r1,25456(0x6370) # 678c <data_size+0x5d70>
     420:	20723233 	ll.w	$r19,$r17,29232(0x7230)
     424:	2d20672d 	0x2d20672d
     428:	2d20324f 	0x2d20324f
     42c:	2d6f6e66 	0x2d6f6e66
     430:	6c697562 	bgeu	$r11,$r2,26996(0x6974) # 6da4 <data_size+0x6388>
     434:	206e6974 	ll.w	$r20,$r11,28264(0x6e68)
     438:	6f6e662d 	bgeu	$r17,$r13,-37276(0x36e64) # ffff729c <_stack+0xe3fe3320>
     43c:	6369702d 	blt	$r1,$r13,-38544(0x36970) # ffff6dac <_stack+0xe3fe2e30>
     440:	72700c00 	0x72700c00
     444:	66746e69 	bge	$r19,$r9,-101268(0x2746c) # fffe78b0 <_stack+0xe3fd3934>
     448:	2f00632e 	0x2f00632e
     44c:	656d6f68 	bge	$r27,$r8,93548(0x16d6c) # 171b8 <data_size+0x1679c>
     450:	7477772f 	xvmin.wu	$xr15,$xr25,$xr29
     454:	726f772f 	0x726f772f
     458:	65702f6b 	bge	$r27,$r11,94252(0x1702c) # 17484 <data_size+0x16a68>
     45c:	665f6672 	bge	$r19,$r18,-106652(0x25f64) # fffe63c0 <_stack+0xe3fd2444>
     460:	2f636e75 	0x2f636e75
     464:	0062696c 	bstrins.w	$r12,$r11,0x2,0x1a
     468:	1c002e24 	pcaddu12i	$r4,369(0x171)
     46c:	0000022c 	0x0000022c
     470:	00000518 	0x00000518
     474:	04030402 	csrrd	$r2,0xc1
     478:	736e7507 	vssrarni.du.q	$vr7,$vr8,0x1d
     47c:	656e6769 	bge	$r27,$r9,93796(0x16e64) # 172e0 <data_size+0x168c4>
     480:	6e692064 	bgeu	$r3,$r4,-104160(0x26920) # fffe6da0 <_stack+0xe3fd2e24>
     484:	04030074 	csrxchg	$r20,$r3,0xc0
     488:	6e6f6c07 	bgeu	$r0,$r7,-102548(0x26f6c) # fffe73f4 <_stack+0xe3fd3478>
     48c:	6e752067 	bgeu	$r3,$r7,-101088(0x27520) # fffe79ac <_stack+0xe3fd3a30>
     490:	6e676973 	bgeu	$r11,$r19,-104600(0x26768) # fffe6bf8 <_stack+0xe3fd2c7c>
     494:	69206465 	bltu	$r3,$r5,73828(0x12064) # 124f8 <data_size+0x11adc>
     498:	0400746e 	csrxchg	$r14,$r3,0x1d
     49c:	6e697270 	bgeu	$r19,$r16,-104080(0x26970) # fffe6e0c <_stack+0xe3fd2e90>
     4a0:	01006674 	0x01006674
     4a4:	02d10501 	addi.d	$r1,$r8,1089(0x441)
     4a8:	2e240000 	0x2e240000
     4ac:	022c1c00 	slti	$r0,$r0,-1273(0xb07)
     4b0:	9c010000 	0x9c010000
     4b4:	000002d1 	0x000002d1
     4b8:	746d6605 	0x746d6605
     4bc:	18010100 	pcaddi	$r0,2056(0x808)
     4c0:	000002d8 	0x000002d8
     4c4:	0000038d 	0x0000038d
     4c8:	00690706 	bstrins.w	$r6,$r24,0x9,0x1
     4cc:	d1050301 	0xd1050301
     4d0:	c4000002 	0xc4000002
     4d4:	07000003 	0x07000003
     4d8:	04010063 	csrxchg	$r3,$r3,0x40
     4dc:	0002de06 	0x0002de06
     4e0:	00044300 	alsl.w	$r0,$r24,$r16,0x1
     4e4:	72610700 	0x72610700
     4e8:	05010067 	0x05010067
     4ec:	0002eb08 	0x0002eb08
     4f0:	00046c00 	alsl.w	$r0,$r0,$r27,0x1
     4f4:	70610800 	vabsd.w	$vr0,$vr0,$vr2
     4f8:	07060100 	0x07060100
     4fc:	000000ba 	0x000000ba
     500:	7fbc9103 	0x7fbc9103
     504:	01007707 	0x01007707
     508:	02d10507 	addi.d	$r7,$r8,1089(0x441)
     50c:	04ba0000 	csrrd	$r0,0x2e80
     510:	61090000 	blt	$r0,$r0,67840(0x10900) # 10e10 <data_size+0x103f4>
     514:	6e696167 	bgeu	$r11,$r7,-104096(0x26960) # fffe6e74 <_stack+0xe3fd2ef8>
     518:	01100100 	0x01100100
     51c:	1c002ed0 	pcaddu12i	$r16,374(0x176)
     520:	0000180a 	cto.w	$r10,$r0
     524:	00027900 	0x00027900
     528:	75700b00 	0x75700b00
     52c:	72747374 	0x72747374
     530:	00676e69 	bstrins.w	$r9,$r19,0x7,0x1b
     534:	d1051401 	0xd1051401
     538:	87000002 	0x87000002
     53c:	06000001 	cacop	0x1,$r0,0
     540:	000e0c00 	bytepick.d	$r0,$r0,$r3,0x4
     544:	19010000 	pcaddi	$r0,-522240(0x80800)
     548:	0002d105 	0x0002d105
     54c:	00019900 	asrtgt.d	$r8,$r6
     550:	0b000600 	0x0b000600
     554:	6e697270 	bgeu	$r19,$r16,-104080(0x26970) # fffe6ec4 <_stack+0xe3fd2f48>
     558:	73616274 	vssrani.w.d	$vr20,$vr19,0x18
     55c:	1e010065 	pcaddu18i	$r5,2051(0x803)
     560:	0002d105 	0x0002d105
     564:	0001b100 	asrtgt.d	$r8,$r12
     568:	0d000600 	fsel	$f0,$f16,$f1,$fcc0
     56c:	1c002f74 	pcaddu12i	$r20,379(0x17b)
     570:	000002f1 	0x000002f1
     574:	000001c9 	0x000001c9
     578:	0156010e 	0x0156010e
     57c:	57010e32 	bl	-120913652(0x8cb010c) # f8cb0688 <_stack+0xdcc9c70c>
     580:	0f003001 	0x0f003001
     584:	1c002f90 	pcaddu12i	$r16,380(0x17c)
     588:	000002fd 	0x000002fd
     58c:	002fa40d 	0x002fa40d
     590:	0002f11c 	0x0002f11c
     594:	0001ea00 	asrtgt.d	$r16,$r26
     598:	56010e00 	bl	-134086388(0x802010c) # f80206a4 <_stack+0xdc00c728>
     59c:	010e3a01 	0x010e3a01
     5a0:	00310157 	0x00310157
     5a4:	002fc00d 	0x002fc00d
     5a8:	0002f11c 	0x0002f11c
     5ac:	00020200 	0x00020200
     5b0:	56010e00 	bl	-134086388(0x802010c) # f80206bc <_stack+0xdc00c740>
     5b4:	010e3a01 	0x010e3a01
     5b8:	00300157 	0x00300157
     5bc:	002fdc0d 	0x002fdc0d
     5c0:	0002f11c 	0x0002f11c
     5c4:	00021b00 	0x00021b00
     5c8:	56010e00 	bl	-134086388(0x802010c) # f80206d4 <_stack+0xdc00c758>
     5cc:	0e008b02 	0x0e008b02
     5d0:	30015701 	0x30015701
     5d4:	2ff80d00 	0x2ff80d00
     5d8:	02f11c00 	addi.d	$r0,$r0,-953(0xc47)
     5dc:	02330000 	slti	$r0,$r0,-832(0xcc0)
     5e0:	010e0000 	0x010e0000
     5e4:	0e400156 	0x0e400156
     5e8:	30015701 	0x30015701
     5ec:	30140f00 	vldrepl.d	$vr0,$r24,-2024(0x818)
     5f0:	03091c00 	lu52i.d	$r0,$r0,583(0x247)
     5f4:	280d0000 	ld.b	$r0,$r0,832(0x340)
     5f8:	f11c0030 	0xf11c0030
     5fc:	54000002 	bl	524288(0x80000) # 805fc <data_size+0x7fbe0>
     600:	0e000002 	0x0e000002
     604:	3a015601 	0x3a015601
     608:	0157010e 	0x0157010e
     60c:	3c0d0030 	0x3c0d0030
     610:	fd1c0030 	0xfd1c0030
     614:	68000002 	bltu	$r0,$r2,0 # 614 <data_size-0x408>
     618:	0e000002 	0x0e000002
     61c:	08025401 	0x08025401
     620:	4c100025 	jirl	$r5,$r1,4096(0x1000)
     624:	fd1c0030 	0xfd1c0030
     628:	0e000002 	0x0e000002
     62c:	08025401 	0x08025401
     630:	11000025 	addu16i.d	$r5,$r1,16384(0x4000)
     634:	00000000 	0x00000000
     638:	00000e0c 	0x00000e0c
     63c:	05190100 	0x05190100
     640:	000002d1 	0x000002d1
     644:	00000290 	0x00000290
     648:	b0120006 	0xb0120006
     64c:	141c002e 	lu12i.w	$r14,57345(0xe001)
     650:	bf000000 	0xbf000000
     654:	0c000002 	0x0c000002
     658:	0000000e 	0x0000000e
     65c:	d1051901 	0xd1051901
     660:	af000002 	0xaf000002
     664:	06000002 	cacop	0x2,$r0,0
     668:	2eb81000 	0x2eb81000
     66c:	02fd1c00 	addi.d	$r0,$r0,-185(0xf47)
     670:	010e0000 	0x010e0000
     674:	003d0154 	0x003d0154
     678:	2e901000 	0x2e901000
     67c:	02fd1c00 	addi.d	$r0,$r0,-185(0xf47)
     680:	010e0000 	0x010e0000
     684:	00870254 	bstrins.d	$r20,$r18,0x7,0x0
     688:	03000000 	lu52i.d	$r0,$r0,0
     68c:	6e690504 	bgeu	$r8,$r4,-104188(0x26904) # fffe6f90 <_stack+0xe3fd3014>
     690:	04130074 	csrxchg	$r20,$r3,0x4c0
     694:	000002e6 	0x000002e6
     698:	63060103 	blt	$r8,$r3,-64000(0x30600) # ffff0c98 <_stack+0xe3fdcd1c>
     69c:	00726168 	bstrins.w	$r8,$r11,0x12,0x18
     6a0:	0002de14 	0x0002de14
     6a4:	ba041300 	0xba041300
     6a8:	15000000 	lu12i.w	$r0,-524288(0x80000)
     6ac:	00000020 	0x00000020
     6b0:	00000020 	0x00000020
     6b4:	15051e01 	lu12i.w	$r1,-513808(0x828f0)
     6b8:	0000000e 	0x0000000e
     6bc:	0000000e 	0x0000000e
     6c0:	15051901 	lu12i.w	$r1,-513848(0x828c8)
     6c4:	00000016 	0x00000016
     6c8:	00000016 	0x00000016
     6cc:	00051401 	alsl.w	$r1,$r0,$r5,0x3
     6d0:	0000016c 	0x0000016c
     6d4:	027a0004 	sltui	$r4,$r0,-384(0xe80)
     6d8:	01040000 	0x01040000
     6dc:	20554e47 	ll.w	$r7,$r18,21836(0x554c)
     6e0:	20373143 	ll.w	$r3,$r10,14128(0x3730)
     6e4:	2e332e38 	0x2e332e38
     6e8:	6d2d2030 	bgeu	$r1,$r16,77088(0x12d20) # 13408 <data_size+0x129ec>
     6ec:	3d696261 	0x3d696261
     6f0:	33706c69 	xvstelm.h	$xr9,$r3,54(0x36),0xc
     6f4:	2d207332 	0x2d207332
     6f8:	6372616d 	blt	$r11,$r13,-36256(0x37260) # ffff7958 <_stack+0xe3fe39dc>
     6fc:	6f6c3d68 	bgeu	$r11,$r8,-37828(0x36c3c) # ffff7338 <_stack+0xe3fe33bc>
     700:	61676e6f 	blt	$r19,$r15,92012(0x1676c) # 16e6c <data_size+0x16450>
     704:	33686372 	xvstelm.h	$xr18,$r27,48(0x30),0xa
     708:	2d207232 	0x2d207232
     70c:	7570666d 	0x7570666d
     710:	6e6f6e3d 	bgeu	$r17,$r29,-102548(0x26f6c) # fffe767c <_stack+0xe3fd3700>
     714:	6d2d2065 	bgeu	$r3,$r5,77088(0x12d20) # 13434 <data_size+0x12a18>
     718:	646f6d63 	bge	$r11,$r3,28524(0x6f6c) # 7684 <data_size+0x6c68>
     71c:	6e3d6c65 	bgeu	$r3,$r5,-115348(0x23d6c) # fffe4488 <_stack+0xe3fd050c>
     720:	616d726f 	blt	$r19,$r15,93552(0x16d70) # 17490 <data_size+0x16a74>
     724:	6d2d206c 	bgeu	$r3,$r12,77088(0x12d20) # 13444 <data_size+0x12a28>
     728:	656e7574 	bge	$r11,$r20,93812(0x16e74) # 1759c <data_size+0x16b80>
     72c:	6f6f6c3d 	bgeu	$r1,$r29,-37012(0x36f6c) # ffff7698 <_stack+0xe3fe371c>
     730:	7261676e 	0x7261676e
     734:	32336863 	0x32336863
     738:	672d2072 	bge	$r3,$r18,-53984(0x32d20) # ffff3458 <_stack+0xe3fdf4dc>
     73c:	324f2d20 	xvldrepl.h	$xr0,$r9,1942(0x796)
     740:	6e662d20 	bgeu	$r9,$r0,-104916(0x2662c) # fffe6d6c <_stack+0xe3fd2df0>
     744:	75622d6f 	0x75622d6f
     748:	69746c69 	bltu	$r3,$r9,95340(0x1746c) # 17bb4 <data_size+0x17198>
     74c:	662d206e 	bge	$r3,$r14,-119520(0x22d20) # fffe346c <_stack+0xe3fcf4f0>
     750:	702d6f6e 	0x702d6f6e
     754:	0c006369 	0x0c006369
     758:	63747570 	blt	$r11,$r16,-35724(0x37474) # ffff7bcc <_stack+0xe3fe3c50>
     75c:	2e726168 	0x2e726168
     760:	682f0063 	bltu	$r3,$r3,12032(0x2f00) # 3660 <data_size+0x2c44>
     764:	2f656d6f 	0x2f656d6f
     768:	2f747777 	0x2f747777
     76c:	6b726f77 	bltu	$r27,$r23,-36244(0x3726c) # ffff79d8 <_stack+0xe3fe3a5c>
     770:	7265702f 	0x7265702f
     774:	75665f66 	0x75665f66
     778:	6c2f636e 	bgeu	$r27,$r14,12128(0x2f60) # 36d8 <data_size+0x2cbc>
     77c:	50006269 	b	-106692512(0x9a40060) # f9a407dc <_stack+0xdda2c860>
     780:	4c1c0030 	jirl	$r16,$r1,7168(0x1c00)
     784:	8d000000 	0x8d000000
     788:	02000009 	slti	$r9,$r0,0
     78c:	6e750704 	bgeu	$r24,$r4,-101116(0x27504) # fffe7c90 <_stack+0xe3fd3d14>
     790:	6e676973 	bgeu	$r11,$r19,-104600(0x26768) # fffe6ef8 <_stack+0xe3fd2f7c>
     794:	69206465 	bltu	$r3,$r5,73828(0x12064) # 127f8 <data_size+0x11ddc>
     798:	0200746e 	slti	$r14,$r3,29(0x1d)
     79c:	6f6c0704 	bgeu	$r24,$r4,-37884(0x36c04) # ffff73a0 <_stack+0xe3fe3424>
     7a0:	7520676e 	xvpickod.b	$xr14,$xr27,$xr25
     7a4:	6769736e 	bge	$r27,$r14,-38544(0x36970) # ffff7114 <_stack+0xe3fe3198>
     7a8:	2064656e 	ll.w	$r14,$r11,25700(0x6464)
     7ac:	00746e69 	bstrins.w	$r9,$r19,0x14,0x1b
     7b0:	00002a03 	cto.d	$r3,$r16
     7b4:	06070100 	cacop	0x0,$r8,448(0x1c0)
     7b8:	0000f801 	0x0000f801
     7bc:	00630400 	bstrins.w	$r0,$r0,0x3,0x1
     7c0:	f8060701 	0xf8060701
     7c4:	00000000 	0x00000000
     7c8:	69050402 	bltu	$r0,$r2,66820(0x10504) # 10ccc <data_size+0x102b0>
     7cc:	0500746e 	0x0500746e
     7d0:	63747570 	blt	$r11,$r16,-35724(0x37474) # ffff7c44 <_stack+0xe3fe3cc8>
     7d4:	00726168 	bstrins.w	$r8,$r11,0x12,0x18
     7d8:	f8050101 	0xf8050101
     7dc:	50000000 	b	0 # 7dc <data_size-0x240>
     7e0:	281c0030 	ld.b	$r16,$r1,1792(0x700)
     7e4:	01000000 	0x01000000
     7e8:	0001589c 	0x0001589c
     7ec:	00630600 	bstrins.w	$r0,$r16,0x3,0x1
     7f0:	f8110101 	0xf8110101
     7f4:	5d000000 	bne	$r0,$r0,65536(0x10000) # 107f4 <data_size+0xfdd8>
     7f8:	07000005 	0x07000005
     7fc:	0000002a 	0x0000002a
     800:	f8010301 	0xf8010301
     804:	3d000000 	0x3d000000
     808:	08000001 	0x08000001
     80c:	00e00900 	bstrpick.d	$r0,$r8,0x20,0x2
     810:	30500000 	vldrepl.h	$vr0,$r0,-2048(0x800)
     814:	00301c00 	0x00301c00
     818:	03010000 	lu52i.d	$r0,$r0,64(0x40)
     81c:	00ed0a01 	bstrpick.d	$r1,$r16,0x2d,0x2
     820:	057e0000 	0x057e0000
     824:	00000000 	0x00000000
     828:	0000e00b 	0x0000e00b
     82c:	00307800 	0x00307800
     830:	0000241c 	clz.d	$r28,$r0
     834:	0c9c0100 	xvfcmp.cune.s	$xr0,$xr8,$xr0
     838:	000000ed 	0x000000ed
     83c:	00005401 	bitrev.d	$r1,$r0
     840:	00000216 	0x00000216
     844:	03370004 	lu52i.d	$r4,$r0,-576(0xdc0)
     848:	01040000 	0x01040000
     84c:	20554e47 	ll.w	$r7,$r18,21836(0x554c)
     850:	20373143 	ll.w	$r3,$r10,14128(0x3730)
     854:	2e332e38 	0x2e332e38
     858:	6d2d2030 	bgeu	$r1,$r16,77088(0x12d20) # 13578 <data_size+0x12b5c>
     85c:	3d696261 	0x3d696261
     860:	33706c69 	xvstelm.h	$xr9,$r3,54(0x36),0xc
     864:	2d207332 	0x2d207332
     868:	6372616d 	blt	$r11,$r13,-36256(0x37260) # ffff7ac8 <_stack+0xe3fe3b4c>
     86c:	6f6c3d68 	bgeu	$r11,$r8,-37828(0x36c3c) # ffff74a8 <_stack+0xe3fe352c>
     870:	61676e6f 	blt	$r19,$r15,92012(0x1676c) # 16fdc <data_size+0x165c0>
     874:	33686372 	xvstelm.h	$xr18,$r27,48(0x30),0xa
     878:	2d207232 	0x2d207232
     87c:	7570666d 	0x7570666d
     880:	6e6f6e3d 	bgeu	$r17,$r29,-102548(0x26f6c) # fffe77ec <_stack+0xe3fd3870>
     884:	6d2d2065 	bgeu	$r3,$r5,77088(0x12d20) # 135a4 <data_size+0x12b88>
     888:	646f6d63 	bge	$r11,$r3,28524(0x6f6c) # 77f4 <data_size+0x6dd8>
     88c:	6e3d6c65 	bgeu	$r3,$r5,-115348(0x23d6c) # fffe45f8 <_stack+0xe3fd067c>
     890:	616d726f 	blt	$r19,$r15,93552(0x16d70) # 17600 <data_size+0x16be4>
     894:	6d2d206c 	bgeu	$r3,$r12,77088(0x12d20) # 135b4 <data_size+0x12b98>
     898:	656e7574 	bge	$r11,$r20,93812(0x16e74) # 1770c <data_size+0x16cf0>
     89c:	6f6f6c3d 	bgeu	$r1,$r29,-37012(0x36f6c) # ffff7808 <_stack+0xe3fe388c>
     8a0:	7261676e 	0x7261676e
     8a4:	32336863 	0x32336863
     8a8:	672d2072 	bge	$r3,$r18,-53984(0x32d20) # ffff35c8 <_stack+0xe3fdf64c>
     8ac:	324f2d20 	xvldrepl.h	$xr0,$r9,1942(0x796)
     8b0:	6e662d20 	bgeu	$r9,$r0,-104916(0x2662c) # fffe6edc <_stack+0xe3fd2f60>
     8b4:	75622d6f 	0x75622d6f
     8b8:	69746c69 	bltu	$r3,$r9,95340(0x1746c) # 17d24 <data_size+0x17308>
     8bc:	662d206e 	bge	$r3,$r14,-119520(0x22d20) # fffe35dc <_stack+0xe3fcf660>
     8c0:	702d6f6e 	0x702d6f6e
     8c4:	0c006369 	0x0c006369
     8c8:	73747570 	0x73747570
     8cc:	2f00632e 	0x2f00632e
     8d0:	656d6f68 	bge	$r27,$r8,93548(0x16d6c) # 1763c <data_size+0x16c20>
     8d4:	7477772f 	xvmin.wu	$xr15,$xr25,$xr29
     8d8:	726f772f 	0x726f772f
     8dc:	65702f6b 	bge	$r27,$r11,94252(0x1702c) # 17908 <data_size+0x16eec>
     8e0:	665f6672 	bge	$r19,$r18,-106652(0x25f64) # fffe6844 <_stack+0xe3fd28c8>
     8e4:	2f636e75 	0x2f636e75
     8e8:	0062696c 	bstrins.w	$r12,$r11,0x2,0x1a
     8ec:	1c00309c 	pcaddu12i	$r28,388(0x184)
     8f0:	000000a0 	0x000000a0
     8f4:	00000a3f 	0x00000a3f
     8f8:	75070402 	xvssran.hu.w	$xr2,$xr0,$xr1
     8fc:	6769736e 	bge	$r27,$r14,-38544(0x36970) # ffff726c <_stack+0xe3fe32f0>
     900:	2064656e 	ll.w	$r14,$r11,25700(0x6464)
     904:	00746e69 	bstrins.w	$r9,$r19,0x14,0x1b
     908:	6c070402 	bgeu	$r0,$r2,1796(0x704) # 100c <data_size+0x5f0>
     90c:	20676e6f 	ll.w	$r15,$r19,26476(0x676c)
     910:	69736e75 	bltu	$r19,$r21,95084(0x1736c) # 17c7c <data_size+0x17260>
     914:	64656e67 	bge	$r19,$r7,25964(0x656c) # 6e80 <data_size+0x6464>
     918:	746e6920 	0x746e6920
     91c:	75700300 	0x75700300
     920:	01007374 	0x01007374
     924:	0150050e 	0x0150050e
     928:	31100000 	vstelm.d	$vr0,$r0,0,0x0
     92c:	002c1c00 	alsl.d	$r0,$r0,$r7,0x1
     930:	9c010000 	0x9c010000
     934:	00000150 	0x00000150
     938:	01007304 	0x01007304
     93c:	0157100e 	0x0157100e
     940:	05910000 	0x05910000
     944:	36050000 	0x36050000
     948:	01000000 	0x01000000
     94c:	01501006 	0x01501006
     950:	01180000 	0x01180000
     954:	00060000 	alsl.wu	$r0,$r0,$r0,0x1
     958:	00311c07 	0x00311c07
     95c:	0001651c 	0x0001651c
     960:	00012d00 	asrtle.d	$r8,$r11
     964:	54010800 	bl	264(0x108) # a6c <data_size+0x50>
     968:	5401f303 	bl	-66321936(0xc0c01f0) # fc0c0b58 <_stack+0xe00acbdc>
     96c:	31240700 	vstelm.w	$vr0,$r24,4(0x4),0x1
     970:	020d1c00 	slti	$r0,$r0,839(0x347)
     974:	01400000 	0x01400000
     978:	01080000 	0x01080000
     97c:	003d0154 	0x003d0154
     980:	00312c09 	0x00312c09
     984:	00020d1c 	0x00020d1c
     988:	54010800 	bl	264(0x108) # a90 <data_size+0x74>
     98c:	00003a01 	revb.2w	$r1,$r16
     990:	69050402 	bltu	$r0,$r2,66820(0x10504) # 10e94 <data_size+0x10478>
     994:	0a00746e 	0x0a00746e
     998:	00015d04 	0x00015d04
     99c:	06010200 	cacop	0x0,$r16,64(0x40)
     9a0:	72616863 	0x72616863
     9a4:	75700300 	0x75700300
     9a8:	72747374 	0x72747374
     9ac:	00676e69 	bstrins.w	$r9,$r19,0x7,0x1b
     9b0:	50050101 	b	67372288(0x4040500) # 4040eb0 <data_size+0x4040494>
     9b4:	9c000001 	0x9c000001
     9b8:	741c0030 	0x741c0030
     9bc:	01000000 	0x01000000
     9c0:	00020d9c 	0x00020d9c
     9c4:	00730400 	bstrins.w	$r0,$r0,0x13,0x1
     9c8:	57150101 	bl	67572992(0x4071500) # 4071ec8 <data_size+0x40714ac>
     9cc:	b2000001 	0xb2000001
     9d0:	0b000005 	0x0b000005
     9d4:	03010063 	lu52i.d	$r3,$r3,64(0x40)
     9d8:	00015d06 	0x00015d06
     9dc:	0005f500 	alsl.w	$r0,$r8,$r29,0x4
     9e0:	00480c00 	0x00480c00
     9e4:	36050000 	0x36050000
     9e8:	01000000 	0x01000000
     9ec:	01501006 	0x01501006
     9f0:	01b80000 	0x01b80000
     9f4:	00060000 	alsl.wu	$r0,$r0,$r0,0x1
     9f8:	0030dc0d 	0x0030dc0d
     9fc:	0000081c 	0x0000081c
     a00:	0001e700 	asrtgt.d	$r24,$r25
     a04:	00360500 	0x00360500
     a08:	06010000 	cacop	0x0,$r0,64(0x40)
     a0c:	00015010 	0x00015010
     a10:	0001d700 	asrtgt.d	$r24,$r21
     a14:	09000600 	0x09000600
     a18:	1c0030e4 	pcaddu12i	$r4,391(0x187)
     a1c:	0000020d 	0x0000020d
     a20:	01540108 	0x01540108
     a24:	0700003d 	0x0700003d
     a28:	1c0030cc 	pcaddu12i	$r12,390(0x186)
     a2c:	0000020d 	0x0000020d
     a30:	000001fb 	0x000001fb
     a34:	02540108 	sltui	$r8,$r8,1280(0x500)
     a38:	09000087 	0x09000087
     a3c:	1c0030ec 	pcaddu12i	$r12,391(0x187)
     a40:	0000020d 	0x0000020d
     a44:	02540108 	sltui	$r8,$r8,1280(0x500)
     a48:	00000087 	0x00000087
     a4c:	00360e00 	0x00360e00
     a50:	00360000 	0x00360000
     a54:	06010000 	cacop	0x0,$r0,64(0x40)
     a58:	02160010 	slti	$r16,$r0,1408(0x580)
     a5c:	00040000 	alsl.w	$r0,$r0,$r0,0x1
     a60:	00000402 	0x00000402
     a64:	4e470104 	jirl	$r4,$r8,-112896(0x24700)
     a68:	31432055 	vstelm.h	$vr21,$r2,-112(0x190),0x0
     a6c:	2e382037 	0x2e382037
     a70:	20302e33 	ll.w	$r19,$r17,12332(0x302c)
     a74:	62616d2d 	blt	$r9,$r13,-106132(0x2616c) # fffe6be0 <_stack+0xe3fd2c64>
     a78:	6c693d69 	bgeu	$r11,$r9,26940(0x693c) # 73b4 <data_size+0x6998>
     a7c:	73323370 	0x73323370
     a80:	616d2d20 	blt	$r9,$r0,93484(0x16d2c) # 177ac <data_size+0x16d90>
     a84:	3d686372 	0x3d686372
     a88:	6e6f6f6c 	bgeu	$r27,$r12,-102548(0x26f6c) # fffe79f4 <_stack+0xe3fd3a78>
     a8c:	63726167 	blt	$r11,$r7,-36256(0x37260) # ffff7cec <_stack+0xe3fe3d70>
     a90:	72323368 	0x72323368
     a94:	666d2d20 	bge	$r9,$r0,-103124(0x26d2c) # fffe77c0 <_stack+0xe3fd3844>
     a98:	6e3d7570 	bgeu	$r11,$r16,-115340(0x23d74) # fffe480c <_stack+0xe3fd0890>
     a9c:	20656e6f 	ll.w	$r15,$r19,25964(0x656c)
     aa0:	6d636d2d 	bgeu	$r9,$r13,90988(0x1636c) # 16e0c <data_size+0x163f0>
     aa4:	6c65646f 	bgeu	$r3,$r15,25956(0x6564) # 7008 <data_size+0x65ec>
     aa8:	726f6e3d 	0x726f6e3d
     aac:	206c616d 	ll.w	$r13,$r11,27744(0x6c60)
     ab0:	75746d2d 	0x75746d2d
     ab4:	6c3d656e 	bgeu	$r11,$r14,15716(0x3d64) # 4818 <data_size+0x3dfc>
     ab8:	676e6f6f 	bge	$r27,$r15,-37268(0x36e6c) # ffff7924 <_stack+0xe3fe39a8>
     abc:	68637261 	bltu	$r19,$r1,25456(0x6370) # 6e2c <data_size+0x6410>
     ac0:	20723233 	ll.w	$r19,$r17,29232(0x7230)
     ac4:	2d20672d 	0x2d20672d
     ac8:	2d20324f 	0x2d20324f
     acc:	2d6f6e66 	0x2d6f6e66
     ad0:	6c697562 	bgeu	$r11,$r2,26996(0x6974) # 7444 <data_size+0x6a28>
     ad4:	206e6974 	ll.w	$r20,$r11,28264(0x6e68)
     ad8:	6f6e662d 	bgeu	$r17,$r13,-37276(0x36e64) # ffff793c <_stack+0xe3fe39c0>
     adc:	6369702d 	blt	$r1,$r13,-38544(0x36970) # ffff744c <_stack+0xe3fe34d0>
     ae0:	72700c00 	0x72700c00
     ae4:	62746e69 	blt	$r19,$r9,-101268(0x2746c) # fffe7f50 <_stack+0xe3fd3fd4>
     ae8:	2e657361 	0x2e657361
     aec:	682f0063 	bltu	$r3,$r3,12032(0x2f00) # 39ec <data_size+0x2fd0>
     af0:	2f656d6f 	0x2f656d6f
     af4:	2f747777 	0x2f747777
     af8:	6b726f77 	bltu	$r27,$r23,-36244(0x3726c) # ffff7d64 <_stack+0xe3fe3de8>
     afc:	7265702f 	0x7265702f
     b00:	75665f66 	0x75665f66
     b04:	6c2f636e 	bgeu	$r27,$r14,12128(0x2f60) # 3a64 <data_size+0x3048>
     b08:	3c006269 	0x3c006269
     b0c:	e81c0031 	0xe81c0031
     b10:	a8000000 	0xa8000000
     b14:	0200000b 	slti	$r11,$r0,0
     b18:	6e750704 	bgeu	$r24,$r4,-101116(0x27504) # fffe801c <_stack+0xe3fd40a0>
     b1c:	6e676973 	bgeu	$r11,$r19,-104600(0x26768) # fffe7284 <_stack+0xe3fd3308>
     b20:	69206465 	bltu	$r3,$r5,73828(0x12064) # 12b84 <data_size+0x12168>
     b24:	0200746e 	slti	$r14,$r3,29(0x1d)
     b28:	6f6c0704 	bgeu	$r24,$r4,-37884(0x36c04) # ffff772c <_stack+0xe3fe37b0>
     b2c:	7520676e 	xvpickod.b	$xr14,$xr27,$xr25
     b30:	6769736e 	bge	$r27,$r14,-38544(0x36970) # ffff74a0 <_stack+0xe3fe3524>
     b34:	2064656e 	ll.w	$r14,$r11,25700(0x6464)
     b38:	00746e69 	bstrins.w	$r9,$r19,0x14,0x1b
     b3c:	69727003 	bltu	$r0,$r3,94832(0x17270) # 17dac <data_size+0x17390>
     b40:	6162746e 	blt	$r3,$r14,90740(0x16274) # 16db4 <data_size+0x16398>
     b44:	01006573 	0x01006573
     b48:	01e20501 	0x01e20501
     b4c:	313c0000 	0x313c0000
     b50:	00e81c00 	bstrpick.d	$r0,$r0,0x28,0x7
     b54:	9c010000 	0x9c010000
     b58:	000001e2 	0x000001e2
     b5c:	01007604 	0x01007604
     b60:	01e91401 	0x01e91401
     b64:	06080000 	cacop	0x0,$r0,512(0x200)
     b68:	77040000 	0x77040000
     b6c:	1a010100 	pcalau12i	$r0,2056(0x808)
     b70:	000001e2 	0x000001e2
     b74:	00000658 	0x00000658
     b78:	73616204 	vssrani.w.d	$vr4,$vr16,0x18
     b7c:	01010065 	fadd.d	$f5,$f3,$f0
     b80:	0001e220 	asrtgt.d	$r17,$r24
     b84:	00069c00 	alsl.wu	$r0,$r0,$r7,0x2
     b88:	69730400 	bltu	$r0,$r0,94980(0x17304) # 17e8c <data_size+0x17470>
     b8c:	01006e67 	0x01006e67
     b90:	01e22901 	0x01e22901
     b94:	06e00000 	0x06e00000
     b98:	69050000 	bltu	$r0,$r0,66816(0x10500) # 11098 <data_size+0x1067c>
     b9c:	06030100 	cacop	0x0,$r8,192(0xc0)
     ba0:	000001e2 	0x000001e2
     ba4:	00000725 	0x00000725
     ba8:	01006a05 	0x01006a05
     bac:	01e20803 	0x01e20803
     bb0:	07780000 	0x07780000
     bb4:	63050000 	blt	$r0,$r0,-64256(0x30500) # ffff10b4 <_stack+0xe3fdd138>
     bb8:	06040100 	cacop	0x0,$r8,256(0x100)
     bbc:	000001e2 	0x000001e2
     bc0:	000007c5 	0x000007c5
     bc4:	66756206 	bge	$r16,$r6,-101024(0x27560) # fffe8124 <_stack+0xe3fd41a8>
     bc8:	07050100 	0x07050100
     bcc:	000001f5 	0x000001f5
     bd0:	7fb09103 	0x7fb09103
     bd4:	6c617605 	bgeu	$r16,$r5,24948(0x6174) # 6d48 <data_size+0x632c>
     bd8:	01006575 	0x01006575
     bdc:	00cd1006 	bstrpick.d	$r6,$r0,0xd,0x4
     be0:	07d80000 	0x07d80000
     be4:	f8070000 	0xf8070000
     be8:	201c0031 	ll.w	$r17,$r1,7168(0x1c00)
     bec:	bc000000 	0xbc000000
     bf0:	08000001 	0x08000001
     bf4:	0000003e 	0x0000003e
     bf8:	e2020a01 	0xe2020a01
     bfc:	ab000001 	0xab000001
     c00:	09000001 	0x09000001
     c04:	32080a00 	0x32080a00
     c08:	020d1c00 	slti	$r0,$r0,839(0x347)
     c0c:	010b0000 	fmin.d	$f0,$f0,$f0
     c10:	2d080254 	0x2d080254
     c14:	a40c0000 	0xa40c0000
     c18:	2c1c0031 	vld	$vr17,$r1,1792(0x700)
     c1c:	08000000 	0x08000000
     c20:	0000003e 	0x0000003e
     c24:	e2020a01 	0xe2020a01
     c28:	d7000001 	0xd7000001
     c2c:	09000001 	0x09000001
     c30:	31d00d00 	0x31d00d00
     c34:	020d1c00 	slti	$r0,$r0,839(0x347)
     c38:	00000000 	0x00000000
     c3c:	69050402 	bltu	$r0,$r2,66820(0x10504) # 11140 <data_size+0x10724>
     c40:	0200746e 	slti	$r14,$r3,29(0x1d)
     c44:	6f6c0504 	bgeu	$r8,$r4,-37884(0x36c04) # ffff7848 <_stack+0xe3fe38cc>
     c48:	6920676e 	bltu	$r27,$r14,73828(0x12064) # 12cac <data_size+0x12290>
     c4c:	0e00746e 	0x0e00746e
     c50:	00000205 	0x00000205
     c54:	00000205 	0x00000205
     c58:	0000bd0f 	0x0000bd0f
     c5c:	02003f00 	slti	$r0,$r24,15(0xf)
     c60:	68630601 	bltu	$r16,$r1,25348(0x6304) # 6f64 <data_size+0x6548>
     c64:	10007261 	addu16i.d	$r1,$r19,28(0x1c)
     c68:	0000003e 	0x0000003e
     c6c:	0000003e 	0x0000003e
     c70:	00020a01 	0x00020a01
     c74:	0000051f 	0x0000051f
     c78:	04e70004 	csrrd	$r4,0x39c0
     c7c:	01040000 	0x01040000
     c80:	20554e47 	ll.w	$r7,$r18,21836(0x554c)
     c84:	20373143 	ll.w	$r3,$r10,14128(0x3730)
     c88:	2e332e38 	0x2e332e38
     c8c:	6d2d2030 	bgeu	$r1,$r16,77088(0x12d20) # 139ac <data_size+0x12f90>
     c90:	3d696261 	0x3d696261
     c94:	33706c69 	xvstelm.h	$xr9,$r3,54(0x36),0xc
     c98:	2d207332 	0x2d207332
     c9c:	6372616d 	blt	$r11,$r13,-36256(0x37260) # ffff7efc <_stack+0xe3fe3f80>
     ca0:	6f6c3d68 	bgeu	$r11,$r8,-37828(0x36c3c) # ffff78dc <_stack+0xe3fe3960>
     ca4:	61676e6f 	blt	$r19,$r15,92012(0x1676c) # 17410 <data_size+0x169f4>
     ca8:	33686372 	xvstelm.h	$xr18,$r27,48(0x30),0xa
     cac:	2d207232 	0x2d207232
     cb0:	7570666d 	0x7570666d
     cb4:	6e6f6e3d 	bgeu	$r17,$r29,-102548(0x26f6c) # fffe7c20 <_stack+0xe3fd3ca4>
     cb8:	6d2d2065 	bgeu	$r3,$r5,77088(0x12d20) # 139d8 <data_size+0x12fbc>
     cbc:	646f6d63 	bge	$r11,$r3,28524(0x6f6c) # 7c28 <data_size+0x720c>
     cc0:	6e3d6c65 	bgeu	$r3,$r5,-115348(0x23d6c) # fffe4a2c <_stack+0xe3fd0ab0>
     cc4:	616d726f 	blt	$r19,$r15,93552(0x16d70) # 17a34 <data_size+0x17018>
     cc8:	6d2d206c 	bgeu	$r3,$r12,77088(0x12d20) # 139e8 <data_size+0x12fcc>
     ccc:	656e7574 	bge	$r11,$r20,93812(0x16e74) # 17b40 <data_size+0x17124>
     cd0:	6f6f6c3d 	bgeu	$r1,$r29,-37012(0x36f6c) # ffff7c3c <_stack+0xe3fe3cc0>
     cd4:	7261676e 	0x7261676e
     cd8:	32336863 	0x32336863
     cdc:	672d2072 	bge	$r3,$r18,-53984(0x32d20) # ffff39fc <_stack+0xe3fdfa80>
     ce0:	324f2d20 	xvldrepl.h	$xr0,$r9,1942(0x796)
     ce4:	6e662d20 	bgeu	$r9,$r0,-104916(0x2662c) # fffe7310 <_stack+0xe3fd3394>
     ce8:	75622d6f 	0x75622d6f
     cec:	69746c69 	bltu	$r3,$r9,95340(0x1746c) # 18158 <data_size+0x1773c>
     cf0:	662d206e 	bge	$r3,$r14,-119520(0x22d20) # fffe3a10 <_stack+0xe3fcfa94>
     cf4:	702d6f6e 	0x702d6f6e
     cf8:	0c006369 	0x0c006369
     cfc:	69727473 	bltu	$r3,$r19,94836(0x17274) # 17f70 <data_size+0x17554>
     d00:	632e676e 	blt	$r27,$r14,-53660(0x32e64) # ffff3b64 <_stack+0xe3fdfbe8>
     d04:	6f682f00 	bgeu	$r24,$r0,-38868(0x3682c) # ffff7530 <_stack+0xe3fe35b4>
     d08:	772f656d 	0x772f656d
     d0c:	772f7477 	0x772f7477
     d10:	2f6b726f 	0x2f6b726f
     d14:	66726570 	bge	$r11,$r16,-101788(0x27264) # fffe7f78 <_stack+0xe3fd3ffc>
     d18:	6e75665f 	bgeu	$r18,$r31,-101020(0x27564) # fffe827c <_stack+0xe3fd4300>
     d1c:	696c2f63 	bltu	$r27,$r3,93228(0x16c2c) # 17948 <data_size+0x16f2c>
     d20:	00600062 	bstrins.w	$r2,$r3,0x0,0x0
     d24:	00000000 	0x00000000
     d28:	0d6b0000 	xvshuf.b	$xr0,$xr0,$xr0,$xr22
     d2c:	04020000 	csrrd	$r0,0x80
     d30:	75070403 	xvssran.hu.w	$xr3,$xr0,$xr1
     d34:	6769736e 	bge	$r27,$r14,-38544(0x36970) # ffff76a4 <_stack+0xe3fe3728>
     d38:	2064656e 	ll.w	$r14,$r11,25700(0x6464)
     d3c:	00746e69 	bstrins.w	$r9,$r19,0x14,0x1b
     d40:	6c070403 	bgeu	$r0,$r3,1796(0x704) # 1444 <data_size+0xa28>
     d44:	20676e6f 	ll.w	$r15,$r19,26476(0x676c)
     d48:	69736e75 	bltu	$r19,$r21,95084(0x1736c) # 180b4 <data_size+0x17698>
     d4c:	64656e67 	bge	$r19,$r7,25964(0x656c) # 72b8 <data_size+0x689c>
     d50:	746e6920 	0x746e6920
     d54:	69730400 	bltu	$r0,$r0,94980(0x17304) # 18058 <data_size+0x1763c>
     d58:	745f657a 	0x745f657a
     d5c:	160f0200 	lu32i.d	$r0,30736(0x7810)
     d60:	000000bc 	0x000000bc
     d64:	657a6205 	bge	$r16,$r5,96864(0x17a60) # 187c4 <data_size+0x17da8>
     d68:	01006f72 	0x01006f72
     d6c:	7c060157 	0x7c060157
     d70:	181c0034 	pcaddi	$r20,57345(0xe001)
     d74:	01000000 	0x01000000
     d78:	0001639c 	0x0001639c
     d7c:	00730600 	bstrins.w	$r0,$r16,0x13,0x1
     d80:	12015701 	addu16i.d	$r1,$r24,-32683(0x8055)
     d84:	000000ba 	0x000000ba
     d88:	00000838 	0x00000838
     d8c:	01006e06 	0x01006e06
     d90:	e11c0157 	0xe11c0157
     d94:	59000000 	beq	$r0,$r0,65536(0x10000) # 10d94 <data_size+0x10378>
     d98:	07000008 	0x07000008
     d9c:	000002cd 	0x000002cd
     da0:	1c00347c 	pcaddu12i	$r28,419(0x1a3)
     da4:	00000014 	0x00000014
     da8:	02015801 	slti	$r1,$r0,86(0x56)
     dac:	0002f508 	0x0002f508
     db0:	00087a00 	bytepick.w	$r0,$r16,$r30,0x0
     db4:	02eb0900 	addi.d	$r0,$r8,-1342(0xac2)
     db8:	08000000 	0x08000000
     dbc:	000002e1 	0x000002e1
     dc0:	0000089f 	0x0000089f
     dc4:	00347c0a 	0x00347c0a
     dc8:	0000141c 	clz.w	$r28,$r0
     dcc:	02ff0b00 	addi.d	$r0,$r24,-62(0xfc2)
     dd0:	54010000 	bl	256(0x100) # ed0 <data_size+0x4b4>
     dd4:	0c000000 	0x0c000000
     dd8:	636d656d 	blt	$r11,$r13,-37532(0x36d64) # ffff7b3c <_stack+0xe3fe3bc0>
     ddc:	0100706d 	0x0100706d
     de0:	cf01014b 	0xcf01014b
     de4:	24000001 	ldptr.w	$r1,$r0,0
     de8:	581c0034 	beq	$r1,$r20,7168(0x1c00) # 29e8 <data_size+0x1fcc>
     dec:	01000000 	0x01000000
     df0:	0001cf9c 	0x0001cf9c
     df4:	31760600 	0x31760600
     df8:	014b0100 	0x014b0100
     dfc:	0001d614 	0x0001d614
     e00:	0008c000 	bytepick.w	$r0,$r0,$r16,0x1
     e04:	32760600 	0x32760600
     e08:	014b0100 	0x014b0100
     e0c:	0001d624 	0x0001d624
     e10:	0008e100 	bytepick.w	$r0,$r8,$r24,0x1
     e14:	006e0600 	bstrins.w	$r0,$r16,0xe,0x1
     e18:	2f014b01 	0x2f014b01
     e1c:	000000e1 	0x000000e1
     e20:	00000902 	0x00000902
     e24:	0031730d 	0x0031730d
     e28:	11014c01 	addu16i.d	$r1,$r0,16467(0x4053)
     e2c:	000001dd 	0x000001dd
     e30:	00000932 	0x00000932
     e34:	0032730e 	0x0032730e
     e38:	11014d01 	addu16i.d	$r1,$r8,16467(0x4053)
     e3c:	000001dd 	0x000001dd
     e40:	03005501 	lu52i.d	$r1,$r8,21(0x15)
     e44:	6e690504 	bgeu	$r8,$r4,-104188(0x26904) # fffe7748 <_stack+0xe3fd37cc>
     e48:	040f0074 	csrxchg	$r20,$r3,0x3c0
     e4c:	000001dc 	0x000001dc
     e50:	eb040f10 	0xeb040f10
     e54:	03000001 	lu52i.d	$r1,$r0,0
     e58:	68630601 	bltu	$r16,$r1,25348(0x6304) # 715c <data_size+0x6740>
     e5c:	11007261 	addu16i.d	$r1,$r19,16412(0x401c)
     e60:	000001e3 	0x000001e3
     e64:	6d656d0c 	bgeu	$r8,$r12,91500(0x1656c) # 173d0 <data_size+0x169b4>
     e68:	65766f6d 	bge	$r27,$r13,95852(0x1766c) # 184d4 <data_size+0x17ab8>
     e6c:	01280100 	0x01280100
     e70:	0000ba01 	0x0000ba01
     e74:	0033d000 	0x0033d000
     e78:	0000541c 	bitrev.d	$r28,$r0
     e7c:	5d9c0100 	bne	$r8,$r0,105472(0x19c00) # 1aa7c <data_size+0x1a060>
     e80:	12000002 	addu16i.d	$r2,$r0,-32768(0x8000)
     e84:	00747364 	bstrins.w	$r4,$r27,0x14,0x1c
     e88:	0f012801 	0x0f012801
     e8c:	000000ba 	0x000000ba
     e90:	73065401 	0x73065401
     e94:	01006372 	0x01006372
     e98:	d6200128 	0xd6200128
     e9c:	50000001 	b	262144(0x40000) # 40e9c <data_size+0x40480>
     ea0:	06000009 	cacop	0x9,$r0,0
     ea4:	2801006e 	ld.b	$r14,$r3,64(0x40)
     ea8:	00e12c01 	bstrpick.d	$r1,$r0,0x21,0xb
     eac:	097c0000 	0x097c0000
     eb0:	730d0000 	vextl.qu.du	$vr0,$vr0
     eb4:	012c0100 	0x012c0100
     eb8:	0001dd11 	0x0001dd11
     ebc:	0009a900 	bytepick.w	$r0,$r8,$r10,0x3
     ec0:	00640d00 	bstrins.w	$r0,$r8,0x4,0x3
     ec4:	0b012d01 	0x0b012d01
     ec8:	0000025d 	0x0000025d
     ecc:	000009dd 	0x000009dd
     ed0:	e3040f00 	0xe3040f00
     ed4:	0c000001 	0x0c000001
     ed8:	636d656d 	blt	$r11,$r13,-37532(0x36d64) # ffff7c3c <_stack+0xe3fe3cc0>
     edc:	01007970 	0x01007970
     ee0:	ba010111 	0xba010111
     ee4:	ac000000 	0xac000000
     ee8:	241c0033 	ldptr.w	$r19,$r1,7168(0x1c00)
     eec:	01000000 	0x01000000
     ef0:	0002cd9c 	0x0002cd9c
     ef4:	73641200 	0x73641200
     ef8:	11010074 	addu16i.d	$r20,$r3,16448(0x4040)
     efc:	00ba0e01 	bstrins.d	$r1,$r16,0x3a,0x3
     f00:	54010000 	bl	256(0x100) # 1000 <data_size+0x5e4>
     f04:	63727306 	blt	$r24,$r6,-36240(0x37270) # ffff8174 <_stack+0xe3fe41f8>
     f08:	01110100 	fscaleb.d	$f0,$f8,$f0
     f0c:	0001d61f 	0x0001d61f
     f10:	000a1c00 	0x000a1c00
     f14:	006e0600 	bstrins.w	$r0,$r16,0xe,0x1
     f18:	2b011101 	fld.s	$f1,$r8,68(0x44)
     f1c:	000000e1 	0x000000e1
     f20:	00000a3d 	0x00000a3d
     f24:	0100730e 	0x0100730e
     f28:	dd110115 	0xdd110115
     f2c:	01000001 	0x01000001
     f30:	00640d55 	bstrins.w	$r21,$r10,0x4,0x3
     f34:	0b011601 	0x0b011601
     f38:	0000025d 	0x0000025d
     f3c:	00000a6d 	0x00000a6d
     f40:	656d1300 	bge	$r24,$r0,93456(0x16d10) # 17c50 <data_size+0x17234>
     f44:	7465736d 	xvavg.w	$xr13,$xr27,$xr28
     f48:	01f60100 	0x01f60100
     f4c:	000000ba 	0x000000ba
     f50:	00030a01 	0x00030a01
     f54:	00731400 	bstrins.w	$r0,$r0,0x13,0x5
     f58:	ba0ef601 	0xba0ef601
     f5c:	14000000 	lu12i.w	$r0,0
     f60:	f6010063 	0xf6010063
     f64:	0001e316 	0x0001e316
     f68:	006e1400 	bstrins.w	$r0,$r0,0xe,0x5
     f6c:	e120f601 	0xe120f601
     f70:	15000000 	lu12i.w	$r0,-524288(0x80000)
     f74:	fa010070 	0xfa010070
     f78:	00025d0b 	0x00025d0b
     f7c:	73160000 	0x73160000
     f80:	69667274 	bltu	$r19,$r20,91760(0x16670) # 175f0 <data_size+0x16bd4>
     f84:	0100646e 	0x0100646e
     f88:	025d0188 	sltui	$r8,$r12,1856(0x740)
     f8c:	33680000 	xvstelm.h	$xr0,$r0,0,0xa
     f90:	00281c00 	0x00281c00
     f94:	9c010000 	0x9c010000
     f98:	00000343 	0x00000343
     f9c:	01007317 	0x01007317
     fa0:	01dd1588 	0x01dd1588
     fa4:	0a8b0000 	0x0a8b0000
     fa8:	63180000 	blt	$r0,$r0,-59392(0x31800) # ffff27a8 <_stack+0xe3fde82c>
     fac:	1d880100 	pcaddu12i	$r0,-245752(0xc4008)
     fb0:	000001e3 	0x000001e3
     fb4:	16005501 	lu32i.d	$r1,680(0x2a8)
     fb8:	63727473 	blt	$r3,$r19,-36236(0x37274) # ffff822c <_stack+0xe3fe42b0>
     fbc:	01007268 	0x01007268
     fc0:	025d0174 	sltui	$r20,$r11,1856(0x740)
     fc4:	333c0000 	xvstelm.w	$xr0,$r0,0,0x7
     fc8:	002c1c00 	alsl.d	$r0,$r0,$r7,0x1
     fcc:	9c010000 	0x9c010000
     fd0:	0000037b 	0x0000037b
     fd4:	01007317 	0x01007317
     fd8:	01dd1474 	0x01dd1474
     fdc:	0aa90000 	xvfnmadd.d	$xr0,$xr0,$xr0,$xr18
     fe0:	63180000 	blt	$r0,$r0,-59392(0x31800) # ffff27e0 <_stack+0xe3fde864>
     fe4:	1c740100 	pcaddu12i	$r0,237576(0x3a008)
     fe8:	000001e3 	0x000001e3
     fec:	16005501 	lu32i.d	$r1,680(0x2a8)
     ff0:	6e727473 	bgeu	$r3,$r19,-101772(0x27274) # fffe8264 <_stack+0xe3fd42e8>
     ff4:	00706d63 	bstrins.w	$r3,$r11,0x10,0x1b
     ff8:	cf016401 	0xcf016401
     ffc:	d4000001 	0xd4000001
    1000:	681c0032 	bltu	$r1,$r18,7168(0x1c00) # 2c00 <data_size+0x21e4>
    1004:	01000000 	0x01000000
    1008:	0003c69c 	0x0003c69c
    100c:	31731700 	0x31731700
    1010:	15640100 	lu12i.w	$r0,-319480(0xb2008)
    1014:	000001dd 	0x000001dd
    1018:	00000ad2 	0x00000ad2
    101c:	00327317 	0x00327317
    1020:	dd256401 	0xdd256401
    1024:	fb000001 	0xfb000001
    1028:	1700000a 	lu32i.d	$r10,-524288(0x80000)
    102c:	6401006e 	bge	$r3,$r14,256(0x100) # 112c <data_size+0x710>
    1030:	0000e130 	0x0000e130
    1034:	000b3a00 	0x000b3a00
    1038:	73160000 	0x73160000
    103c:	636e7274 	blt	$r19,$r20,-37264(0x36e70) # ffff7eac <_stack+0xe3fe3f30>
    1040:	01007970 	0x01007970
    1044:	025d014d 	sltui	$r13,$r10,1856(0x740)
    1048:	32ac0000 	xvldrepl.b	$xr0,$r0,-1280(0xb00)
    104c:	00281c00 	0x00281c00
    1050:	9c010000 	0x9c010000
    1054:	00000421 	0x00000421
    1058:	74736418 	xvmin.w	$xr24,$xr0,$xr25
    105c:	0f4d0100 	0x0f4d0100
    1060:	0000025d 	0x0000025d
    1064:	73175401 	0x73175401
    1068:	01006372 	0x01006372
    106c:	01dd204d 	0x01dd204d
    1070:	0b7b0000 	0x0b7b0000
    1074:	6c170000 	bgeu	$r0,$r0,5888(0x1700) # 2774 <data_size+0x1d58>
    1078:	01006e65 	0x01006e65
    107c:	00e12c4d 	bstrpick.d	$r13,$r2,0x21,0xb
    1080:	0b990000 	0x0b990000
    1084:	70190000 	0x70190000
    1088:	0b4e0100 	0x0b4e0100
    108c:	0000025d 	0x0000025d
    1090:	00000bf8 	0x00000bf8
    1094:	74731600 	xvmin.w	$xr0,$xr16,$xr5
    1098:	79706372 	0x79706372
    109c:	01370100 	0x01370100
    10a0:	0000025d 	0x0000025d
    10a4:	1c003290 	pcaddu12i	$r16,404(0x194)
    10a8:	0000001c 	0x0000001c
    10ac:	046b9c01 	csrrd	$r1,0x1ae7
    10b0:	64180000 	bge	$r0,$r0,6144(0x1800) # 28b0 <data_size+0x1e94>
    10b4:	01007473 	0x01007473
    10b8:	025d0e37 	sltui	$r23,$r17,1859(0x743)
    10bc:	54010000 	bl	256(0x100) # 11bc <data_size+0x7a0>
    10c0:	63727317 	blt	$r24,$r23,-36240(0x37270) # ffff8330 <_stack+0xe3fe43b4>
    10c4:	1f370100 	pcaddu18i	$r0,-411640(0x9b808)
    10c8:	000001dd 	0x000001dd
    10cc:	00000c2e 	0x00000c2e
    10d0:	01007019 	0x01007019
    10d4:	025d0b3b 	sltui	$r27,$r25,1858(0x742)
    10d8:	0c4c0000 	0x0c4c0000
    10dc:	16000000 	lu32i.d	$r0,0
    10e0:	6e727473 	bgeu	$r3,$r19,-101772(0x27274) # fffe8354 <_stack+0xe3fd43d8>
    10e4:	006e656c 	bstrins.w	$r12,$r11,0xe,0x19
    10e8:	e1012201 	0xe1012201
    10ec:	54000000 	bl	0 # 10ec <data_size+0x6d0>
    10f0:	3c1c0032 	0x3c1c0032
    10f4:	01000000 	0x01000000
    10f8:	0004b69c 	alsl.w	$r28,$r20,$r13,0x2
    10fc:	00731700 	bstrins.w	$r0,$r24,0x13,0x5
    1100:	dd152201 	0xdd152201
    1104:	6a000001 	bltu	$r0,$r1,-131072(0x20000) # fffe1104 <_stack+0xe3fcd188>
    1108:	1800000c 	pcaddi	$r12,0
    110c:	006e656c 	bstrins.w	$r12,$r11,0xe,0x19
    1110:	e11f2201 	0xe11f2201
    1114:	01000000 	0x01000000
    1118:	6e631955 	bgeu	$r10,$r21,-105704(0x26318) # fffe7430 <_stack+0xe3fd34b4>
    111c:	23010074 	sc.d	$r20,$r3,256(0x100)
    1120:	0000e10c 	0x0000e10c
    1124:	000caf00 	bytepick.d	$r0,$r24,$r11,0x1
    1128:	73160000 	0x73160000
    112c:	656c7274 	bge	$r19,$r20,93296(0x16c70) # 17d9c <data_size+0x17380>
    1130:	0c01006e 	0x0c01006e
    1134:	0000e101 	0x0000e101
    1138:	00322400 	0x00322400
    113c:	0000301c 	revb.2h	$r28,$r0
    1140:	f29c0100 	0xf29c0100
    1144:	17000004 	lu32i.d	$r4,-524288(0x80000)
    1148:	0c010073 	0x0c010073
    114c:	0001dd14 	0x0001dd14
    1150:	000cda00 	bytepick.d	$r0,$r16,$r22,0x1
    1154:	6e631900 	bgeu	$r8,$r0,-105704(0x26318) # fffe746c <_stack+0xe3fd34f0>
    1158:	0d010074 	fsel	$f20,$f3,$f0,$fcc2
    115c:	0000e10c 	0x0000e10c
    1160:	000d3c00 	bytepick.d	$r0,$r0,$r15,0x2
    1164:	cd1a0000 	0xcd1a0000
    1168:	90000002 	0x90000002
    116c:	1c1c0033 	pcaddu12i	$r19,57345(0xe001)
    1170:	01000000 	0x01000000
    1174:	02e11b9c 	addi.d	$r28,$r28,-1978(0x846)
    1178:	54010000 	bl	256(0x100) # 1278 <data_size+0x85c>
    117c:	0002eb1b 	0x0002eb1b
    1180:	08550100 	fmsub.s	$f0,$f8,$f0,$f10
    1184:	000002f5 	0x000002f5
    1188:	00000d67 	0x00000d67
    118c:	0002ff1c 	0x0002ff1c
    1190:	000dd500 	bytepick.d	$r0,$r8,$r21,0x3
    1194:	ff000000 	0xff000000
    1198:	04000002 	csrrd	$r2,0x0
    119c:	00068c00 	alsl.wu	$r0,$r0,$r3,0x2
    11a0:	47010400 	bnez	$r0,196868(0x30104) # 312a4 <data_size+0x30888>
    11a4:	4320554e 	beqz	$r10,3874900(0x3b2054) # 3b31f8 <data_size+0x3b27dc>
    11a8:	38203731 	ldx.bu	$r17,$r25,$r13
    11ac:	302e332e 	vldrepl.w	$vr14,$r25,-464(0xe30)
    11b0:	616d2d20 	blt	$r9,$r0,93484(0x16d2c) # 17edc <data_size+0x174c0>
    11b4:	693d6962 	bltu	$r11,$r2,81256(0x13d68) # 14f1c <data_size+0x14500>
    11b8:	3233706c 	0x3233706c
    11bc:	6d2d2073 	bgeu	$r3,$r19,77088(0x12d20) # 13edc <data_size+0x134c0>
    11c0:	68637261 	bltu	$r19,$r1,25456(0x6370) # 7530 <data_size+0x6b14>
    11c4:	6f6f6c3d 	bgeu	$r1,$r29,-37012(0x36f6c) # ffff8130 <_stack+0xe3fe41b4>
    11c8:	7261676e 	0x7261676e
    11cc:	32336863 	0x32336863
    11d0:	6d2d2072 	bgeu	$r3,$r18,77088(0x12d20) # 13ef0 <data_size+0x134d4>
    11d4:	3d757066 	0x3d757066
    11d8:	656e6f6e 	bge	$r27,$r14,93804(0x16e6c) # 18044 <data_size+0x17628>
    11dc:	636d2d20 	blt	$r9,$r0,-37588(0x36d2c) # ffff7f08 <_stack+0xe3fe3f8c>
    11e0:	65646f6d 	bge	$r27,$r13,91244(0x1646c) # 1764c <data_size+0x16c30>
    11e4:	6f6e3d6c 	bgeu	$r11,$r12,-37316(0x36e3c) # ffff8020 <_stack+0xe3fe40a4>
    11e8:	6c616d72 	bgeu	$r11,$r18,24940(0x616c) # 7354 <data_size+0x6938>
    11ec:	746d2d20 	0x746d2d20
    11f0:	3d656e75 	0x3d656e75
    11f4:	6e6f6f6c 	bgeu	$r27,$r12,-102548(0x26f6c) # fffe8160 <_stack+0xe3fd41e4>
    11f8:	63726167 	blt	$r11,$r7,-36256(0x37260) # ffff8458 <_stack+0xe3fe44dc>
    11fc:	72323368 	0x72323368
    1200:	20672d20 	ll.w	$r0,$r9,26412(0x672c)
    1204:	20324f2d 	ll.w	$r13,$r25,12876(0x324c)
    1208:	6f6e662d 	bgeu	$r17,$r13,-37276(0x36e64) # ffff806c <_stack+0xe3fe40f0>
    120c:	6975622d 	bltu	$r17,$r13,95584(0x17560) # 1876c <data_size+0x17d50>
    1210:	6e69746c 	bgeu	$r3,$r12,-104076(0x26974) # fffe7b84 <_stack+0xe3fd3c08>
    1214:	6e662d20 	bgeu	$r9,$r0,-104916(0x2662c) # fffe7840 <_stack+0xe3fd38c4>
    1218:	69702d6f 	bltu	$r11,$r15,94252(0x1702c) # 18244 <data_size+0x17828>
    121c:	740c0063 	xvsub.b	$xr3,$xr3,$xr0
    1220:	2e656d69 	0x2e656d69
    1224:	682f0063 	bltu	$r3,$r3,12032(0x2f00) # 4124 <data_size+0x3708>
    1228:	2f656d6f 	0x2f656d6f
    122c:	2f747777 	0x2f747777
    1230:	6b726f77 	bltu	$r27,$r23,-36244(0x3726c) # ffff849c <_stack+0xe3fe4520>
    1234:	7265702f 	0x7265702f
    1238:	75665f66 	0x75665f66
    123c:	6c2f636e 	bgeu	$r27,$r14,12128(0x2f60) # 419c <data_size+0x3780>
    1240:	94006269 	0x94006269
    1244:	041c0034 	csrwr	$r20,0x700
    1248:	78000001 	0x78000001
    124c:	02000015 	slti	$r21,$r0,0
    1250:	6e750704 	bgeu	$r24,$r4,-101116(0x27504) # fffe8754 <_stack+0xe3fd47d8>
    1254:	6e676973 	bgeu	$r11,$r19,-104600(0x26768) # fffe79bc <_stack+0xe3fd3a40>
    1258:	69206465 	bltu	$r3,$r5,73828(0x12064) # 132bc <data_size+0x128a0>
    125c:	0200746e 	slti	$r14,$r3,29(0x1d)
    1260:	6f6c0704 	bgeu	$r24,$r4,-37884(0x36c04) # ffff7e64 <_stack+0xe3fe3ee8>
    1264:	7520676e 	xvpickod.b	$xr14,$xr27,$xr25
    1268:	6769736e 	bge	$r27,$r14,-38544(0x36970) # ffff7bd8 <_stack+0xe3fe3c5c>
    126c:	2064656e 	ll.w	$r14,$r11,25700(0x6464)
    1270:	00746e69 	bstrins.w	$r9,$r19,0x14,0x1b
    1274:	6c635f03 	bgeu	$r24,$r3,25436(0x635c) # 75d0 <data_size+0x6bb4>
    1278:	5f6b636f 	bne	$r27,$r15,-38048(0x36b60) # ffff7dd8 <_stack+0xe3fe3e5c>
    127c:	03020074 	lu52i.d	$r20,$r3,128(0x80)
    1280:	0000c817 	0x0000c817
    1284:	05040200 	0x05040200
    1288:	00746e69 	bstrins.w	$r9,$r19,0x14,0x1b
    128c:	6d697404 	bgeu	$r0,$r4,92532(0x16974) # 17c00 <data_size+0x171e4>
    1290:	65707365 	bge	$r27,$r5,94320(0x17070) # 18300 <data_size+0x178e4>
    1294:	02100063 	slti	$r3,$r3,1024(0x400)
    1298:	014b081f 	0x014b081f
    129c:	74050000 	xvsle.wu	$xr0,$xr0,$xr0
    12a0:	65735f76 	bge	$r27,$r22,95068(0x1735c) # 185fc <data_size+0x17be0>
    12a4:	20020063 	ll.w	$r3,$r3,512(0x200)
    12a8:	0000dd0b 	0x0000dd0b
    12ac:	74050000 	xvsle.wu	$xr0,$xr0,$xr0
    12b0:	736e5f76 	vssrarni.du.q	$vr22,$vr27,0x17
    12b4:	02006365 	slti	$r5,$r27,24(0x18)
    12b8:	00dd0b21 	bstrpick.d	$r1,$r25,0x1d,0x2
    12bc:	05040000 	0x05040000
    12c0:	755f7674 	0x755f7674
    12c4:	00636573 	bstrins.w	$r19,$r11,0x3,0x19
    12c8:	dd0b2202 	0xdd0b2202
    12cc:	08000000 	0x08000000
    12d0:	5f767405 	bne	$r0,$r5,-35212(0x37674) # ffff8944 <_stack+0xe3fe49c8>
    12d4:	6365736d 	blt	$r27,$r13,-39568(0x36570) # ffff7844 <_stack+0xe3fe38c8>
    12d8:	0b230200 	0x0b230200
    12dc:	000000dd 	0x000000dd
    12e0:	6706000c 	bge	$r0,$r12,-64000(0x30600) # ffff18e0 <_stack+0xe3fdd964>
    12e4:	755f7465 	0x755f7465
    12e8:	3c010073 	0x3c010073
    12ec:	0000c80f 	0x0000c80f
    12f0:	00356800 	0x00356800
    12f4:	0000301c 	revb.2h	$r28,$r0
    12f8:	939c0100 	0x939c0100
    12fc:	07000001 	0x07000001
    1300:	3e01006e 	0x3e01006e
    1304:	0000c813 	0x0000c813
    1308:	000df300 	bytepick.d	$r0,$r24,$r28,0x3
    130c:	02dc0800 	addi.d	$r0,$r0,1794(0x702)
    1310:	35680000 	0x35680000
    1314:	00b81c00 	bstrins.d	$r0,$r0,0x38,0x7
    1318:	3f010000 	0x3f010000
    131c:	00b80909 	bstrins.d	$r9,$r8,0x38,0x2
    1320:	f00a0000 	0xf00a0000
    1324:	00000002 	0x00000002
    1328:	67060000 	bge	$r0,$r0,-64000(0x30600) # ffff1928 <_stack+0xe3fdd9ac>
    132c:	6e5f7465 	bgeu	$r3,$r5,-106636(0x25f74) # fffe72a0 <_stack+0xe3fd3324>
    1330:	33010073 	0x33010073
    1334:	0000c80f 	0x0000c80f
    1338:	00354400 	0x00354400
    133c:	0000241c 	clz.d	$r28,$r0
    1340:	db9c0100 	0xdb9c0100
    1344:	07000001 	0x07000001
    1348:	3501006e 	0x3501006e
    134c:	0000c813 	0x0000c813
    1350:	000e2a00 	bytepick.d	$r0,$r16,$r10,0x4
    1354:	02dc0800 	addi.d	$r0,$r0,1794(0x702)
    1358:	35440000 	0x35440000
    135c:	00a01c00 	bstrins.d	$r0,$r0,0x20,0x7
    1360:	36010000 	0x36010000
    1364:	00a00909 	bstrins.d	$r9,$r8,0x20,0x2
    1368:	f00a0000 	0xf00a0000
    136c:	00000002 	0x00000002
    1370:	670b0000 	bge	$r0,$r0,-62720(0x30b00) # ffff1e70 <_stack+0xe3fddef4>
    1374:	635f7465 	blt	$r3,$r5,-41100(0x35f74) # ffff72e8 <_stack+0xe3fe336c>
    1378:	6b636f6c 	bltu	$r27,$r12,-40084(0x3636c) # ffff76e4 <_stack+0xe3fe3768>
    137c:	0f2c0100 	0x0f2c0100
    1380:	000000c8 	0x000000c8
    1384:	000001fc 	0x000001fc
    1388:	01006e0c 	0x01006e0c
    138c:	00c8132e 	bstrpick.d	$r14,$r25,0x8,0x4
    1390:	06000000 	cacop	0x0,$r0,0
    1394:	636f6c63 	blt	$r3,$r3,-37012(0x36f6c) # ffff8300 <_stack+0xe3fe4384>
    1398:	65675f6b 	bge	$r27,$r11,91996(0x1675c) # 17af4 <data_size+0x170d8>
    139c:	6d697474 	bgeu	$r3,$r20,92532(0x16974) # 17d10 <data_size+0x172f4>
    13a0:	20010065 	ll.w	$r5,$r3,256(0x100)
    13a4:	0000c80f 	0x0000c80f
    13a8:	0034bc00 	0x0034bc00
    13ac:	0000841c 	0x0000841c
    13b0:	699c0100 	bltu	$r8,$r0,105472(0x19c00) # 1afb0 <data_size+0x1a594>
    13b4:	0d000002 	fsel	$f2,$f0,$f0,$fcc0
    13b8:	006c6573 	bstrins.w	$r19,$r11,0xc,0x19
    13bc:	ee212001 	0xee212001
    13c0:	58000000 	beq	$r0,$r0,0 # 13c0 <data_size+0x9a4>
    13c4:	0e00000e 	0x0e00000e
    13c8:	00706d74 	bstrins.w	$r20,$r11,0x10,0x1b
    13cc:	69362001 	bltu	$r0,$r1,79392(0x13620) # 149ec <data_size+0x13fd0>
    13d0:	01000002 	0x01000002
    13d4:	006e0755 	bstrins.w	$r21,$r26,0xe,0x1
    13d8:	c8132201 	0xc8132201
    13dc:	79000000 	0x79000000
    13e0:	0800000e 	0x0800000e
    13e4:	000002dc 	0x000002dc
    13e8:	1c0034bc 	pcaddu12i	$r28,421(0x1a5)
    13ec:	00000088 	0x00000088
    13f0:	09092301 	0x09092301
    13f4:	00000088 	0x00000088
    13f8:	0002f00a 	0x0002f00a
    13fc:	00000000 	0x00000000
    1400:	00f5040f 	bstrpick.d	$r15,$r0,0x35,0x1
    1404:	67100000 	bge	$r0,$r0,-61440(0x31000) # ffff2404 <_stack+0xe3fde488>
    1408:	635f7465 	blt	$r3,$r5,-41100(0x35f74) # ffff737c <_stack+0xe3fe3400>
    140c:	746e756f 	0x746e756f
    1410:	00796d5f 	bstrins.w	$r31,$r10,0x19,0x1b
    1414:	c80f1601 	0xc80f1601
    1418:	b4000000 	0xb4000000
    141c:	081c0034 	fmadd.s	$f20,$f1,$f0,$f24
    1420:	01000000 	0x01000000
    1424:	00029f9c 	0x00029f9c
    1428:	006e1100 	bstrins.w	$r0,$r8,0xe,0x4
    142c:	c8131801 	0xc8131801
    1430:	01000000 	0x01000000
    1434:	67100054 	bge	$r2,$r20,-61440(0x31000) # ffff2434 <_stack+0xe3fde4b8>
    1438:	635f7465 	blt	$r3,$r5,-41100(0x35f74) # ffff73ac <_stack+0xe3fe3430>
    143c:	746e756f 	0x746e756f
    1440:	0f110100 	0x0f110100
    1444:	000000c8 	0x000000c8
    1448:	1c003494 	pcaddu12i	$r20,420(0x1a4)
    144c:	0000001c 	0x0000001c
    1450:	02dc9c01 	addi.d	$r1,$r0,1831(0x727)
    1454:	dc080000 	0xdc080000
    1458:	94000002 	0x94000002
    145c:	701c0034 	0x701c0034
    1460:	01000000 	0x01000000
    1464:	70090d13 	vslt.wu	$vr19,$vr8,$vr3
    1468:	0a000000 	0x0a000000
    146c:	000002f0 	0x000002f0
    1470:	12000000 	addu16i.d	$r0,$r0,-32768(0x8000)
    1474:	7465675f 	xvavg.w	$xr31,$xr26,$xr25
    1478:	756f635f 	0x756f635f
    147c:	0100746e 	0x0100746e
    1480:	00c80f04 	bstrpick.d	$r4,$r24,0x8,0x3
    1484:	0c010000 	0x0c010000
    1488:	6e6f635f 	bgeu	$r26,$r31,-102560(0x26f60) # fffe83e8 <_stack+0xe3fd446c>
    148c:	6c617674 	bgeu	$r19,$r20,24948(0x6174) # 7600 <data_size+0x6be4>
    1490:	13060100 	addu16i.d	$r0,$r8,-16000(0xc180)
    1494:	000000c8 	0x000000c8
	...

Disassembly of section .debug_abbrev:

00000000 <.debug_abbrev>:
   0:	25011101 	stptr.w	$r1,$r8,272(0x110)
   4:	030b1308 	lu52i.d	$r8,$r24,708(0x2c4)
   8:	11081b08 	addu16i.d	$r8,$r24,16902(0x4206)
   c:	10061201 	addu16i.d	$r1,$r16,388(0x184)
  10:	02000017 	slti	$r23,$r0,0
  14:	0b0b000f 	0x0b0b000f
  18:	24030000 	ldptr.w	$r0,$r0,768(0x300)
  1c:	3e0b0b00 	0x3e0b0b00
  20:	0008030b 	bytepick.w	$r11,$r24,$r0,0x0
  24:	00160400 	orn	$r0,$r0,$r1
  28:	0b3a0803 	0x0b3a0803
  2c:	0b390b3b 	0x0b390b3b
  30:	00001349 	clo.w	$r9,$r26
  34:	03011305 	lu52i.d	$r5,$r24,68(0x44)
  38:	3a0b0b08 	0x3a0b0b08
  3c:	390b3b0b 	0x390b3b0b
  40:	0013010b 	maskeqz	$r11,$r8,$r0
  44:	000d0600 	bytepick.d	$r0,$r16,$r1,0x2
  48:	0b3a0803 	0x0b3a0803
  4c:	0b390b3b 	0x0b390b3b
  50:	0b381349 	0x0b381349
  54:	0f070000 	0x0f070000
  58:	490b0b00 	0x490b0b00
  5c:	08000013 	0x08000013
  60:	13490101 	addu16i.d	$r1,$r8,-11712(0xd240)
  64:	00001301 	clo.w	$r1,$r24
  68:	49002109 	bcnez	$fcc0,2424864(0x250020) # 250088 <data_size+0x24f66c>
  6c:	000b2f13 	0x000b2f13
  70:	00340a00 	0x00340a00
  74:	0b3a0803 	0x0b3a0803
  78:	0b390b3b 	0x0b390b3b
  7c:	193f1349 	pcaddi	$r9,-395110(0x9f89a)
  80:	00001802 	cto.w	$r2,$r0
  84:	3f012e0b 	0x3f012e0b
  88:	3a080319 	0x3a080319
  8c:	390b3b0b 	0x390b3b0b
  90:	4919270b 	0x4919270b
  94:	12011113 	addu16i.d	$r19,$r8,-32700(0x8044)
  98:	97184006 	0x97184006
  9c:	13011942 	addu16i.d	$r2,$r10,-16314(0xc046)
  a0:	050c0000 	0x050c0000
  a4:	3a0e0300 	0x3a0e0300
  a8:	390b3b0b 	0x390b3b0b
  ac:	0213490b 	slti	$r11,$r8,1234(0x4d2)
  b0:	0d000017 	fsel	$f23,$f0,$f0,$fcc0
  b4:	08030034 	0x08030034
  b8:	0b3b0b3a 	0x0b3b0b3a
  bc:	13490b39 	addu16i.d	$r25,$r25,-11710(0xd242)
  c0:	00001702 	clz.w	$r2,$r24
  c4:	3f012e0e 	0x3f012e0e
  c8:	3a0e0319 	0x3a0e0319
  cc:	390b3b0b 	0x390b3b0b
  d0:	3c13490b 	0x3c13490b
  d4:	00130119 	maskeqz	$r25,$r8,$r0
  d8:	00180f00 	sra.w	$r0,$r24,$r3
  dc:	89100000 	0x89100000
  e0:	11010182 	addu16i.d	$r2,$r12,16448(0x4040)
  e4:	00133101 	maskeqz	$r1,$r8,$r12
  e8:	828a1100 	0x828a1100
  ec:	18020001 	pcaddi	$r1,4096(0x1000)
  f0:	00184291 	sra.w	$r17,$r20,$r16
  f4:	00051200 	alsl.w	$r0,$r16,$r4,0x3
  f8:	0b3a0803 	0x0b3a0803
  fc:	0b390b3b 	0x0b390b3b
 100:	17021349 	lu32i.d	$r9,-520038(0x8109a)
 104:	34130000 	0x34130000
 108:	3a080300 	0x3a080300
 10c:	390b3b0b 	0x390b3b0b
 110:	1c13490b 	pcaddu12i	$r11,39496(0x9a48)
 114:	1400000b 	lu12i.w	$r11,0
 118:	193f012e 	pcaddi	$r14,-395255(0x9f809)
 11c:	0b3a0803 	0x0b3a0803
 120:	0b390b3b 	0x0b390b3b
 124:	01111927 	fscaleb.d	$f7,$f9,$f6
 128:	18400612 	pcaddi	$r18,131120(0x20030)
 12c:	01194297 	0x01194297
 130:	15000013 	lu12i.w	$r19,-524288(0x80000)
 134:	0e030005 	0x0e030005
 138:	0b3b0b3a 	0x0b3b0b3a
 13c:	13490b39 	addu16i.d	$r25,$r25,-11710(0xd242)
 140:	00001802 	cto.w	$r2,$r0
 144:	3f002e16 	0x3f002e16
 148:	6e193c19 	bgeu	$r0,$r25,-124612(0x2193c) # fffe1a84 <_stack+0xe3fcdb08>
 14c:	3a0e030e 	0x3a0e030e
 150:	390b3b0b 	0x390b3b0b
 154:	0000000b 	0x0000000b
 158:	25011101 	stptr.w	$r1,$r8,272(0x110)
 15c:	030b1308 	lu52i.d	$r8,$r24,708(0x2c4)
 160:	11081b08 	addu16i.d	$r8,$r24,16902(0x4206)
 164:	10061201 	addu16i.d	$r1,$r16,388(0x184)
 168:	02000017 	slti	$r23,$r0,0
 16c:	0b0b000f 	0x0b0b000f
 170:	24030000 	ldptr.w	$r0,$r0,768(0x300)
 174:	3e0b0b00 	0x3e0b0b00
 178:	0008030b 	bytepick.w	$r11,$r24,$r0,0x0
 17c:	012e0400 	0x012e0400
 180:	0803193f 	0x0803193f
 184:	0b3b0b3a 	0x0b3b0b3a
 188:	19270b39 	pcaddi	$r25,-444327(0x93859)
 18c:	01111349 	fscaleb.d	$f9,$f26,$f4
 190:	18400612 	pcaddi	$r18,131120(0x20030)
 194:	01194297 	0x01194297
 198:	05000013 	0x05000013
 19c:	08030005 	0x08030005
 1a0:	0b3b0b3a 	0x0b3b0b3a
 1a4:	13490b39 	addu16i.d	$r25,$r25,-11710(0xd242)
 1a8:	00001702 	clz.w	$r2,$r24
 1ac:	00001806 	cto.w	$r6,$r0
 1b0:	00340700 	0x00340700
 1b4:	0b3a0803 	0x0b3a0803
 1b8:	0b390b3b 	0x0b390b3b
 1bc:	17021349 	lu32i.d	$r9,-520038(0x8109a)
 1c0:	34080000 	0x34080000
 1c4:	3a080300 	0x3a080300
 1c8:	390b3b0b 	0x390b3b0b
 1cc:	0213490b 	slti	$r11,$r8,1234(0x4d2)
 1d0:	09000018 	0x09000018
 1d4:	0803000a 	0x0803000a
 1d8:	0b3b0b3a 	0x0b3b0b3a
 1dc:	01110b39 	fscaleb.d	$f25,$f25,$f2
 1e0:	0b0a0000 	0x0b0a0000
 1e4:	01175501 	0x01175501
 1e8:	0b000013 	0x0b000013
 1ec:	193f012e 	pcaddi	$r14,-395255(0x9f809)
 1f0:	0b3a0803 	0x0b3a0803
 1f4:	0b390b3b 	0x0b390b3b
 1f8:	193c1349 	pcaddi	$r9,-401254(0x9e09a)
 1fc:	00001301 	clo.w	$r1,$r24
 200:	3f012e0c 	0x3f012e0c
 204:	3a0e0319 	0x3a0e0319
 208:	390b3b0b 	0x390b3b0b
 20c:	3c13490b 	0x3c13490b
 210:	00130119 	maskeqz	$r25,$r8,$r0
 214:	82890d00 	0x82890d00
 218:	01110101 	fscaleb.d	$f1,$f8,$f0
 21c:	13011331 	addu16i.d	$r17,$r25,-16316(0xc044)
 220:	8a0e0000 	0x8a0e0000
 224:	02000182 	slti	$r2,$r12,0
 228:	18429118 	pcaddi	$r24,136328(0x21488)
 22c:	890f0000 	0x890f0000
 230:	11000182 	addu16i.d	$r2,$r12,16384(0x4000)
 234:	00133101 	maskeqz	$r1,$r8,$r12
 238:	82891000 	0x82891000
 23c:	01110101 	fscaleb.d	$f1,$f8,$f0
 240:	00001331 	clo.w	$r17,$r25
 244:	55010b11 	bl	-62586616(0xc450108) # fc45034c <_stack+0xe043c3d0>
 248:	12000017 	addu16i.d	$r23,$r0,-32768(0x8000)
 24c:	0111010b 	fscaleb.d	$f11,$f8,$f0
 250:	13010612 	addu16i.d	$r18,$r16,-16319(0xc041)
 254:	0f130000 	0x0f130000
 258:	490b0b00 	0x490b0b00
 25c:	14000013 	lu12i.w	$r19,0
 260:	13490026 	addu16i.d	$r6,$r1,-11712(0xd240)
 264:	2e150000 	0x2e150000
 268:	3c193f00 	0x3c193f00
 26c:	030e6e19 	lu52i.d	$r25,$r16,923(0x39b)
 270:	3b0b3a0e 	0x3b0b3a0e
 274:	000b390b 	0x000b390b
 278:	11010000 	addu16i.d	$r0,$r0,16448(0x4040)
 27c:	13082501 	addu16i.d	$r1,$r8,-15863(0xc209)
 280:	1b08030b 	pcalau12i	$r11,-507880(0x84018)
 284:	12011108 	addu16i.d	$r8,$r8,-32700(0x8044)
 288:	00171006 	sll.w	$r6,$r0,$r4
 28c:	00240200 	crc.w.b.w	$r0,$r16,$r0
 290:	0b3e0b0b 	0x0b3e0b0b
 294:	00000803 	0x00000803
 298:	3f012e03 	0x3f012e03
 29c:	3a0e0319 	0x3a0e0319
 2a0:	390b3b0b 	0x390b3b0b
 2a4:	010b200b 	fmin.d	$f11,$f0,$f8
 2a8:	04000013 	csrrd	$r19,0x0
 2ac:	08030005 	0x08030005
 2b0:	0b3b0b3a 	0x0b3b0b3a
 2b4:	13490b39 	addu16i.d	$r25,$r25,-11710(0xd242)
 2b8:	2e050000 	0x2e050000
 2bc:	03193f01 	lu52i.d	$r1,$r24,1615(0x64f)
 2c0:	3b0b3a08 	0x3b0b3a08
 2c4:	270b390b 	stptr.d	$r11,$r8,2872(0xb38)
 2c8:	11134919 	addu16i.d	$r25,$r8,17618(0x44d2)
 2cc:	40061201 	beqz	$r16,263696(0x40610) # 408dc <data_size+0x3fec0>
 2d0:	19429718 	pcaddi	$r24,-387912(0xa14b8)
 2d4:	00001301 	clo.w	$r1,$r24
 2d8:	03000506 	lu52i.d	$r6,$r8,1(0x1)
 2dc:	3b0b3a08 	0x3b0b3a08
 2e0:	490b390b 	bcnez	$fcc0,2951992(0x2d0b38) # 2d0e18 <data_size+0x2d03fc>
 2e4:	00170213 	sll.w	$r19,$r16,$r0
 2e8:	012e0700 	0x012e0700
 2ec:	0e03193f 	0x0e03193f
 2f0:	0b3b0b3a 	0x0b3b0b3a
 2f4:	13490b39 	addu16i.d	$r25,$r25,-11710(0xd242)
 2f8:	1301193c 	addu16i.d	$r28,$r9,-16314(0xc046)
 2fc:	18080000 	pcaddi	$r0,16384(0x4000)
 300:	09000000 	0x09000000
 304:	1331011d 	addu16i.d	$r29,$r8,-13248(0xcc40)
 308:	17550152 	lu32i.d	$r18,-350198(0xaa80a)
 30c:	0b590b58 	0x0b590b58
 310:	00000b57 	0x00000b57
 314:	3100050a 	0x3100050a
 318:	00170213 	sll.w	$r19,$r16,$r0
 31c:	012e0b00 	0x012e0b00
 320:	01111331 	fscaleb.d	$f17,$f25,$f4
 324:	18400612 	pcaddi	$r18,131120(0x20030)
 328:	00194297 	srl.d	$r23,$r20,$r16
 32c:	00050c00 	alsl.w	$r0,$r0,$r3,0x3
 330:	18021331 	pcaddi	$r17,4249(0x1099)
 334:	01000000 	0x01000000
 338:	08250111 	fmadd.d	$f17,$f8,$f0,$f10
 33c:	08030b13 	0x08030b13
 340:	0111081b 	fscaleb.d	$f27,$f0,$f2
 344:	17100612 	lu32i.d	$r18,-491472(0x88030)
 348:	24020000 	ldptr.w	$r0,$r0,512(0x200)
 34c:	3e0b0b00 	0x3e0b0b00
 350:	0008030b 	bytepick.w	$r11,$r24,$r0,0x0
 354:	012e0300 	0x012e0300
 358:	0803193f 	0x0803193f
 35c:	0b3b0b3a 	0x0b3b0b3a
 360:	19270b39 	pcaddi	$r25,-444327(0x93859)
 364:	01111349 	fscaleb.d	$f9,$f26,$f4
 368:	18400612 	pcaddi	$r18,131120(0x20030)
 36c:	01194297 	0x01194297
 370:	04000013 	csrrd	$r19,0x0
 374:	08030005 	0x08030005
 378:	0b3b0b3a 	0x0b3b0b3a
 37c:	13490b39 	addu16i.d	$r25,$r25,-11710(0xd242)
 380:	00001702 	clz.w	$r2,$r24
 384:	3f012e05 	0x3f012e05
 388:	3a0e0319 	0x3a0e0319
 38c:	390b3b0b 	0x390b3b0b
 390:	3c13490b 	0x3c13490b
 394:	00130119 	maskeqz	$r25,$r8,$r0
 398:	00180600 	sra.w	$r0,$r16,$r1
 39c:	89070000 	0x89070000
 3a0:	11010182 	addu16i.d	$r2,$r12,16448(0x4040)
 3a4:	01133101 	fcopysign.d	$f1,$f8,$f12
 3a8:	08000013 	0x08000013
 3ac:	0001828a 	0x0001828a
 3b0:	42911802 	beqz	$r0,692504(0xa9118) # a94c8 <data_size+0xa8aac>
 3b4:	09000018 	0x09000018
 3b8:	01018289 	0x01018289
 3bc:	13310111 	addu16i.d	$r17,$r8,-13248(0xcc40)
 3c0:	0f0a0000 	0x0f0a0000
 3c4:	490b0b00 	0x490b0b00
 3c8:	0b000013 	0x0b000013
 3cc:	08030034 	0x08030034
 3d0:	0b3b0b3a 	0x0b3b0b3a
 3d4:	13490b39 	addu16i.d	$r25,$r25,-11710(0xd242)
 3d8:	00001702 	clz.w	$r2,$r24
 3dc:	55010b0c 	bl	-63897336(0xc310108) # fc3104e4 <_stack+0xe02fc568>
 3e0:	0d000017 	fsel	$f23,$f0,$f0,$fcc0
 3e4:	0111010b 	fscaleb.d	$f11,$f8,$f0
 3e8:	13010612 	addu16i.d	$r18,$r16,-16319(0xc041)
 3ec:	2e0e0000 	0x2e0e0000
 3f0:	3c193f00 	0x3c193f00
 3f4:	030e6e19 	lu52i.d	$r25,$r16,923(0x39b)
 3f8:	3b0b3a0e 	0x3b0b3a0e
 3fc:	000b390b 	0x000b390b
 400:	11010000 	addu16i.d	$r0,$r0,16448(0x4040)
 404:	13082501 	addu16i.d	$r1,$r8,-15863(0xc209)
 408:	1b08030b 	pcalau12i	$r11,-507880(0x84018)
 40c:	12011108 	addu16i.d	$r8,$r8,-32700(0x8044)
 410:	00171006 	sll.w	$r6,$r0,$r4
 414:	00240200 	crc.w.b.w	$r0,$r16,$r0
 418:	0b3e0b0b 	0x0b3e0b0b
 41c:	00000803 	0x00000803
 420:	3f012e03 	0x3f012e03
 424:	3a080319 	0x3a080319
 428:	390b3b0b 	0x390b3b0b
 42c:	4919270b 	0x4919270b
 430:	12011113 	addu16i.d	$r19,$r8,-32700(0x8044)
 434:	97184006 	0x97184006
 438:	13011942 	addu16i.d	$r2,$r10,-16314(0xc046)
 43c:	05040000 	0x05040000
 440:	3a080300 	0x3a080300
 444:	390b3b0b 	0x390b3b0b
 448:	0213490b 	slti	$r11,$r8,1234(0x4d2)
 44c:	05000017 	0x05000017
 450:	08030034 	0x08030034
 454:	0b3b0b3a 	0x0b3b0b3a
 458:	13490b39 	addu16i.d	$r25,$r25,-11710(0xd242)
 45c:	00001702 	clz.w	$r2,$r24
 460:	03003406 	lu52i.d	$r6,$r0,13(0xd)
 464:	3b0b3a08 	0x3b0b3a08
 468:	490b390b 	bcnez	$fcc0,2951992(0x2d0b38) # 2d0fa0 <data_size+0x2d0584>
 46c:	00180213 	sra.w	$r19,$r16,$r0
 470:	010b0700 	fmin.d	$f0,$f24,$f1
 474:	06120111 	cacop	0x11,$r8,1152(0x480)
 478:	00001301 	clo.w	$r1,$r24
 47c:	3f012e08 	0x3f012e08
 480:	3a0e0319 	0x3a0e0319
 484:	390b3b0b 	0x390b3b0b
 488:	3c13490b 	0x3c13490b
 48c:	00130119 	maskeqz	$r25,$r8,$r0
 490:	00180900 	sra.w	$r0,$r8,$r2
 494:	890a0000 	0x890a0000
 498:	11010182 	addu16i.d	$r2,$r12,16448(0x4040)
 49c:	00133101 	maskeqz	$r1,$r8,$r12
 4a0:	828a0b00 	0x828a0b00
 4a4:	18020001 	pcaddi	$r1,4096(0x1000)
 4a8:	00184291 	sra.w	$r17,$r20,$r16
 4ac:	010b0c00 	fmin.d	$f0,$f0,$f3
 4b0:	06120111 	cacop	0x11,$r8,1152(0x480)
 4b4:	890d0000 	0x890d0000
 4b8:	11000182 	addu16i.d	$r2,$r12,16384(0x4000)
 4bc:	00133101 	maskeqz	$r1,$r8,$r12
 4c0:	01010e00 	fadd.d	$f0,$f16,$f3
 4c4:	13011349 	addu16i.d	$r9,$r26,-16316(0xc044)
 4c8:	210f0000 	sc.w	$r0,$r0,3840(0xf00)
 4cc:	2f134900 	0x2f134900
 4d0:	1000000b 	addu16i.d	$r11,$r0,0
 4d4:	193f002e 	pcaddi	$r14,-395263(0x9f801)
 4d8:	0e6e193c 	0x0e6e193c
 4dc:	0b3a0e03 	0x0b3a0e03
 4e0:	0b390b3b 	0x0b390b3b
 4e4:	01000000 	0x01000000
 4e8:	08250111 	fmadd.d	$f17,$f8,$f0,$f10
 4ec:	08030b13 	0x08030b13
 4f0:	1755081b 	lu32i.d	$r27,-350144(0xaa840)
 4f4:	17100111 	lu32i.d	$r17,-491512(0x88008)
 4f8:	0f020000 	0x0f020000
 4fc:	000b0b00 	0x000b0b00
 500:	00240300 	crc.w.b.w	$r0,$r24,$r0
 504:	0b3e0b0b 	0x0b3e0b0b
 508:	00000803 	0x00000803
 50c:	03001604 	lu52i.d	$r4,$r16,5(0x5)
 510:	3b0b3a08 	0x3b0b3a08
 514:	490b390b 	bcnez	$fcc0,2951992(0x2d0b38) # 2d104c <data_size+0x2d0630>
 518:	05000013 	0x05000013
 51c:	193f012e 	pcaddi	$r14,-395255(0x9f809)
 520:	0b3a0803 	0x0b3a0803
 524:	0b39053b 	0x0b39053b
 528:	01111927 	fscaleb.d	$f7,$f9,$f6
 52c:	18400612 	pcaddi	$r18,131120(0x20030)
 530:	01194297 	0x01194297
 534:	06000013 	cacop	0x13,$r0,0
 538:	08030005 	0x08030005
 53c:	053b0b3a 	0x053b0b3a
 540:	13490b39 	addu16i.d	$r25,$r25,-11710(0xd242)
 544:	00001702 	clz.w	$r2,$r24
 548:	31011d07 	0x31011d07
 54c:	12011113 	addu16i.d	$r19,$r8,-32700(0x8044)
 550:	590b5806 	beq	$r0,$r6,68440(0x10b58) # 110a8 <data_size+0x1068c>
 554:	000b5705 	0x000b5705
 558:	00050800 	alsl.w	$r0,$r0,$r2,0x3
 55c:	17021331 	lu32i.d	$r17,-520039(0x81099)
 560:	05090000 	0x05090000
 564:	1c133100 	pcaddu12i	$r0,39304(0x9988)
 568:	0a00000b 	0x0a00000b
 56c:	0111010b 	fscaleb.d	$f11,$f8,$f0
 570:	00000612 	0x00000612
 574:	3100340b 	0x3100340b
 578:	00180213 	sra.w	$r19,$r16,$r0
 57c:	012e0c00 	0x012e0c00
 580:	0803193f 	0x0803193f
 584:	053b0b3a 	0x053b0b3a
 588:	19270b39 	pcaddi	$r25,-444327(0x93859)
 58c:	01111349 	fscaleb.d	$f9,$f26,$f4
 590:	18400612 	pcaddi	$r18,131120(0x20030)
 594:	01194297 	0x01194297
 598:	0d000013 	fsel	$f19,$f0,$f0,$fcc0
 59c:	08030034 	0x08030034
 5a0:	053b0b3a 	0x053b0b3a
 5a4:	13490b39 	addu16i.d	$r25,$r25,-11710(0xd242)
 5a8:	00001702 	clz.w	$r2,$r24
 5ac:	0300340e 	lu52i.d	$r14,$r0,13(0xd)
 5b0:	3b0b3a08 	0x3b0b3a08
 5b4:	490b3905 	bcnez	$fcc0,1379128(0x150b38) # 1510ec <data_size+0x1506d0>
 5b8:	00180213 	sra.w	$r19,$r16,$r0
 5bc:	000f0f00 	bytepick.d	$r0,$r24,$r3,0x6
 5c0:	13490b0b 	addu16i.d	$r11,$r24,-11710(0xd242)
 5c4:	26100000 	ldptr.d	$r0,$r0,4096(0x1000)
 5c8:	11000000 	addu16i.d	$r0,$r0,16384(0x4000)
 5cc:	13490026 	addu16i.d	$r6,$r1,-11712(0xd240)
 5d0:	05120000 	0x05120000
 5d4:	3a080300 	0x3a080300
 5d8:	39053b0b 	0x39053b0b
 5dc:	0213490b 	slti	$r11,$r8,1234(0x4d2)
 5e0:	13000018 	addu16i.d	$r24,$r0,-16384(0xc000)
 5e4:	193f012e 	pcaddi	$r14,-395255(0x9f809)
 5e8:	0b3a0803 	0x0b3a0803
 5ec:	0b390b3b 	0x0b390b3b
 5f0:	13491927 	addu16i.d	$r7,$r9,-11706(0xd246)
 5f4:	13010b20 	addu16i.d	$r0,$r25,-16318(0xc042)
 5f8:	05140000 	0x05140000
 5fc:	3a080300 	0x3a080300
 600:	390b3b0b 	0x390b3b0b
 604:	0013490b 	maskeqz	$r11,$r8,$r18
 608:	00341500 	0x00341500
 60c:	0b3a0803 	0x0b3a0803
 610:	0b390b3b 	0x0b390b3b
 614:	00001349 	clo.w	$r9,$r26
 618:	3f012e16 	0x3f012e16
 61c:	3a080319 	0x3a080319
 620:	390b3b0b 	0x390b3b0b
 624:	4919270b 	0x4919270b
 628:	12011113 	addu16i.d	$r19,$r8,-32700(0x8044)
 62c:	97184006 	0x97184006
 630:	13011942 	addu16i.d	$r2,$r10,-16314(0xc046)
 634:	05170000 	0x05170000
 638:	3a080300 	0x3a080300
 63c:	390b3b0b 	0x390b3b0b
 640:	0213490b 	slti	$r11,$r8,1234(0x4d2)
 644:	18000017 	pcaddi	$r23,0
 648:	08030005 	0x08030005
 64c:	0b3b0b3a 	0x0b3b0b3a
 650:	13490b39 	addu16i.d	$r25,$r25,-11710(0xd242)
 654:	00001802 	cto.w	$r2,$r0
 658:	03003419 	lu52i.d	$r25,$r0,13(0xd)
 65c:	3b0b3a08 	0x3b0b3a08
 660:	490b390b 	bcnez	$fcc0,2951992(0x2d0b38) # 2d1198 <data_size+0x2d077c>
 664:	00170213 	sll.w	$r19,$r16,$r0
 668:	012e1a00 	0x012e1a00
 66c:	01111331 	fscaleb.d	$f17,$f25,$f4
 670:	18400612 	pcaddi	$r18,131120(0x20030)
 674:	00194297 	srl.d	$r23,$r20,$r16
 678:	00051b00 	alsl.w	$r0,$r24,$r6,0x3
 67c:	18021331 	pcaddi	$r17,4249(0x1099)
 680:	341c0000 	0x341c0000
 684:	02133100 	slti	$r0,$r8,1228(0x4cc)
 688:	00000017 	0x00000017
 68c:	25011101 	stptr.w	$r1,$r8,272(0x110)
 690:	030b1308 	lu52i.d	$r8,$r24,708(0x2c4)
 694:	11081b08 	addu16i.d	$r8,$r24,16902(0x4206)
 698:	10061201 	addu16i.d	$r1,$r16,388(0x184)
 69c:	02000017 	slti	$r23,$r0,0
 6a0:	0b0b0024 	0x0b0b0024
 6a4:	08030b3e 	0x08030b3e
 6a8:	16030000 	lu32i.d	$r0,6144(0x1800)
 6ac:	3a080300 	0x3a080300
 6b0:	390b3b0b 	0x390b3b0b
 6b4:	0013490b 	maskeqz	$r11,$r8,$r18
 6b8:	01130400 	fcopysign.d	$f0,$f0,$f1
 6bc:	0b0b0803 	0x0b0b0803
 6c0:	0b3b0b3a 	0x0b3b0b3a
 6c4:	13010b39 	addu16i.d	$r25,$r25,-16318(0xc042)
 6c8:	0d050000 	0x0d050000
 6cc:	3a080300 	0x3a080300
 6d0:	390b3b0b 	0x390b3b0b
 6d4:	3813490b 	0x3813490b
 6d8:	0600000b 	cacop	0xb,$r0,0
 6dc:	193f012e 	pcaddi	$r14,-395255(0x9f809)
 6e0:	0b3a0803 	0x0b3a0803
 6e4:	0b390b3b 	0x0b390b3b
 6e8:	13491927 	addu16i.d	$r7,$r9,-11706(0xd246)
 6ec:	06120111 	cacop	0x11,$r8,1152(0x480)
 6f0:	42971840 	beqz	$r2,169752(0x29718) # 29e08 <data_size+0x293ec>
 6f4:	00130119 	maskeqz	$r25,$r8,$r0
 6f8:	00340700 	0x00340700
 6fc:	0b3a0803 	0x0b3a0803
 700:	0b390b3b 	0x0b390b3b
 704:	17021349 	lu32i.d	$r9,-520038(0x8109a)
 708:	1d080000 	pcaddu12i	$r0,-507904(0x84000)
 70c:	52133101 	b	67506992(0x4061330) # 4061a3c <data_size+0x4061020>
 710:	58175501 	beq	$r8,$r1,5972(0x1754) # 1e64 <data_size+0x1448>
 714:	570b590b 	bl	70191960(0x42f0b58) # 42f126c <data_size+0x42f0850>
 718:	0900000b 	0x0900000b
 71c:	1755010b 	lu32i.d	$r11,-350200(0xaa808)
 720:	340a0000 	0x340a0000
 724:	00133100 	maskeqz	$r0,$r8,$r12
 728:	012e0b00 	0x012e0b00
 72c:	0803193f 	0x0803193f
 730:	0b3b0b3a 	0x0b3b0b3a
 734:	13490b39 	addu16i.d	$r25,$r25,-11710(0xd242)
 738:	00001301 	clo.w	$r1,$r24
 73c:	0300340c 	lu52i.d	$r12,$r0,13(0xd)
 740:	3b0b3a08 	0x3b0b3a08
 744:	490b390b 	bcnez	$fcc0,2951992(0x2d0b38) # 2d127c <data_size+0x2d0860>
 748:	0d000013 	fsel	$f19,$f0,$f0,$fcc0
 74c:	08030005 	0x08030005
 750:	0b3b0b3a 	0x0b3b0b3a
 754:	13490b39 	addu16i.d	$r25,$r25,-11710(0xd242)
 758:	00001702 	clz.w	$r2,$r24
 75c:	0300050e 	lu52i.d	$r14,$r8,1(0x1)
 760:	3b0b3a08 	0x3b0b3a08
 764:	490b390b 	bcnez	$fcc0,2951992(0x2d0b38) # 2d129c <data_size+0x2d0880>
 768:	00180213 	sra.w	$r19,$r16,$r0
 76c:	000f0f00 	bytepick.d	$r0,$r24,$r3,0x6
 770:	13490b0b 	addu16i.d	$r11,$r24,-11710(0xd242)
 774:	2e100000 	0x2e100000
 778:	03193f01 	lu52i.d	$r1,$r24,1615(0x64f)
 77c:	3b0b3a08 	0x3b0b3a08
 780:	490b390b 	bcnez	$fcc0,2951992(0x2d0b38) # 2d12b8 <data_size+0x2d089c>
 784:	12011113 	addu16i.d	$r19,$r8,-32700(0x8044)
 788:	97184006 	0x97184006
 78c:	13011942 	addu16i.d	$r2,$r10,-16314(0xc046)
 790:	34110000 	0x34110000
 794:	3a080300 	0x3a080300
 798:	390b3b0b 	0x390b3b0b
 79c:	0213490b 	slti	$r11,$r8,1234(0x4d2)
 7a0:	12000018 	addu16i.d	$r24,$r0,-32768(0x8000)
 7a4:	193f012e 	pcaddi	$r14,-395255(0x9f809)
 7a8:	0b3a0803 	0x0b3a0803
 7ac:	0b390b3b 	0x0b390b3b
 7b0:	0b201349 	0x0b201349
 7b4:	Address 0x00000000000007b4 is out of bounds.


Disassembly of section .debug_loc:

00000000 <.debug_loc>:
   0:	000001f0 	0x000001f0
   4:	00000208 	0x00000208
   8:	08540001 	fmsub.s	$f1,$f0,$f0,$f8
   c:	34000002 	0x34000002
  10:	01000002 	0x01000002
  14:	02346800 	slti	$r0,$r0,-742(0xd1a)
  18:	023c0000 	slti	$r0,$r0,-256(0xf00)
  1c:	00040000 	alsl.w	$r0,$r0,$r0,0x1
  20:	9f5401f3 	0x9f5401f3
  24:	0000023c 	0x0000023c
  28:	00000244 	0x00000244
  2c:	00680001 	bstrins.w	$r1,$r0,0x8,0x0
  30:	00000000 	0x00000000
  34:	fc000000 	0xfc000000
  38:	24000001 	ldptr.w	$r1,$r0,0
  3c:	01000002 	0x01000002
  40:	023c6700 	slti	$r0,$r24,-231(0xf19)
  44:	02440000 	sltui	$r0,$r0,256(0x100)
  48:	00010000 	asrtle.d	$r0,$r0
  4c:	00000067 	0x00000067
  50:	00000000 	0x00000000
  54:	00021000 	0x00021000
  58:	00022800 	0x00022800
  5c:	54000100 	bl	67108864(0x4000000) # 400005c <data_size+0x3fff640>
  60:	0000023c 	0x0000023c
  64:	00000240 	0x00000240
  68:	00540001 	0x00540001
  6c:	00000000 	0x00000000
  70:	2c000000 	vld	$vr0,$r0,0
  74:	44000001 	bnez	$r0,262144(0x40000) # 40074 <data_size+0x3f658>
  78:	01000001 	0x01000001
  7c:	01445400 	0x01445400
  80:	01b40000 	0x01b40000
  84:	00010000 	asrtle.d	$r0,$r0
  88:	0001b469 	0x0001b469
  8c:	0001c000 	asrtgt.d	$r0,$r16
  90:	f3000400 	0xf3000400
  94:	c09f5401 	0xc09f5401
  98:	e8000001 	0xe8000001
  9c:	01000001 	0x01000001
  a0:	01e86900 	0x01e86900
  a4:	01f00000 	0x01f00000
  a8:	00040000 	alsl.w	$r0,$r0,$r0,0x1
  ac:	9f5401f3 	0x9f5401f3
	...
  b8:	0000012c 	0x0000012c
  bc:	00000153 	0x00000153
  c0:	53550001 	b	480512(0x75500) # 755c0 <data_size+0x74ba4>
  c4:	f0000001 	0xf0000001
  c8:	04000001 	csrrd	$r1,0x0
  cc:	5501f300 	bl	-67042832(0xc0101f0) # fc0102bc <_stack+0xdfffc340>
  d0:	0000009f 	0x0000009f
  d4:	00000000 	0x00000000
  d8:	00012c00 	asrtle.d	$r0,$r11
  dc:	00015300 	asrtle.d	$r24,$r20
  e0:	56000100 	bl	67239936(0x4020000) # 40200e0 <data_size+0x401f6c4>
  e4:	00000153 	0x00000153
  e8:	000001ac 	0x000001ac
  ec:	ac670001 	0xac670001
  f0:	c0000001 	0xc0000001
  f4:	04000001 	csrrd	$r1,0x0
  f8:	5601f300 	bl	-66977296(0xc0201f0) # fc0202e8 <_stack+0xe000c36c>
  fc:	0001c09f 	0x0001c09f
 100:	0001e000 	asrtgt.d	$r0,$r24
 104:	67000100 	bge	$r8,$r0,-65536(0x30000) # ffff0104 <_stack+0xe3fdc188>
 108:	000001e0 	0x000001e0
 10c:	000001f0 	0x000001f0
 110:	01f30004 	0x01f30004
 114:	00009f56 	0x00009f56
 118:	00000000 	0x00000000
 11c:	01380000 	0x01380000
 120:	01b00000 	0x01b00000
 124:	00010000 	asrtle.d	$r0,$r0
 128:	0001c068 	0x0001c068
 12c:	0001e400 	asrtgt.d	$r0,$r25
 130:	68000100 	bltu	$r8,$r0,0 # 130 <data_size-0x8ec>
	...
 13c:	00000154 	0x00000154
 140:	000001b8 	0x000001b8
 144:	c0540001 	0xc0540001
 148:	d4000001 	0xd4000001
 14c:	01000001 	0x01000001
 150:	00005400 	bitrev.d	$r0,$r0
 154:	00000000 	0x00000000
 158:	01540000 	0x01540000
 15c:	01780000 	0x01780000
 160:	00020000 	0x00020000
 164:	01789f30 	0x01789f30
 168:	01a40000 	0x01a40000
 16c:	00010000 	asrtle.d	$r0,$r0
 170:	0001c05e 	0x0001c05e
 174:	0001c400 	asrtgt.d	$r0,$r17
 178:	30000200 	0x30000200
 17c:	0000009f 	0x0000009f
 180:	00000000 	0x00000000
 184:	00006000 	rdtimel.w	$r0,$r0
 188:	00007800 	0x00007800
 18c:	54000100 	bl	67108864(0x4000000) # 400018c <data_size+0x3fff770>
 190:	00000078 	0x00000078
 194:	000000e8 	0x000000e8
 198:	e86a0001 	0xe86a0001
 19c:	f8000000 	0xf8000000
 1a0:	04000000 	csrrd	$r0,0x0
 1a4:	5401f300 	bl	-67108368(0xc0001f0) # fc000394 <_stack+0xdffec418>
 1a8:	0000f89f 	0x0000f89f
 1ac:	00011000 	asrtle.d	$r0,$r4
 1b0:	6a000100 	bltu	$r8,$r0,-131072(0x20000) # fffe01b0 <_stack+0xe3fcc234>
 1b4:	00000110 	0x00000110
 1b8:	00000120 	0x00000120
 1bc:	01f30004 	0x01f30004
 1c0:	00009f54 	0x00009f54
 1c4:	00000000 	0x00000000
 1c8:	00600000 	bstrins.w	$r0,$r0,0x0,0x0
 1cc:	00970000 	bstrins.d	$r0,$r0,0x17,0x0
 1d0:	00010000 	asrtle.d	$r0,$r0
 1d4:	00009755 	0x00009755
 1d8:	0000e000 	0x0000e000
 1dc:	68000100 	bltu	$r8,$r0,0 # 1dc <data_size-0x840>
 1e0:	000000e0 	0x000000e0
 1e4:	000000f8 	0x000000f8
 1e8:	01f30004 	0x01f30004
 1ec:	00f89f55 	bstrpick.d	$r21,$r26,0x38,0x27
 1f0:	01080000 	0x01080000
 1f4:	00010000 	asrtle.d	$r0,$r0
 1f8:	00010868 	0x00010868
 1fc:	00012000 	asrtle.d	$r0,$r8
 200:	f3000400 	0xf3000400
 204:	009f5501 	bstrins.d	$r1,$r8,0x1f,0x15
 208:	00000000 	0x00000000
 20c:	60000000 	blt	$r0,$r0,0 # 20c <data_size-0x810>
 210:	97000000 	0x97000000
 214:	01000000 	0x01000000
 218:	00975600 	bstrins.d	$r0,$r16,0x17,0x15
 21c:	00ec0000 	bstrpick.d	$r0,$r0,0x2c,0x0
 220:	00010000 	asrtle.d	$r0,$r0
 224:	0000ec6b 	0x0000ec6b
 228:	0000f800 	0x0000f800
 22c:	f3000400 	0xf3000400
 230:	f89f5601 	0xf89f5601
 234:	14000000 	lu12i.w	$r0,0
 238:	01000001 	0x01000001
 23c:	01146b00 	frsqrt.d	$f0,$f24
 240:	01200000 	0x01200000
 244:	00040000 	alsl.w	$r0,$r0,$r0,0x1
 248:	9f5601f3 	0x9f5601f3
	...
 254:	00000060 	0x00000060
 258:	00000097 	0x00000097
 25c:	97570001 	0x97570001
 260:	dc000000 	0xdc000000
 264:	01000000 	0x01000000
 268:	00dc6700 	bstrpick.d	$r0,$r24,0x1c,0x19
 26c:	00f80000 	bstrpick.d	$r0,$r0,0x38,0x0
 270:	00040000 	alsl.w	$r0,$r0,$r0,0x1
 274:	9f5701f3 	0x9f5701f3
 278:	000000f8 	0x000000f8
 27c:	00000104 	0x00000104
 280:	04670001 	csrrd	$r1,0x19c0
 284:	20000001 	ll.w	$r1,$r0,0
 288:	04000001 	csrrd	$r1,0x0
 28c:	5701f300 	bl	-66911760(0xc0301f0) # fc03047c <_stack+0xe001c500>
 290:	0000009f 	0x0000009f
 294:	00000000 	0x00000000
 298:	00007400 	0x00007400
 29c:	00007800 	0x00007800
 2a0:	54000100 	bl	67108864(0x4000000) # 40002a0 <data_size+0x3fff884>
 2a4:	00000078 	0x00000078
 2a8:	000000e8 	0x000000e8
 2ac:	e86a0001 	0xe86a0001
 2b0:	f8000000 	0xf8000000
 2b4:	04000000 	csrrd	$r0,0x0
 2b8:	5401f300 	bl	-67108368(0xc0001f0) # fc0004a8 <_stack+0xdffec52c>
 2bc:	0000f89f 	0x0000f89f
 2c0:	00011000 	asrtle.d	$r0,$r4
 2c4:	6a000100 	bltu	$r8,$r0,-131072(0x20000) # fffe02c4 <_stack+0xe3fcc348>
 2c8:	00000110 	0x00000110
 2cc:	00000120 	0x00000120
 2d0:	01f30004 	0x01f30004
 2d4:	00009f54 	0x00009f54
 2d8:	00000000 	0x00000000
 2dc:	00740000 	bstrins.w	$r0,$r0,0x14,0x0
 2e0:	00e40000 	bstrpick.d	$r0,$r0,0x24,0x0
 2e4:	00010000 	asrtle.d	$r0,$r0
 2e8:	0000f869 	0x0000f869
 2ec:	00010c00 	asrtle.d	$r0,$r3
 2f0:	69000100 	bltu	$r8,$r0,65536(0x10000) # 102f0 <data_size+0xf8d4>
	...
 2fc:	00000098 	0x00000098
 300:	000000f0 	0x000000f0
 304:	f8540001 	0xf8540001
 308:	18000000 	pcaddi	$r0,0
 30c:	01000001 	0x01000001
 310:	00005400 	bitrev.d	$r0,$r0
 314:	00000000 	0x00000000
 318:	00ac0000 	bstrins.d	$r0,$r0,0x2c,0x0
 31c:	00f80000 	bstrpick.d	$r0,$r0,0x38,0x0
 320:	00010000 	asrtle.d	$r0,$r0
 324:	0000005d 	0x0000005d
	...
 330:	00004000 	revh.2w	$r0,$r0
 334:	54000100 	bl	67108864(0x4000000) # 4000334 <data_size+0x3fff918>
 338:	00000040 	0x00000040
 33c:	00000044 	0x00000044
 340:	007c0002 	bstrins.w	$r2,$r0,0x1c,0x0
 344:	00000044 	0x00000044
 348:	0000005c 	0x0000005c
 34c:	5c540001 	bne	$r0,$r1,21504(0x5400) # 574c <data_size+0x4d30>
 350:	60000000 	blt	$r0,$r0,0 # 350 <data_size-0x6cc>
 354:	02000000 	slti	$r0,$r0,0
 358:	00007400 	0x00007400
	...
 364:	14000000 	lu12i.w	$r0,0
 368:	02000000 	slti	$r0,$r0,0
 36c:	149f3000 	lu12i.w	$r0,326016(0x4f980)
 370:	2c000000 	vld	$vr0,$r0,0
 374:	01000000 	0x01000000
 378:	00445c00 	0x00445c00
 37c:	00480000 	0x00480000
 380:	00010000 	asrtle.d	$r0,$r0
 384:	0000005c 	0x0000005c
	...
 390:	00006400 	rdtimeh.w	$r0,$r0
 394:	54000100 	bl	67108864(0x4000000) # 4000394 <data_size+0x3fff978>
 398:	00000064 	0x00000064
 39c:	000000cc 	0x000000cc
 3a0:	cc690001 	0xcc690001
 3a4:	f4000000 	0xf4000000
 3a8:	04000000 	csrrd	$r0,0x0
 3ac:	5401f300 	bl	-67108368(0xc0001f0) # fc00059c <_stack+0xdffec620>
 3b0:	0000f49f 	0x0000f49f
 3b4:	00022c00 	0x00022c00
 3b8:	69000100 	bltu	$r8,$r0,65536(0x10000) # 103b8 <data_size+0xf99c>
	...
 3c4:	00000048 	0x00000048
 3c8:	00000064 	0x00000064
 3cc:	9f300002 	0x9f300002
 3d0:	00000064 	0x00000064
 3d4:	000000cc 	0x000000cc
 3d8:	f4680001 	0xf4680001
 3dc:	00000000 	0x00000000
 3e0:	03000001 	lu52i.d	$r1,$r0,0
 3e4:	9f018800 	0x9f018800
 3e8:	00000100 	0x00000100
 3ec:	0000011c 	0x0000011c
 3f0:	1c680001 	pcaddu12i	$r1,212992(0x34000)
 3f4:	38000001 	ldx.b	$r1,$r0,$r0
 3f8:	03000001 	lu52i.d	$r1,$r0,0
 3fc:	9f7f8800 	0x9f7f8800
 400:	00000138 	0x00000138
 404:	00000164 	0x00000164
 408:	64680001 	bge	$r0,$r1,26624(0x6800) # 6c08 <data_size+0x61ec>
 40c:	6c000001 	bgeu	$r0,$r1,0 # 40c <data_size-0x610>
 410:	03000001 	lu52i.d	$r1,$r0,0
 414:	9f7f8800 	0x9f7f8800
 418:	0000016c 	0x0000016c
 41c:	000001e8 	0x000001e8
 420:	e8680001 	0xe8680001
 424:	f0000001 	0xf0000001
 428:	03000001 	lu52i.d	$r1,$r0,0
 42c:	9f7f8800 	0x9f7f8800
 430:	000001f0 	0x000001f0
 434:	0000022c 	0x0000022c
 438:	00680001 	bstrins.w	$r1,$r0,0x8,0x0
 43c:	00000000 	0x00000000
 440:	64000000 	bge	$r0,$r0,0 # 440 <data_size-0x5dc>
 444:	78000000 	0x78000000
 448:	01000000 	0x01000000
 44c:	007c6700 	bstrins.w	$r0,$r24,0x1c,0x19
 450:	00cc0000 	bstrpick.d	$r0,$r0,0xc,0x0
 454:	00010000 	asrtle.d	$r0,$r0
 458:	0000f467 	0x0000f467
 45c:	00022c00 	0x00022c00
 460:	67000100 	bge	$r8,$r0,-65536(0x30000) # ffff0460 <_stack+0xe3fdc4e4>
	...
 46c:	00000048 	0x00000048
 470:	000000cc 	0x000000cc
 474:	f46a0001 	0xf46a0001
 478:	68000000 	bltu	$r0,$r0,0 # 478 <data_size-0x5a4>
 47c:	01000001 	0x01000001
 480:	01686a00 	0x01686a00
 484:	016c0000 	0x016c0000
 488:	00030000 	0x00030000
 48c:	6c9f7c8a 	bgeu	$r4,$r10,40828(0x9f7c) # a408 <data_size+0x99ec>
 490:	ec000001 	0xec000001
 494:	01000001 	0x01000001
 498:	01ec6a00 	0x01ec6a00
 49c:	01f00000 	0x01f00000
 4a0:	00030000 	0x00030000
 4a4:	f09f7c8a 	0xf09f7c8a
 4a8:	2c000001 	vld	$vr1,$r0,0
 4ac:	01000002 	0x01000002
 4b0:	00006a00 	rdtime.d	$r0,$r16
 4b4:	00000000 	0x00000000
 4b8:	00ac0000 	bstrins.d	$r0,$r0,0x2c,0x0
 4bc:	00cc0000 	bstrpick.d	$r0,$r0,0xc,0x0
 4c0:	00010000 	asrtle.d	$r0,$r0
 4c4:	0000f455 	0x0000f455
 4c8:	00010000 	asrtle.d	$r0,$r0
 4cc:	55000100 	bl	67174400(0x4010000) # 40104cc <data_size+0x400fab0>
 4d0:	00000100 	0x00000100
 4d4:	00000114 	0x00000114
 4d8:	9f300002 	0x9f300002
 4dc:	00000114 	0x00000114
 4e0:	00000118 	0x00000118
 4e4:	38550001 	0x38550001
 4e8:	4f000001 	jirl	$r1,$r0,-65536(0x30000)
 4ec:	01000001 	0x01000001
 4f0:	015c5500 	0x015c5500
 4f4:	016b0000 	0x016b0000
 4f8:	00010000 	asrtle.d	$r0,$r0
 4fc:	00017055 	0x00017055
 500:	00017f00 	asrtle.d	$r24,$r31
 504:	55000100 	bl	67174400(0x4010000) # 4010504 <data_size+0x400fae8>
 508:	0000018c 	0x0000018c
 50c:	0000019b 	0x0000019b
 510:	a8550001 	0xa8550001
 514:	b7000001 	0xb7000001
 518:	01000001 	0x01000001
 51c:	01c45500 	0x01c45500
 520:	01d30000 	0x01d30000
 524:	00010000 	asrtle.d	$r0,$r0
 528:	0001e055 	0x0001e055
 52c:	0001ef00 	asrtgt.d	$r24,$r27
 530:	55000100 	bl	67174400(0x4010000) # 4010530 <data_size+0x400fb14>
 534:	000001f4 	0x000001f4
 538:	00000203 	0x00000203
 53c:	10550001 	addu16i.d	$r1,$r0,5440(0x1540)
 540:	17000002 	lu32i.d	$r2,-524288(0x80000)
 544:	01000002 	0x01000002
 548:	02205500 	slti	$r0,$r8,-2027(0x815)
 54c:	02270000 	slti	$r0,$r0,-1600(0x9c0)
 550:	00010000 	asrtle.d	$r0,$r0
 554:	00000055 	0x00000055
	...
 560:	00001c00 	ctz.w	$r0,$r0
 564:	54000100 	bl	67108864(0x4000000) # 4000564 <data_size+0x3fffb48>
 568:	0000001c 	0x0000001c
 56c:	00000028 	0x00000028
 570:	01f30004 	0x01f30004
 574:	00009f54 	0x00009f54
	...
 580:	00180000 	sra.w	$r0,$r0,$r0
 584:	00010000 	asrtle.d	$r0,$r0
 588:	00000054 	0x00000054
 58c:	00000000 	0x00000000
 590:	00007400 	0x00007400
 594:	00007f00 	0x00007f00
 598:	54000100 	bl	67108864(0x4000000) # 4000598 <data_size+0x3fffb7c>
 59c:	0000007f 	0x0000007f
 5a0:	000000a0 	0x000000a0
 5a4:	01f30004 	0x01f30004
 5a8:	00009f54 	0x00009f54
	...
 5b4:	00280000 	0x00280000
 5b8:	00010000 	asrtle.d	$r0,$r0
 5bc:	00002854 	cto.d	$r20,$r2
 5c0:	00003000 	revb.2h	$r0,$r0
 5c4:	88000300 	0x88000300
 5c8:	00309f7f 	0x00309f7f
 5cc:	003c0000 	0x003c0000
 5d0:	00010000 	asrtle.d	$r0,$r0
 5d4:	00003c68 	revb.d	$r8,$r3
 5d8:	00005000 	bitrev.w	$r0,$r0
 5dc:	88000300 	0x88000300
 5e0:	00509f7f 	0x00509f7f
 5e4:	00580000 	0x00580000
 5e8:	00010000 	asrtle.d	$r0,$r0
 5ec:	00000068 	0x00000068
 5f0:	00000000 	0x00000000
 5f4:	00001800 	cto.w	$r0,$r0
 5f8:	00006000 	rdtimel.w	$r0,$r0
 5fc:	67000100 	bge	$r8,$r0,-65536(0x30000) # ffff05fc <_stack+0xe3fdc680>
	...
 60c:	00000024 	0x00000024
 610:	24540001 	ldptr.w	$r1,$r0,21504(0x5400)
 614:	bc000000 	0xbc000000
 618:	04000000 	csrrd	$r0,0x0
 61c:	5401f300 	bl	-67108368(0xc0001f0) # fc00080c <_stack+0xdffec890>
 620:	0000bc9f 	0x0000bc9f
 624:	0000c000 	0x0000c000
 628:	54000100 	bl	67108864(0x4000000) # 4000628 <data_size+0x3fffc0c>
 62c:	000000c0 	0x000000c0
 630:	000000d0 	0x000000d0
 634:	d0670001 	0xd0670001
 638:	dc000000 	0xdc000000
 63c:	04000000 	csrrd	$r0,0x0
 640:	1f008700 	pcaddu18i	$r0,-523208(0x80438)
 644:	0000dc9f 	0x0000dc9f
 648:	0000e800 	0x0000e800
 64c:	54000100 	bl	67108864(0x4000000) # 400064c <data_size+0x3fffc30>
	...
 65c:	00000024 	0x00000024
 660:	24550001 	ldptr.w	$r1,$r0,21760(0x5500)
 664:	bc000000 	0xbc000000
 668:	04000000 	csrrd	$r0,0x0
 66c:	5501f300 	bl	-67042832(0xc0101f0) # fc01085c <_stack+0xdfffc8e0>
 670:	0000bc9f 	0x0000bc9f
 674:	0000cb00 	0x0000cb00
 678:	55000100 	bl	67174400(0x4010000) # 4010678 <data_size+0x400fc5c>
 67c:	000000cb 	0x000000cb
 680:	000000dc 	0x000000dc
 684:	a8910003 	0xa8910003
 688:	0000dc7f 	0x0000dc7f
 68c:	0000e800 	0x0000e800
 690:	55000100 	bl	67174400(0x4010000) # 4010690 <data_size+0x400fc74>
	...
 6a0:	00000024 	0x00000024
 6a4:	24560001 	ldptr.w	$r1,$r0,22016(0x5600)
 6a8:	bc000000 	0xbc000000
 6ac:	04000000 	csrrd	$r0,0x0
 6b0:	5601f300 	bl	-66977296(0xc0201f0) # fc0208a0 <_stack+0xe000c924>
 6b4:	0000bc9f 	0x0000bc9f
 6b8:	0000cb00 	0x0000cb00
 6bc:	56000100 	bl	67239936(0x4020000) # 40206bc <data_size+0x401fca0>
 6c0:	000000cb 	0x000000cb
 6c4:	000000dc 	0x000000dc
 6c8:	ac910003 	0xac910003
 6cc:	0000dc7f 	0x0000dc7f
 6d0:	0000e800 	0x0000e800
 6d4:	56000100 	bl	67239936(0x4020000) # 40206d4 <data_size+0x401fcb8>
	...
 6e4:	00000024 	0x00000024
 6e8:	24570001 	ldptr.w	$r1,$r0,22272(0x5700)
 6ec:	bc000000 	0xbc000000
 6f0:	04000000 	csrrd	$r0,0x0
 6f4:	5701f300 	bl	-66911760(0xc0301f0) # fc0308e4 <_stack+0xe001c968>
 6f8:	0000bc9f 	0x0000bc9f
 6fc:	0000cb00 	0x0000cb00
 700:	57000100 	bl	67305472(0x4030000) # 4030700 <data_size+0x402fce4>
 704:	000000cb 	0x000000cb
 708:	000000dc 	0x000000dc
 70c:	01f30004 	0x01f30004
 710:	00dc9f57 	bstrpick.d	$r23,$r26,0x1c,0x27
 714:	00e80000 	bstrpick.d	$r0,$r0,0x28,0x0
 718:	00010000 	asrtle.d	$r0,$r0
 71c:	00000057 	0x00000057
 720:	00000000 	0x00000000
 724:	00002000 	clo.d	$r0,$r0
 728:	00003400 	revb.4h	$r0,$r0
 72c:	30000200 	0x30000200
 730:	0000349f 	revb.4h	$r31,$r4
 734:	00003800 	revb.2w	$r0,$r0
 738:	68000100 	bltu	$r8,$r0,0 # 738 <data_size-0x2e4>
 73c:	00000038 	0x00000038
 740:	00000058 	0x00000058
 744:	007c0008 	bstrins.w	$r8,$r0,0x1c,0x0
 748:	231c0091 	sc.d	$r17,$r4,7168(0x1c00)
 74c:	00589f50 	0x00589f50
 750:	00640000 	bstrins.w	$r0,$r0,0x4,0x0
 754:	00010000 	asrtle.d	$r0,$r0
 758:	0000b468 	0x0000b468
 75c:	0000bc00 	0x0000bc00
 760:	68000100 	bltu	$r8,$r0,0 # 760 <data_size-0x2bc>
 764:	000000d0 	0x000000d0
 768:	000000e8 	0x000000e8
 76c:	9f300002 	0x9f300002
	...
 778:	0000006c 	0x0000006c
 77c:	00000090 	0x00000090
 780:	90670001 	0x90670001
 784:	94000000 	0x94000000
 788:	03000000 	lu52i.d	$r0,$r0,0
 78c:	9f018700 	0x9f018700
 790:	00000094 	0x00000094
 794:	00000098 	0x00000098
 798:	b8670001 	0xb8670001
 79c:	bc000000 	0xbc000000
 7a0:	01000000 	0x01000000
 7a4:	00dc5500 	bstrpick.d	$r0,$r8,0x1c,0x15
 7a8:	00e80000 	bstrpick.d	$r0,$r0,0x28,0x0
 7ac:	000d0000 	bytepick.d	$r0,$r0,$r0,0x2
 7b0:	30120075 	vldrepl.d	$vr21,$r3,1024(0x400)
 7b4:	282b1416 	ld.b	$r22,$r0,-1339(0xac5)
 7b8:	13160001 	addu16i.d	$r1,$r0,-14976(0xc580)
 7bc:	0000009f 	0x0000009f
 7c0:	00000000 	0x00000000
 7c4:	00008000 	0x00008000
 7c8:	00008c00 	0x00008c00
 7cc:	5c000100 	bne	$r8,$r0,0 # 7cc <data_size-0x250>
	...
 7d8:	00000020 	0x00000020
 7dc:	00000024 	0x00000024
 7e0:	24540001 	ldptr.w	$r1,$r0,21504(0x5400)
 7e4:	34000000 	0x34000000
 7e8:	01000000 	0x01000000
 7ec:	00346700 	0x00346700
 7f0:	00380000 	0x00380000
 7f4:	00010000 	asrtle.d	$r0,$r0
 7f8:	0000385d 	revb.2w	$r29,$r2
 7fc:	00005800 	ext.w.h	$r0,$r0
 800:	67000100 	bge	$r8,$r0,-65536(0x30000) # ffff0800 <_stack+0xe3fdc884>
 804:	00000058 	0x00000058
 808:	00000064 	0x00000064
 80c:	b45d0001 	0xb45d0001
 810:	bc000000 	0xbc000000
 814:	01000000 	0x01000000
 818:	00d05d00 	bstrpick.d	$r0,$r8,0x10,0x17
 81c:	00dc0000 	bstrpick.d	$r0,$r0,0x1c,0x0
 820:	00010000 	asrtle.d	$r0,$r0
 824:	0000dc67 	0x0000dc67
 828:	0000e800 	0x0000e800
 82c:	54000100 	bl	67108864(0x4000000) # 400082c <data_size+0x3fffe10>
	...
 838:	1c00347c 	pcaddu12i	$r28,419(0x1a3)
 83c:	1c003484 	pcaddu12i	$r4,420(0x1a4)
 840:	84540001 	0x84540001
 844:	941c0034 	0x941c0034
 848:	041c0034 	csrwr	$r20,0x700
 84c:	5401f300 	bl	-67108368(0xc0001f0) # fc000a3c <_stack+0xdffecac0>
 850:	0000009f 	0x0000009f
 854:	00000000 	0x00000000
 858:	00347c00 	0x00347c00
 85c:	0034841c 	0x0034841c
 860:	5500011c 	bl	74514432(0x4710000) # 4710860 <data_size+0x470fe44>
 864:	1c003484 	pcaddu12i	$r4,420(0x1a4)
 868:	1c003494 	pcaddu12i	$r20,420(0x1a4)
 86c:	01f30004 	0x01f30004
 870:	00009f55 	0x00009f55
 874:	00000000 	0x00000000
 878:	347c0000 	0x347c0000
 87c:	34841c00 	0x34841c00
 880:	00031c00 	0x00031c00
 884:	849f7f75 	0x849f7f75
 888:	901c0034 	0x901c0034
 88c:	061c0034 	cacop	0x14,$r1,1792(0x700)
 890:	5501f300 	bl	-67042832(0xc0101f0) # fc010a80 <_stack+0xdfffcb04>
 894:	009f1c31 	bstrins.d	$r17,$r1,0x1f,0x7
 898:	00000000 	0x00000000
 89c:	7c000000 	0x7c000000
 8a0:	841c0034 	0x841c0034
 8a4:	011c0034 	0x011c0034
 8a8:	34845400 	0x34845400
 8ac:	34941c00 	0x34941c00
 8b0:	00041c00 	alsl.w	$r0,$r0,$r7,0x1
 8b4:	9f5401f3 	0x9f5401f3
	...
 8c0:	1c003424 	pcaddu12i	$r4,417(0x1a1)
 8c4:	1c00343c 	pcaddu12i	$r28,417(0x1a1)
 8c8:	3c540001 	0x3c540001
 8cc:	7c1c0034 	0x7c1c0034
 8d0:	041c0034 	csrwr	$r20,0x700
 8d4:	5401f300 	bl	-67108368(0xc0001f0) # fc000ac4 <_stack+0xdffecb48>
 8d8:	0000009f 	0x0000009f
 8dc:	00000000 	0x00000000
 8e0:	00342400 	0x00342400
 8e4:	00343c1c 	0x00343c1c
 8e8:	5500011c 	bl	74514432(0x4710000) # 47108e8 <data_size+0x470fecc>
 8ec:	1c00343c 	pcaddu12i	$r28,417(0x1a1)
 8f0:	1c00347c 	pcaddu12i	$r28,419(0x1a3)
 8f4:	01f30004 	0x01f30004
 8f8:	00009f55 	0x00009f55
 8fc:	00000000 	0x00000000
 900:	34240000 	0x34240000
 904:	34241c00 	0x34241c00
 908:	00011c00 	asrtle.d	$r0,$r7
 90c:	00342456 	0x00342456
 910:	0034341c 	0x0034341c
 914:	7600031c 	0x7600031c
 918:	34349f7f 	0x34349f7f
 91c:	34541c00 	0x34541c00
 920:	00061c00 	alsl.wu	$r0,$r0,$r7,0x1
 924:	315601f3 	vstelm.h	$vr19,$r15,-256(0x100),0x5
 928:	00009f1c 	0x00009f1c
 92c:	00000000 	0x00000000
 930:	34240000 	0x34240000
 934:	34581c00 	0x34581c00
 938:	00011c00 	asrtle.d	$r0,$r7
 93c:	00345c54 	0x00345c54
 940:	0034701c 	0x0034701c
 944:	5400011c 	bl	74448896(0x4700000) # 4700944 <data_size+0x46fff28>
	...
 950:	1c0033d0 	pcaddu12i	$r16,414(0x19e)
 954:	1c003408 	pcaddu12i	$r8,416(0x1a0)
 958:	08550001 	fmsub.s	$f1,$f0,$f0,$f10
 95c:	201c0034 	ll.w	$r20,$r1,7168(0x1c00)
 960:	041c0034 	csrwr	$r20,0x700
 964:	5501f300 	bl	-67042832(0xc0101f0) # fc010b54 <_stack+0xdfffcbd8>
 968:	0034209f 	0x0034209f
 96c:	0034241c 	0x0034241c
 970:	5500011c 	bl	74514432(0x4710000) # 4710970 <data_size+0x470ff54>
	...
 97c:	1c0033d0 	pcaddu12i	$r16,414(0x19e)
 980:	1c0033e0 	pcaddu12i	$r0,415(0x19f)
 984:	e0560001 	0xe0560001
 988:	1c1c0033 	pcaddu12i	$r19,57345(0xe001)
 98c:	031c0034 	lu52i.d	$r20,$r1,1792(0x700)
 990:	9f7f7600 	0x9f7f7600
 994:	1c003420 	pcaddu12i	$r0,417(0x1a1)
 998:	1c003424 	pcaddu12i	$r4,417(0x1a1)
 99c:	7f760003 	0x7f760003
 9a0:	0000009f 	0x0000009f
 9a4:	00000000 	0x00000000
 9a8:	0033d000 	0x0033d000
 9ac:	0033dc1c 	0x0033dc1c
 9b0:	5500011c 	bl	74514432(0x4710000) # 47109b0 <data_size+0x470ff94>
 9b4:	1c0033dc 	pcaddu12i	$r28,414(0x19e)
 9b8:	1c0033fc 	pcaddu12i	$r28,415(0x19f)
 9bc:	fc5c0001 	0xfc5c0001
 9c0:	1c1c0033 	pcaddu12i	$r19,57345(0xe001)
 9c4:	011c0034 	0x011c0034
 9c8:	34205500 	0x34205500
 9cc:	34241c00 	0x34241c00
 9d0:	00011c00 	asrtle.d	$r0,$r7
 9d4:	00000055 	0x00000055
 9d8:	00000000 	0x00000000
 9dc:	0033d000 	0x0033d000
 9e0:	0033e01c 	0x0033e01c
 9e4:	5400011c 	bl	74448896(0x4700000) # 47009e4 <data_size+0x46fffc8>
 9e8:	1c0033e0 	pcaddu12i	$r0,415(0x19f)
 9ec:	1c0033fc 	pcaddu12i	$r28,415(0x19f)
 9f0:	fc5d0001 	0xfc5d0001
 9f4:	081c0033 	fmadd.s	$f19,$f1,$f0,$f24
 9f8:	011c0034 	0x011c0034
 9fc:	34085400 	0x34085400
 a00:	341c1c00 	0x341c1c00
 a04:	00011c00 	asrtle.d	$r0,$r7
 a08:	0034205c 	0x0034205c
 a0c:	0034241c 	0x0034241c
 a10:	5400011c 	bl	74448896(0x4700000) # 4700a10 <data_size+0x46ffff4>
	...
 a1c:	1c0033ac 	pcaddu12i	$r12,413(0x19d)
 a20:	1c0033b8 	pcaddu12i	$r24,413(0x19d)
 a24:	b8550001 	0xb8550001
 a28:	d01c0033 	0xd01c0033
 a2c:	041c0033 	csrwr	$r19,0x700
 a30:	5501f300 	bl	-67042832(0xc0101f0) # fc010c20 <_stack+0xdfffcca4>
 a34:	0000009f 	0x0000009f
 a38:	00000000 	0x00000000
 a3c:	0033ac00 	0x0033ac00
 a40:	0033ac1c 	0x0033ac1c
 a44:	5600011c 	bl	74579968(0x4720000) # 4720a44 <data_size+0x4720028>
 a48:	1c0033ac 	pcaddu12i	$r12,413(0x19d)
 a4c:	1c0033b4 	pcaddu12i	$r20,413(0x19d)
 a50:	7f760003 	0x7f760003
 a54:	0033b49f 	0x0033b49f
 a58:	0033cc1c 	0x0033cc1c
 a5c:	f300061c 	0xf300061c
 a60:	1c315601 	pcaddu12i	$r1,101040(0x18ab0)
 a64:	0000009f 	0x0000009f
 a68:	00000000 	0x00000000
 a6c:	0033ac00 	0x0033ac00
 a70:	0033b81c 	0x0033b81c
 a74:	5400011c 	bl	74448896(0x4700000) # 4700a74 <data_size+0x4700058>
 a78:	1c0033b8 	pcaddu12i	$r24,413(0x19d)
 a7c:	1c0033cc 	pcaddu12i	$r12,414(0x19e)
 a80:	005c0001 	0x005c0001
 a84:	00000000 	0x00000000
 a88:	68000000 	bltu	$r0,$r0,0 # a88 <data_size+0x6c>
 a8c:	801c0033 	0x801c0033
 a90:	011c0033 	0x011c0033
 a94:	33805400 	xvstelm.b	$xr0,$r0,21(0x15),0x0
 a98:	33901c00 	xvstelm.b	$xr0,$r0,7(0x7),0x4
 a9c:	00011c00 	asrtle.d	$r0,$r7
 aa0:	00000054 	0x00000054
 aa4:	00000000 	0x00000000
 aa8:	00333c00 	0x00333c00
 aac:	0033541c 	0x0033541c
 ab0:	5400011c 	bl	74448896(0x4700000) # 4700ab0 <data_size+0x4700094>
 ab4:	1c003354 	pcaddu12i	$r20,410(0x19a)
 ab8:	1c003360 	pcaddu12i	$r0,411(0x19b)
 abc:	64540001 	bge	$r0,$r1,21504(0x5400) # 5ebc <data_size+0x54a0>
 ac0:	681c0033 	bltu	$r1,$r19,7168(0x1c00) # 26c0 <data_size+0x1ca4>
 ac4:	011c0033 	0x011c0033
 ac8:	00005400 	bitrev.d	$r0,$r0
 acc:	00000000 	0x00000000
 ad0:	32d40000 	0x32d40000
 ad4:	330c1c00 	0x330c1c00
 ad8:	00011c00 	asrtle.d	$r0,$r7
 adc:	00330c54 	0x00330c54
 ae0:	0033141c 	0x0033141c
 ae4:	5400011c 	bl	74448896(0x4700000) # 4700ae4 <data_size+0x47000c8>
 ae8:	1c003318 	pcaddu12i	$r24,408(0x198)
 aec:	1c003330 	pcaddu12i	$r16,409(0x199)
 af0:	00540001 	0x00540001
 af4:	00000000 	0x00000000
 af8:	d4000000 	0xd4000000
 afc:	f01c0032 	0xf01c0032
 b00:	011c0032 	0x011c0032
 b04:	32f05500 	0x32f05500
 b08:	33041c00 	0x33041c00
 b0c:	00011c00 	asrtle.d	$r0,$r7
 b10:	0033045c 	0x0033045c
 b14:	00330c1c 	0x00330c1c
 b18:	5500011c 	bl	74514432(0x4710000) # 4710b18 <data_size+0x47100fc>
 b1c:	1c00330c 	pcaddu12i	$r12,408(0x198)
 b20:	1c003310 	pcaddu12i	$r16,408(0x198)
 b24:	185c0001 	pcaddi	$r1,188416(0x2e000)
 b28:	1c1c0033 	pcaddu12i	$r19,57345(0xe001)
 b2c:	011c0033 	0x011c0033
 b30:	00005c00 	ext.w.b	$r0,$r0
 b34:	00000000 	0x00000000
 b38:	32d40000 	0x32d40000
 b3c:	32ec1c00 	0x32ec1c00
 b40:	00011c00 	asrtle.d	$r0,$r7
 b44:	0032ec56 	0x0032ec56
 b48:	0032f01c 	0x0032f01c
 b4c:	f300041c 	0xf300041c
 b50:	f09f5601 	0xf09f5601
 b54:	101c0032 	addu16i.d	$r18,$r1,1792(0x700)
 b58:	061c0033 	cacop	0x13,$r1,1792(0x700)
 b5c:	5601f300 	bl	-66977296(0xc0201f0) # fc020d4c <_stack+0xe000cdd0>
 b60:	189f1c31 	pcaddi	$r17,325857(0x4f8e1)
 b64:	1c1c0033 	pcaddu12i	$r19,57345(0xe001)
 b68:	061c0033 	cacop	0x13,$r1,1792(0x700)
 b6c:	5601f300 	bl	-66977296(0xc0201f0) # fc020d5c <_stack+0xe000cde0>
 b70:	009f1c31 	bstrins.d	$r17,$r1,0x1f,0x7
 b74:	00000000 	0x00000000
 b78:	ac000000 	0xac000000
 b7c:	cc1c0032 	0xcc1c0032
 b80:	011c0032 	0x011c0032
 b84:	32cc5500 	0x32cc5500
 b88:	32d41c00 	0x32d41c00
 b8c:	00011c00 	asrtle.d	$r0,$r7
 b90:	00000055 	0x00000055
 b94:	00000000 	0x00000000
 b98:	0032ac00 	0x0032ac00
 b9c:	0032b41c 	0x0032b41c
 ba0:	5600011c 	bl	74579968(0x4720000) # 4720ba0 <data_size+0x4720184>
 ba4:	1c0032b4 	pcaddu12i	$r20,405(0x195)
 ba8:	1c0032b8 	pcaddu12i	$r24,405(0x195)
 bac:	01f30004 	0x01f30004
 bb0:	32b89f56 	xvldrepl.b	$xr22,$r26,-473(0xe27)
 bb4:	32c01c00 	0x32c01c00
 bb8:	000a1c00 	0x000a1c00
 bbc:	007d0074 	bstrins.w	$r20,$r3,0x1d,0x0
 bc0:	5601f31c 	bl	-59637264(0xc7201f0) # fc720db0 <_stack+0xe070ce34>
 bc4:	32c09f22 	0x32c09f22
 bc8:	32cc1c00 	0x32cc1c00
 bcc:	000c1c00 	bytepick.d	$r0,$r0,$r7,0x0
 bd0:	007d0074 	bstrins.w	$r20,$r3,0x1d,0x0
 bd4:	5601f31c 	bl	-59637264(0xc7201f0) # fc720dc4 <_stack+0xe070ce48>
 bd8:	9f012322 	0x9f012322
 bdc:	1c0032cc 	pcaddu12i	$r12,406(0x196)
 be0:	1c0032d0 	pcaddu12i	$r16,406(0x196)
 be4:	0074000a 	bstrins.w	$r10,$r0,0x14,0x0
 be8:	f31c007d 	0xf31c007d
 bec:	9f225601 	0x9f225601
	...
 bf8:	1c0032ac 	pcaddu12i	$r12,405(0x195)
 bfc:	1c0032b8 	pcaddu12i	$r24,405(0x195)
 c00:	b8540001 	0xb8540001
 c04:	c01c0032 	0xc01c0032
 c08:	011c0032 	0x011c0032
 c0c:	32c05d00 	0x32c05d00
 c10:	32cc1c00 	0x32cc1c00
 c14:	00031c00 	0x00031c00
 c18:	cc9f7f7d 	0xcc9f7f7d
 c1c:	d01c0032 	0xd01c0032
 c20:	011c0032 	0x011c0032
 c24:	00005d00 	ext.w.b	$r0,$r8
 c28:	00000000 	0x00000000
 c2c:	32900000 	xvldrepl.b	$xr0,$r0,1024(0x400)
 c30:	32981c00 	xvldrepl.b	$xr0,$r0,1543(0x607)
 c34:	00011c00 	asrtle.d	$r0,$r7
 c38:	00329855 	0x00329855
 c3c:	0032ac1c 	0x0032ac1c
 c40:	5500011c 	bl	74514432(0x4710000) # 4710c40 <data_size+0x4710224>
	...
 c4c:	1c003290 	pcaddu12i	$r16,404(0x194)
 c50:	1c003294 	pcaddu12i	$r20,404(0x194)
 c54:	94540001 	0x94540001
 c58:	ac1c0032 	0xac1c0032
 c5c:	011c0032 	0x011c0032
 c60:	00005c00 	ext.w.b	$r0,$r0
 c64:	00000000 	0x00000000
 c68:	32540000 	xvldrepl.h	$xr0,$r0,-1536(0xa00)
 c6c:	32581c00 	xvldrepl.h	$xr0,$r0,-1010(0xc0e)
 c70:	00011c00 	asrtle.d	$r0,$r7
 c74:	00325854 	0x00325854
 c78:	0032681c 	0x0032681c
 c7c:	7400031c 	xvseq.b	$xr28,$xr24,$xr0
 c80:	32689f01 	0x32689f01
 c84:	32801c00 	xvldrepl.b	$xr0,$r0,7(0x7)
 c88:	00081c00 	bytepick.w	$r0,$r0,$r7,0x0
 c8c:	007c0074 	bstrins.w	$r20,$r3,0x1c,0x0
 c90:	9f012322 	0x9f012322
 c94:	1c003280 	pcaddu12i	$r0,404(0x194)
 c98:	1c003284 	pcaddu12i	$r4,404(0x194)
 c9c:	01f30009 	0x01f30009
 ca0:	22007c54 	ll.d	$r20,$r2,124(0x7c)
 ca4:	009f0123 	bstrins.d	$r3,$r9,0x1f,0x0
 ca8:	00000000 	0x00000000
 cac:	54000000 	bl	0 # cac <data_size+0x290>
 cb0:	681c0032 	bltu	$r1,$r18,7168(0x1c00) # 28b0 <data_size+0x1e94>
 cb4:	021c0032 	slti	$r18,$r1,1792(0x700)
 cb8:	689f3000 	bltu	$r0,$r0,40752(0x9f30) # abe8 <data_size+0xa1cc>
 cbc:	841c0032 	0x841c0032
 cc0:	011c0032 	0x011c0032
 cc4:	32845c00 	xvldrepl.b	$xr0,$r0,279(0x117)
 cc8:	32901c00 	xvldrepl.b	$xr0,$r0,1031(0x407)
 ccc:	00021c00 	0x00021c00
 cd0:	00009f30 	0x00009f30
 cd4:	00000000 	0x00000000
 cd8:	32240000 	xvldrepl.w	$xr0,$r0,1024(0x400)
 cdc:	32241c00 	xvldrepl.w	$xr0,$r0,1052(0x41c)
 ce0:	00011c00 	asrtle.d	$r0,$r7
 ce4:	00322454 	0x00322454
 ce8:	0032301c 	0x0032301c
 cec:	7400031c 	xvseq.b	$xr28,$xr24,$xr0
 cf0:	32309f01 	0x32309f01
 cf4:	32441c00 	xvldrepl.h	$xr0,$r0,526(0x20e)
 cf8:	00081c00 	bytepick.w	$r0,$r0,$r7,0x0
 cfc:	007c0074 	bstrins.w	$r20,$r3,0x1c,0x0
 d00:	9f012322 	0x9f012322
 d04:	1c003244 	pcaddu12i	$r4,402(0x192)
 d08:	1c003248 	pcaddu12i	$r8,402(0x192)
 d0c:	01f30009 	0x01f30009
 d10:	22007c54 	ll.d	$r20,$r2,124(0x7c)
 d14:	489f0123 	bcnez	$fcc1,827136(0xc9f00) # cac14 <data_size+0xca1f8>
 d18:	501c0032 	b	13114368(0xc81c00) # c82918 <data_size+0xc81efc>
 d1c:	031c0032 	lu52i.d	$r18,$r1,1792(0x700)
 d20:	9f017400 	0x9f017400
 d24:	1c003250 	pcaddu12i	$r16,402(0x192)
 d28:	1c003254 	pcaddu12i	$r20,402(0x192)
 d2c:	01f30006 	0x01f30006
 d30:	9f012354 	0x9f012354
	...
 d3c:	1c003224 	pcaddu12i	$r4,401(0x191)
 d40:	1c003230 	pcaddu12i	$r16,401(0x191)
 d44:	9f300002 	0x9f300002
 d48:	1c003230 	pcaddu12i	$r16,401(0x191)
 d4c:	1c003248 	pcaddu12i	$r8,402(0x192)
 d50:	485c0001 	bceqz	$fcc0,285696(0x45c00) # 46950 <data_size+0x45f34>
 d54:	541c0032 	bl	13114368(0xc81c00) # c82954 <data_size+0xc81f38>
 d58:	021c0032 	slti	$r18,$r1,1792(0x700)
 d5c:	009f3000 	bstrins.d	$r0,$r0,0x1f,0xc
 d60:	00000000 	0x00000000
 d64:	90000000 	0x90000000
 d68:	901c0033 	0x901c0033
 d6c:	011c0033 	0x011c0033
 d70:	33905600 	xvstelm.b	$xr0,$r16,21(0x15),0x4
 d74:	33981c00 	xvstelm.b	$xr0,$r0,7(0x7),0x6
 d78:	00031c00 	0x00031c00
 d7c:	989f7f76 	0x989f7f76
 d80:	9c1c0033 	0x9c1c0033
 d84:	061c0033 	cacop	0x13,$r1,1792(0x700)
 d88:	5601f300 	bl	-66977296(0xc0201f0) # fc020f78 <_stack+0xe000cffc>
 d8c:	9c9f1c31 	0x9c9f1c31
 d90:	a01c0033 	0xa01c0033
 d94:	0b1c0033 	0x0b1c0033
 d98:	20007c00 	ll.w	$r0,$r0,124(0x7c)
 d9c:	225601f3 	ll.d	$r19,$r15,22016(0x5600)
 da0:	9f220074 	0x9f220074
 da4:	1c0033a0 	pcaddu12i	$r0,413(0x19d)
 da8:	1c0033a4 	pcaddu12i	$r4,413(0x19d)
 dac:	0074000a 	bstrins.w	$r10,$r0,0x14,0x0
 db0:	f31c007c 	0xf31c007c
 db4:	9f225601 	0x9f225601
 db8:	1c0033a4 	pcaddu12i	$r4,413(0x19d)
 dbc:	1c0033a8 	pcaddu12i	$r8,413(0x19d)
 dc0:	007c000b 	bstrins.w	$r11,$r0,0x1c,0x0
 dc4:	5601f320 	bl	-58588688(0xc8201f0) # fc820fb4 <_stack+0xe080d038>
 dc8:	22007422 	ll.d	$r2,$r1,116(0x74)
 dcc:	0000009f 	0x0000009f
 dd0:	00000000 	0x00000000
 dd4:	00339000 	0x00339000
 dd8:	00339c1c 	0x00339c1c
 ddc:	5400011c 	bl	74448896(0x4700000) # 4700ddc <data_size+0x47003c0>
 de0:	1c00339c 	pcaddu12i	$r28,412(0x19c)
 de4:	1c0033a8 	pcaddu12i	$r8,413(0x19d)
 de8:	005c0001 	0x005c0001
 dec:	00000000 	0x00000000
 df0:	d4000000 	0xd4000000
 df4:	e4000000 	0xe4000000
 df8:	02000000 	slti	$r0,$r0,0
 dfc:	e49f3000 	0xe49f3000
 e00:	f8000000 	0xf8000000
 e04:	0e000000 	0x0e000000
 e08:	f7007400 	0xf7007400
 e0c:	640801b8 	bge	$r13,$r24,2048(0x800) # 160c <data_size+0xbf0>
 e10:	1b01b8f7 	pcalau12i	$r23,-520761(0x80dc7)
 e14:	f89f00f7 	0xf89f00f7
 e18:	04000000 	csrrd	$r0,0x0
 e1c:	01000001 	0x01000001
 e20:	00005d00 	ext.w.b	$r0,$r8
 e24:	00000000 	0x00000000
 e28:	00b00000 	bstrins.d	$r0,$r0,0x30,0x0
 e2c:	00c00000 	bstrpick.d	$r0,$r0,0x0,0x0
 e30:	00020000 	0x00020000
 e34:	00c09f30 	bstrpick.d	$r16,$r25,0x0,0x27
 e38:	00cc0000 	bstrpick.d	$r0,$r0,0xc,0x0
 e3c:	00050000 	alsl.w	$r0,$r0,$r0,0x3
 e40:	1e3a0074 	pcaddu18i	$r20,118787(0x1d003)
 e44:	0000cc9f 	0x0000cc9f
 e48:	0000d400 	0x0000d400
 e4c:	54000100 	bl	67108864(0x4000000) # 4000e4c <data_size+0x4000430>
	...
 e58:	00000028 	0x00000028
 e5c:	00000094 	0x00000094
 e60:	94540001 	0x94540001
 e64:	ac000000 	0xac000000
 e68:	04000000 	csrrd	$r0,0x0
 e6c:	5401f300 	bl	-67108368(0xc0001f0) # fc00105c <_stack+0xdffed0e0>
 e70:	0000009f 	0x0000009f
 e74:	00000000 	0x00000000
 e78:	00002800 	cto.d	$r0,$r0
 e7c:	00003800 	revb.2w	$r0,$r0
 e80:	30000200 	0x30000200
 e84:	0000389f 	revb.2w	$r31,$r4
 e88:	0000ac00 	0x0000ac00
 e8c:	5f000100 	bne	$r8,$r0,-65536(0x30000) # ffff0e8c <_stack+0xe3fdcf10>
	...

Disassembly of section .debug_line:

00000000 <.debug_line>:
       0:	00000514 	0x00000514
       4:	00410004 	slli.d	$r4,$r0,0x0
       8:	01010000 	fadd.d	$f0,$f0,$f0
       c:	0df2f601 	0x0df2f601
      10:	01010100 	fadd.d	$f0,$f8,$f0
      14:	00000001 	0x00000001
      18:	01000001 	0x01000001
      1c:	692f2e2e 	bltu	$r17,$r14,77612(0x12f2c) # 12f48 <data_size+0x1252c>
      20:	756c636e 	0x756c636e
      24:	00006564 	rdtimeh.w	$r4,$r11
      28:	69647473 	bltu	$r3,$r19,91252(0x16474) # 1649c <data_size+0x15a80>
      2c:	00632e6f 	bstrins.w	$r15,$r19,0x3,0xb
      30:	73000000 	0x73000000
      34:	6f696474 	bgeu	$r3,$r20,-38556(0x36964) # ffff6998 <_stack+0xe3fe2a1c>
      38:	0100682e 	0x0100682e
      3c:	6f630000 	bgeu	$r0,$r0,-40192(0x36300) # ffff633c <_stack+0xe3fe23c0>
      40:	6e6f6d6d 	bgeu	$r11,$r13,-102548(0x26f6c) # fffe6fac <_stack+0xe3fd3030>
      44:	0100682e 	0x0100682e
      48:	00000000 	0x00000000
      4c:	2be00205 	fst.d	$f5,$r16,-2048(0x800)
      50:	052a1c00 	0x052a1c00
      54:	02050017 	slti	$r23,$r0,320(0x140)
      58:	1c002be0 	pcaddu12i	$r0,351(0x15f)
      5c:	00020518 	0x00020518
      60:	2be00205 	fst.d	$f5,$r16,-2048(0x800)
      64:	05181c00 	0x05181c00
      68:	02050002 	slti	$r2,$r0,320(0x140)
      6c:	1c002bec 	pcaddu12i	$r12,351(0x15f)
      70:	07050106 	0x07050106
      74:	f0020500 	0xf0020500
      78:	011c002b 	0x011c002b
      7c:	05000205 	0x05000205
      80:	002bf402 	0x002bf402
      84:	0518061c 	0x0518061c
      88:	02050003 	slti	$r3,$r0,320(0x140)
      8c:	1c002bf4 	pcaddu12i	$r20,351(0x15f)
      90:	05050106 	0x05050106
      94:	00020500 	0x00020500
      98:	001c002c 	mul.w	$r12,$r1,$r0
      9c:	16020402 	lu32i.d	$r2,4128(0x1020)
      a0:	05001205 	0x05001205
      a4:	002c0402 	alsl.d	$r2,$r0,$r1,0x1
      a8:	0205011c 	slti	$r28,$r8,320(0x140)
      ac:	08020500 	0x08020500
      b0:	001c002c 	mul.w	$r12,$r1,$r0
      b4:	06000402 	cacop	0x2,$r0,1(0x1)
      b8:	0002051c 	0x0002051c
      bc:	2c0c0205 	vld	$vr5,$r16,768(0x300)
      c0:	01061c00 	0x01061c00
      c4:	05000f05 	0x05000f05
      c8:	002c1802 	alsl.d	$r2,$r0,$r6,0x1
      cc:	0518061c 	0x0518061c
      d0:	02050002 	slti	$r2,$r0,320(0x140)
      d4:	1c002c18 	pcaddu12i	$r24,352(0x160)
      d8:	0f050106 	0x0f050106
      dc:	1c020500 	pcaddu12i	$r0,4136(0x1028)
      e0:	061c002c 	cacop	0xc,$r1,1792(0x700)
      e4:	00020518 	0x00020518
      e8:	2c1c0205 	vld	$vr5,$r16,1792(0x700)
      ec:	18061c00 	pcaddi	$r0,12512(0x30e0)
      f0:	05000105 	0x05000105
      f4:	002c2c02 	alsl.d	$r2,$r0,$r11,0x1
      f8:	0514061c 	0x0514061c
      fc:	02050002 	slti	$r2,$r0,320(0x140)
     100:	1c002c2c 	pcaddu12i	$r12,353(0x161)
     104:	0f050106 	0x0f050106
     108:	34020500 	0x34020500
     10c:	061c002c 	cacop	0xc,$r1,1792(0x700)
     110:	00020518 	0x00020518
     114:	2c340205 	vld	$vr5,$r16,-768(0xd00)
     118:	01061c00 	0x01061c00
     11c:	05000f05 	0x05000f05
     120:	002c3802 	alsl.d	$r2,$r0,$r14,0x1
     124:	0518061c 	0x0518061c
     128:	02050002 	slti	$r2,$r0,320(0x140)
     12c:	1c002c38 	pcaddu12i	$r24,353(0x161)
     130:	01051806 	fmul.d	$f6,$f0,$f6
     134:	40020500 	beqz	$r8,516(0x204) # 338 <data_size-0x6e4>
     138:	061c002c 	cacop	0xc,$r1,1792(0x700)
     13c:	00410519 	slli.d	$r25,$r8,0x1
     140:	2c400205 	vst	$vr5,$r16,0
     144:	05181c00 	0x05181c00
     148:	02050002 	slti	$r2,$r0,320(0x140)
     14c:	1c002c40 	pcaddu12i	$r0,354(0x162)
     150:	41051606 	beqz	$r16,1639700(0x190514) # 190664 <data_size+0x18fc48>
     154:	48020500 	bcnez	$fcc0,516(0x204) # 358 <data_size-0x6c4>
     158:	191c002c 	pcaddi	$r12,-466943(0x8e001)
     15c:	05000805 	0x05000805
     160:	002c4c02 	alsl.d	$r2,$r0,$r19,0x1
     164:	4105151c 	beqz	$r8,-981740(0x710514) # fff10678 <_stack+0xe3efc6fc>
     168:	54020500 	bl	67109380(0x4000204) # 400036c <data_size+0x3fff950>
     16c:	061c002c 	cacop	0xc,$r1,1792(0x700)
     170:	00020519 	0x00020519
     174:	2c540205 	vst	$vr5,$r16,1280(0x500)
     178:	05181c00 	0x05181c00
     17c:	02050002 	slti	$r2,$r0,320(0x140)
     180:	1c002c54 	pcaddu12i	$r20,354(0x162)
     184:	11050106 	addu16i.d	$r6,$r8,16704(0x4140)
     188:	58020500 	beq	$r8,$r0,516(0x204) # 38c <data_size-0x690>
     18c:	141c002c 	lu12i.w	$r12,57345(0xe001)
     190:	05004105 	0x05004105
     194:	002c6c02 	alsl.d	$r2,$r0,$r27,0x1
     198:	4105011c 	beqz	$r8,-981760(0x710500) # fff10698 <_stack+0xe3efc71c>
     19c:	74020500 	xvsle.b	$xr0,$xr8,$xr1
     1a0:	1a1c002c 	pcalau12i	$r12,57345(0xe001)
     1a4:	05001105 	0x05001105
     1a8:	002c7802 	alsl.d	$r2,$r0,$r30,0x1
     1ac:	0518061c 	0x0518061c
     1b0:	02050002 	slti	$r2,$r0,320(0x140)
     1b4:	1c002c78 	pcaddu12i	$r24,355(0x163)
     1b8:	04050106 	csrxchg	$r6,$r8,0x140
     1bc:	80020500 	0x80020500
     1c0:	1b1c002c 	pcalau12i	$r12,-466943(0x8e001)
     1c4:	05001005 	0x05001005
     1c8:	002c8402 	alsl.d	$r2,$r0,$r1,0x2
     1cc:	0705011c 	0x0705011c
     1d0:	8c020500 	0x8c020500
     1d4:	181c002c 	pcaddi	$r12,57345(0xe001)
     1d8:	05001d05 	0x05001d05
     1dc:	002c9002 	alsl.d	$r2,$r0,$r4,0x2
     1e0:	1105011c 	addu16i.d	$r28,$r8,16704(0x4140)
     1e4:	94020500 	0x94020500
     1e8:	011c002c 	0x011c002c
     1ec:	05000805 	0x05000805
     1f0:	002c9802 	alsl.d	$r2,$r0,$r6,0x2
     1f4:	0c05011c 	0x0c05011c
     1f8:	a0020500 	0xa0020500
     1fc:	061c002c 	cacop	0xc,$r1,1792(0x700)
     200:	00030518 	0x00030518
     204:	2ca00205 	xvld	$xr5,$r16,-2048(0x800)
     208:	01061c00 	0x01061c00
     20c:	05000505 	0x05000505
     210:	002ca802 	alsl.d	$r2,$r0,$r10,0x2
     214:	0402001c 	csrrd	$r28,0x80
     218:	05160601 	0x05160601
     21c:	02050003 	slti	$r3,$r0,320(0x140)
     220:	1c002ca8 	pcaddu12i	$r8,357(0x165)
     224:	1d050106 	pcaddu12i	$r6,-514040(0x82808)
     228:	ac020500 	0xac020500
     22c:	011c002c 	0x011c002c
     230:	05001105 	0x05001105
     234:	002cb002 	alsl.d	$r2,$r0,$r12,0x2
     238:	0205161c 	slti	$r28,$r16,325(0x145)
     23c:	b4020500 	0xb4020500
     240:	001c002c 	mul.w	$r12,$r1,$r0
     244:	1e000402 	pcaddu18i	$r2,32(0x20)
     248:	05000105 	0x05000105
     24c:	002cdc02 	alsl.d	$r2,$r0,$r23,0x2
     250:	0a050d1c 	0x0a050d1c
     254:	e0020500 	0xe0020500
     258:	211c002c 	sc.w	$r12,$r1,7168(0x1c00)
     25c:	05000105 	0x05000105
     260:	002d0002 	alsl.d	$r2,$r0,$r0,0x3
     264:	0525061c 	0x0525061c
     268:	0205001a 	slti	$r26,$r0,320(0x140)
     26c:	1c002d00 	pcaddu12i	$r0,360(0x168)
     270:	00020518 	0x00020518
     274:	2d000205 	0x2d000205
     278:	05181c00 	0x05181c00
     27c:	02050002 	slti	$r2,$r0,320(0x140)
     280:	1c002d00 	pcaddu12i	$r0,360(0x168)
     284:	0002051c 	0x0002051c
     288:	2d000205 	0x2d000205
     28c:	01061c00 	0x01061c00
     290:	05000e05 	0x05000e05
     294:	002d0402 	alsl.d	$r2,$r0,$r1,0x3
     298:	0518061c 	0x0518061c
     29c:	02050002 	slti	$r2,$r0,320(0x140)
     2a0:	1c002d04 	pcaddu12i	$r4,360(0x168)
     2a4:	0e050106 	0x0e050106
     2a8:	08020500 	0x08020500
     2ac:	181c002d 	pcaddi	$r13,57345(0xe001)
     2b0:	05000105 	0x05000105
     2b4:	002d0c02 	alsl.d	$r2,$r0,$r3,0x3
     2b8:	0519061c 	0x0519061c
     2bc:	0205002d 	slti	$r13,$r1,320(0x140)
     2c0:	1c002d0c 	pcaddu12i	$r12,360(0x168)
     2c4:	00020518 	0x00020518
     2c8:	2d0c0205 	0x2d0c0205
     2cc:	16061c00 	lu32i.d	$r0,12512(0x30e0)
     2d0:	05002d05 	0x05002d05
     2d4:	002d1402 	alsl.d	$r2,$r0,$r5,0x3
     2d8:	0805181c 	0x0805181c
     2dc:	18020500 	pcaddi	$r0,4136(0x1028)
     2e0:	061c002d 	cacop	0xd,$r1,1792(0x700)
     2e4:	00020518 	0x00020518
     2e8:	2d180205 	0x2d180205
     2ec:	15061c00 	lu12i.w	$r0,-511776(0x830e0)
     2f0:	05002d05 	0x05002d05
     2f4:	002d2002 	alsl.d	$r2,$r0,$r8,0x3
     2f8:	1105191c 	addu16i.d	$r28,$r8,16710(0x4146)
     2fc:	24020500 	ldptr.w	$r0,$r8,516(0x204)
     300:	151c002d 	lu12i.w	$r13,-466943(0x8e001)
     304:	05002d05 	0x05002d05
     308:	002d2c02 	alsl.d	$r2,$r0,$r11,0x3
     30c:	2d05011c 	0x2d05011c
     310:	30020500 	0x30020500
     314:	191c002d 	pcaddi	$r13,-466943(0x8e001)
     318:	05001105 	0x05001105
     31c:	002d3402 	alsl.d	$r2,$r0,$r13,0x3
     320:	0518061c 	0x0518061c
     324:	02050002 	slti	$r2,$r0,320(0x140)
     328:	1c002d34 	pcaddu12i	$r20,361(0x169)
     32c:	00020518 	0x00020518
     330:	2d340205 	0x2d340205
     334:	05181c00 	0x05181c00
     338:	02050002 	slti	$r2,$r0,320(0x140)
     33c:	1c002d34 	pcaddu12i	$r20,361(0x169)
     340:	0e050106 	0x0e050106
     344:	38020500 	0x38020500
     348:	011c002d 	0x011c002d
     34c:	05000705 	0x05000705
     350:	002d3c02 	alsl.d	$r2,$r0,$r15,0x3
     354:	0518061c 	0x0518061c
     358:	02050003 	slti	$r3,$r0,320(0x140)
     35c:	1c002d3c 	pcaddu12i	$r28,361(0x169)
     360:	09050106 	0x09050106
     364:	40020500 	beqz	$r8,516(0x204) # 568 <data_size-0x4b4>
     368:	011c002d 	0x011c002d
     36c:	05000505 	0x05000505
     370:	002d4c02 	alsl.d	$r2,$r0,$r19,0x3
     374:	0905141c 	0x0905141c
     378:	50020500 	b	67109380(0x4000204) # 400057c <data_size+0x3fffb60>
     37c:	1a1c002d 	pcalau12i	$r13,57345(0xe001)
     380:	05000505 	0x05000505
     384:	002d6002 	alsl.d	$r2,$r0,$r24,0x3
     388:	0501061c 	0x0501061c
     38c:	02050003 	slti	$r3,$r0,320(0x140)
     390:	1c002d60 	pcaddu12i	$r0,363(0x16b)
     394:	0004051b 	alsl.w	$r27,$r8,$r1,0x1
     398:	2d600205 	0x2d600205
     39c:	01061c00 	0x01061c00
     3a0:	05001c05 	0x05001c05
     3a4:	002d6802 	alsl.d	$r2,$r0,$r26,0x3
     3a8:	1005011c 	addu16i.d	$r28,$r8,320(0x140)
     3ac:	6c020500 	bgeu	$r8,$r0,516(0x204) # 5b0 <data_size-0x46c>
     3b0:	011c002d 	0x011c002d
     3b4:	05000705 	0x05000705
     3b8:	002d7402 	alsl.d	$r2,$r0,$r29,0x3
     3bc:	0b05011c 	0x0b05011c
     3c0:	78020500 	0x78020500
     3c4:	121c002d 	addu16i.d	$r13,$r1,-30976(0x8700)
     3c8:	05000e05 	0x05000e05
     3cc:	002d7c02 	alsl.d	$r2,$r0,$r31,0x3
     3d0:	0905181c 	0x0905181c
     3d4:	80020500 	0x80020500
     3d8:	161c002d 	lu32i.d	$r13,57345(0xe001)
     3dc:	05000705 	0x05000705
     3e0:	002d8402 	alsl.d	$r2,$r0,$r1,0x4
     3e4:	051f061c 	0x051f061c
     3e8:	02050002 	slti	$r2,$r0,320(0x140)
     3ec:	1c002d84 	pcaddu12i	$r4,364(0x16c)
     3f0:	01051806 	fmul.d	$f6,$f0,$f6
     3f4:	a0020500 	0xa0020500
     3f8:	0f1c002d 	0x0f1c002d
     3fc:	05000505 	0x05000505
     400:	002da402 	alsl.d	$r2,$r0,$r9,0x4
     404:	0518061c 	0x0518061c
     408:	02050004 	slti	$r4,$r0,320(0x140)
     40c:	1c002da4 	pcaddu12i	$r4,365(0x16d)
     410:	1c050106 	pcaddu12i	$r6,10248(0x2808)
     414:	ac020500 	0xac020500
     418:	011c002d 	0x011c002d
     41c:	05001005 	0x05001005
     420:	002db002 	alsl.d	$r2,$r0,$r12,0x4
     424:	01051e1c 	fmul.d	$f28,$f16,$f7
     428:	b4020500 	0xb4020500
     42c:	101c002d 	addu16i.d	$r13,$r1,1792(0x700)
     430:	05000b05 	0x05000b05
     434:	002db802 	alsl.d	$r2,$r0,$r14,0x4
     438:	0518061c 	0x0518061c
     43c:	02050004 	slti	$r4,$r0,320(0x140)
     440:	1c002db8 	pcaddu12i	$r24,365(0x16d)
     444:	0002051c 	0x0002051c
     448:	2db80205 	0x2db80205
     44c:	18061c00 	pcaddi	$r0,12512(0x30e0)
     450:	05000105 	0x05000105
     454:	002dd002 	alsl.d	$r2,$r0,$r20,0x4
     458:	0519061c 	0x0519061c
     45c:	02050017 	slti	$r23,$r0,320(0x140)
     460:	1c002dd0 	pcaddu12i	$r16,366(0x16e)
     464:	00020518 	0x00020518
     468:	2dd00205 	0x2dd00205
     46c:	16061c00 	lu32i.d	$r0,12512(0x30e0)
     470:	05001705 	0x05001705
     474:	002dd802 	alsl.d	$r2,$r0,$r22,0x4
     478:	0805181c 	0x0805181c
     47c:	dc020500 	0xdc020500
     480:	061c002d 	cacop	0xd,$r1,1792(0x700)
     484:	00020518 	0x00020518
     488:	2ddc0205 	0x2ddc0205
     48c:	15061c00 	lu12i.w	$r0,-511776(0x830e0)
     490:	05001705 	0x05001705
     494:	002de402 	alsl.d	$r2,$r0,$r25,0x4
     498:	1105191c 	addu16i.d	$r28,$r8,16710(0x4146)
     49c:	e8020500 	0xe8020500
     4a0:	151c002d 	lu12i.w	$r13,-466943(0x8e001)
     4a4:	05001705 	0x05001705
     4a8:	002dec02 	alsl.d	$r2,$r0,$r27,0x4
     4ac:	1105191c 	addu16i.d	$r28,$r8,16710(0x4146)
     4b0:	f0020500 	0xf0020500
     4b4:	061c002d 	cacop	0xd,$r1,1792(0x700)
     4b8:	00020518 	0x00020518
     4bc:	2df00205 	0x2df00205
     4c0:	01061c00 	0x01061c00
     4c4:	05000b05 	0x05000b05
     4c8:	002df402 	alsl.d	$r2,$r0,$r29,0x4
     4cc:	0405011c 	csrxchg	$r28,$r8,0x140
     4d0:	f8020500 	0xf8020500
     4d4:	061c002d 	cacop	0xd,$r1,1792(0x700)
     4d8:	0003051a 	0x0003051a
     4dc:	2df80205 	0x2df80205
     4e0:	01061c00 	0x01061c00
     4e4:	05002805 	0x05002805
     4e8:	002e0002 	0x002e0002
     4ec:	1c05011c 	pcaddu12i	$r28,10248(0x2808)
     4f0:	04020500 	csrxchg	$r0,$r8,0x81
     4f4:	011c002e 	0x011c002e
     4f8:	05000a05 	0x05000a05
     4fc:	002e0802 	0x002e0802
     500:	01051a1c 	fmul.d	$f28,$f16,$f6
     504:	1c020500 	pcaddu12i	$r0,4136(0x1028)
     508:	121c002e 	addu16i.d	$r14,$r1,-30976(0x8700)
     50c:	05000a05 	0x05000a05
     510:	002e2402 	0x002e2402
     514:	0101001c 	fadd.d	$f28,$f0,$f0
     518:	00000471 	0x00000471
     51c:	00200004 	div.w	$r4,$r0,$r0
     520:	01010000 	fadd.d	$f0,$f0,$f0
     524:	0df2f601 	0x0df2f601
     528:	01010100 	fadd.d	$f0,$f8,$f0
     52c:	00000001 	0x00000001
     530:	01000001 	0x01000001
     534:	69727000 	bltu	$r0,$r0,94832(0x17270) # 177a4 <data_size+0x16d88>
     538:	2e66746e 	0x2e66746e
     53c:	00000063 	0x00000063
     540:	05000000 	0x05000000
     544:	002e2402 	0x002e2402
     548:	0105181c 	fmul.d	$f28,$f0,$f6
     54c:	24020500 	ldptr.w	$r0,$r8,516(0x204)
     550:	181c002e 	pcaddi	$r14,57345(0xe001)
     554:	05000105 	0x05000105
     558:	002e2402 	0x002e2402
     55c:	0105181c 	fmul.d	$f28,$f0,$f6
     560:	24020500 	ldptr.w	$r0,$r8,516(0x204)
     564:	181c002e 	pcaddi	$r14,57345(0xe001)
     568:	05000105 	0x05000105
     56c:	002e2402 	0x002e2402
     570:	0105181c 	fmul.d	$f28,$f0,$f6
     574:	24020500 	ldptr.w	$r0,$r8,516(0x204)
     578:	181c002e 	pcaddi	$r14,57345(0xe001)
     57c:	05000105 	0x05000105
     580:	002e2402 	0x002e2402
     584:	0105181c 	fmul.d	$f28,$f0,$f6
     588:	24020500 	ldptr.w	$r0,$r8,516(0x204)
     58c:	061c002e 	cacop	0xe,$r1,1792(0x700)
     590:	00010511 	0x00010511
     594:	2e440205 	0x2e440205
     598:	051f1c00 	0x051f1c00
     59c:	0205000c 	slti	$r12,$r0,320(0x140)
     5a0:	1c002e48 	pcaddu12i	$r8,370(0x172)
     5a4:	00010515 	0x00010515
     5a8:	2e4c0205 	0x2e4c0205
     5ac:	05111c00 	0x05111c00
     5b0:	02050001 	slti	$r1,$r0,320(0x140)
     5b4:	1c002e68 	pcaddu12i	$r8,371(0x173)
     5b8:	0001051d 	0x0001051d
     5bc:	2e6c0205 	0x2e6c0205
     5c0:	18061c00 	pcaddi	$r0,12512(0x30e0)
     5c4:	05000105 	0x05000105
     5c8:	002e6c02 	0x002e6c02
     5cc:	0105181c 	fmul.d	$f28,$f0,$f6
     5d0:	88020500 	0x88020500
     5d4:	5d1c002e 	bne	$r1,$r14,72704(0x11c00) # 121d4 <data_size+0x117b8>
     5d8:	05000305 	0x05000305
     5dc:	002e9002 	0x002e9002
     5e0:	0402001c 	csrrd	$r28,0x80
     5e4:	ba030602 	0xba030602
     5e8:	1105017f 	addu16i.d	$r31,$r11,16704(0x4140)
     5ec:	94020500 	0x94020500
     5f0:	011c002e 	0x011c002e
     5f4:	05000c05 	0x05000c05
     5f8:	002e9c02 	0x002e9c02
     5fc:	0105011c 	fmul.d	$f28,$f8,$f0
     600:	a0020500 	0xa0020500
     604:	001c002e 	mul.w	$r14,$r1,$r0
     608:	06000402 	cacop	0x2,$r0,1(0x1)
     60c:	00020519 	0x00020519
     610:	2ea00205 	0x2ea00205
     614:	05181c00 	0x05181c00
     618:	02050002 	slti	$r2,$r0,320(0x140)
     61c:	1c002ea0 	pcaddu12i	$r0,373(0x175)
     620:	04050106 	csrxchg	$r6,$r8,0x140
     624:	a8020500 	0xa8020500
     628:	061c002e 	cacop	0xe,$r1,1792(0x700)
     62c:	00030559 	0x00030559
     630:	2ea80205 	0x2ea80205
     634:	01061c00 	0x01061c00
     638:	05000505 	0x05000505
     63c:	002eb002 	0x002eb002
     640:	0402001c 	csrrd	$r28,0x80
     644:	05010601 	0x05010601
     648:	0205000f 	slti	$r15,$r0,320(0x140)
     64c:	1c002ec4 	pcaddu12i	$r4,374(0x176)
     650:	00040200 	alsl.w	$r0,$r16,$r0,0x1
     654:	01400306 	0x01400306
     658:	05000405 	0x05000405
     65c:	002ec802 	0x002ec802
     660:	0305191c 	lu52i.d	$r28,$r8,326(0x146)
     664:	cc020500 	0xcc020500
     668:	4a1c002e 	bceqz	$fcc1,3808256(0x3a1c00) # 3a2268 <data_size+0x3a184c>
     66c:	05000905 	0x05000905
     670:	002ed002 	0x002ed002
     674:	4d03061c 	jirl	$r28,$r16,66308(0x10304)
     678:	00030501 	0x00030501
     67c:	2ef00205 	0x2ef00205
     680:	5a061c00 	beq	$r0,$r0,-129508(0x2061c) # fffe0c9c <_stack+0xe3fccd20>
     684:	05000105 	0x05000105
     688:	002f1802 	0x002f1802
     68c:	6d03061c 	bgeu	$r16,$r28,66308(0x10304) # 10990 <data_size+0xff74>
     690:	00050501 	alsl.w	$r1,$r8,$r1,0x3
     694:	2f200205 	0x2f200205
     698:	01061c00 	0x01061c00
     69c:	05000605 	0x05000605
     6a0:	002f2402 	0x002f2402
     6a4:	0402001c 	csrrd	$r28,0x80
     6a8:	1a051901 	pcalau12i	$r1,10440(0x28c8)
     6ac:	28020500 	ld.b	$r0,$r8,129(0x81)
     6b0:	011c002f 	0x011c002f
     6b4:	05000505 	0x05000505
     6b8:	002f3802 	0x002f3802
     6bc:	0402001c 	csrrd	$r28,0x80
     6c0:	05180603 	0x05180603
     6c4:	02050006 	slti	$r6,$r0,320(0x140)
     6c8:	1c002f38 	pcaddu12i	$r24,377(0x179)
     6cc:	09050106 	0x09050106
     6d0:	3c020500 	0x3c020500
     6d4:	161c002f 	lu32i.d	$r15,57345(0xe001)
     6d8:	05002c05 	0x05002c05
     6dc:	002f4002 	0x002f4002
     6e0:	1005011c 	addu16i.d	$r28,$r8,320(0x140)
     6e4:	44020500 	bnez	$r8,516(0x204) # 8e8 <data_size-0x134>
     6e8:	181c002f 	pcaddi	$r15,57345(0xe001)
     6ec:	05001605 	0x05001605
     6f0:	002f4802 	0x002f4802
     6f4:	1005161c 	addu16i.d	$r28,$r16,325(0x145)
     6f8:	4c020500 	jirl	$r0,$r8,516(0x204)
     6fc:	011c002f 	0x011c002f
     700:	05001a05 	0x05001a05
     704:	002f5002 	0x002f5002
     708:	0505011c 	0x0505011c
     70c:	58020500 	beq	$r8,$r0,516(0x204) # 910 <data_size-0x10c>
     710:	181c002f 	pcaddi	$r15,57345(0xe001)
     714:	05000705 	0x05000705
     718:	002f5c02 	0x002f5c02
     71c:	0505161c 	0x0505161c
     720:	64020500 	bge	$r8,$r0,516(0x204) # 924 <data_size-0xf8>
     724:	001c002f 	mul.w	$r15,$r1,$r0
     728:	06000402 	cacop	0x2,$r0,1(0x1)
     72c:	05016f03 	0x05016f03
     730:	02050005 	slti	$r5,$r0,320(0x140)
     734:	1c002f74 	pcaddu12i	$r20,379(0x17b)
     738:	00050518 	alsl.w	$r24,$r8,$r1,0x3
     73c:	2f740205 	0x2f740205
     740:	01061c00 	0x01061c00
     744:	05000805 	0x05000805
     748:	002f7802 	0x002f7802
     74c:	0518061c 	0x0518061c
     750:	02050005 	slti	$r5,$r0,320(0x140)
     754:	1c002f78 	pcaddu12i	$r24,379(0x17b)
     758:	06050106 	cacop	0x6,$r8,320(0x140)
     75c:	7c020500 	0x7c020500
     760:	061c002f 	cacop	0xf,$r1,1792(0x700)
     764:	00050518 	alsl.w	$r24,$r8,$r1,0x3
     768:	2f800205 	0x2f800205
     76c:	64031c00 	bge	$r0,$r0,796(0x31c) # a88 <data_size+0x6c>
     770:	00050501 	alsl.w	$r1,$r8,$r1,0x3
     774:	2f840205 	0x2f840205
     778:	19061c00 	pcaddi	$r0,-511776(0x830e0)
     77c:	05000605 	0x05000605
     780:	002f8802 	0x002f8802
     784:	0805161c 	0x0805161c
     788:	8c020500 	0x8c020500
     78c:	161c002f 	lu32i.d	$r15,57345(0xe001)
     790:	05000505 	0x05000505
     794:	002f9002 	0x002f9002
     798:	0518061c 	0x0518061c
     79c:	02050005 	slti	$r5,$r0,320(0x140)
     7a0:	1c002f90 	pcaddu12i	$r16,380(0x17c)
     7a4:	00050518 	alsl.w	$r24,$r8,$r1,0x3
     7a8:	2f900205 	0x2f900205
     7ac:	05181c00 	0x05181c00
     7b0:	02050005 	slti	$r5,$r0,320(0x140)
     7b4:	1c002f94 	pcaddu12i	$r20,380(0x17c)
     7b8:	0005051e 	alsl.w	$r30,$r8,$r1,0x3
     7bc:	2fa40205 	0x2fa40205
     7c0:	05181c00 	0x05181c00
     7c4:	02050005 	slti	$r5,$r0,320(0x140)
     7c8:	1c002fa4 	pcaddu12i	$r4,381(0x17d)
     7cc:	08050106 	0x08050106
     7d0:	a8020500 	0xa8020500
     7d4:	061c002f 	cacop	0xf,$r1,1792(0x700)
     7d8:	00050518 	alsl.w	$r24,$r8,$r1,0x3
     7dc:	2fa80205 	0x2fa80205
     7e0:	01061c00 	0x01061c00
     7e4:	05000605 	0x05000605
     7e8:	002fac02 	0x002fac02
     7ec:	0518061c 	0x0518061c
     7f0:	02050005 	slti	$r5,$r0,320(0x140)
     7f4:	1c002fb0 	pcaddu12i	$r16,381(0x17d)
     7f8:	00110519 	sub.w	$r25,$r8,$r1
     7fc:	2fc00205 	0x2fc00205
     800:	05181c00 	0x05181c00
     804:	02050011 	slti	$r17,$r0,320(0x140)
     808:	1c002fc0 	pcaddu12i	$r0,382(0x17e)
     80c:	14050106 	lu12i.w	$r6,10248(0x2808)
     810:	c4020500 	0xc4020500
     814:	061c002f 	cacop	0xf,$r1,1792(0x700)
     818:	00110518 	sub.w	$r24,$r8,$r1
     81c:	2fc40205 	0x2fc40205
     820:	01061c00 	0x01061c00
     824:	05001205 	0x05001205
     828:	002fc802 	0x002fc802
     82c:	0518061c 	0x0518061c
     830:	02050011 	slti	$r17,$r0,320(0x140)
     834:	1c002fcc 	pcaddu12i	$r12,382(0x17e)
     838:	00050519 	alsl.w	$r25,$r8,$r1,0x3
     83c:	2fdc0205 	0x2fdc0205
     840:	05181c00 	0x05181c00
     844:	02050005 	slti	$r5,$r0,320(0x140)
     848:	1c002fdc 	pcaddu12i	$r28,382(0x17e)
     84c:	08050106 	0x08050106
     850:	e0020500 	0xe0020500
     854:	061c002f 	cacop	0xf,$r1,1792(0x700)
     858:	00050518 	alsl.w	$r24,$r8,$r1,0x3
     85c:	2fe00205 	0x2fe00205
     860:	01061c00 	0x01061c00
     864:	05000605 	0x05000605
     868:	002fe402 	0x002fe402
     86c:	0518061c 	0x0518061c
     870:	02050005 	slti	$r5,$r0,320(0x140)
     874:	1c002fe8 	pcaddu12i	$r8,383(0x17f)
     878:	0005051f 	alsl.w	$r31,$r8,$r1,0x3
     87c:	2ff80205 	0x2ff80205
     880:	05181c00 	0x05181c00
     884:	02050005 	slti	$r5,$r0,320(0x140)
     888:	1c002ff8 	pcaddu12i	$r24,383(0x17f)
     88c:	08050106 	0x08050106
     890:	fc020500 	0xfc020500
     894:	061c002f 	cacop	0xf,$r1,1792(0x700)
     898:	00050518 	alsl.w	$r24,$r8,$r1,0x3
     89c:	2ffc0205 	0x2ffc0205
     8a0:	01061c00 	0x01061c00
     8a4:	05000605 	0x05000605
     8a8:	00300002 	0x00300002
     8ac:	0518061c 	0x0518061c
     8b0:	02050005 	slti	$r5,$r0,320(0x140)
     8b4:	1c003004 	pcaddu12i	$r4,384(0x180)
     8b8:	05015903 	0x05015903
     8bc:	02050005 	slti	$r5,$r0,320(0x140)
     8c0:	1c003008 	pcaddu12i	$r8,384(0x180)
     8c4:	06051906 	cacop	0x6,$r8,326(0x146)
     8c8:	0c020500 	0x0c020500
     8cc:	161c0030 	lu32i.d	$r16,57345(0xe001)
     8d0:	05000805 	0x05000805
     8d4:	00301002 	0x00301002
     8d8:	0505161c 	0x0505161c
     8dc:	14020500 	lu12i.w	$r0,4136(0x1028)
     8e0:	061c0030 	cacop	0x10,$r1,1792(0x700)
     8e4:	00050518 	alsl.w	$r24,$r8,$r1,0x3
     8e8:	30140205 	vldrepl.d	$vr5,$r16,-2048(0x800)
     8ec:	05181c00 	0x05181c00
     8f0:	02050005 	slti	$r5,$r0,320(0x140)
     8f4:	1c003014 	pcaddu12i	$r20,384(0x180)
     8f8:	00050518 	alsl.w	$r24,$r8,$r1,0x3
     8fc:	30180205 	0x30180205
     900:	051e1c00 	0x051e1c00
     904:	02050005 	slti	$r5,$r0,320(0x140)
     908:	1c003028 	pcaddu12i	$r8,385(0x181)
     90c:	00050518 	alsl.w	$r24,$r8,$r1,0x3
     910:	30280205 	vldrepl.w	$vr5,$r16,-2048(0x800)
     914:	01061c00 	0x01061c00
     918:	05000805 	0x05000805
     91c:	00302c02 	0x00302c02
     920:	0518061c 	0x0518061c
     924:	02050005 	slti	$r5,$r0,320(0x140)
     928:	1c00302c 	pcaddu12i	$r12,385(0x181)
     92c:	06050106 	cacop	0x6,$r8,320(0x140)
     930:	30020500 	0x30020500
     934:	061c0030 	cacop	0x10,$r1,1792(0x700)
     938:	00050518 	alsl.w	$r24,$r8,$r1,0x3
     93c:	30340205 	0x30340205
     940:	05331c00 	0x05331c00
     944:	02050005 	slti	$r5,$r0,320(0x140)
     948:	1c00303c 	pcaddu12i	$r28,385(0x181)
     94c:	00050518 	alsl.w	$r24,$r8,$r1,0x3
     950:	303c0205 	0x303c0205
     954:	01061c00 	0x01061c00
     958:	05000605 	0x05000605
     95c:	00304002 	0x00304002
     960:	0518061c 	0x0518061c
     964:	02050005 	slti	$r5,$r0,320(0x140)
     968:	1c003044 	pcaddu12i	$r4,386(0x182)
     96c:	0006051e 	alsl.wu	$r30,$r8,$r1,0x1
     970:	30440205 	vldrepl.h	$vr5,$r16,512(0x200)
     974:	051a1c00 	0x051a1c00
     978:	02050005 	slti	$r5,$r0,320(0x140)
     97c:	1c00304c 	pcaddu12i	$r12,386(0x182)
     980:	00050518 	alsl.w	$r24,$r8,$r1,0x3
     984:	30500205 	vldrepl.h	$vr5,$r16,-2048(0x800)
     988:	01001c00 	0x01001c00
     98c:	0000ae01 	0x0000ae01
     990:	21000400 	sc.w	$r0,$r0,4(0x4)
     994:	01000000 	0x01000000
     998:	f2f60101 	0xf2f60101
     99c:	0101000d 	fadd.d	$f13,$f0,$f0
     9a0:	00000101 	0x00000101
     9a4:	00000100 	0x00000100
     9a8:	75700001 	0x75700001
     9ac:	61686374 	blt	$r27,$r20,92256(0x16860) # 1720c <data_size+0x167f0>
     9b0:	00632e72 	bstrins.w	$r18,$r19,0x3,0xb
     9b4:	00000000 	0x00000000
     9b8:	50020500 	b	67109380(0x4000204) # 4000bbc <data_size+0x40001a0>
     9bc:	181c0030 	pcaddi	$r16,57345(0xe001)
     9c0:	05000105 	0x05000105
     9c4:	00305002 	0x00305002
     9c8:	0105181c 	fmul.d	$f28,$f0,$f6
     9cc:	50020500 	b	67109380(0x4000204) # 4000bd0 <data_size+0x40001b4>
     9d0:	1d1c0030 	pcaddu12i	$r16,-466943(0x8e001)
     9d4:	05000505 	0x05000505
     9d8:	00305002 	0x00305002
     9dc:	0510061c 	0x0510061c
     9e0:	02050001 	slti	$r1,$r0,320(0x140)
     9e4:	1c003058 	pcaddu12i	$r24,386(0x182)
     9e8:	0005051e 	alsl.w	$r30,$r8,$r1,0x3
     9ec:	30680205 	0x30680205
     9f0:	12061c00 	addu16i.d	$r0,$r0,-32377(0x8187)
     9f4:	05000105 	0x05000105
     9f8:	00306802 	0x00306802
     9fc:	0518061c 	0x0518061c
     a00:	02050001 	slti	$r1,$r0,320(0x140)
     a04:	1c003078 	pcaddu12i	$r24,387(0x183)
     a08:	01051a06 	fmul.d	$f6,$f16,$f6
     a0c:	78020500 	0x78020500
     a10:	181c0030 	pcaddi	$r16,57345(0xe001)
     a14:	05000505 	0x05000505
     a18:	00307802 	0x00307802
     a1c:	0516061c 	0x0516061c
     a20:	02050001 	slti	$r1,$r0,320(0x140)
     a24:	1c003080 	pcaddu12i	$r0,388(0x184)
     a28:	00050518 	alsl.w	$r24,$r8,$r1,0x3
     a2c:	30900205 	vldrepl.b	$vr5,$r16,1024(0x400)
     a30:	051e1c00 	0x051e1c00
     a34:	02050001 	slti	$r1,$r0,320(0x140)
     a38:	1c00309c 	pcaddu12i	$r28,388(0x184)
     a3c:	65010100 	bge	$r8,$r0,65792(0x10100) # 10b3c <data_size+0x10120>
     a40:	04000001 	csrrd	$r1,0x0
     a44:	00001e00 	ctz.w	$r0,$r16
     a48:	01010100 	fadd.d	$f0,$f8,$f0
     a4c:	000df2f6 	bytepick.d	$r22,$r23,$r28,0x3
     a50:	01010101 	fadd.d	$f1,$f8,$f0
     a54:	01000000 	0x01000000
     a58:	00010000 	asrtle.d	$r0,$r0
     a5c:	73747570 	0x73747570
     a60:	0000632e 	rdtimel.w	$r14,$r25
     a64:	00000000 	0x00000000
     a68:	309c0205 	vldrepl.b	$vr5,$r16,1792(0x700)
     a6c:	05181c00 	0x05181c00
     a70:	02050001 	slti	$r1,$r0,320(0x140)
     a74:	1c00309c 	pcaddu12i	$r28,388(0x184)
     a78:	00010518 	0x00010518
     a7c:	309c0205 	vldrepl.b	$vr5,$r16,1792(0x700)
     a80:	05181c00 	0x05181c00
     a84:	02050001 	slti	$r1,$r0,320(0x140)
     a88:	1c00309c 	pcaddu12i	$r28,388(0x184)
     a8c:	01051506 	fmul.d	$f6,$f8,$f5
     a90:	b0020500 	0xb0020500
     a94:	191c0030 	pcaddi	$r16,-466943(0x8e001)
     a98:	05000905 	0x05000905
     a9c:	0030b402 	0x0030b402
     aa0:	0605011c 	cacop	0x1c,$r8,320(0x140)
     aa4:	bc020500 	0xbc020500
     aa8:	191c0030 	pcaddi	$r16,-466943(0x8e001)
     aac:	05000405 	0x05000405
     ab0:	0030c402 	0x0030c402
     ab4:	0518061c 	0x0518061c
     ab8:	02050002 	slti	$r2,$r0,320(0x140)
     abc:	1c0030cc 	pcaddu12i	$r12,390(0x186)
     ac0:	00020518 	0x00020518
     ac4:	30cc0205 	0x30cc0205
     ac8:	13061c00 	addu16i.d	$r0,$r0,-15993(0xc187)
     acc:	05000905 	0x05000905
     ad0:	0030d002 	0x0030d002
     ad4:	0605011c 	cacop	0x1c,$r8,320(0x140)
     ad8:	d4020500 	0xd4020500
     adc:	061c0030 	cacop	0x10,$r1,1792(0x700)
     ae0:	00020519 	0x00020519
     ae4:	30d40205 	0x30d40205
     ae8:	19061c00 	pcaddi	$r0,-511776(0x830e0)
     aec:	05000305 	0x05000305
     af0:	0030d802 	0x0030d802
     af4:	0405151c 	csrxchg	$r28,$r8,0x145
     af8:	dc020500 	0xdc020500
     afc:	001c0030 	mul.w	$r16,$r1,$r0
     b00:	06010402 	cacop	0x2,$r0,65(0x41)
     b04:	00100501 	add.w	$r1,$r8,$r1
     b08:	30e40205 	0x30e40205
     b0c:	05181c00 	0x05181c00
     b10:	02050002 	slti	$r2,$r0,320(0x140)
     b14:	1c0030ec 	pcaddu12i	$r12,391(0x187)
     b18:	00020518 	0x00020518
     b1c:	30ec0205 	0x30ec0205
     b20:	13061c00 	addu16i.d	$r0,$r0,-15993(0xc187)
     b24:	05000905 	0x05000905
     b28:	0030f002 	0x0030f002
     b2c:	0605011c 	cacop	0x1c,$r8,320(0x140)
     b30:	f4020500 	0xf4020500
     b34:	001c0030 	mul.w	$r16,$r1,$r0
     b38:	06000402 	cacop	0x2,$r0,1(0x1)
     b3c:	0001051d 	0x0001051d
     b40:	30f40205 	0x30f40205
     b44:	18061c00 	pcaddi	$r0,12512(0x30e0)
     b48:	05000105 	0x05000105
     b4c:	00311002 	0x00311002
     b50:	051b061c 	0x051b061c
     b54:	02050001 	slti	$r1,$r0,320(0x140)
     b58:	1c003110 	pcaddu12i	$r16,392(0x188)
     b5c:	00010518 	0x00010518
     b60:	31100205 	vstelm.d	$vr5,$r16,0,0x0
     b64:	16061c00 	lu32i.d	$r0,12512(0x30e0)
     b68:	05000105 	0x05000105
     b6c:	00311802 	0x00311802
     b70:	0105181c 	fmul.d	$f28,$f0,$f6
     b74:	1c020500 	pcaddu12i	$r0,4136(0x1028)
     b78:	061c0031 	cacop	0x11,$r1,1792(0x700)
     b7c:	00010518 	0x00010518
     b80:	31240205 	vstelm.w	$vr5,$r16,0,0x1
     b84:	05181c00 	0x05181c00
     b88:	02050001 	slti	$r1,$r0,320(0x140)
     b8c:	1c00312c 	pcaddu12i	$r12,393(0x189)
     b90:	00010518 	0x00010518
     b94:	312c0205 	vstelm.w	$vr5,$r16,0,0x3
     b98:	18061c00 	pcaddi	$r0,12512(0x30e0)
     b9c:	05000105 	0x05000105
     ba0:	00313c02 	0x00313c02
     ba4:	0101001c 	fadd.d	$f28,$f0,$f0
     ba8:	000001bf 	0x000001bf
     bac:	00230004 	div.du	$r4,$r0,$r0
     bb0:	01010000 	fadd.d	$f0,$f0,$f0
     bb4:	0df2f601 	0x0df2f601
     bb8:	01010100 	fadd.d	$f0,$f8,$f0
     bbc:	00000001 	0x00000001
     bc0:	01000001 	0x01000001
     bc4:	69727000 	bltu	$r0,$r0,94832(0x17270) # 17e34 <data_size+0x17418>
     bc8:	6162746e 	blt	$r3,$r14,90740(0x16274) # 16e3c <data_size+0x16420>
     bcc:	632e6573 	blt	$r11,$r19,-53660(0x32e64) # ffff3a30 <_stack+0xe3fdfab4>
     bd0:	00000000 	0x00000000
     bd4:	02050000 	slti	$r0,$r0,320(0x140)
     bd8:	1c00313c 	pcaddu12i	$r28,393(0x189)
     bdc:	00010518 	0x00010518
     be0:	313c0205 	0x313c0205
     be4:	05181c00 	0x05181c00
     be8:	02050002 	slti	$r2,$r0,320(0x140)
     bec:	1c00313c 	pcaddu12i	$r28,393(0x189)
     bf0:	00020518 	0x00020518
     bf4:	313c0205 	0x313c0205
     bf8:	05181c00 	0x05181c00
     bfc:	02050002 	slti	$r2,$r0,320(0x140)
     c00:	1c00313c 	pcaddu12i	$r28,393(0x189)
     c04:	00020518 	0x00020518
     c08:	313c0205 	0x313c0205
     c0c:	05181c00 	0x05181c00
     c10:	02050002 	slti	$r2,$r0,320(0x140)
     c14:	1c00313c 	pcaddu12i	$r28,393(0x189)
     c18:	01051206 	fmul.d	$f6,$f16,$f4
     c1c:	50020500 	b	67109380(0x4000204) # 4000e20 <data_size+0x4000404>
     c20:	011c0031 	0x011c0031
     c24:	05000105 	0x05000105
     c28:	00315402 	0x00315402
     c2c:	04051c1c 	csrrd	$r28,0x147
     c30:	58020500 	beq	$r8,$r0,516(0x204) # e34 <data_size+0x418>
     c34:	001c0031 	mul.w	$r17,$r1,$r0
     c38:	01010402 	fadd.d	$f2,$f0,$f1
     c3c:	05000a05 	0x05000a05
     c40:	00315c02 	0x00315c02
     c44:	0402001c 	csrrd	$r28,0x80
     c48:	051c0600 	0x051c0600
     c4c:	02050007 	slti	$r7,$r0,320(0x140)
     c50:	1c00315c 	pcaddu12i	$r28,394(0x18a)
     c54:	02051906 	slti	$r6,$r8,326(0x146)
     c58:	70020500 	vsle.b	$vr0,$vr8,$vr1
     c5c:	1a1c0031 	pcalau12i	$r17,57345(0xe001)
     c60:	05000705 	0x05000705
     c64:	00317402 	0x00317402
     c68:	0402001c 	csrrd	$r28,0x80
     c6c:	05160603 	0x05160603
     c70:	02050002 	slti	$r2,$r0,320(0x140)
     c74:	1c003174 	pcaddu12i	$r20,395(0x18b)
     c78:	0e050106 	0x0e050106
     c7c:	80020500 	0x80020500
     c80:	011c0031 	0x011c0031
     c84:	05000805 	0x05000805
     c88:	00318402 	0x00318402
     c8c:	0518061c 	0x0518061c
     c90:	02050002 	slti	$r2,$r0,320(0x140)
     c94:	1c003188 	pcaddu12i	$r8,396(0x18c)
     c98:	07050106 	0x07050106
     c9c:	98020500 	0x98020500
     ca0:	141c0031 	lu12i.w	$r17,57345(0xe001)
     ca4:	05000205 	0x05000205
     ca8:	00319c02 	0x00319c02
     cac:	0402001c 	csrrd	$r28,0x80
     cb0:	051f0600 	0x051f0600
     cb4:	02050002 	slti	$r2,$r0,320(0x140)
     cb8:	1c00319c 	pcaddu12i	$r28,396(0x18c)
     cbc:	07050106 	0x07050106
     cc0:	a4020500 	0xa4020500
     cc4:	1a1c0031 	pcalau12i	$r17,57345(0xe001)
     cc8:	05000305 	0x05000305
     ccc:	0031a802 	0x0031a802
     cd0:	0516061c 	0x0516061c
     cd4:	02050003 	slti	$r3,$r0,320(0x140)
     cd8:	1c0031a8 	pcaddu12i	$r8,397(0x18d)
     cdc:	0e050106 	0x0e050106
     ce0:	b4020500 	0xb4020500
     ce4:	011c0031 	0x011c0031
     ce8:	05000a05 	0x05000a05
     cec:	0031bc02 	0x0031bc02
     cf0:	0402001c 	csrrd	$r28,0x80
     cf4:	05180601 	0x05180601
     cf8:	02050003 	slti	$r3,$r0,320(0x140)
     cfc:	1c0031d0 	pcaddu12i	$r16,398(0x18e)
     d00:	04040200 	csrxchg	$r0,$r16,0x100
     d04:	02051406 	slti	$r6,$r0,325(0x145)
     d08:	d4020500 	0xd4020500
     d0c:	001c0031 	mul.w	$r17,$r1,$r0
     d10:	1d000402 	pcaddu12i	$r2,-524256(0x80020)
     d14:	05000105 	0x05000105
     d18:	0031f002 	0x0031f002
     d1c:	0705111c 	0x0705111c
     d20:	f8020500 	0xf8020500
     d24:	031c0031 	lu52i.d	$r17,$r1,1792(0x700)
     d28:	02050174 	slti	$r20,$r11,320(0x140)
     d2c:	04020500 	csrxchg	$r0,$r8,0x81
     d30:	061c0032 	cacop	0x12,$r1,1792(0x700)
     d34:	00020516 	0x00020516
     d38:	32040205 	0x32040205
     d3c:	18061c00 	pcaddi	$r0,12512(0x30e0)
     d40:	05000205 	0x05000205
     d44:	00320802 	0x00320802
     d48:	0a05161c 	0x0a05161c
     d4c:	0c020500 	0x0c020500
     d50:	061c0032 	cacop	0x12,$r1,1792(0x700)
     d54:	00020518 	0x00020518
     d58:	32180205 	0x32180205
     d5c:	05231c00 	0x05231c00
     d60:	02050002 	slti	$r2,$r0,320(0x140)
     d64:	1c003224 	pcaddu12i	$r4,401(0x191)
     d68:	09010100 	0x09010100
     d6c:	04000008 	csrrd	$r8,0x0
     d70:	00003700 	revb.4h	$r0,$r24
     d74:	01010100 	fadd.d	$f0,$f8,$f0
     d78:	000df2f6 	bytepick.d	$r22,$r23,$r28,0x3
     d7c:	01010101 	fadd.d	$f1,$f8,$f0
     d80:	01000000 	0x01000000
     d84:	2e010000 	0x2e010000
     d88:	6e692f2e 	bgeu	$r25,$r14,-104148(0x2692c) # fffe76b4 <_stack+0xe3fd3738>
     d8c:	64756c63 	bge	$r3,$r3,30060(0x756c) # 82f8 <data_size+0x78dc>
     d90:	73000065 	0x73000065
     d94:	6e697274 	bgeu	$r19,$r20,-104080(0x26970) # fffe7704 <_stack+0xe3fd3788>
     d98:	00632e67 	bstrins.w	$r7,$r19,0x3,0xb
     d9c:	63000000 	blt	$r0,$r0,-65536(0x30000) # ffff0d9c <_stack+0xe3fdce20>
     da0:	6f6d6d6f 	bgeu	$r11,$r15,-37524(0x36d6c) # ffff7b0c <_stack+0xe3fe3b90>
     da4:	00682e6e 	bstrins.w	$r14,$r19,0x8,0xb
     da8:	00000001 	0x00000001
     dac:	24020500 	ldptr.w	$r0,$r8,516(0x204)
     db0:	221c0032 	ll.d	$r18,$r1,7168(0x1c00)
     db4:	05001705 	0x05001705
     db8:	00322402 	0x00322402
     dbc:	0505181c 	0x0505181c
     dc0:	24020500 	ldptr.w	$r0,$r8,516(0x204)
     dc4:	181c0032 	pcaddi	$r18,57345(0xe001)
     dc8:	05000505 	0x05000505
     dcc:	00322402 	0x00322402
     dd0:	0501061c 	0x0501061c
     dd4:	0205000b 	slti	$r11,$r0,320(0x140)
     dd8:	1c00322c 	pcaddu12i	$r12,401(0x191)
     ddc:	000c0516 	bytepick.d	$r22,$r8,$r1,0x0
     de0:	32300205 	0x32300205
     de4:	19061c00 	pcaddi	$r0,-511776(0x830e0)
     de8:	05000905 	0x05000905
     dec:	00323002 	0x00323002
     df0:	0501061c 	0x0501061c
     df4:	0205000d 	slti	$r13,$r0,320(0x140)
     df8:	1c003234 	pcaddu12i	$r20,401(0x191)
     dfc:	000c0516 	bytepick.d	$r22,$r8,$r1,0x0
     e00:	32380205 	0x32380205
     e04:	05011c00 	0x05011c00
     e08:	0205000b 	slti	$r11,$r0,320(0x140)
     e0c:	1c003240 	pcaddu12i	$r0,402(0x192)
     e10:	0001051b 	0x0001051b
     e14:	32480205 	xvldrepl.h	$xr5,$r16,1024(0x400)
     e18:	05121c00 	0x05121c00
     e1c:	0205000c 	slti	$r12,$r0,320(0x140)
     e20:	1c00324c 	pcaddu12i	$r12,402(0x192)
     e24:	05051b06 	0x05051b06
     e28:	4c020500 	jirl	$r0,$r8,516(0x204)
     e2c:	061c0032 	cacop	0x12,$r1,1792(0x700)
     e30:	00010518 	0x00010518
     e34:	32540205 	xvldrepl.h	$xr5,$r16,-1536(0xa00)
     e38:	27061c00 	stptr.d	$r0,$r0,1564(0x61c)
     e3c:	05002405 	0x05002405
     e40:	00325402 	0x00325402
     e44:	0505181c 	0x0505181c
     e48:	54020500 	bl	67109380(0x4000204) # 400104c <data_size+0x4000630>
     e4c:	181c0032 	pcaddi	$r18,57345(0xe001)
     e50:	05000505 	0x05000505
     e54:	00325402 	0x00325402
     e58:	0501061c 	0x0501061c
     e5c:	0205000b 	slti	$r11,$r0,320(0x140)
     e60:	1c003258 	pcaddu12i	$r24,402(0x192)
     e64:	00160501 	orn	$r1,$r8,$r1
     e68:	32600205 	0x32600205
     e6c:	05161c00 	0x05161c00
     e70:	0205000c 	slti	$r12,$r0,320(0x140)
     e74:	1c003268 	pcaddu12i	$r8,403(0x193)
     e78:	01040200 	0x01040200
     e7c:	00160518 	orn	$r24,$r8,$r1
     e80:	32700205 	0x32700205
     e84:	02001c00 	slti	$r0,$r0,7(0x7)
     e88:	18060004 	pcaddi	$r4,12288(0x3000)
     e8c:	05000905 	0x05000905
     e90:	00327002 	0x00327002
     e94:	0501061c 	0x0501061c
     e98:	0205000d 	slti	$r13,$r0,320(0x140)
     e9c:	1c003274 	pcaddu12i	$r20,403(0x193)
     ea0:	00190516 	srl.d	$r22,$r8,$r1
     ea4:	32780205 	0x32780205
     ea8:	05011c00 	0x05011c00
     eac:	0205000b 	slti	$r11,$r0,320(0x140)
     eb0:	1c00327c 	pcaddu12i	$r28,403(0x193)
     eb4:	0001051b 	0x0001051b
     eb8:	32840205 	xvldrepl.b	$xr5,$r16,256(0x100)
     ebc:	05121c00 	0x05121c00
     ec0:	0205000c 	slti	$r12,$r0,320(0x140)
     ec4:	1c003288 	pcaddu12i	$r8,404(0x194)
     ec8:	05051b06 	0x05051b06
     ecc:	88020500 	0x88020500
     ed0:	061c0032 	cacop	0x12,$r1,1792(0x700)
     ed4:	00010518 	0x00010518
     ed8:	32900205 	xvldrepl.b	$xr5,$r16,1024(0x400)
     edc:	26061c00 	ldptr.d	$r0,$r0,1564(0x61c)
     ee0:	05002405 	0x05002405
     ee4:	00329002 	0x00329002
     ee8:	05051b1c 	0x05051b1c
     eec:	90020500 	0x90020500
     ef0:	181c0032 	pcaddi	$r18,57345(0xe001)
     ef4:	05000505 	0x05000505
     ef8:	00329002 	0x00329002
     efc:	0516061c 	0x0516061c
     f00:	0205000b 	slti	$r11,$r0,320(0x140)
     f04:	1c003294 	pcaddu12i	$r20,404(0x194)
     f08:	01040200 	0x01040200
     f0c:	16051906 	lu32i.d	$r6,10440(0x28c8)
     f10:	94020500 	0x94020500
     f14:	061c0032 	cacop	0x12,$r1,1792(0x700)
     f18:	001a0516 	0x001a0516
     f1c:	32980205 	xvldrepl.b	$xr5,$r16,1536(0x600)
     f20:	05011c00 	0x05011c00
     f24:	02050015 	slti	$r21,$r0,320(0x140)
     f28:	1c00329c 	pcaddu12i	$r28,404(0x194)
     f2c:	00100501 	add.w	$r1,$r8,$r1
     f30:	32a00205 	xvldrepl.b	$xr5,$r16,-2048(0x800)
     f34:	05011c00 	0x05011c00
     f38:	02050013 	slti	$r19,$r0,320(0x140)
     f3c:	1c0032a4 	pcaddu12i	$r4,405(0x195)
     f40:	000b0501 	0x000b0501
     f44:	32a80205 	xvldrepl.b	$xr5,$r16,-1536(0xa00)
     f48:	02001c00 	slti	$r0,$r0,7(0x7)
     f4c:	051b0004 	0x051b0004
     f50:	02050001 	slti	$r1,$r0,320(0x140)
     f54:	1c0032ac 	pcaddu12i	$r12,405(0x195)
     f58:	31052406 	0x31052406
     f5c:	ac020500 	0xac020500
     f60:	181c0032 	pcaddi	$r18,57345(0xe001)
     f64:	05000505 	0x05000505
     f68:	0032ac02 	0x0032ac02
     f6c:	0505181c 	0x0505181c
     f70:	ac020500 	0xac020500
     f74:	061c0032 	cacop	0x12,$r1,1792(0x700)
     f78:	000b0501 	0x000b0501
     f7c:	32b40205 	xvldrepl.b	$xr5,$r16,-768(0xd00)
     f80:	05161c00 	0x05161c00
     f84:	0205000b 	slti	$r11,$r0,320(0x140)
     f88:	1c0032b8 	pcaddu12i	$r24,405(0x195)
     f8c:	09051906 	0x09051906
     f90:	b8020500 	0xb8020500
     f94:	061c0032 	cacop	0x12,$r1,1792(0x700)
     f98:	00130501 	maskeqz	$r1,$r8,$r1
     f9c:	32bc0205 	xvldrepl.b	$xr5,$r16,-256(0xf00)
     fa0:	051a1c00 	0x051a1c00
     fa4:	0205000b 	slti	$r11,$r0,320(0x140)
     fa8:	1c0032c0 	pcaddu12i	$r0,406(0x196)
     fac:	00110514 	sub.w	$r20,$r8,$r1
     fb0:	32c40205 	0x32c40205
     fb4:	05181c00 	0x05181c00
     fb8:	02050011 	slti	$r17,$r0,320(0x140)
     fbc:	1c0032cc 	pcaddu12i	$r12,406(0x196)
     fc0:	09051906 	0x09051906
     fc4:	cc020500 	0xcc020500
     fc8:	061c0032 	cacop	0x12,$r1,1792(0x700)
     fcc:	000b0513 	0x000b0513
     fd0:	32d00205 	0x32d00205
     fd4:	1d061c00 	pcaddu12i	$r0,-511776(0x830e0)
     fd8:	05000505 	0x05000505
     fdc:	0032d002 	0x0032d002
     fe0:	0518061c 	0x0518061c
     fe4:	02050001 	slti	$r1,$r0,320(0x140)
     fe8:	1c0032d4 	pcaddu12i	$r20,406(0x196)
     fec:	33052506 	0x33052506
     ff0:	d4020500 	0xd4020500
     ff4:	181c0032 	pcaddi	$r18,57345(0xe001)
     ff8:	05000505 	0x05000505
     ffc:	0032d402 	0x0032d402
    1000:	0501061c 	0x0501061c
    1004:	0205000b 	slti	$r11,$r0,320(0x140)
    1008:	1c0032d8 	pcaddu12i	$r24,406(0x196)
    100c:	00150501 	or	$r1,$r8,$r1
    1010:	32e00205 	0x32e00205
    1014:	05011c00 	0x05011c00
    1018:	02050012 	slti	$r18,$r0,320(0x140)
    101c:	1c0032e4 	pcaddu12i	$r4,407(0x197)
    1020:	00210501 	div.wu	$r1,$r8,$r1
    1024:	32f00205 	0x32f00205
    1028:	02001c00 	slti	$r0,$r0,7(0x7)
    102c:	05010104 	0x05010104
    1030:	02050015 	slti	$r21,$r0,320(0x140)
    1034:	1c0032f4 	pcaddu12i	$r20,407(0x197)
    1038:	00120501 	slt	$r1,$r8,$r1
    103c:	32f80205 	0x32f80205
    1040:	02001c00 	slti	$r0,$r0,7(0x7)
    1044:	05010204 	0x05010204
    1048:	0205002b 	slti	$r11,$r1,320(0x140)
    104c:	1c003300 	pcaddu12i	$r0,408(0x198)
    1050:	00210501 	div.wu	$r1,$r8,$r1
    1054:	33040205 	0x33040205
    1058:	02001c00 	slti	$r0,$r0,7(0x7)
    105c:	18060004 	pcaddi	$r4,12288(0x3000)
    1060:	05000905 	0x05000905
    1064:	00330402 	0x00330402
    1068:	0501061c 	0x0501061c
    106c:	02050019 	slti	$r25,$r0,320(0x140)
    1070:	1c003308 	pcaddu12i	$r8,408(0x198)
    1074:	00120501 	slt	$r1,$r8,$r1
    1078:	330c0205 	0x330c0205
    107c:	05161c00 	0x05161c00
    1080:	0205000b 	slti	$r11,$r0,320(0x140)
    1084:	1c003310 	pcaddu12i	$r16,408(0x198)
    1088:	0019051a 	srl.d	$r26,$r8,$r1
    108c:	33140205 	xvstelm.d	$xr5,$r16,0,0x1
    1090:	05181c00 	0x05181c00
    1094:	02050001 	slti	$r1,$r0,320(0x140)
    1098:	1c00331c 	pcaddu12i	$r28,408(0x198)
    109c:	05051606 	0x05051606
    10a0:	1c020500 	pcaddu12i	$r0,4136(0x1028)
    10a4:	061c0033 	cacop	0x13,$r1,1792(0x700)
    10a8:	00330513 	0x00330513
    10ac:	33200205 	xvstelm.w	$xr5,$r16,0,0x0
    10b0:	051b1c00 	0x051b1c00
    10b4:	02050021 	slti	$r1,$r1,320(0x140)
    10b8:	1c003328 	pcaddu12i	$r8,409(0x199)
    10bc:	00360501 	0x00360501
    10c0:	33300205 	xvstelm.w	$xr5,$r16,0,0x4
    10c4:	05181c00 	0x05181c00
    10c8:	02050001 	slti	$r1,$r0,320(0x140)
    10cc:	1c003334 	pcaddu12i	$r20,409(0x199)
    10d0:	00190516 	srl.d	$r22,$r8,$r1
    10d4:	33380205 	xvstelm.w	$xr5,$r16,0,0x6
    10d8:	05181c00 	0x05181c00
    10dc:	02050001 	slti	$r1,$r0,320(0x140)
    10e0:	1c00333c 	pcaddu12i	$r28,409(0x199)
    10e4:	1f052206 	pcaddu18i	$r6,-513776(0x82910)
    10e8:	3c020500 	0x3c020500
    10ec:	181c0033 	pcaddi	$r19,57345(0xe001)
    10f0:	05000505 	0x05000505
    10f4:	00333c02 	0x00333c02
    10f8:	0501061c 	0x0501061c
    10fc:	0205000c 	slti	$r12,$r0,320(0x140)
    1100:	1c003340 	pcaddu12i	$r0,410(0x19a)
    1104:	000b0501 	0x000b0501
    1108:	33440205 	xvstelm.h	$xr5,$r16,0,0x1
    110c:	18061c00 	pcaddi	$r0,12512(0x30e0)
    1110:	05000905 	0x05000905
    1114:	00334402 	0x00334402
    1118:	0501061c 	0x0501061c
    111c:	0205000c 	slti	$r12,$r0,320(0x140)
    1120:	1c003350 	pcaddu12i	$r16,410(0x19a)
    1124:	09050106 	0x09050106
    1128:	50020500 	b	67109380(0x4000204) # 400132c <data_size+0x4000910>
    112c:	1a1c0033 	pcalau12i	$r19,57345(0xe001)
    1130:	05000905 	0x05000905
    1134:	00335002 	0x00335002
    1138:	0501061c 	0x0501061c
    113c:	0205000b 	slti	$r11,$r0,320(0x140)
    1140:	1c003354 	pcaddu12i	$r20,410(0x19a)
    1144:	000c0513 	bytepick.d	$r19,$r8,$r1,0x0
    1148:	33580205 	xvstelm.h	$xr5,$r16,0,0x6
    114c:	05011c00 	0x05011c00
    1150:	0205000b 	slti	$r11,$r0,320(0x140)
    1154:	1c00335c 	pcaddu12i	$r28,410(0x19a)
    1158:	000c051d 	bytepick.d	$r29,$r8,$r1,0x0
    115c:	33600205 	xvstelm.h	$xr5,$r16,0,0x8
    1160:	05181c00 	0x05181c00
    1164:	02050001 	slti	$r1,$r0,320(0x140)
    1168:	1c003368 	pcaddu12i	$r8,411(0x19b)
    116c:	20052306 	ll.w	$r6,$r24,1312(0x520)
    1170:	68020500 	bltu	$r8,$r0,516(0x204) # 1374 <data_size+0x958>
    1174:	181c0033 	pcaddi	$r19,57345(0xe001)
    1178:	05000505 	0x05000505
    117c:	00336802 	0x00336802
    1180:	0501061c 	0x0501061c
    1184:	0205000c 	slti	$r12,$r0,320(0x140)
    1188:	1c00336c 	pcaddu12i	$r12,411(0x19b)
    118c:	000b0501 	0x000b0501
    1190:	33700205 	xvstelm.h	$xr5,$r16,0,0xc
    1194:	18061c00 	pcaddi	$r0,12512(0x30e0)
    1198:	05000905 	0x05000905
    119c:	00337002 	0x00337002
    11a0:	0501061c 	0x0501061c
    11a4:	0205000c 	slti	$r12,$r0,320(0x140)
    11a8:	1c00337c 	pcaddu12i	$r28,411(0x19b)
    11ac:	09050106 	0x09050106
    11b0:	7c020500 	0x7c020500
    11b4:	1a1c0033 	pcalau12i	$r19,57345(0xe001)
    11b8:	05000905 	0x05000905
    11bc:	00337c02 	0x00337c02
    11c0:	0501061c 	0x0501061c
    11c4:	0205000b 	slti	$r11,$r0,320(0x140)
    11c8:	1c003380 	pcaddu12i	$r0,412(0x19c)
    11cc:	000c0513 	bytepick.d	$r19,$r8,$r1,0x0
    11d0:	33840205 	xvstelm.b	$xr5,$r16,0,0x1
    11d4:	05011c00 	0x05011c00
    11d8:	0205000b 	slti	$r11,$r0,320(0x140)
    11dc:	1c003388 	pcaddu12i	$r8,412(0x19c)
    11e0:	05051d06 	0x05051d06
    11e4:	88020500 	0x88020500
    11e8:	061c0033 	cacop	0x13,$r1,1792(0x700)
    11ec:	00010518 	0x00010518
    11f0:	33900205 	xvstelm.b	$xr5,$r16,0,0x4
    11f4:	7d061c00 	0x7d061c00
    11f8:	05002305 	0x05002305
    11fc:	00339002 	0x00339002
    1200:	05051b1c 	0x05051b1c
    1204:	90020500 	0x90020500
    1208:	181c0033 	pcaddi	$r19,57345(0xe001)
    120c:	05000505 	0x05000505
    1210:	00339002 	0x00339002
    1214:	0501061c 	0x0501061c
    1218:	0205000b 	slti	$r11,$r0,320(0x140)
    121c:	1c003398 	pcaddu12i	$r24,412(0x19c)
    1220:	000b0516 	0x000b0516
    1224:	339c0205 	xvstelm.b	$xr5,$r16,0,0x7
    1228:	19061c00 	pcaddi	$r0,-511776(0x830e0)
    122c:	05000905 	0x05000905
    1230:	00339c02 	0x00339c02
    1234:	0501061c 	0x0501061c
    1238:	0205000c 	slti	$r12,$r0,320(0x140)
    123c:	1c0033a0 	pcaddu12i	$r0,413(0x19d)
    1240:	000f0501 	bytepick.d	$r1,$r8,$r1,0x6
    1244:	33a40205 	xvstelm.b	$xr5,$r16,0,0x9
    1248:	05161c00 	0x05161c00
    124c:	0205000b 	slti	$r11,$r0,320(0x140)
    1250:	1c0033a8 	pcaddu12i	$r8,413(0x19d)
    1254:	05051a06 	0x05051a06
    1258:	a8020500 	0xa8020500
    125c:	061c0033 	cacop	0x13,$r1,1792(0x700)
    1260:	00010519 	0x00010519
    1264:	33ac0205 	xvstelm.b	$xr5,$r16,0,0xb
    1268:	28061c00 	ld.b	$r0,$r0,391(0x187)
    126c:	05002e05 	0x05002e05
    1270:	0033ac02 	0x0033ac02
    1274:	05051b1c 	0x05051b1c
    1278:	ac020500 	0xac020500
    127c:	181c0033 	pcaddi	$r19,57345(0xe001)
    1280:	05000505 	0x05000505
    1284:	0033ac02 	0x0033ac02
    1288:	0505181c 	0x0505181c
    128c:	ac020500 	0xac020500
    1290:	061c0033 	cacop	0x13,$r1,1792(0x700)
    1294:	000b0501 	0x000b0501
    1298:	33b40205 	xvstelm.b	$xr5,$r16,0,0xd
    129c:	05161c00 	0x05161c00
    12a0:	0205000b 	slti	$r11,$r0,320(0x140)
    12a4:	1c0033b8 	pcaddu12i	$r24,413(0x19d)
    12a8:	09051906 	0x09051906
    12ac:	b8020500 	0xb8020500
    12b0:	061c0033 	cacop	0x13,$r1,1792(0x700)
    12b4:	00140501 	nor	$r1,$r8,$r1
    12b8:	33bc0205 	xvstelm.b	$xr5,$r16,0,0xf
    12bc:	05011c00 	0x05011c00
    12c0:	02050011 	slti	$r17,$r0,320(0x140)
    12c4:	1c0033c0 	pcaddu12i	$r0,414(0x19e)
    12c8:	000c0501 	bytepick.d	$r1,$r8,$r1,0x0
    12cc:	33c40205 	xvstelm.b	$xr5,$r16,0,0x11
    12d0:	05011c00 	0x05011c00
    12d4:	0205000f 	slti	$r15,$r0,320(0x140)
    12d8:	1c0033c8 	pcaddu12i	$r8,414(0x19e)
    12dc:	000b0516 	0x000b0516
    12e0:	33cc0205 	xvstelm.b	$xr5,$r16,0,0x13
    12e4:	1a061c00 	pcalau12i	$r0,12512(0x30e0)
    12e8:	05000505 	0x05000505
    12ec:	0033cc02 	0x0033cc02
    12f0:	0519061c 	0x0519061c
    12f4:	02050001 	slti	$r1,$r0,320(0x140)
    12f8:	1c0033d0 	pcaddu12i	$r16,414(0x19e)
    12fc:	2f052306 	0x2f052306
    1300:	d0020500 	0xd0020500
    1304:	1b1c0033 	pcalau12i	$r19,-466943(0x8e001)
    1308:	05000505 	0x05000505
    130c:	0033d002 	0x0033d002
    1310:	0505181c 	0x0505181c
    1314:	d0020500 	0xd0020500
    1318:	181c0033 	pcaddi	$r19,57345(0xe001)
    131c:	05000505 	0x05000505
    1320:	0033d002 	0x0033d002
    1324:	0501061c 	0x0501061c
    1328:	02050008 	slti	$r8,$r0,320(0x140)
    132c:	1c0033d4 	pcaddu12i	$r20,414(0x19e)
    1330:	01040200 	0x01040200
    1334:	00140501 	nor	$r1,$r8,$r1
    1338:	33d80205 	xvstelm.b	$xr5,$r16,0,0x16
    133c:	05011c00 	0x05011c00
    1340:	0205000f 	slti	$r15,$r0,320(0x140)
    1344:	1c0033dc 	pcaddu12i	$r28,414(0x19e)
    1348:	00040200 	alsl.w	$r0,$r16,$r0,0x1
    134c:	09051806 	0x09051806
    1350:	dc020500 	0xdc020500
    1354:	061c0033 	cacop	0x13,$r1,1792(0x700)
    1358:	00130501 	maskeqz	$r1,$r8,$r1
    135c:	33e00205 	xvstelm.b	$xr5,$r16,0,0x18
    1360:	18061c00 	pcaddi	$r0,12512(0x30e0)
    1364:	05000905 	0x05000905
    1368:	0033e002 	0x0033e002
    136c:	0501061c 	0x0501061c
    1370:	0205000f 	slti	$r15,$r0,320(0x140)
    1374:	1c0033e4 	pcaddu12i	$r4,415(0x19f)
    1378:	0d051806 	0x0d051806
    137c:	e4020500 	0xe4020500
    1380:	061c0033 	cacop	0x13,$r1,1792(0x700)
    1384:	00130501 	maskeqz	$r1,$r8,$r1
    1388:	33e80205 	xvstelm.b	$xr5,$r16,0,0x1a
    138c:	05011c00 	0x05011c00
    1390:	02050015 	slti	$r21,$r0,320(0x140)
    1394:	1c0033ec 	pcaddu12i	$r12,415(0x19f)
    1398:	00130501 	maskeqz	$r1,$r8,$r1
    139c:	33f40205 	xvstelm.b	$xr5,$r16,0,0x1d
    13a0:	05161c00 	0x05161c00
    13a4:	0205000f 	slti	$r15,$r0,320(0x140)
    13a8:	1c003400 	pcaddu12i	$r0,416(0x1a0)
    13ac:	000f051b 	bytepick.d	$r27,$r8,$r1,0x6
    13b0:	34080205 	0x34080205
    13b4:	18061c00 	pcaddi	$r0,12512(0x30e0)
    13b8:	05000d05 	0x05000d05
    13bc:	00340802 	0x00340802
    13c0:	0501061c 	0x0501061c
    13c4:	02050018 	slti	$r24,$r0,320(0x140)
    13c8:	1c00340c 	pcaddu12i	$r12,416(0x1a0)
    13cc:	00150501 	or	$r1,$r8,$r1
    13d0:	34100205 	0x34100205
    13d4:	05011c00 	0x05011c00
    13d8:	02050010 	slti	$r16,$r0,320(0x140)
    13dc:	1c003414 	pcaddu12i	$r20,416(0x1a0)
    13e0:	00130501 	maskeqz	$r1,$r8,$r1
    13e4:	34180205 	0x34180205
    13e8:	05161c00 	0x05161c00
    13ec:	0205000f 	slti	$r15,$r0,320(0x140)
    13f0:	1c00341c 	pcaddu12i	$r28,416(0x1a0)
    13f4:	0001051d 	0x0001051d
    13f8:	34240205 	0x34240205
    13fc:	28061c00 	ld.b	$r0,$r0,391(0x187)
    1400:	05003205 	0x05003205
    1404:	00342402 	0x00342402
    1408:	0505181c 	0x0505181c
    140c:	24020500 	ldptr.w	$r0,$r8,516(0x204)
    1410:	181c0034 	pcaddi	$r20,57345(0xe001)
    1414:	05000505 	0x05000505
    1418:	00342402 	0x00342402
    141c:	0505181c 	0x0505181c
    1420:	24020500 	ldptr.w	$r0,$r8,516(0x204)
    1424:	061c0034 	cacop	0x14,$r1,1792(0x700)
    1428:	000b0501 	0x000b0501
    142c:	34280205 	0x34280205
    1430:	18061c00 	pcaddi	$r0,12512(0x30e0)
    1434:	05000905 	0x05000905
    1438:	00342802 	0x00342802
    143c:	0501061c 	0x0501061c
    1440:	0205000d 	slti	$r13,$r0,320(0x140)
    1444:	1c00342c 	pcaddu12i	$r12,417(0x1a1)
    1448:	00140501 	nor	$r1,$r8,$r1
    144c:	34340205 	0x34340205
    1450:	05011c00 	0x05011c00
    1454:	0205000c 	slti	$r12,$r0,320(0x140)
    1458:	1c00343c 	pcaddu12i	$r28,417(0x1a1)
    145c:	000d0501 	bytepick.d	$r1,$r8,$r1,0x2
    1460:	34400205 	0x34400205
    1464:	05011c00 	0x05011c00
    1468:	02050014 	slti	$r20,$r0,320(0x140)
    146c:	1c003444 	pcaddu12i	$r4,418(0x1a2)
    1470:	000c0501 	bytepick.d	$r1,$r8,$r1,0x0
    1474:	34480205 	0x34480205
    1478:	01061c00 	0x01061c00
    147c:	05000905 	0x05000905
    1480:	00344802 	0x00344802
    1484:	09051a1c 	0x09051a1c
    1488:	48020500 	bcnez	$fcc0,516(0x204) # 168c <data_size+0xc70>
    148c:	061c0034 	cacop	0x14,$r1,1792(0x700)
    1490:	000c0501 	bytepick.d	$r1,$r8,$r1,0x0
    1494:	344c0205 	0x344c0205
    1498:	05011c00 	0x05011c00
    149c:	02050013 	slti	$r19,$r0,320(0x140)
    14a0:	1c003450 	pcaddu12i	$r16,418(0x1a2)
    14a4:	000b0513 	0x000b0513
    14a8:	34540205 	0x34540205
    14ac:	051d1c00 	0x051d1c00
    14b0:	0205000c 	slti	$r12,$r0,320(0x140)
    14b4:	1c003458 	pcaddu12i	$r24,418(0x1a2)
    14b8:	00010518 	0x00010518
    14bc:	345c0205 	0x345c0205
    14c0:	12061c00 	addu16i.d	$r0,$r0,-32377(0x8187)
    14c4:	05000d05 	0x05000d05
    14c8:	00345c02 	0x00345c02
    14cc:	0512061c 	0x0512061c
    14d0:	02050032 	slti	$r18,$r1,320(0x140)
    14d4:	1c003460 	pcaddu12i	$r0,419(0x1a3)
    14d8:	001a051c 	0x001a051c
    14dc:	34680205 	0x34680205
    14e0:	05011c00 	0x05011c00
    14e4:	0205002f 	slti	$r15,$r1,320(0x140)
    14e8:	1c003470 	pcaddu12i	$r16,419(0x1a3)
    14ec:	0001051c 	0x0001051c
    14f0:	34740205 	0x34740205
    14f4:	05121c00 	0x05121c00
    14f8:	02050014 	slti	$r20,$r0,320(0x140)
    14fc:	1c003478 	pcaddu12i	$r24,419(0x1a3)
    1500:	0001051c 	0x0001051c
    1504:	347c0205 	0x347c0205
    1508:	19061c00 	pcaddi	$r0,-511776(0x830e0)
    150c:	05001e05 	0x05001e05
    1510:	00347c02 	0x00347c02
    1514:	0205181c 	slti	$r28,$r0,326(0x146)
    1518:	7c020500 	0x7c020500
    151c:	031c0034 	lu52i.d	$r20,$r1,1792(0x700)
    1520:	05017fa2 	0x05017fa2
    1524:	02050005 	slti	$r5,$r0,320(0x140)
    1528:	1c00347c 	pcaddu12i	$r28,419(0x1a3)
    152c:	00050518 	alsl.w	$r24,$r8,$r1,0x3
    1530:	347c0205 	0x347c0205
    1534:	01061c00 	0x01061c00
    1538:	05000b05 	0x05000b05
    153c:	00348402 	0x00348402
    1540:	0518061c 	0x0518061c
    1544:	02050009 	slti	$r9,$r0,320(0x140)
    1548:	1c003484 	pcaddu12i	$r4,420(0x1a4)
    154c:	0c050106 	0x0c050106
    1550:	88020500 	0x88020500
    1554:	011c0034 	0x011c0034
    1558:	05000f05 	0x05000f05
    155c:	00348c02 	0x00348c02
    1560:	0b05161c 	0x0b05161c
    1564:	90020500 	0x90020500
    1568:	751c0034 	xvilvh.b	$xr20,$xr1,$xr0
    156c:	05000105 	0x05000105
    1570:	00349402 	0x00349402
    1574:	0101001c 	fadd.d	$f28,$f0,$f0
    1578:	000002e6 	0x000002e6
    157c:	00330004 	0x00330004
    1580:	01010000 	fadd.d	$f0,$f0,$f0
    1584:	0df2f601 	0x0df2f601
    1588:	01010100 	fadd.d	$f0,$f8,$f0
    158c:	00000001 	0x00000001
    1590:	01000001 	0x01000001
    1594:	692f2e2e 	bltu	$r17,$r14,77612(0x12f2c) # 144c0 <data_size+0x13aa4>
    1598:	756c636e 	0x756c636e
    159c:	00006564 	rdtimeh.w	$r4,$r11
    15a0:	656d6974 	bge	$r11,$r20,93544(0x16d68) # 18308 <data_size+0x178ec>
    15a4:	0000632e 	rdtimel.w	$r14,$r25
    15a8:	69740000 	bltu	$r0,$r0,95232(0x17400) # 189a8 <data_size+0x17f8c>
    15ac:	682e656d 	bltu	$r11,$r13,11876(0x2e64) # 4410 <data_size+0x39f4>
    15b0:	00000100 	0x00000100
    15b4:	02050000 	slti	$r0,$r0,320(0x140)
    15b8:	1c003494 	pcaddu12i	$r20,420(0x1a4)
    15bc:	00010528 	0x00010528
    15c0:	34940205 	0x34940205
    15c4:	05181c00 	0x05181c00
    15c8:	02050005 	slti	$r5,$r0,320(0x140)
    15cc:	1c003494 	pcaddu12i	$r20,420(0x1a4)
    15d0:	05017303 	0x05017303
    15d4:	02050005 	slti	$r5,$r0,320(0x140)
    15d8:	1c003494 	pcaddu12i	$r20,420(0x1a4)
    15dc:	00050518 	alsl.w	$r24,$r8,$r1,0x3
    15e0:	34940205 	0x34940205
    15e4:	22061c00 	ll.d	$r0,$r0,1564(0x61c)
    15e8:	05000105 	0x05000105
    15ec:	00349c02 	0x00349c02
    15f0:	0175031c 	0x0175031c
    15f4:	05000505 	0x05000505
    15f8:	0034a402 	0x0034a402
    15fc:	051e061c 	0x051e061c
    1600:	02050005 	slti	$r5,$r0,320(0x140)
    1604:	1c0034a4 	pcaddu12i	$r4,421(0x1a5)
    1608:	01051d06 	fmul.d	$f6,$f8,$f7
    160c:	b4020500 	0xb4020500
    1610:	061c0034 	cacop	0x14,$r1,1792(0x700)
    1614:	0001051a 	0x0001051a
    1618:	34b40205 	0x34b40205
    161c:	05181c00 	0x05181c00
    1620:	02050005 	slti	$r5,$r0,320(0x140)
    1624:	1c0034b4 	pcaddu12i	$r20,421(0x1a5)
    1628:	00050518 	alsl.w	$r24,$r8,$r1,0x3
    162c:	34b80205 	0x34b80205
    1630:	051b1c00 	0x051b1c00
    1634:	02050005 	slti	$r5,$r0,320(0x140)
    1638:	1c0034b8 	pcaddu12i	$r24,421(0x1a5)
    163c:	01051806 	fmul.d	$f6,$f0,$f6
    1640:	bc020500 	0xbc020500
    1644:	061c0034 	cacop	0x14,$r1,1792(0x700)
    1648:	0001051a 	0x0001051a
    164c:	34bc0205 	0x34bc0205
    1650:	05181c00 	0x05181c00
    1654:	02050005 	slti	$r5,$r0,320(0x140)
    1658:	1c0034bc 	pcaddu12i	$r28,421(0x1a5)
    165c:	00050518 	alsl.w	$r24,$r8,$r1,0x3
    1660:	34bc0205 	0x34bc0205
    1664:	63031c00 	blt	$r0,$r0,-64740(0x3031c) # ffff1980 <_stack+0xe3fdda04>
    1668:	00050501 	alsl.w	$r1,$r8,$r1,0x3
    166c:	34bc0205 	0x34bc0205
    1670:	05181c00 	0x05181c00
    1674:	02050005 	slti	$r5,$r0,320(0x140)
    1678:	1c0034bc 	pcaddu12i	$r28,421(0x1a5)
    167c:	01053106 	fmul.d	$f6,$f8,$f12
    1680:	c4020500 	0xc4020500
    1684:	031c0034 	lu52i.d	$r20,$r1,1792(0x700)
    1688:	05050166 	0x05050166
    168c:	cc020500 	0xcc020500
    1690:	061c0034 	cacop	0x14,$r1,1792(0x700)
    1694:	0005051e 	alsl.w	$r30,$r8,$r1,0x3
    1698:	34cc0205 	0x34cc0205
    169c:	052d1c00 	0x052d1c00
    16a0:	02050005 	slti	$r5,$r0,320(0x140)
    16a4:	1c0034cc 	pcaddu12i	$r12,422(0x1a6)
    16a8:	15050106 	lu12i.w	$r6,-514040(0x82808)
    16ac:	d4020500 	0xd4020500
    16b0:	181c0034 	pcaddi	$r20,57345(0xe001)
    16b4:	05001605 	0x05001605
    16b8:	0034d802 	0x0034d802
    16bc:	3605161c 	0x3605161c
    16c0:	dc020500 	0xdc020500
    16c4:	181c0034 	pcaddi	$r20,57345(0xe001)
    16c8:	05001605 	0x05001605
    16cc:	0034e802 	0x0034e802
    16d0:	2805011c 	ld.b	$r28,$r8,320(0x140)
    16d4:	f4020500 	0xf4020500
    16d8:	181c0034 	pcaddi	$r20,57345(0xe001)
    16dc:	05002705 	0x05002705
    16e0:	00350802 	0x00350802
    16e4:	3605011c 	0x3605011c
    16e8:	14020500 	lu12i.w	$r0,4136(0x1028)
    16ec:	161c0035 	lu32i.d	$r21,57345(0xe001)
    16f0:	05001205 	0x05001205
    16f4:	00351802 	0x00351802
    16f8:	1205181c 	addu16i.d	$r28,$r0,-32442(0x8146)
    16fc:	1c020500 	pcaddu12i	$r0,4136(0x1028)
    1700:	181c0035 	pcaddi	$r21,57345(0xe001)
    1704:	05001205 	0x05001205
    1708:	00352002 	0x00352002
    170c:	01051a1c 	fmul.d	$f28,$f16,$f6
    1710:	28020500 	ld.b	$r0,$r8,129(0x81)
    1714:	111c0035 	addu16i.d	$r21,$r1,18176(0x4700)
    1718:	05003605 	0x05003605
    171c:	00353402 	0x00353402
    1720:	1205011c 	addu16i.d	$r28,$r8,-32448(0x8140)
    1724:	38020500 	0x38020500
    1728:	061c0035 	cacop	0x15,$r1,1792(0x700)
    172c:	00050518 	alsl.w	$r24,$r8,$r1,0x3
    1730:	35380205 	0x35380205
    1734:	05181c00 	0x05181c00
    1738:	02050005 	slti	$r5,$r0,320(0x140)
    173c:	1c003538 	pcaddu12i	$r24,425(0x1a9)
    1740:	00050518 	alsl.w	$r24,$r8,$r1,0x3
    1744:	35380205 	0x35380205
    1748:	05191c00 	0x05191c00
    174c:	02050005 	slti	$r5,$r0,320(0x140)
    1750:	1c003538 	pcaddu12i	$r24,425(0x1a9)
    1754:	01051806 	fmul.d	$f6,$f0,$f6
    1758:	44020500 	bnez	$r8,516(0x204) # 195c <data_size+0xf40>
    175c:	061c0035 	cacop	0x15,$r1,1792(0x700)
    1760:	00010521 	0x00010521
    1764:	35440205 	0x35440205
    1768:	05181c00 	0x05181c00
    176c:	02050005 	slti	$r5,$r0,320(0x140)
    1770:	1c003544 	pcaddu12i	$r4,426(0x1aa)
    1774:	00050518 	alsl.w	$r24,$r8,$r1,0x3
    1778:	35440205 	0x35440205
    177c:	50031c00 	b	796(0x31c) # 1a98 <data_size+0x107c>
    1780:	00050501 	alsl.w	$r1,$r8,$r1,0x3
    1784:	35440205 	0x35440205
    1788:	05181c00 	0x05181c00
    178c:	02050005 	slti	$r5,$r0,320(0x140)
    1790:	1c003544 	pcaddu12i	$r4,426(0x1aa)
    1794:	01054406 	fmul.d	$f6,$f0,$f17
    1798:	4c020500 	jirl	$r0,$r8,516(0x204)
    179c:	031c0035 	lu52i.d	$r21,$r1,1792(0x700)
    17a0:	05050153 	0x05050153
    17a4:	54020500 	bl	67109380(0x4000204) # 40019a8 <data_size+0x4000f8c>
    17a8:	061c0035 	cacop	0x15,$r1,1792(0x700)
    17ac:	0005051e 	alsl.w	$r30,$r8,$r1,0x3
    17b0:	35540205 	0x35540205
    17b4:	05401c00 	0x05401c00
    17b8:	02050005 	slti	$r5,$r0,320(0x140)
    17bc:	1c003554 	pcaddu12i	$r20,426(0x1aa)
    17c0:	00050518 	alsl.w	$r24,$r8,$r1,0x3
    17c4:	35540205 	0x35540205
    17c8:	16061c00 	lu32i.d	$r0,12512(0x30e0)
    17cc:	05000605 	0x05000605
    17d0:	00355802 	0x00355802
    17d4:	0105191c 	fmul.d	$f28,$f8,$f6
    17d8:	68020500 	bltu	$r8,$r0,516(0x204) # 19dc <data_size+0xfc0>
    17dc:	061c0035 	cacop	0x15,$r1,1792(0x700)
    17e0:	0001051b 	0x0001051b
    17e4:	35680205 	0x35680205
    17e8:	05181c00 	0x05181c00
    17ec:	02050005 	slti	$r5,$r0,320(0x140)
    17f0:	1c003568 	pcaddu12i	$r8,427(0x1ab)
    17f4:	00050518 	alsl.w	$r24,$r8,$r1,0x3
    17f8:	35680205 	0x35680205
    17fc:	47031c00 	bnez	$r0,197404(0x3031c) # 31b18 <data_size+0x310fc>
    1800:	00050501 	alsl.w	$r1,$r8,$r1,0x3
    1804:	35680205 	0x35680205
    1808:	05181c00 	0x05181c00
    180c:	02050005 	slti	$r5,$r0,320(0x140)
    1810:	1c003568 	pcaddu12i	$r8,427(0x1ab)
    1814:	01054d06 	fmul.d	$f6,$f8,$f19
    1818:	70020500 	vsle.b	$vr0,$vr8,$vr1
    181c:	031c0035 	lu52i.d	$r21,$r1,1792(0x700)
    1820:	0505014a 	0x0505014a
    1824:	78020500 	0x78020500
    1828:	061c0035 	cacop	0x15,$r1,1792(0x700)
    182c:	0005051e 	alsl.w	$r30,$r8,$r1,0x3
    1830:	35780205 	0x35780205
    1834:	05491c00 	0x05491c00
    1838:	02050005 	slti	$r5,$r0,320(0x140)
    183c:	1c003578 	pcaddu12i	$r24,427(0x1ab)
    1840:	00050518 	alsl.w	$r24,$r8,$r1,0x3
    1844:	35780205 	0x35780205
    1848:	16061c00 	lu32i.d	$r0,12512(0x30e0)
    184c:	05000605 	0x05000605
    1850:	00357c02 	0x00357c02
    1854:	0105191c 	fmul.d	$f28,$f8,$f6
    1858:	98020500 	0x98020500
    185c:	001c0035 	mul.w	$r21,$r1,$r0
    1860:	Address 0x0000000000001860 is out of bounds.


Disassembly of section .debug_str:

00000000 <.debug_str>:
   0:	6c727473 	bgeu	$r3,$r19,29300(0x7274) # 7274 <data_size+0x6858>
   4:	73006e65 	0x73006e65
   8:	61657274 	blt	$r19,$r20,91504(0x16570) # 16578 <data_size+0x15b5c>
   c:	7570006d 	0x7570006d
  10:	61686374 	blt	$r27,$r20,92256(0x16860) # 16870 <data_size+0x15e54>
  14:	75700072 	0x75700072
  18:	72747374 	0x72747374
  1c:	00676e69 	bstrins.w	$r9,$r19,0x7,0x1b
  20:	6e697270 	bgeu	$r19,$r16,-104080(0x26970) # fffe6990 <_stack+0xe3fd2a14>
  24:	73616274 	vssrani.w.d	$vr20,$vr19,0x18
  28:	67740065 	bge	$r3,$r5,-35840(0x37400) # ffff7428 <_stack+0xe3fe34ac>
  2c:	75705f74 	0x75705f74
  30:	61686374 	blt	$r27,$r20,92256(0x16860) # 16890 <data_size+0x15e74>
  34:	75700072 	0x75700072
  38:	61686374 	blt	$r27,$r20,92256(0x16860) # 16898 <data_size+0x15e7c>
  3c:	75700072 	0x75700072
  40:	61686374 	blt	$r27,$r20,92256(0x16860) # 168a0 <data_size+0x15e84>
  44:	Address 0x0000000000000044 is out of bounds.


Disassembly of section .debug_ranges:

00000000 <.debug_ranges>:
   0:	00000064 	0x00000064
   4:	0000006c 	0x0000006c
   8:	00000084 	0x00000084
   c:	000000a0 	0x000000a0
	...
  18:	000000a8 	0x000000a8
  1c:	000000ac 	0x000000ac
  20:	000000f4 	0x000000f4
  24:	0000022c 	0x0000022c
	...
  38:	00000008 	0x00000008
  3c:	00000018 	0x00000018
	...
  48:	00000020 	0x00000020
  4c:	00000030 	0x00000030
  50:	00000038 	0x00000038
  54:	00000050 	0x00000050
	...
  60:	1c003224 	pcaddu12i	$r4,401(0x191)
  64:	1c003494 	pcaddu12i	$r20,420(0x1a4)
	...
  78:	00000008 	0x00000008
  7c:	00000010 	0x00000010
	...
  88:	00000028 	0x00000028
  8c:	00000028 	0x00000028
  90:	00000030 	0x00000030
  94:	00000038 	0x00000038
	...
  a0:	000000b0 	0x000000b0
  a4:	000000b0 	0x000000b0
  a8:	000000b8 	0x000000b8
  ac:	000000c0 	0x000000c0
	...
  b8:	000000d4 	0x000000d4
  bc:	000000d4 	0x000000d4
  c0:	000000dc 	0x000000dc
  c4:	000000e4 	0x000000e4
	...
