
obj/dhrystone/main.elf:     file format elf32-loongarch
obj/dhrystone/main.elf


Disassembly of section .text:

1c000000 <_ftext>:
_ftext():
1c000000:	157f5f19 	lu12i.w	$r25,-263432(0xbfaf8)
1c000004:	03bff339 	ori	$r25,$r25,0xffc
1c000008:	29800320 	st.w	$r0,$r25,0
1c00000c:	157f5ff9 	lu12i.w	$r25,-263425(0xbfaff)
1c000010:	03bcc339 	ori	$r25,$r25,0xf30
1c000014:	29800320 	st.w	$r0,$r25,0
1c000018:	157f5f19 	lu12i.w	$r25,-263432(0xbfaf8)
1c00001c:	03bff339 	ori	$r25,$r25,0xffc
1c000020:	29800320 	st.w	$r0,$r25,0
1c000024:	157f5f19 	lu12i.w	$r25,-263432(0xbfaf8)
1c000028:	03bff339 	ori	$r25,$r25,0xffc
1c00002c:	29800320 	st.w	$r0,$r25,0
1c000030:	157f5ff9 	lu12i.w	$r25,-263425(0xbfaff)
1c000034:	03bd0339 	ori	$r25,$r25,0xf40
1c000038:	29800320 	st.w	$r0,$r25,0
1c00003c:	157f5f19 	lu12i.w	$r25,-263432(0xbfaf8)
1c000040:	03bff339 	ori	$r25,$r25,0xffc
1c000044:	29800320 	st.w	$r0,$r25,0
1c000048:	04060020 	csrwr	$r0,0x180
1c00004c:	04060420 	csrwr	$r0,0x181
1c000050:	0380640c 	ori	$r12,$r0,0x19
1c000054:	0406002c 	csrwr	$r12,0x180
1c000058:	1540000c 	lu12i.w	$r12,-393216(0xa0000)
1c00005c:	0380258c 	ori	$r12,$r12,0x9
1c000060:	0406042c 	csrwr	$r12,0x181
1c000064:	0380400c 	ori	$r12,$r0,0x10
1c000068:	0380600d 	ori	$r13,$r0,0x18
1c00006c:	040001ac 	csrxchg	$r12,$r13,0x0
1c000070:	1438000c 	lu12i.w	$r12,114688(0x1c000)
1c000074:	038e018c 	ori	$r12,$r12,0x380
1c000078:	0400302c 	csrwr	$r12,0xc
1c00007c:	1c000043 	pcaddu12i	$r3,2(0x2)
1c000080:	28856063 	ld.w	$r3,$r3,344(0x158)
1c000084:	50030800 	b	776(0x308) # 1c00038c <run_test>
	...

1c000100 <test_finish>:
test_finish():
1c000100:	0280058c 	addi.w	$r12,$r12,1(0x1)
1c000104:	157f5fee 	lu12i.w	$r14,-263425(0xbfaff)
1c000108:	03bc41ce 	ori	$r14,$r14,0xf10
1c00010c:	298001c0 	st.w	$r0,$r14,0
1c000110:	157f5fec 	lu12i.w	$r12,-263425(0xbfaff)
1c000114:	0381818c 	ori	$r12,$r12,0x60
1c000118:	2880018c 	ld.w	$r12,$r12,0
1c00011c:	0342018c 	andi	$r12,$r12,0x80
1c000120:	5800180c 	beq	$r0,$r12,24(0x18) # 1c000138 <test_finish+0x38>
1c000124:	03400000 	andi	$r0,$r0,0x0
1c000128:	157f5f0c 	lu12i.w	$r12,-263432(0xbfaf8)
1c00012c:	2880018d 	ld.w	$r13,$r12,0
1c000130:	50001400 	b	20(0x14) # 1c000144 <test_finish+0x44>
1c000134:	03400000 	andi	$r0,$r0,0x0
1c000138:	157f5f0c 	lu12i.w	$r12,-263432(0xbfaf8)
1c00013c:	0380418c 	ori	$r12,$r12,0x10
1c000140:	2880018d 	ld.w	$r13,$r12,0
1c000144:	157f5fec 	lu12i.w	$r12,-263425(0xbfaff)
1c000148:	0381418c 	ori	$r12,$r12,0x50
1c00014c:	2980018d 	st.w	$r13,$r12,0
1c000150:	53ffc3ff 	b	-64(0xfffffc0) # 1c000110 <test_finish+0x10>
1c000154:	03400000 	andi	$r0,$r0,0x0
1c000158:	1500000c 	lu12i.w	$r12,-524288(0x80000)
1c00015c:	028005ad 	addi.w	$r13,$r13,1(0x1)
1c000160:	0015018e 	move	$r14,$r12
1c000164:	00104a2f 	add.w	$r15,$r17,$r18
1c000168:	28800190 	ld.w	$r16,$r12,0
	...
1c000380:	0280058c 	addi.w	$r12,$r12,1(0x1)
1c000384:	53ffffff 	b	-4(0xffffffc) # 1c000380 <test_finish+0x280>
1c000388:	03400000 	andi	$r0,$r0,0x0

1c00038c <run_test>:
run_test():
1c00038c:	54001400 	bl	20(0x14) # 1c0003a0 <shell5>
1c000390:	03400000 	andi	$r0,$r0,0x0

1c000394 <go_finish>:
go_finish():
1c000394:	53fd6fff 	b	-660(0xffffd6c) # 1c000100 <test_finish>
	...

1c0003a0 <shell5>:
shell5():
1c0003a0:	02bf8063 	addi.w	$r3,$r3,-32(0xfe0)
1c0003a4:	29807061 	st.w	$r1,$r3,28(0x1c)
1c0003a8:	157f5fcc 	lu12i.w	$r12,-263426(0xbfafe)
1c0003ac:	29804079 	st.w	$r25,$r3,16(0x10)
1c0003b0:	2980307a 	st.w	$r26,$r3,12(0xc)
1c0003b4:	29806077 	st.w	$r23,$r3,24(0x18)
1c0003b8:	29805078 	st.w	$r24,$r3,20(0x14)
1c0003bc:	29800180 	st.w	$r0,$r12,0
1c0003c0:	1c000024 	pcaddu12i	$r4,1(0x1)
1c0003c4:	0299a084 	addi.w	$r4,$r4,1640(0x668)
1c0003c8:	54119400 	bl	4500(0x1194) # 1c00155c <puts>
1c0003cc:	54155800 	bl	5464(0x1558) # 1c001924 <get_count>
1c0003d0:	00150099 	move	$r25,$r4
1c0003d4:	54157000 	bl	5488(0x1570) # 1c001944 <get_count_my>
1c0003d8:	0015009a 	move	$r26,$r4
1c0003dc:	157f5fe4 	lu12i.w	$r4,-263425(0xbfaff)
1c0003e0:	03bc8085 	ori	$r5,$r4,0xf20
1c0003e4:	288000a6 	ld.w	$r6,$r5,0
1c0003e8:	5c00f8c0 	bne	$r6,$r0,248(0xf8) # 1c0004e0 <shell5+0x140>
1c0003ec:	02802817 	addi.w	$r23,$r0,10(0xa)
1c0003f0:	00150018 	move	$r24,$r0
1c0003f4:	02802804 	addi.w	$r4,$r0,10(0xa)
1c0003f8:	54011800 	bl	280(0x118) # 1c000510 <dhrystone>
1c0003fc:	02bffef7 	addi.w	$r23,$r23,-1(0xfff)
1c000400:	00101318 	add.w	$r24,$r24,$r4
1c000404:	5ffff2e0 	bne	$r23,$r0,-16(0x3fff0) # 1c0003f4 <shell5+0x54>
1c000408:	54153c00 	bl	5436(0x153c) # 1c001944 <get_count_my>
1c00040c:	00150097 	move	$r23,$r4
1c000410:	54151400 	bl	5396(0x1514) # 1c001924 <get_count>
1c000414:	00116499 	sub.w	$r25,$r4,$r25
1c000418:	00116afa 	sub.w	$r26,$r23,$r26
1c00041c:	58008b00 	beq	$r24,$r0,136(0x88) # 1c0004a4 <shell5+0x104>
1c000420:	1c000024 	pcaddu12i	$r4,1(0x1)
1c000424:	0298c084 	addi.w	$r4,$r4,1584(0x630)
1c000428:	54113400 	bl	4404(0x1134) # 1c00155c <puts>
1c00042c:	157f5fe7 	lu12i.w	$r7,-263425(0xbfaff)
1c000430:	038100ee 	ori	$r14,$r7,0x40
1c000434:	0280040f 	addi.w	$r15,$r0,1(0x1)
1c000438:	298001cf 	st.w	$r15,$r14,0
1c00043c:	0380c0ed 	ori	$r13,$r7,0x30
1c000440:	02800809 	addi.w	$r9,$r0,2(0x2)
1c000444:	038080e8 	ori	$r8,$r7,0x20
1c000448:	298001a9 	st.w	$r9,$r13,0
1c00044c:	29800100 	st.w	$r0,$r8,0
1c000450:	157f5fe1 	lu12i.w	$r1,-263425(0xbfaff)
1c000454:	0381402c 	ori	$r12,$r1,0x50
1c000458:	2980019a 	st.w	$r26,$r12,0
1c00045c:	157f5f04 	lu12i.w	$r4,-263432(0xbfaf8)
1c000460:	2980009a 	st.w	$r26,$r4,0
1c000464:	03804085 	ori	$r5,$r4,0x10
1c000468:	298000b9 	st.w	$r25,$r5,0
1c00046c:	1c000024 	pcaddu12i	$r4,1(0x1)
1c000470:	0297e084 	addi.w	$r4,$r4,1528(0x5f8)
1c000474:	00150325 	move	$r5,$r25
1c000478:	540df800 	bl	3576(0xdf8) # 1c001270 <printf>
1c00047c:	28807061 	ld.w	$r1,$r3,28(0x1c)
1c000480:	28806077 	ld.w	$r23,$r3,24(0x18)
1c000484:	28805078 	ld.w	$r24,$r3,20(0x14)
1c000488:	28804079 	ld.w	$r25,$r3,16(0x10)
1c00048c:	00150345 	move	$r5,$r26
1c000490:	2880307a 	ld.w	$r26,$r3,12(0xc)
1c000494:	1c000024 	pcaddu12i	$r4,1(0x1)
1c000498:	0297f084 	addi.w	$r4,$r4,1532(0x5fc)
1c00049c:	02808063 	addi.w	$r3,$r3,32(0x20)
1c0004a0:	500dd000 	b	3536(0xdd0) # 1c001270 <printf>
1c0004a4:	1c000024 	pcaddu12i	$r4,1(0x1)
1c0004a8:	02967084 	addi.w	$r4,$r4,1436(0x59c)
1c0004ac:	5410b000 	bl	4272(0x10b0) # 1c00155c <puts>
1c0004b0:	157f5fea 	lu12i.w	$r10,-263425(0xbfaff)
1c0004b4:	0280040b 	addi.w	$r11,$r0,1(0x1)
1c0004b8:	03810150 	ori	$r16,$r10,0x40
1c0004bc:	2980020b 	st.w	$r11,$r16,0
1c0004c0:	0380c151 	ori	$r17,$r10,0x30
1c0004c4:	140001f3 	lu12i.w	$r19,15(0xf)
1c0004c8:	03808152 	ori	$r18,$r10,0x20
1c0004cc:	2980022b 	st.w	$r11,$r17,0
1c0004d0:	03bffe74 	ori	$r20,$r19,0xfff
1c0004d4:	29800254 	st.w	$r20,$r18,0
1c0004d8:	53ff7bff 	b	-136(0xfffff78) # 1c000450 <shell5+0xb0>
1c0004dc:	03400000 	andi	$r0,$r0,0x0
1c0004e0:	02802804 	addi.w	$r4,$r0,10(0xa)
1c0004e4:	54002c00 	bl	44(0x2c) # 1c000510 <dhrystone>
1c0004e8:	00150098 	move	$r24,$r4
1c0004ec:	54145800 	bl	5208(0x1458) # 1c001944 <get_count_my>
1c0004f0:	00150097 	move	$r23,$r4
1c0004f4:	54143000 	bl	5168(0x1430) # 1c001924 <get_count>
1c0004f8:	00116499 	sub.w	$r25,$r4,$r25
1c0004fc:	00116afa 	sub.w	$r26,$r23,$r26
1c000500:	5fff2300 	bne	$r24,$r0,-224(0x3ff20) # 1c000420 <shell5+0x80>
1c000504:	53ffa3ff 	b	-96(0xfffffa0) # 1c0004a4 <shell5+0x104>
1c000508:	03400000 	andi	$r0,$r0,0x0
1c00050c:	03400000 	andi	$r0,$r0,0x0

1c000510 <dhrystone>:
dhrystone():
1c000510:	02bdc063 	addi.w	$r3,$r3,-144(0xf70)
1c000514:	29803064 	st.w	$r4,$r3,12(0xc)
1c000518:	02802804 	addi.w	$r4,$r0,10(0xa)
1c00051c:	29823061 	st.w	$r1,$r3,140(0x8c)
1c000520:	2981c07c 	st.w	$r28,$r3,112(0x70)
1c000524:	29822076 	st.w	$r22,$r3,136(0x88)
1c000528:	29821077 	st.w	$r23,$r3,132(0x84)
1c00052c:	29820078 	st.w	$r24,$r3,128(0x80)
1c000530:	2981f079 	st.w	$r25,$r3,124(0x7c)
1c000534:	2981e07a 	st.w	$r26,$r3,120(0x78)
1c000538:	2981d07b 	st.w	$r27,$r3,116(0x74)
1c00053c:	2981b07d 	st.w	$r29,$r3,108(0x6c)
1c000540:	2981a07e 	st.w	$r30,$r3,104(0x68)
1c000544:	2981907f 	st.w	$r31,$r3,100(0x64)
1c000548:	540f5400 	bl	3924(0xf54) # 1c00149c <putchar>
1c00054c:	1c000024 	pcaddu12i	$r4,1(0x1)
1c000550:	0295c084 	addi.w	$r4,$r4,1392(0x570)
1c000554:	54100800 	bl	4104(0x1008) # 1c00155c <puts>
1c000558:	02802804 	addi.w	$r4,$r0,10(0xa)
1c00055c:	540f4000 	bl	3904(0xf40) # 1c00149c <putchar>
1c000560:	1c00004c 	pcaddu12i	$r12,2(0x2)
1c000564:	28b1b18c 	ld.w	$r12,$r12,-916(0xc6c)
1c000568:	1c00004d 	pcaddu12i	$r13,2(0x2)
1c00056c:	28b121ad 	ld.w	$r13,$r13,-952(0xc48)
1c000570:	1c00004e 	pcaddu12i	$r14,2(0x2)
1c000574:	28b121ce 	ld.w	$r14,$r14,-952(0xc48)
1c000578:	02800807 	addi.w	$r7,$r0,2(0x2)
1c00057c:	0280a008 	addi.w	$r8,$r0,40(0x28)
1c000580:	02804184 	addi.w	$r4,$r12,16(0x10)
1c000584:	02807c06 	addi.w	$r6,$r0,31(0x1f)
1c000588:	1c000025 	pcaddu12i	$r5,1(0x1)
1c00058c:	029590a5 	addi.w	$r5,$r5,1380(0x564)
1c000590:	1c00005c 	pcaddu12i	$r28,2(0x2)
1c000594:	28b0e39c 	ld.w	$r28,$r28,-968(0xc38)
1c000598:	298001cd 	st.w	$r13,$r14,0
1c00059c:	2980038c 	st.w	$r12,$r28,0
1c0005a0:	2980018d 	st.w	$r13,$r12,0
1c0005a4:	29801180 	st.w	$r0,$r12,4(0x4)
1c0005a8:	29802187 	st.w	$r7,$r12,8(0x8)
1c0005ac:	29803188 	st.w	$r8,$r12,12(0xc)
1c0005b0:	54128c00 	bl	4748(0x128c) # 1c00183c <memcpy>
1c0005b4:	02807c06 	addi.w	$r6,$r0,31(0x1f)
1c0005b8:	1c000025 	pcaddu12i	$r5,1(0x1)
1c0005bc:	029550a5 	addi.w	$r5,$r5,1364(0x554)
1c0005c0:	02808064 	addi.w	$r4,$r3,32(0x20)
1c0005c4:	54127800 	bl	4728(0x1278) # 1c00183c <memcpy>
1c0005c8:	02802805 	addi.w	$r5,$r0,10(0xa)
1c0005cc:	1c000046 	pcaddu12i	$r6,2(0x2)
1c0005d0:	28af80c6 	ld.w	$r6,$r6,-1056(0xbe0)
1c0005d4:	02802804 	addi.w	$r4,$r0,10(0xa)
1c0005d8:	299970c5 	st.w	$r5,$r6,1628(0x65c)
1c0005dc:	540ec000 	bl	3776(0xec0) # 1c00149c <putchar>
1c0005e0:	1c000024 	pcaddu12i	$r4,1(0x1)
1c0005e4:	02937084 	addi.w	$r4,$r4,1244(0x4dc)
1c0005e8:	540f7400 	bl	3956(0xf74) # 1c00155c <puts>
1c0005ec:	02802804 	addi.w	$r4,$r0,10(0xa)
1c0005f0:	540eac00 	bl	3756(0xeac) # 1c00149c <putchar>
1c0005f4:	1c000044 	pcaddu12i	$r4,2(0x2)
1c0005f8:	02876084 	addi.w	$r4,$r4,472(0x1d8)
1c0005fc:	28800089 	ld.w	$r9,$r4,0
1c000600:	58088120 	beq	$r9,$r0,2176(0x880) # 1c000e80 <dhrystone+0x970>
1c000604:	1c000024 	pcaddu12i	$r4,1(0x1)
1c000608:	0294a084 	addi.w	$r4,$r4,1320(0x528)
1c00060c:	540f5000 	bl	3920(0xf50) # 1c00155c <puts>
1c000610:	02802804 	addi.w	$r4,$r0,10(0xa)
1c000614:	540e8800 	bl	3720(0xe88) # 1c00149c <putchar>
1c000618:	28803077 	ld.w	$r23,$r3,12(0xc)
1c00061c:	1c000024 	pcaddu12i	$r4,1(0x1)
1c000620:	0295b084 	addi.w	$r4,$r4,1388(0x56c)
1c000624:	001502e5 	move	$r5,$r23
1c000628:	540c4800 	bl	3144(0xc48) # 1c001270 <printf>
1c00062c:	5413a800 	bl	5032(0x13a8) # 1c0019d4 <get_ns>
1c000630:	1c00004a 	pcaddu12i	$r10,2(0x2)
1c000634:	28ade14a 	ld.w	$r10,$r10,-1160(0xb78)
1c000638:	29800144 	st.w	$r4,$r10,0
1c00063c:	6408a817 	bge	$r0,$r23,2216(0x8a8) # 1c000ee4 <dhrystone+0x9d4>
1c000640:	28803061 	ld.w	$r1,$r3,12(0xc)
1c000644:	02800418 	addi.w	$r24,$r0,1(0x1)
1c000648:	1c00005d 	pcaddu12i	$r29,2(0x2)
1c00064c:	28ade3bd 	ld.w	$r29,$r29,-1160(0xb78)
1c000650:	0280042b 	addi.w	$r11,$r1,1(0x1)
1c000654:	2980206b 	st.w	$r11,$r3,8(0x8)
1c000658:	1c00005e 	pcaddu12i	$r30,2(0x2)
1c00065c:	28ae03de 	ld.w	$r30,$r30,-1152(0xb80)
1c000660:	1c000057 	pcaddu12i	$r23,2(0x2)
1c000664:	28ad92f7 	ld.w	$r23,$r23,-1180(0xb64)
1c000668:	0281007a 	addi.w	$r26,$r3,64(0x40)
1c00066c:	1c00005b 	pcaddu12i	$r27,2(0x2)
1c000670:	28ad437b 	ld.w	$r27,$r27,-1200(0xb50)
1c000674:	0280041f 	addi.w	$r31,$r0,1(0x1)
1c000678:	0281040f 	addi.w	$r15,$r0,65(0x41)
1c00067c:	02810810 	addi.w	$r16,$r0,66(0x42)
1c000680:	02807c06 	addi.w	$r6,$r0,31(0x1f)
1c000684:	1c000025 	pcaddu12i	$r5,1(0x1)
1c000688:	0294d0a5 	addi.w	$r5,$r5,1332(0x534)
1c00068c:	00150344 	move	$r4,$r26
1c000690:	290003af 	st.b	$r15,$r29,0
1c000694:	290002f0 	st.b	$r16,$r23,0
1c000698:	298003df 	st.w	$r31,$r30,0
1c00069c:	5411a000 	bl	4512(0x11a0) # 1c00183c <memcpy>
1c0006a0:	00150345 	move	$r5,$r26
1c0006a4:	02808064 	addi.w	$r4,$r3,32(0x20)
1c0006a8:	2980707f 	st.w	$r31,$r3,28(0x1c)
1c0006ac:	540b6400 	bl	2916(0xb64) # 1c001210 <Func_2>
1c0006b0:	02400491 	sltui	$r17,$r4,1(0x1)
1c0006b4:	02801c12 	addi.w	$r18,$r0,7(0x7)
1c0006b8:	02806066 	addi.w	$r6,$r3,24(0x18)
1c0006bc:	02800c05 	addi.w	$r5,$r0,3(0x3)
1c0006c0:	02800804 	addi.w	$r4,$r0,2(0x2)
1c0006c4:	298003d1 	st.w	$r17,$r30,0
1c0006c8:	29806072 	st.w	$r18,$r3,24(0x18)
1c0006cc:	540a7400 	bl	2676(0xa74) # 1c001140 <Proc_7>
1c0006d0:	28806067 	ld.w	$r7,$r3,24(0x18)
1c0006d4:	02800c06 	addi.w	$r6,$r0,3(0x3)
1c0006d8:	1c000045 	pcaddu12i	$r5,2(0x2)
1c0006dc:	28ab50a5 	ld.w	$r5,$r5,-1324(0xad4)
1c0006e0:	1c000044 	pcaddu12i	$r4,2(0x2)
1c0006e4:	28abc084 	ld.w	$r4,$r4,-1296(0xaf0)
1c0006e8:	540a7800 	bl	2680(0xa78) # 1c001160 <Proc_8>
1c0006ec:	28800399 	ld.w	$r25,$r28,0
1c0006f0:	0280c006 	addi.w	$r6,$r0,48(0x30)
1c0006f4:	28800336 	ld.w	$r22,$r25,0
1c0006f8:	00150325 	move	$r5,$r25
1c0006fc:	001502c4 	move	$r4,$r22
1c000700:	54113c00 	bl	4412(0x113c) # 1c00183c <memcpy>
1c000704:	28800333 	ld.w	$r19,$r25,0
1c000708:	02801414 	addi.w	$r20,$r0,5(0x5)
1c00070c:	29803334 	st.w	$r20,$r25,12(0xc)
1c000710:	298002d3 	st.w	$r19,$r22,0
1c000714:	2880032c 	ld.w	$r12,$r25,0
1c000718:	28800365 	ld.w	$r5,$r27,0
1c00071c:	298032d4 	st.w	$r20,$r22,12(0xc)
1c000720:	298002cc 	st.w	$r12,$r22,0
1c000724:	2880038d 	ld.w	$r13,$r28,0
1c000728:	02802804 	addi.w	$r4,$r0,10(0xa)
1c00072c:	028031a6 	addi.w	$r6,$r13,12(0xc)
1c000730:	540a1000 	bl	2576(0xa10) # 1c001140 <Proc_7>
1c000734:	288012ce 	ld.w	$r14,$r22,4(0x4)
1c000738:	5806fdc0 	beq	$r14,$r0,1788(0x6fc) # 1c000e34 <dhrystone+0x924>
1c00073c:	28800325 	ld.w	$r5,$r25,0
1c000740:	0280c006 	addi.w	$r6,$r0,48(0x30)
1c000744:	00150324 	move	$r4,$r25
1c000748:	5410f400 	bl	4340(0x10f4) # 1c00183c <memcpy>
1c00074c:	280002e5 	ld.b	$r5,$r23,0
1c000750:	02810006 	addi.w	$r6,$r0,64(0x40)
1c000754:	02810416 	addi.w	$r22,$r0,65(0x41)
1c000758:	02800c19 	addi.w	$r25,$r0,3(0x3)
1c00075c:	64071cc5 	bge	$r6,$r5,1820(0x71c) # 1c000e78 <dhrystone+0x968>
1c000760:	001502c4 	move	$r4,$r22
1c000764:	02810c05 	addi.w	$r5,$r0,67(0x43)
1c000768:	540a6800 	bl	2664(0xa68) # 1c0011d0 <Func_1>
1c00076c:	2880706b 	ld.w	$r11,$r3,28(0x1c)
1c000770:	028006ca 	addi.w	$r10,$r22,1(0x1)
1c000774:	5806808b 	beq	$r4,$r11,1664(0x680) # 1c000df4 <dhrystone+0x8e4>
1c000778:	2980106a 	st.w	$r10,$r3,4(0x4)
1c00077c:	28001076 	ld.b	$r22,$r3,4(0x4)
1c000780:	280002e1 	ld.b	$r1,$r23,0
1c000784:	67ffdc36 	bge	$r1,$r22,-36(0x3ffdc) # 1c000760 <dhrystone+0x250>
1c000788:	02800c11 	addi.w	$r17,$r0,3(0x3)
1c00078c:	001c4724 	mul.w	$r4,$r25,$r17
1c000790:	28806072 	ld.w	$r18,$r3,24(0x18)
1c000794:	280003b3 	ld.b	$r19,$r29,0
1c000798:	02810414 	addi.w	$r20,$r0,65(0x41)
1c00079c:	0020488d 	div.w	$r13,$r4,$r18
1c0007a0:	5c000a40 	bne	$r18,$r0,8(0x8) # 1c0007a8 <dhrystone+0x298>
1c0007a4:	002a0007 	break	0x7
1c0007a8:	001501b9 	move	$r25,$r13
1c0007ac:	5c001274 	bne	$r19,$r20,16(0x10) # 1c0007bc <dhrystone+0x2ac>
1c0007b0:	2880036c 	ld.w	$r12,$r27,0
1c0007b4:	028025ae 	addi.w	$r14,$r13,9(0x9)
1c0007b8:	001131d9 	sub.w	$r25,$r14,$r12
1c0007bc:	28802067 	ld.w	$r7,$r3,8(0x8)
1c0007c0:	02800718 	addi.w	$r24,$r24,1(0x1)
1c0007c4:	5ffeb707 	bne	$r24,$r7,-332(0x3feb4) # 1c000678 <dhrystone+0x168>
1c0007c8:	0011489f 	sub.w	$r31,$r4,$r18
1c0007cc:	02801c08 	addi.w	$r8,$r0,7(0x7)
1c0007d0:	001c23e9 	mul.w	$r9,$r31,$r8
1c0007d4:	00113525 	sub.w	$r5,$r9,$r13
1c0007d8:	29801065 	st.w	$r5,$r3,4(0x4)
1c0007dc:	5411f800 	bl	4600(0x11f8) # 1c0019d4 <get_ns>
1c0007e0:	1c000058 	pcaddu12i	$r24,2(0x2)
1c0007e4:	28a75318 	ld.w	$r24,$r24,-1580(0x9d4)
1c0007e8:	29800304 	st.w	$r4,$r24,0
1c0007ec:	1c000024 	pcaddu12i	$r4,1(0x1)
1c0007f0:	02903084 	addi.w	$r4,$r4,1036(0x40c)
1c0007f4:	540d6800 	bl	3432(0xd68) # 1c00155c <puts>
1c0007f8:	02802804 	addi.w	$r4,$r0,10(0xa)
1c0007fc:	540ca000 	bl	3232(0xca0) # 1c00149c <putchar>
1c000800:	1c000024 	pcaddu12i	$r4,1(0x1)
1c000804:	02902084 	addi.w	$r4,$r4,1032(0x408)
1c000808:	540d5400 	bl	3412(0xd54) # 1c00155c <puts>
1c00080c:	02802804 	addi.w	$r4,$r0,10(0xa)
1c000810:	540c8c00 	bl	3212(0xc8c) # 1c00149c <putchar>
1c000814:	28800365 	ld.w	$r5,$r27,0
1c000818:	1c000024 	pcaddu12i	$r4,1(0x1)
1c00081c:	0290a084 	addi.w	$r4,$r4,1064(0x428)
1c000820:	0280041f 	addi.w	$r31,$r0,1(0x1)
1c000824:	540a4c00 	bl	2636(0xa4c) # 1c001270 <printf>
1c000828:	02801405 	addi.w	$r5,$r0,5(0x5)
1c00082c:	1c000024 	pcaddu12i	$r4,1(0x1)
1c000830:	0290c084 	addi.w	$r4,$r4,1072(0x430)
1c000834:	540a3c00 	bl	2620(0xa3c) # 1c001270 <printf>
1c000838:	28803066 	ld.w	$r6,$r3,12(0xc)
1c00083c:	288003c5 	ld.w	$r5,$r30,0
1c000840:	1c000024 	pcaddu12i	$r4,1(0x1)
1c000844:	0290e084 	addi.w	$r4,$r4,1080(0x438)
1c000848:	028028d6 	addi.w	$r22,$r6,10(0xa)
1c00084c:	540a2400 	bl	2596(0xa24) # 1c001270 <printf>
1c000850:	02800405 	addi.w	$r5,$r0,1(0x1)
1c000854:	1c000024 	pcaddu12i	$r4,1(0x1)
1c000858:	02902084 	addi.w	$r4,$r4,1032(0x408)
1c00085c:	540a1400 	bl	2580(0xa14) # 1c001270 <printf>
1c000860:	280003a5 	ld.b	$r5,$r29,0
1c000864:	1c000024 	pcaddu12i	$r4,1(0x1)
1c000868:	0290c084 	addi.w	$r4,$r4,1072(0x430)
1c00086c:	540a0400 	bl	2564(0xa04) # 1c001270 <printf>
1c000870:	02810405 	addi.w	$r5,$r0,65(0x41)
1c000874:	1c000024 	pcaddu12i	$r4,1(0x1)
1c000878:	0290f084 	addi.w	$r4,$r4,1084(0x43c)
1c00087c:	5409f400 	bl	2548(0x9f4) # 1c001270 <printf>
1c000880:	280002e5 	ld.b	$r5,$r23,0
1c000884:	1c000024 	pcaddu12i	$r4,1(0x1)
1c000888:	02912084 	addi.w	$r4,$r4,1096(0x448)
1c00088c:	5409e400 	bl	2532(0x9e4) # 1c001270 <printf>
1c000890:	02810805 	addi.w	$r5,$r0,66(0x42)
1c000894:	1c000024 	pcaddu12i	$r4,1(0x1)
1c000898:	02907084 	addi.w	$r4,$r4,1052(0x41c)
1c00089c:	5409d400 	bl	2516(0x9d4) # 1c001270 <printf>
1c0008a0:	1c000044 	pcaddu12i	$r4,2(0x2)
1c0008a4:	28a4c084 	ld.w	$r4,$r4,-1744(0x930)
1c0008a8:	28808085 	ld.w	$r5,$r4,32(0x20)
1c0008ac:	1c000024 	pcaddu12i	$r4,1(0x1)
1c0008b0:	0290f084 	addi.w	$r4,$r4,1084(0x43c)
1c0008b4:	5409bc00 	bl	2492(0x9bc) # 1c001270 <printf>
1c0008b8:	02801c05 	addi.w	$r5,$r0,7(0x7)
1c0008bc:	1c000024 	pcaddu12i	$r4,1(0x1)
1c0008c0:	028e8084 	addi.w	$r4,$r4,928(0x3a0)
1c0008c4:	5409ac00 	bl	2476(0x9ac) # 1c001270 <printf>
1c0008c8:	1c00004a 	pcaddu12i	$r10,2(0x2)
1c0008cc:	28a3914a 	ld.w	$r10,$r10,-1820(0x8e4)
1c0008d0:	28997145 	ld.w	$r5,$r10,1628(0x65c)
1c0008d4:	1c000024 	pcaddu12i	$r4,1(0x1)
1c0008d8:	0290c084 	addi.w	$r4,$r4,1072(0x430)
1c0008dc:	54099400 	bl	2452(0x994) # 1c001270 <printf>
1c0008e0:	001502c5 	move	$r5,$r22
1c0008e4:	1c000024 	pcaddu12i	$r4,1(0x1)
1c0008e8:	028de084 	addi.w	$r4,$r4,888(0x378)
1c0008ec:	54098400 	bl	2436(0x984) # 1c001270 <printf>
1c0008f0:	1c000024 	pcaddu12i	$r4,1(0x1)
1c0008f4:	0290c084 	addi.w	$r4,$r4,1072(0x430)
1c0008f8:	540c6400 	bl	3172(0xc64) # 1c00155c <puts>
1c0008fc:	2880038b 	ld.w	$r11,$r28,0
1c000900:	1c000024 	pcaddu12i	$r4,1(0x1)
1c000904:	0290b084 	addi.w	$r4,$r4,1068(0x42c)
1c000908:	28800165 	ld.w	$r5,$r11,0
1c00090c:	54096400 	bl	2404(0x964) # 1c001270 <printf>
1c000910:	1c000024 	pcaddu12i	$r4,1(0x1)
1c000914:	0290e084 	addi.w	$r4,$r4,1080(0x438)
1c000918:	540c4400 	bl	3140(0xc44) # 1c00155c <puts>
1c00091c:	2880038f 	ld.w	$r15,$r28,0
1c000920:	1c000024 	pcaddu12i	$r4,1(0x1)
1c000924:	02916084 	addi.w	$r4,$r4,1112(0x458)
1c000928:	288011e5 	ld.w	$r5,$r15,4(0x4)
1c00092c:	54094400 	bl	2372(0x944) # 1c001270 <printf>
1c000930:	00150005 	move	$r5,$r0
1c000934:	1c000024 	pcaddu12i	$r4,1(0x1)
1c000938:	028ca084 	addi.w	$r4,$r4,808(0x328)
1c00093c:	54093400 	bl	2356(0x934) # 1c001270 <printf>
1c000940:	28800390 	ld.w	$r16,$r28,0
1c000944:	1c000024 	pcaddu12i	$r4,1(0x1)
1c000948:	02914084 	addi.w	$r4,$r4,1104(0x450)
1c00094c:	28802205 	ld.w	$r5,$r16,8(0x8)
1c000950:	54092000 	bl	2336(0x920) # 1c001270 <printf>
1c000954:	02800805 	addi.w	$r5,$r0,2(0x2)
1c000958:	1c000024 	pcaddu12i	$r4,1(0x1)
1c00095c:	028c1084 	addi.w	$r4,$r4,772(0x304)
1c000960:	54091000 	bl	2320(0x910) # 1c001270 <printf>
1c000964:	28800391 	ld.w	$r17,$r28,0
1c000968:	1c000024 	pcaddu12i	$r4,1(0x1)
1c00096c:	02912084 	addi.w	$r4,$r4,1096(0x448)
1c000970:	28803225 	ld.w	$r5,$r17,12(0xc)
1c000974:	5408fc00 	bl	2300(0x8fc) # 1c001270 <printf>
1c000978:	02804405 	addi.w	$r5,$r0,17(0x11)
1c00097c:	1c000024 	pcaddu12i	$r4,1(0x1)
1c000980:	028b8084 	addi.w	$r4,$r4,736(0x2e0)
1c000984:	5408ec00 	bl	2284(0x8ec) # 1c001270 <printf>
1c000988:	28800392 	ld.w	$r18,$r28,0
1c00098c:	1c000024 	pcaddu12i	$r4,1(0x1)
1c000990:	02910084 	addi.w	$r4,$r4,1088(0x440)
1c000994:	02804245 	addi.w	$r5,$r18,16(0x10)
1c000998:	5408d800 	bl	2264(0x8d8) # 1c001270 <printf>
1c00099c:	1c000024 	pcaddu12i	$r4,1(0x1)
1c0009a0:	02913084 	addi.w	$r4,$r4,1100(0x44c)
1c0009a4:	540bb800 	bl	3000(0xbb8) # 1c00155c <puts>
1c0009a8:	1c000024 	pcaddu12i	$r4,1(0x1)
1c0009ac:	0291d084 	addi.w	$r4,$r4,1140(0x474)
1c0009b0:	540bac00 	bl	2988(0xbac) # 1c00155c <puts>
1c0009b4:	1c000053 	pcaddu12i	$r19,2(0x2)
1c0009b8:	28a01273 	ld.w	$r19,$r19,-2044(0x804)
1c0009bc:	28800274 	ld.w	$r20,$r19,0
1c0009c0:	1c000024 	pcaddu12i	$r4,1(0x1)
1c0009c4:	028db084 	addi.w	$r4,$r4,876(0x36c)
1c0009c8:	28800285 	ld.w	$r5,$r20,0
1c0009cc:	5408a400 	bl	2212(0x8a4) # 1c001270 <printf>
1c0009d0:	1c000024 	pcaddu12i	$r4,1(0x1)
1c0009d4:	02917084 	addi.w	$r4,$r4,1116(0x45c)
1c0009d8:	540b8400 	bl	2948(0xb84) # 1c00155c <puts>
1c0009dc:	1c00002d 	pcaddu12i	$r13,1(0x1)
1c0009e0:	289f71ad 	ld.w	$r13,$r13,2012(0x7dc)
1c0009e4:	288001ac 	ld.w	$r12,$r13,0
1c0009e8:	1c000024 	pcaddu12i	$r4,1(0x1)
1c0009ec:	028e4084 	addi.w	$r4,$r4,912(0x390)
1c0009f0:	28801185 	ld.w	$r5,$r12,4(0x4)
1c0009f4:	54087c00 	bl	2172(0x87c) # 1c001270 <printf>
1c0009f8:	00150005 	move	$r5,$r0
1c0009fc:	1c000024 	pcaddu12i	$r4,1(0x1)
1c000a00:	02898084 	addi.w	$r4,$r4,608(0x260)
1c000a04:	54086c00 	bl	2156(0x86c) # 1c001270 <printf>
1c000a08:	1c00002e 	pcaddu12i	$r14,1(0x1)
1c000a0c:	289ec1ce 	ld.w	$r14,$r14,1968(0x7b0)
1c000a10:	288001c7 	ld.w	$r7,$r14,0
1c000a14:	1c000024 	pcaddu12i	$r4,1(0x1)
1c000a18:	028e0084 	addi.w	$r4,$r4,896(0x380)
1c000a1c:	288020e5 	ld.w	$r5,$r7,8(0x8)
1c000a20:	54085000 	bl	2128(0x850) # 1c001270 <printf>
1c000a24:	02800405 	addi.w	$r5,$r0,1(0x1)
1c000a28:	1c000024 	pcaddu12i	$r4,1(0x1)
1c000a2c:	0288d084 	addi.w	$r4,$r4,564(0x234)
1c000a30:	54084000 	bl	2112(0x840) # 1c001270 <printf>
1c000a34:	1c000028 	pcaddu12i	$r8,1(0x1)
1c000a38:	289e1108 	ld.w	$r8,$r8,1924(0x784)
1c000a3c:	28800109 	ld.w	$r9,$r8,0
1c000a40:	1c000024 	pcaddu12i	$r4,1(0x1)
1c000a44:	028dc084 	addi.w	$r4,$r4,880(0x370)
1c000a48:	28803125 	ld.w	$r5,$r9,12(0xc)
1c000a4c:	54082400 	bl	2084(0x824) # 1c001270 <printf>
1c000a50:	02804805 	addi.w	$r5,$r0,18(0x12)
1c000a54:	1c000024 	pcaddu12i	$r4,1(0x1)
1c000a58:	02882084 	addi.w	$r4,$r4,520(0x208)
1c000a5c:	54081400 	bl	2068(0x814) # 1c001270 <printf>
1c000a60:	1c000025 	pcaddu12i	$r5,1(0x1)
1c000a64:	289d60a5 	ld.w	$r5,$r5,1880(0x758)
1c000a68:	288000a6 	ld.w	$r6,$r5,0
1c000a6c:	1c000024 	pcaddu12i	$r4,1(0x1)
1c000a70:	028d8084 	addi.w	$r4,$r4,864(0x360)
1c000a74:	028040c5 	addi.w	$r5,$r6,16(0x10)
1c000a78:	5407f800 	bl	2040(0x7f8) # 1c001270 <printf>
1c000a7c:	1c000024 	pcaddu12i	$r4,1(0x1)
1c000a80:	028db084 	addi.w	$r4,$r4,876(0x36c)
1c000a84:	540ad800 	bl	2776(0xad8) # 1c00155c <puts>
1c000a88:	00150325 	move	$r5,$r25
1c000a8c:	1c000024 	pcaddu12i	$r4,1(0x1)
1c000a90:	028f8084 	addi.w	$r4,$r4,992(0x3e0)
1c000a94:	5407dc00 	bl	2012(0x7dc) # 1c001270 <printf>
1c000a98:	02801405 	addi.w	$r5,$r0,5(0x5)
1c000a9c:	1c000024 	pcaddu12i	$r4,1(0x1)
1c000aa0:	02870084 	addi.w	$r4,$r4,448(0x1c0)
1c000aa4:	5407cc00 	bl	1996(0x7cc) # 1c001270 <printf>
1c000aa8:	28801065 	ld.w	$r5,$r3,4(0x4)
1c000aac:	1c000024 	pcaddu12i	$r4,1(0x1)
1c000ab0:	028f7084 	addi.w	$r4,$r4,988(0x3dc)
1c000ab4:	5407bc00 	bl	1980(0x7bc) # 1c001270 <printf>
1c000ab8:	02803405 	addi.w	$r5,$r0,13(0xd)
1c000abc:	1c000024 	pcaddu12i	$r4,1(0x1)
1c000ac0:	02868084 	addi.w	$r4,$r4,416(0x1a0)
1c000ac4:	5407ac00 	bl	1964(0x7ac) # 1c001270 <printf>
1c000ac8:	28806065 	ld.w	$r5,$r3,24(0x18)
1c000acc:	1c000024 	pcaddu12i	$r4,1(0x1)
1c000ad0:	028f6084 	addi.w	$r4,$r4,984(0x3d8)
1c000ad4:	54079c00 	bl	1948(0x79c) # 1c001270 <printf>
1c000ad8:	02801c05 	addi.w	$r5,$r0,7(0x7)
1c000adc:	1c000024 	pcaddu12i	$r4,1(0x1)
1c000ae0:	02860084 	addi.w	$r4,$r4,384(0x180)
1c000ae4:	54078c00 	bl	1932(0x78c) # 1c001270 <printf>
1c000ae8:	28807065 	ld.w	$r5,$r3,28(0x1c)
1c000aec:	1c000024 	pcaddu12i	$r4,1(0x1)
1c000af0:	028f5084 	addi.w	$r4,$r4,980(0x3d4)
1c000af4:	54077c00 	bl	1916(0x77c) # 1c001270 <printf>
1c000af8:	02800405 	addi.w	$r5,$r0,1(0x1)
1c000afc:	1c000024 	pcaddu12i	$r4,1(0x1)
1c000b00:	02858084 	addi.w	$r4,$r4,352(0x160)
1c000b04:	54076c00 	bl	1900(0x76c) # 1c001270 <printf>
1c000b08:	02808065 	addi.w	$r5,$r3,32(0x20)
1c000b0c:	1c000024 	pcaddu12i	$r4,1(0x1)
1c000b10:	028f4084 	addi.w	$r4,$r4,976(0x3d0)
1c000b14:	54075c00 	bl	1884(0x75c) # 1c001270 <printf>
1c000b18:	1c000024 	pcaddu12i	$r4,1(0x1)
1c000b1c:	028f8084 	addi.w	$r4,$r4,992(0x3e0)
1c000b20:	540a3c00 	bl	2620(0xa3c) # 1c00155c <puts>
1c000b24:	00150345 	move	$r5,$r26
1c000b28:	1c000024 	pcaddu12i	$r4,1(0x1)
1c000b2c:	02901084 	addi.w	$r4,$r4,1028(0x404)
1c000b30:	54074000 	bl	1856(0x740) # 1c001270 <printf>
1c000b34:	1c000024 	pcaddu12i	$r4,1(0x1)
1c000b38:	02905084 	addi.w	$r4,$r4,1044(0x414)
1c000b3c:	540a2000 	bl	2592(0xa20) # 1c00155c <puts>
1c000b40:	02802804 	addi.w	$r4,$r0,10(0xa)
1c000b44:	54095800 	bl	2392(0x958) # 1c00149c <putchar>
1c000b48:	288003de 	ld.w	$r30,$r30,0
1c000b4c:	2880037b 	ld.w	$r27,$r27,0
1c000b50:	5c000fdf 	bne	$r30,$r31,12(0xc) # 1c000b5c <dhrystone+0x64c>
1c000b54:	03c01761 	xori	$r1,$r27,0x5
1c000b58:	0012841f 	sltu	$r31,$r0,$r1
1c000b5c:	280003bd 	ld.b	$r29,$r29,0
1c000b60:	02810404 	addi.w	$r4,$r0,65(0x41)
1c000b64:	58000ba4 	beq	$r29,$r4,8(0x8) # 1c000b6c <dhrystone+0x65c>
1c000b68:	0280041f 	addi.w	$r31,$r0,1(0x1)
1c000b6c:	280002f7 	ld.b	$r23,$r23,0
1c000b70:	0281080a 	addi.w	$r10,$r0,66(0x42)
1c000b74:	58000aea 	beq	$r23,$r10,8(0x8) # 1c000b7c <dhrystone+0x66c>
1c000b78:	0280041f 	addi.w	$r31,$r0,1(0x1)
1c000b7c:	1c00002b 	pcaddu12i	$r11,1(0x1)
1c000b80:	2899516b 	ld.w	$r11,$r11,1620(0x654)
1c000b84:	2880816f 	ld.w	$r15,$r11,32(0x20)
1c000b88:	02801c10 	addi.w	$r16,$r0,7(0x7)
1c000b8c:	580009f0 	beq	$r15,$r16,8(0x8) # 1c000b94 <dhrystone+0x684>
1c000b90:	0280041f 	addi.w	$r31,$r0,1(0x1)
1c000b94:	1c000031 	pcaddu12i	$r17,1(0x1)
1c000b98:	28986231 	ld.w	$r17,$r17,1560(0x618)
1c000b9c:	28997232 	ld.w	$r18,$r17,1628(0x65c)
1c000ba0:	58000ad2 	beq	$r22,$r18,8(0x8) # 1c000ba8 <dhrystone+0x698>
1c000ba4:	0280041f 	addi.w	$r31,$r0,1(0x1)
1c000ba8:	1c000036 	pcaddu12i	$r22,1(0x1)
1c000bac:	289842d6 	ld.w	$r22,$r22,1552(0x610)
1c000bb0:	2880039c 	ld.w	$r28,$r28,0
1c000bb4:	288002de 	ld.w	$r30,$r22,0
1c000bb8:	28800393 	ld.w	$r19,$r28,0
1c000bbc:	288003d4 	ld.w	$r20,$r30,0
1c000bc0:	58000a74 	beq	$r19,$r20,8(0x8) # 1c000bc8 <dhrystone+0x6b8>
1c000bc4:	0280041f 	addi.w	$r31,$r0,1(0x1)
1c000bc8:	2880138d 	ld.w	$r13,$r28,4(0x4)
1c000bcc:	5c0311a0 	bne	$r13,$r0,784(0x310) # 1c000edc <dhrystone+0x9cc>
1c000bd0:	2880238c 	ld.w	$r12,$r28,8(0x8)
1c000bd4:	0280080e 	addi.w	$r14,$r0,2(0x2)
1c000bd8:	5800098e 	beq	$r12,$r14,8(0x8) # 1c000be0 <dhrystone+0x6d0>
1c000bdc:	0280041f 	addi.w	$r31,$r0,1(0x1)
1c000be0:	28803387 	ld.w	$r7,$r28,12(0xc)
1c000be4:	02804408 	addi.w	$r8,$r0,17(0x11)
1c000be8:	580008e8 	beq	$r7,$r8,8(0x8) # 1c000bf0 <dhrystone+0x6e0>
1c000bec:	0280041f 	addi.w	$r31,$r0,1(0x1)
1c000bf0:	1c000025 	pcaddu12i	$r5,1(0x1)
1c000bf4:	02bbf0a5 	addi.w	$r5,$r5,-260(0xefc)
1c000bf8:	02804384 	addi.w	$r4,$r28,16(0x10)
1c000bfc:	540a7400 	bl	2676(0xa74) # 1c001670 <strcmp>
1c000c00:	5c02cc80 	bne	$r4,$r0,716(0x2cc) # 1c000ecc <dhrystone+0x9bc>
1c000c04:	288013c9 	ld.w	$r9,$r30,4(0x4)
1c000c08:	5c02bd20 	bne	$r9,$r0,700(0x2bc) # 1c000ec4 <dhrystone+0x9b4>
1c000c0c:	288023c5 	ld.w	$r5,$r30,8(0x8)
1c000c10:	02800406 	addi.w	$r6,$r0,1(0x1)
1c000c14:	580008a6 	beq	$r5,$r6,8(0x8) # 1c000c1c <dhrystone+0x70c>
1c000c18:	0280041f 	addi.w	$r31,$r0,1(0x1)
1c000c1c:	288033db 	ld.w	$r27,$r30,12(0xc)
1c000c20:	02804801 	addi.w	$r1,$r0,18(0x12)
1c000c24:	58000b61 	beq	$r27,$r1,8(0x8) # 1c000c2c <dhrystone+0x71c>
1c000c28:	0280041f 	addi.w	$r31,$r0,1(0x1)
1c000c2c:	1c000025 	pcaddu12i	$r5,1(0x1)
1c000c30:	02bb00a5 	addi.w	$r5,$r5,-320(0xec0)
1c000c34:	028043c4 	addi.w	$r4,$r30,16(0x10)
1c000c38:	540a3800 	bl	2616(0xa38) # 1c001670 <strcmp>
1c000c3c:	5c028080 	bne	$r4,$r0,640(0x280) # 1c000ebc <dhrystone+0x9ac>
1c000c40:	0280141d 	addi.w	$r29,$r0,5(0x5)
1c000c44:	58000b3d 	beq	$r25,$r29,8(0x8) # 1c000c4c <dhrystone+0x73c>
1c000c48:	0280041f 	addi.w	$r31,$r0,1(0x1)
1c000c4c:	28801064 	ld.w	$r4,$r3,4(0x4)
1c000c50:	02803419 	addi.w	$r25,$r0,13(0xd)
1c000c54:	58000899 	beq	$r4,$r25,8(0x8) # 1c000c5c <dhrystone+0x74c>
1c000c58:	0280041f 	addi.w	$r31,$r0,1(0x1)
1c000c5c:	28806077 	ld.w	$r23,$r3,24(0x18)
1c000c60:	02801c0a 	addi.w	$r10,$r0,7(0x7)
1c000c64:	58000aea 	beq	$r23,$r10,8(0x8) # 1c000c6c <dhrystone+0x75c>
1c000c68:	0280041f 	addi.w	$r31,$r0,1(0x1)
1c000c6c:	2880706b 	ld.w	$r11,$r3,28(0x1c)
1c000c70:	0280040f 	addi.w	$r15,$r0,1(0x1)
1c000c74:	5800096f 	beq	$r11,$r15,8(0x8) # 1c000c7c <dhrystone+0x76c>
1c000c78:	0280041f 	addi.w	$r31,$r0,1(0x1)
1c000c7c:	1c000025 	pcaddu12i	$r5,1(0x1)
1c000c80:	02ba40a5 	addi.w	$r5,$r5,-368(0xe90)
1c000c84:	02808064 	addi.w	$r4,$r3,32(0x20)
1c000c88:	5409e800 	bl	2536(0x9e8) # 1c001670 <strcmp>
1c000c8c:	5c021480 	bne	$r4,$r0,532(0x214) # 1c000ea0 <dhrystone+0x990>
1c000c90:	1c000025 	pcaddu12i	$r5,1(0x1)
1c000c94:	02bca0a5 	addi.w	$r5,$r5,-216(0xf28)
1c000c98:	00150344 	move	$r4,$r26
1c000c9c:	5409d400 	bl	2516(0x9d4) # 1c001670 <strcmp>
1c000ca0:	5c01f880 	bne	$r4,$r0,504(0x1f8) # 1c000e98 <dhrystone+0x988>
1c000ca4:	1c00003a 	pcaddu12i	$r26,1(0x1)
1c000ca8:	2894135a 	ld.w	$r26,$r26,1284(0x504)
1c000cac:	28800350 	ld.w	$r16,$r26,0
1c000cb0:	28800311 	ld.w	$r17,$r24,0
1c000cb4:	1c00003c 	pcaddu12i	$r28,1(0x1)
1c000cb8:	2893c39c 	ld.w	$r28,$r28,1264(0x4f0)
1c000cbc:	00150205 	move	$r5,$r16
1c000cc0:	00114232 	sub.w	$r18,$r17,$r16
1c000cc4:	1c000024 	pcaddu12i	$r4,1(0x1)
1c000cc8:	028ae084 	addi.w	$r4,$r4,696(0x2b8)
1c000ccc:	29800392 	st.w	$r18,$r28,0
1c000cd0:	5405a000 	bl	1440(0x5a0) # 1c001270 <printf>
1c000cd4:	28800305 	ld.w	$r5,$r24,0
1c000cd8:	1c000024 	pcaddu12i	$r4,1(0x1)
1c000cdc:	028ad084 	addi.w	$r4,$r4,692(0x2b4)
1c000ce0:	0281dc16 	addi.w	$r22,$r0,119(0x77)
1c000ce4:	54058c00 	bl	1420(0x58c) # 1c001270 <printf>
1c000ce8:	28800385 	ld.w	$r5,$r28,0
1c000cec:	1c000024 	pcaddu12i	$r4,1(0x1)
1c000cf0:	028ac084 	addi.w	$r4,$r4,688(0x2b0)
1c000cf4:	54057c00 	bl	1404(0x57c) # 1c001270 <printf>
1c000cf8:	28800398 	ld.w	$r24,$r28,0
1c000cfc:	6400a2d8 	bge	$r22,$r24,160(0xa0) # 1c000d9c <dhrystone+0x88c>
1c000d00:	2880307e 	ld.w	$r30,$r3,12(0xc)
1c000d04:	14001e94 	lu12i.w	$r20,244(0xf4)
1c000d08:	0389028d 	ori	$r13,$r20,0x240
1c000d0c:	001c37cc 	mul.w	$r12,$r30,$r13
1c000d10:	00207b13 	div.w	$r19,$r24,$r30
1c000d14:	5c000bc0 	bne	$r30,$r0,8(0x8) # 1c000d1c <dhrystone+0x80c>
1c000d18:	002a0007 	break	0x7
1c000d1c:	1c00002e 	pcaddu12i	$r14,1(0x1)
1c000d20:	289201ce 	ld.w	$r14,$r14,1152(0x480)
1c000d24:	1c00003b 	pcaddu12i	$r27,1(0x1)
1c000d28:	2891f37b 	ld.w	$r27,$r27,1148(0x47c)
1c000d2c:	1c000024 	pcaddu12i	$r4,1(0x1)
1c000d30:	028b6084 	addi.w	$r4,$r4,728(0x2d8)
1c000d34:	298001d3 	st.w	$r19,$r14,0
1c000d38:	00206187 	div.w	$r7,$r12,$r24
1c000d3c:	5c000b00 	bne	$r24,$r0,8(0x8) # 1c000d44 <dhrystone+0x834>
1c000d40:	002a0007 	break	0x7
1c000d44:	29800367 	st.w	$r7,$r27,0
1c000d48:	54052800 	bl	1320(0x528) # 1c001270 <printf>
1c000d4c:	28800365 	ld.w	$r5,$r27,0
1c000d50:	1c000024 	pcaddu12i	$r4,1(0x1)
1c000d54:	028b8084 	addi.w	$r4,$r4,736(0x2e0)
1c000d58:	54051800 	bl	1304(0x518) # 1c001270 <printf>
1c000d5c:	02802804 	addi.w	$r4,$r0,10(0xa)
1c000d60:	54073c00 	bl	1852(0x73c) # 1c00149c <putchar>
1c000d64:	28823061 	ld.w	$r1,$r3,140(0x8c)
1c000d68:	28822076 	ld.w	$r22,$r3,136(0x88)
1c000d6c:	001503e4 	move	$r4,$r31
1c000d70:	28821077 	ld.w	$r23,$r3,132(0x84)
1c000d74:	28820078 	ld.w	$r24,$r3,128(0x80)
1c000d78:	2881f079 	ld.w	$r25,$r3,124(0x7c)
1c000d7c:	2881e07a 	ld.w	$r26,$r3,120(0x78)
1c000d80:	2881d07b 	ld.w	$r27,$r3,116(0x74)
1c000d84:	2881c07c 	ld.w	$r28,$r3,112(0x70)
1c000d88:	2881b07d 	ld.w	$r29,$r3,108(0x6c)
1c000d8c:	2881a07e 	ld.w	$r30,$r3,104(0x68)
1c000d90:	2881907f 	ld.w	$r31,$r3,100(0x64)
1c000d94:	02824063 	addi.w	$r3,$r3,144(0x90)
1c000d98:	4c000020 	jirl	$r0,$r1,0
1c000d9c:	1c000024 	pcaddu12i	$r4,1(0x1)
1c000da0:	02884084 	addi.w	$r4,$r4,528(0x210)
1c000da4:	5407b800 	bl	1976(0x7b8) # 1c00155c <puts>
1c000da8:	1c000024 	pcaddu12i	$r4,1(0x1)
1c000dac:	0288f084 	addi.w	$r4,$r4,572(0x23c)
1c000db0:	5407ac00 	bl	1964(0x7ac) # 1c00155c <puts>
1c000db4:	02802804 	addi.w	$r4,$r0,10(0xa)
1c000db8:	5406e400 	bl	1764(0x6e4) # 1c00149c <putchar>
1c000dbc:	28823061 	ld.w	$r1,$r3,140(0x8c)
1c000dc0:	28822076 	ld.w	$r22,$r3,136(0x88)
1c000dc4:	001503e4 	move	$r4,$r31
1c000dc8:	28821077 	ld.w	$r23,$r3,132(0x84)
1c000dcc:	28820078 	ld.w	$r24,$r3,128(0x80)
1c000dd0:	2881f079 	ld.w	$r25,$r3,124(0x7c)
1c000dd4:	2881e07a 	ld.w	$r26,$r3,120(0x78)
1c000dd8:	2881d07b 	ld.w	$r27,$r3,116(0x74)
1c000ddc:	2881c07c 	ld.w	$r28,$r3,112(0x70)
1c000de0:	2881b07d 	ld.w	$r29,$r3,108(0x6c)
1c000de4:	2881a07e 	ld.w	$r30,$r3,104(0x68)
1c000de8:	2881907f 	ld.w	$r31,$r3,100(0x64)
1c000dec:	02824063 	addi.w	$r3,$r3,144(0x90)
1c000df0:	4c000020 	jirl	$r0,$r1,0
1c000df4:	02807065 	addi.w	$r5,$r3,28(0x1c)
1c000df8:	00150004 	move	$r4,$r0
1c000dfc:	5402e400 	bl	740(0x2e4) # 1c0010e0 <Proc_6>
1c000e00:	02807c06 	addi.w	$r6,$r0,31(0x1f)
1c000e04:	1c000025 	pcaddu12i	$r5,1(0x1)
1c000e08:	02b750a5 	addi.w	$r5,$r5,-556(0xdd4)
1c000e0c:	00150344 	move	$r4,$r26
1c000e10:	540a2c00 	bl	2604(0xa2c) # 1c00183c <memcpy>
1c000e14:	028006cf 	addi.w	$r15,$r22,1(0x1)
1c000e18:	2980106f 	st.w	$r15,$r3,4(0x4)
1c000e1c:	28001076 	ld.b	$r22,$r3,4(0x4)
1c000e20:	280002f0 	ld.b	$r16,$r23,0
1c000e24:	29800378 	st.w	$r24,$r27,0
1c000e28:	00150319 	move	$r25,$r24
1c000e2c:	67f93616 	bge	$r16,$r22,-1740(0x3f934) # 1c000760 <dhrystone+0x250>
1c000e30:	53f95bff 	b	-1704(0xffff958) # 1c000788 <dhrystone+0x278>
1c000e34:	28802324 	ld.w	$r4,$r25,8(0x8)
1c000e38:	02801807 	addi.w	$r7,$r0,6(0x6)
1c000e3c:	028022c5 	addi.w	$r5,$r22,8(0x8)
1c000e40:	298032c7 	st.w	$r7,$r22,12(0xc)
1c000e44:	54029c00 	bl	668(0x29c) # 1c0010e0 <Proc_6>
1c000e48:	28800388 	ld.w	$r8,$r28,0
1c000e4c:	288032c4 	ld.w	$r4,$r22,12(0xc)
1c000e50:	028032c6 	addi.w	$r6,$r22,12(0xc)
1c000e54:	28800109 	ld.w	$r9,$r8,0
1c000e58:	02802805 	addi.w	$r5,$r0,10(0xa)
1c000e5c:	02800c19 	addi.w	$r25,$r0,3(0x3)
1c000e60:	298002c9 	st.w	$r9,$r22,0
1c000e64:	5402dc00 	bl	732(0x2dc) # 1c001140 <Proc_7>
1c000e68:	280002e5 	ld.b	$r5,$r23,0
1c000e6c:	02810006 	addi.w	$r6,$r0,64(0x40)
1c000e70:	02810416 	addi.w	$r22,$r0,65(0x41)
1c000e74:	63f8ecc5 	blt	$r6,$r5,-1812(0x3f8ec) # 1c000760 <dhrystone+0x250>
1c000e78:	02802404 	addi.w	$r4,$r0,9(0x9)
1c000e7c:	53f917ff 	b	-1772(0xffff914) # 1c000790 <dhrystone+0x280>
1c000e80:	1c000024 	pcaddu12i	$r4,1(0x1)
1c000e84:	02b36084 	addi.w	$r4,$r4,-808(0xcd8)
1c000e88:	5406d400 	bl	1748(0x6d4) # 1c00155c <puts>
1c000e8c:	02802804 	addi.w	$r4,$r0,10(0xa)
1c000e90:	54060c00 	bl	1548(0x60c) # 1c00149c <putchar>
1c000e94:	53f787ff 	b	-2172(0xffff784) # 1c000618 <dhrystone+0x108>
1c000e98:	0280041f 	addi.w	$r31,$r0,1(0x1)
1c000e9c:	53fe0bff 	b	-504(0xffffe08) # 1c000ca4 <dhrystone+0x794>
1c000ea0:	1c000025 	pcaddu12i	$r5,1(0x1)
1c000ea4:	02b460a5 	addi.w	$r5,$r5,-744(0xd18)
1c000ea8:	00150344 	move	$r4,$r26
1c000eac:	0280041f 	addi.w	$r31,$r0,1(0x1)
1c000eb0:	5407c000 	bl	1984(0x7c0) # 1c001670 <strcmp>
1c000eb4:	5bfdf080 	beq	$r4,$r0,-528(0x3fdf0) # 1c000ca4 <dhrystone+0x794>
1c000eb8:	53ffe3ff 	b	-32(0xfffffe0) # 1c000e98 <dhrystone+0x988>
1c000ebc:	0280041f 	addi.w	$r31,$r0,1(0x1)
1c000ec0:	53fd83ff 	b	-640(0xffffd80) # 1c000c40 <dhrystone+0x730>
1c000ec4:	0280041f 	addi.w	$r31,$r0,1(0x1)
1c000ec8:	53fd47ff 	b	-700(0xffffd44) # 1c000c0c <dhrystone+0x6fc>
1c000ecc:	288013c9 	ld.w	$r9,$r30,4(0x4)
1c000ed0:	0280041f 	addi.w	$r31,$r0,1(0x1)
1c000ed4:	5bfd3920 	beq	$r9,$r0,-712(0x3fd38) # 1c000c0c <dhrystone+0x6fc>
1c000ed8:	53ffefff 	b	-20(0xfffffec) # 1c000ec4 <dhrystone+0x9b4>
1c000edc:	0280041f 	addi.w	$r31,$r0,1(0x1)
1c000ee0:	53fcf3ff 	b	-784(0xffffcf0) # 1c000bd0 <dhrystone+0x6c0>
1c000ee4:	1c00003d 	pcaddu12i	$r29,1(0x1)
1c000ee8:	288b73bd 	ld.w	$r29,$r29,732(0x2dc)
1c000eec:	1c00003e 	pcaddu12i	$r30,1(0x1)
1c000ef0:	288bb3de 	ld.w	$r30,$r30,748(0x2ec)
1c000ef4:	1c000037 	pcaddu12i	$r23,1(0x1)
1c000ef8:	288b42f7 	ld.w	$r23,$r23,720(0x2d0)
1c000efc:	0281007a 	addi.w	$r26,$r3,64(0x40)
1c000f00:	1c00003b 	pcaddu12i	$r27,1(0x1)
1c000f04:	288af37b 	ld.w	$r27,$r27,700(0x2bc)
1c000f08:	53f8d7ff 	b	-1836(0xffff8d4) # 1c0007dc <dhrystone+0x2cc>
1c000f0c:	03400000 	andi	$r0,$r0,0x0

1c000f10 <Proc_1>:
Proc_1():
1c000f10:	02bf8063 	addi.w	$r3,$r3,-32(0xfe0)
1c000f14:	29804079 	st.w	$r25,$r3,16(0x10)
1c000f18:	1c000039 	pcaddu12i	$r25,1(0x1)
1c000f1c:	288ac339 	ld.w	$r25,$r25,688(0x2b0)
1c000f20:	29806077 	st.w	$r23,$r3,24(0x18)
1c000f24:	2980307a 	st.w	$r26,$r3,12(0xc)
1c000f28:	28800097 	ld.w	$r23,$r4,0
1c000f2c:	2880033a 	ld.w	$r26,$r25,0
1c000f30:	29805078 	st.w	$r24,$r3,20(0x14)
1c000f34:	0280c006 	addi.w	$r6,$r0,48(0x30)
1c000f38:	00150098 	move	$r24,$r4
1c000f3c:	00150345 	move	$r5,$r26
1c000f40:	001502e4 	move	$r4,$r23
1c000f44:	29807061 	st.w	$r1,$r3,28(0x1c)
1c000f48:	5408f400 	bl	2292(0x8f4) # 1c00183c <memcpy>
1c000f4c:	2880030d 	ld.w	$r13,$r24,0
1c000f50:	0280140c 	addi.w	$r12,$r0,5(0x5)
1c000f54:	2980330c 	st.w	$r12,$r24,12(0xc)
1c000f58:	298002ed 	st.w	$r13,$r23,0
1c000f5c:	28800344 	ld.w	$r4,$r26,0
1c000f60:	1c00002e 	pcaddu12i	$r14,1(0x1)
1c000f64:	288971ce 	ld.w	$r14,$r14,604(0x25c)
1c000f68:	288001c5 	ld.w	$r5,$r14,0
1c000f6c:	298002e4 	st.w	$r4,$r23,0
1c000f70:	28800326 	ld.w	$r6,$r25,0
1c000f74:	298032ec 	st.w	$r12,$r23,12(0xc)
1c000f78:	02802804 	addi.w	$r4,$r0,10(0xa)
1c000f7c:	028030c6 	addi.w	$r6,$r6,12(0xc)
1c000f80:	5401c000 	bl	448(0x1c0) # 1c001140 <Proc_7>
1c000f84:	288012e5 	ld.w	$r5,$r23,4(0x4)
1c000f88:	580030a0 	beq	$r5,$r0,48(0x30) # 1c000fb8 <Proc_1+0xa8>
1c000f8c:	28800305 	ld.w	$r5,$r24,0
1c000f90:	00150304 	move	$r4,$r24
1c000f94:	0280c006 	addi.w	$r6,$r0,48(0x30)
1c000f98:	5408a400 	bl	2212(0x8a4) # 1c00183c <memcpy>
1c000f9c:	28807061 	ld.w	$r1,$r3,28(0x1c)
1c000fa0:	28806077 	ld.w	$r23,$r3,24(0x18)
1c000fa4:	28805078 	ld.w	$r24,$r3,20(0x14)
1c000fa8:	28804079 	ld.w	$r25,$r3,16(0x10)
1c000fac:	2880307a 	ld.w	$r26,$r3,12(0xc)
1c000fb0:	02808063 	addi.w	$r3,$r3,32(0x20)
1c000fb4:	4c000020 	jirl	$r0,$r1,0
1c000fb8:	28802304 	ld.w	$r4,$r24,8(0x8)
1c000fbc:	02801801 	addi.w	$r1,$r0,6(0x6)
1c000fc0:	028022e5 	addi.w	$r5,$r23,8(0x8)
1c000fc4:	298032e1 	st.w	$r1,$r23,12(0xc)
1c000fc8:	54011800 	bl	280(0x118) # 1c0010e0 <Proc_6>
1c000fcc:	28800327 	ld.w	$r7,$r25,0
1c000fd0:	288032e4 	ld.w	$r4,$r23,12(0xc)
1c000fd4:	28807061 	ld.w	$r1,$r3,28(0x1c)
1c000fd8:	288000e8 	ld.w	$r8,$r7,0
1c000fdc:	28805078 	ld.w	$r24,$r3,20(0x14)
1c000fe0:	28804079 	ld.w	$r25,$r3,16(0x10)
1c000fe4:	298002e8 	st.w	$r8,$r23,0
1c000fe8:	2880307a 	ld.w	$r26,$r3,12(0xc)
1c000fec:	028032e6 	addi.w	$r6,$r23,12(0xc)
1c000ff0:	28806077 	ld.w	$r23,$r3,24(0x18)
1c000ff4:	02802805 	addi.w	$r5,$r0,10(0xa)
1c000ff8:	02808063 	addi.w	$r3,$r3,32(0x20)
1c000ffc:	50014400 	b	324(0x144) # 1c001140 <Proc_7>

1c001000 <Proc_2>:
Proc_2():
1c001000:	1c00002c 	pcaddu12i	$r12,1(0x1)
1c001004:	2887018c 	ld.w	$r12,$r12,448(0x1c0)
1c001008:	2800018d 	ld.b	$r13,$r12,0
1c00100c:	02810405 	addi.w	$r5,$r0,65(0x41)
1c001010:	580009a5 	beq	$r13,$r5,8(0x8) # 1c001018 <Proc_2+0x18>
1c001014:	4c000020 	jirl	$r0,$r1,0
1c001018:	28800086 	ld.w	$r6,$r4,0
1c00101c:	1c000027 	pcaddu12i	$r7,1(0x1)
1c001020:	288680e7 	ld.w	$r7,$r7,416(0x1a0)
1c001024:	288000e8 	ld.w	$r8,$r7,0
1c001028:	028024c9 	addi.w	$r9,$r6,9(0x9)
1c00102c:	0011212a 	sub.w	$r10,$r9,$r8
1c001030:	2980008a 	st.w	$r10,$r4,0
1c001034:	4c000020 	jirl	$r0,$r1,0
1c001038:	03400000 	andi	$r0,$r0,0x0
1c00103c:	03400000 	andi	$r0,$r0,0x0

1c001040 <Proc_3>:
Proc_3():
1c001040:	1c00002c 	pcaddu12i	$r12,1(0x1)
1c001044:	2886218c 	ld.w	$r12,$r12,392(0x188)
1c001048:	28800186 	ld.w	$r6,$r12,0
1c00104c:	580010c0 	beq	$r6,$r0,16(0x10) # 1c00105c <Proc_3+0x1c>
1c001050:	288000cd 	ld.w	$r13,$r6,0
1c001054:	2980008d 	st.w	$r13,$r4,0
1c001058:	28800186 	ld.w	$r6,$r12,0
1c00105c:	1c000024 	pcaddu12i	$r4,1(0x1)
1c001060:	28858084 	ld.w	$r4,$r4,352(0x160)
1c001064:	28800085 	ld.w	$r5,$r4,0
1c001068:	028030c6 	addi.w	$r6,$r6,12(0xc)
1c00106c:	02802804 	addi.w	$r4,$r0,10(0xa)
1c001070:	5000d000 	b	208(0xd0) # 1c001140 <Proc_7>
1c001074:	03400000 	andi	$r0,$r0,0x0
1c001078:	03400000 	andi	$r0,$r0,0x0
1c00107c:	03400000 	andi	$r0,$r0,0x0

1c001080 <Proc_4>:
Proc_4():
1c001080:	1c00002c 	pcaddu12i	$r12,1(0x1)
1c001084:	2885018c 	ld.w	$r12,$r12,320(0x140)
1c001088:	28000185 	ld.b	$r5,$r12,0
1c00108c:	1c00002d 	pcaddu12i	$r13,1(0x1)
1c001090:	288531ad 	ld.w	$r13,$r13,332(0x14c)
1c001094:	288001ae 	ld.w	$r14,$r13,0
1c001098:	03c104a6 	xori	$r6,$r5,0x41
1c00109c:	024004c7 	sltui	$r7,$r6,1(0x1)
1c0010a0:	001538e8 	or	$r8,$r7,$r14
1c0010a4:	1c000029 	pcaddu12i	$r9,1(0x1)
1c0010a8:	28848129 	ld.w	$r9,$r9,288(0x120)
1c0010ac:	0281080a 	addi.w	$r10,$r0,66(0x42)
1c0010b0:	298001a8 	st.w	$r8,$r13,0
1c0010b4:	2900012a 	st.b	$r10,$r9,0
1c0010b8:	4c000020 	jirl	$r0,$r1,0
1c0010bc:	03400000 	andi	$r0,$r0,0x0

1c0010c0 <Proc_5>:
Proc_5():
1c0010c0:	1c00002c 	pcaddu12i	$r12,1(0x1)
1c0010c4:	2884018c 	ld.w	$r12,$r12,256(0x100)
1c0010c8:	0281040d 	addi.w	$r13,$r0,65(0x41)
1c0010cc:	1c000025 	pcaddu12i	$r5,1(0x1)
1c0010d0:	288430a5 	ld.w	$r5,$r5,268(0x10c)
1c0010d4:	2900018d 	st.b	$r13,$r12,0
1c0010d8:	298000a0 	st.w	$r0,$r5,0
1c0010dc:	4c000020 	jirl	$r0,$r1,0

1c0010e0 <Proc_6>:
Proc_6():
1c0010e0:	0280080c 	addi.w	$r12,$r0,2(0x2)
1c0010e4:	58002c8c 	beq	$r4,$r12,44(0x2c) # 1c001110 <Proc_6+0x30>
1c0010e8:	0280040d 	addi.w	$r13,$r0,1(0x1)
1c0010ec:	02800c0e 	addi.w	$r14,$r0,3(0x3)
1c0010f0:	5800308d 	beq	$r4,$r13,48(0x30) # 1c001120 <Proc_6+0x40>
1c0010f4:	58004080 	beq	$r4,$r0,64(0x40) # 1c001134 <Proc_6+0x54>
1c0010f8:	02801009 	addi.w	$r9,$r0,4(0x4)
1c0010fc:	58000c89 	beq	$r4,$r9,12(0xc) # 1c001108 <Proc_6+0x28>
1c001100:	298000ae 	st.w	$r14,$r5,0
1c001104:	4c000020 	jirl	$r0,$r1,0
1c001108:	298000ac 	st.w	$r12,$r5,0
1c00110c:	4c000020 	jirl	$r0,$r1,0
1c001110:	0280040a 	addi.w	$r10,$r0,1(0x1)
1c001114:	298000aa 	st.w	$r10,$r5,0
1c001118:	4c000020 	jirl	$r0,$r1,0
1c00111c:	03400000 	andi	$r0,$r0,0x0
1c001120:	1c000026 	pcaddu12i	$r6,1(0x1)
1c001124:	288270c6 	ld.w	$r6,$r6,156(0x9c)
1c001128:	288000c7 	ld.w	$r7,$r6,0
1c00112c:	02819008 	addi.w	$r8,$r0,100(0x64)
1c001130:	67ffd107 	bge	$r8,$r7,-48(0x3ffd0) # 1c001100 <Proc_6+0x20>
1c001134:	298000a0 	st.w	$r0,$r5,0
1c001138:	4c000020 	jirl	$r0,$r1,0
1c00113c:	03400000 	andi	$r0,$r0,0x0

1c001140 <Proc_7>:
Proc_7():
1c001140:	0280088c 	addi.w	$r12,$r4,2(0x2)
1c001144:	00101585 	add.w	$r5,$r12,$r5
1c001148:	298000c5 	st.w	$r5,$r6,0
1c00114c:	001501a4 	move	$r4,$r13
1c001150:	4c000020 	jirl	$r0,$r1,0
1c001154:	03400000 	andi	$r0,$r0,0x0
1c001158:	03400000 	andi	$r0,$r0,0x0
1c00115c:	03400000 	andi	$r0,$r0,0x0

1c001160 <Proc_8>:
Proc_8():
1c001160:	028014ce 	addi.w	$r14,$r6,5(0x5)
1c001164:	0283200f 	addi.w	$r15,$r0,200(0xc8)
1c001168:	001c3dc8 	mul.w	$r8,$r14,$r15
1c00116c:	004088c6 	slli.w	$r6,$r6,0x2
1c001170:	004089cc 	slli.w	$r12,$r14,0x2
1c001174:	00103089 	add.w	$r9,$r4,$r12
1c001178:	001501a4 	move	$r4,$r13
1c00117c:	29800127 	st.w	$r7,$r9,0
1c001180:	29801127 	st.w	$r7,$r9,4(0x4)
1c001184:	2981e12e 	st.w	$r14,$r9,120(0x78)
1c001188:	03bed012 	ori	$r18,$r0,0xfb4
1c00118c:	1c000034 	pcaddu12i	$r20,1(0x1)
1c001190:	2880c294 	ld.w	$r20,$r20,48(0x30)
1c001194:	0010190d 	add.w	$r13,$r8,$r6
1c001198:	001034a7 	add.w	$r7,$r5,$r13
1c00119c:	288040f0 	ld.w	$r16,$r7,16(0x10)
1c0011a0:	298050ee 	st.w	$r14,$r7,20(0x14)
1c0011a4:	298060ee 	st.w	$r14,$r7,24(0x18)
1c0011a8:	001020a5 	add.w	$r5,$r5,$r8
1c0011ac:	0280060a 	addi.w	$r10,$r16,1(0x1)
1c0011b0:	298040ea 	st.w	$r10,$r7,16(0x10)
1c0011b4:	2880012b 	ld.w	$r11,$r9,0
1c0011b8:	001018b1 	add.w	$r17,$r5,$r6
1c0011bc:	00104653 	add.w	$r19,$r18,$r17
1c0011c0:	0280140e 	addi.w	$r14,$r0,5(0x5)
1c0011c4:	2980026b 	st.w	$r11,$r19,0
1c0011c8:	2980028e 	st.w	$r14,$r20,0
1c0011cc:	4c000020 	jirl	$r0,$r1,0

1c0011d0 <Func_1>:
Func_1():
1c0011d0:	02bfc063 	addi.w	$r3,$r3,-16(0xff0)
1c0011d4:	29003c64 	st.b	$r4,$r3,15(0xf)
1c0011d8:	28003c64 	ld.b	$r4,$r3,15(0xf)
1c0011dc:	29003c65 	st.b	$r5,$r3,15(0xf)
1c0011e0:	28003c65 	ld.b	$r5,$r3,15(0xf)
1c0011e4:	58001085 	beq	$r4,$r5,16(0x10) # 1c0011f4 <Func_1+0x24>
1c0011e8:	00150004 	move	$r4,$r0
1c0011ec:	02804063 	addi.w	$r3,$r3,16(0x10)
1c0011f0:	4c000020 	jirl	$r0,$r1,0
1c0011f4:	1c00002c 	pcaddu12i	$r12,1(0x1)
1c0011f8:	28bf318c 	ld.w	$r12,$r12,-52(0xfcc)
1c0011fc:	29000184 	st.b	$r4,$r12,0
1c001200:	02800404 	addi.w	$r4,$r0,1(0x1)
1c001204:	02804063 	addi.w	$r3,$r3,16(0x10)
1c001208:	4c000020 	jirl	$r0,$r1,0
1c00120c:	03400000 	andi	$r0,$r0,0x0

1c001210 <Func_2>:
Func_2():
1c001210:	2800088d 	ld.b	$r13,$r4,2(0x2)
1c001214:	28000cac 	ld.b	$r12,$r5,3(0x3)
1c001218:	58003dac 	beq	$r13,$r12,60(0x3c) # 1c001254 <Func_2+0x44>
1c00121c:	02bfc063 	addi.w	$r3,$r3,-16(0xff0)
1c001220:	29803061 	st.w	$r1,$r3,12(0xc)
1c001224:	54044c00 	bl	1100(0x44c) # 1c001670 <strcmp>
1c001228:	00150005 	move	$r5,$r0
1c00122c:	64001804 	bge	$r0,$r4,24(0x18) # 1c001244 <Func_2+0x34>
1c001230:	1c000021 	pcaddu12i	$r1,1(0x1)
1c001234:	28be3021 	ld.w	$r1,$r1,-116(0xf8c)
1c001238:	02802804 	addi.w	$r4,$r0,10(0xa)
1c00123c:	29800024 	st.w	$r4,$r1,0
1c001240:	02800405 	addi.w	$r5,$r0,1(0x1)
1c001244:	28803061 	ld.w	$r1,$r3,12(0xc)
1c001248:	001500a4 	move	$r4,$r5
1c00124c:	02804063 	addi.w	$r3,$r3,16(0x10)
1c001250:	4c000020 	jirl	$r0,$r1,0
1c001254:	50000000 	b	0 # 1c001254 <Func_2+0x44>
1c001258:	03400000 	andi	$r0,$r0,0x0
1c00125c:	03400000 	andi	$r0,$r0,0x0

1c001260 <Func_3>:
Func_3():
1c001260:	03c00884 	xori	$r4,$r4,0x2
1c001264:	02400484 	sltui	$r4,$r4,1(0x1)
1c001268:	4c000020 	jirl	$r0,$r1,0
1c00126c:	03400000 	andi	$r0,$r0,0x0

1c001270 <printf>:
printf():
/home/wwt/work/perf_func/lib/printf.c:2
1c001270:	02be8063 	addi.w	$r3,$r3,-96(0xfa0)
1c001274:	2980b07a 	st.w	$r26,$r3,44(0x2c)
1c001278:	2980f061 	st.w	$r1,$r3,60(0x3c)
1c00127c:	2980e077 	st.w	$r23,$r3,56(0x38)
1c001280:	2980d078 	st.w	$r24,$r3,52(0x34)
1c001284:	2980c079 	st.w	$r25,$r3,48(0x30)
1c001288:	2980a07b 	st.w	$r27,$r3,40(0x28)
1c00128c:	2980907c 	st.w	$r28,$r3,36(0x24)
/home/wwt/work/perf_func/lib/printf.c:10
1c001290:	28000097 	ld.b	$r23,$r4,0
/home/wwt/work/perf_func/lib/printf.c:8
1c001294:	0281107a 	addi.w	$r26,$r3,68(0x44)
/home/wwt/work/perf_func/lib/printf.c:2
1c001298:	29811065 	st.w	$r5,$r3,68(0x44)
1c00129c:	29812066 	st.w	$r6,$r3,72(0x48)
1c0012a0:	29813067 	st.w	$r7,$r3,76(0x4c)
1c0012a4:	29814068 	st.w	$r8,$r3,80(0x50)
1c0012a8:	29815069 	st.w	$r9,$r3,84(0x54)
1c0012ac:	2981606a 	st.w	$r10,$r3,88(0x58)
1c0012b0:	2981706b 	st.w	$r11,$r3,92(0x5c)
/home/wwt/work/perf_func/lib/printf.c:8
1c0012b4:	2980707a 	st.w	$r26,$r3,28(0x1c)
/home/wwt/work/perf_func/lib/printf.c:10
1c0012b8:	580086e0 	beq	$r23,$r0,132(0x84) # 1c00133c <printf+0xcc>
1c0012bc:	00150099 	move	$r25,$r4
1c0012c0:	00150018 	move	$r24,$r0
1c0012c4:	1c00003c 	pcaddu12i	$r28,1(0x1)
1c0012c8:	02b5d39c 	addi.w	$r28,$r28,-652(0xd74)
1c0012cc:	0280201b 	addi.w	$r27,$r0,8(0x8)
1c0012d0:	50001c00 	b	28(0x1c) # 1c0012ec <printf+0x7c>
/home/wwt/work/perf_func/lib/printf.c:80
1c0012d4:	001502e4 	move	$r4,$r23
1c0012d8:	5401c400 	bl	452(0x1c4) # 1c00149c <putchar>
/home/wwt/work/perf_func/lib/printf.c:10 (discriminator 2)
1c0012dc:	02800718 	addi.w	$r24,$r24,1(0x1)
/home/wwt/work/perf_func/lib/printf.c:10
1c0012e0:	0010632c 	add.w	$r12,$r25,$r24
1c0012e4:	28000197 	ld.b	$r23,$r12,0
1c0012e8:	580056e0 	beq	$r23,$r0,84(0x54) # 1c00133c <printf+0xcc>
/home/wwt/work/perf_func/lib/printf.c:13
1c0012ec:	0280940c 	addi.w	$r12,$r0,37(0x25)
1c0012f0:	58001aec 	beq	$r23,$r12,24(0x18) # 1c001308 <printf+0x98>
/home/wwt/work/perf_func/lib/printf.c:79
1c0012f4:	0280280c 	addi.w	$r12,$r0,10(0xa)
1c0012f8:	5fffdeec 	bne	$r23,$r12,-36(0x3ffdc) # 1c0012d4 <printf+0x64>
/home/wwt/work/perf_func/lib/printf.c:79 (discriminator 1)
1c0012fc:	02803404 	addi.w	$r4,$r0,13(0xd)
1c001300:	54019c00 	bl	412(0x19c) # 1c00149c <putchar>
1c001304:	53ffd3ff 	b	-48(0xfffffd0) # 1c0012d4 <printf+0x64>
1c001308:	0010632c 	add.w	$r12,$r25,$r24
1c00130c:	2800058d 	ld.b	$r13,$r12,1(0x1)
/home/wwt/work/perf_func/lib/printf.c:15
1c001310:	02800405 	addi.w	$r5,$r0,1(0x1)
/home/wwt/work/perf_func/lib/printf.c:17
1c001314:	02814c10 	addi.w	$r16,$r0,83(0x53)
/home/wwt/work/perf_func/lib/printf.c:68
1c001318:	0280280f 	addi.w	$r15,$r0,10(0xa)
/home/wwt/work/perf_func/lib/printf.c:17
1c00131c:	02bf6dac 	addi.w	$r12,$r13,-37(0xfdb)
1c001320:	2980306c 	st.w	$r12,$r3,12(0xc)
1c001324:	2a00306c 	ld.bu	$r12,$r3,12(0xc)
1c001328:	68016a0c 	bltu	$r16,$r12,360(0x168) # 1c001490 <printf+0x220>
1c00132c:	0040898c 	slli.w	$r12,$r12,0x2
1c001330:	0010338c 	add.w	$r12,$r28,$r12
1c001334:	2880018c 	ld.w	$r12,$r12,0
1c001338:	4c000180 	jirl	$r0,$r12,0
/home/wwt/work/perf_func/lib/printf.c:84
1c00133c:	2880f061 	ld.w	$r1,$r3,60(0x3c)
1c001340:	2880e077 	ld.w	$r23,$r3,56(0x38)
1c001344:	2880d078 	ld.w	$r24,$r3,52(0x34)
1c001348:	2880c079 	ld.w	$r25,$r3,48(0x30)
1c00134c:	2880b07a 	ld.w	$r26,$r3,44(0x2c)
1c001350:	2880a07b 	ld.w	$r27,$r3,40(0x28)
1c001354:	2880907c 	ld.w	$r28,$r3,36(0x24)
1c001358:	00150004 	move	$r4,$r0
1c00135c:	02818063 	addi.w	$r3,$r3,96(0x60)
1c001360:	4c000020 	jirl	$r0,$r1,0
/home/wwt/work/perf_func/lib/printf.c:65
1c001364:	0010632c 	add.w	$r12,$r25,$r24
1c001368:	2800098d 	ld.b	$r13,$r12,2(0x2)
1c00136c:	02800718 	addi.w	$r24,$r24,1(0x1)
/home/wwt/work/perf_func/lib/printf.c:67 (discriminator 1)
1c001370:	02bf3dac 	addi.w	$r12,$r13,-49(0xfcf)
/home/wwt/work/perf_func/lib/printf.c:67
1c001374:	2980306c 	st.w	$r12,$r3,12(0xc)
1c001378:	2a00306c 	ld.bu	$r12,$r3,12(0xc)
1c00137c:	00150005 	move	$r5,$r0
1c001380:	6bff9f6c 	bltu	$r27,$r12,-100(0x3ff9c) # 1c00131c <printf+0xac>
/home/wwt/work/perf_func/lib/printf.c:68
1c001384:	001c3ca5 	mul.w	$r5,$r5,$r15
/home/wwt/work/perf_func/lib/printf.c:67
1c001388:	02800718 	addi.w	$r24,$r24,1(0x1)
1c00138c:	0010632c 	add.w	$r12,$r25,$r24
/home/wwt/work/perf_func/lib/printf.c:68
1c001390:	02bf41ae 	addi.w	$r14,$r13,-48(0xfd0)
/home/wwt/work/perf_func/lib/printf.c:67
1c001394:	2800058d 	ld.b	$r13,$r12,1(0x1)
1c001398:	02bf3dac 	addi.w	$r12,$r13,-49(0xfcf)
1c00139c:	2980306c 	st.w	$r12,$r3,12(0xc)
1c0013a0:	2a00306c 	ld.bu	$r12,$r3,12(0xc)
/home/wwt/work/perf_func/lib/printf.c:68
1c0013a4:	001015c5 	add.w	$r5,$r14,$r5
/home/wwt/work/perf_func/lib/printf.c:67
1c0013a8:	6fffdf6c 	bgeu	$r27,$r12,-36(0x3ffdc) # 1c001384 <printf+0x114>
1c0013ac:	53ff73ff 	b	-144(0xfffff70) # 1c00131c <printf+0xac>
/home/wwt/work/perf_func/lib/printf.c:50
1c0013b0:	28800344 	ld.w	$r4,$r26,0
1c0013b4:	00150007 	move	$r7,$r0
1c0013b8:	02800806 	addi.w	$r6,$r0,2(0x2)
1c0013bc:	5401cc00 	bl	460(0x1cc) # 1c001588 <printbase>
/home/wwt/work/perf_func/lib/printf.c:51
1c0013c0:	0280135a 	addi.w	$r26,$r26,4(0x4)
/home/wwt/work/perf_func/lib/printf.c:52
1c0013c4:	02800718 	addi.w	$r24,$r24,1(0x1)
/home/wwt/work/perf_func/lib/printf.c:53
1c0013c8:	53ff17ff 	b	-236(0xfffff14) # 1c0012dc <printf+0x6c>
/home/wwt/work/perf_func/lib/printf.c:25
1c0013cc:	28800344 	ld.w	$r4,$r26,0
/home/wwt/work/perf_func/lib/printf.c:27
1c0013d0:	02800718 	addi.w	$r24,$r24,1(0x1)
/home/wwt/work/perf_func/lib/printf.c:26
1c0013d4:	0280135a 	addi.w	$r26,$r26,4(0x4)
/home/wwt/work/perf_func/lib/printf.c:25
1c0013d8:	5400c400 	bl	196(0xc4) # 1c00149c <putchar>
/home/wwt/work/perf_func/lib/printf.c:28
1c0013dc:	53ff03ff 	b	-256(0xfffff00) # 1c0012dc <printf+0x6c>
/home/wwt/work/perf_func/lib/printf.c:35
1c0013e0:	28800344 	ld.w	$r4,$r26,0
1c0013e4:	02800407 	addi.w	$r7,$r0,1(0x1)
1c0013e8:	02802806 	addi.w	$r6,$r0,10(0xa)
1c0013ec:	54019c00 	bl	412(0x19c) # 1c001588 <printbase>
/home/wwt/work/perf_func/lib/printf.c:36
1c0013f0:	0280135a 	addi.w	$r26,$r26,4(0x4)
/home/wwt/work/perf_func/lib/printf.c:37
1c0013f4:	02800718 	addi.w	$r24,$r24,1(0x1)
/home/wwt/work/perf_func/lib/printf.c:38
1c0013f8:	53fee7ff 	b	-284(0xffffee4) # 1c0012dc <printf+0x6c>
/home/wwt/work/perf_func/lib/printf.c:40
1c0013fc:	28800344 	ld.w	$r4,$r26,0
1c001400:	00150007 	move	$r7,$r0
1c001404:	02802806 	addi.w	$r6,$r0,10(0xa)
1c001408:	54018000 	bl	384(0x180) # 1c001588 <printbase>
/home/wwt/work/perf_func/lib/printf.c:41
1c00140c:	0280135a 	addi.w	$r26,$r26,4(0x4)
/home/wwt/work/perf_func/lib/printf.c:42
1c001410:	02800b18 	addi.w	$r24,$r24,2(0x2)
/home/wwt/work/perf_func/lib/printf.c:43
1c001414:	53fecbff 	b	-312(0xffffec8) # 1c0012dc <printf+0x6c>
/home/wwt/work/perf_func/lib/printf.c:45
1c001418:	28800344 	ld.w	$r4,$r26,0
1c00141c:	00150007 	move	$r7,$r0
1c001420:	02802006 	addi.w	$r6,$r0,8(0x8)
1c001424:	54016400 	bl	356(0x164) # 1c001588 <printbase>
/home/wwt/work/perf_func/lib/printf.c:46
1c001428:	0280135a 	addi.w	$r26,$r26,4(0x4)
/home/wwt/work/perf_func/lib/printf.c:47
1c00142c:	02800718 	addi.w	$r24,$r24,1(0x1)
/home/wwt/work/perf_func/lib/printf.c:48
1c001430:	53feafff 	b	-340(0xffffeac) # 1c0012dc <printf+0x6c>
/home/wwt/work/perf_func/lib/printf.c:56
1c001434:	28800344 	ld.w	$r4,$r26,0
1c001438:	00150007 	move	$r7,$r0
1c00143c:	02804006 	addi.w	$r6,$r0,16(0x10)
1c001440:	54014800 	bl	328(0x148) # 1c001588 <printbase>
/home/wwt/work/perf_func/lib/printf.c:57
1c001444:	0280135a 	addi.w	$r26,$r26,4(0x4)
/home/wwt/work/perf_func/lib/printf.c:58
1c001448:	02800718 	addi.w	$r24,$r24,1(0x1)
/home/wwt/work/perf_func/lib/printf.c:59
1c00144c:	53fe93ff 	b	-368(0xffffe90) # 1c0012dc <printf+0x6c>
/home/wwt/work/perf_func/lib/printf.c:20
1c001450:	28800344 	ld.w	$r4,$r26,0
/home/wwt/work/perf_func/lib/printf.c:22
1c001454:	02800718 	addi.w	$r24,$r24,1(0x1)
/home/wwt/work/perf_func/lib/printf.c:21
1c001458:	0280135a 	addi.w	$r26,$r26,4(0x4)
/home/wwt/work/perf_func/lib/printf.c:20
1c00145c:	54008c00 	bl	140(0x8c) # 1c0014e8 <putstring>
/home/wwt/work/perf_func/lib/printf.c:23
1c001460:	53fe7fff 	b	-388(0xffffe7c) # 1c0012dc <printf+0x6c>
/home/wwt/work/perf_func/lib/printf.c:30
1c001464:	28800344 	ld.w	$r4,$r26,0
1c001468:	00150007 	move	$r7,$r0
1c00146c:	02802806 	addi.w	$r6,$r0,10(0xa)
1c001470:	54011800 	bl	280(0x118) # 1c001588 <printbase>
/home/wwt/work/perf_func/lib/printf.c:31
1c001474:	0280135a 	addi.w	$r26,$r26,4(0x4)
/home/wwt/work/perf_func/lib/printf.c:32
1c001478:	02800718 	addi.w	$r24,$r24,1(0x1)
/home/wwt/work/perf_func/lib/printf.c:33
1c00147c:	53fe63ff 	b	-416(0xffffe60) # 1c0012dc <printf+0x6c>
/home/wwt/work/perf_func/lib/printf.c:61
1c001480:	02809404 	addi.w	$r4,$r0,37(0x25)
1c001484:	54001800 	bl	24(0x18) # 1c00149c <putchar>
/home/wwt/work/perf_func/lib/printf.c:62
1c001488:	02800718 	addi.w	$r24,$r24,1(0x1)
/home/wwt/work/perf_func/lib/printf.c:63
1c00148c:	53fe53ff 	b	-432(0xffffe50) # 1c0012dc <printf+0x6c>
/home/wwt/work/perf_func/lib/printf.c:73
1c001490:	02809404 	addi.w	$r4,$r0,37(0x25)
1c001494:	54000800 	bl	8(0x8) # 1c00149c <putchar>
/home/wwt/work/perf_func/lib/printf.c:74
1c001498:	53fe47ff 	b	-444(0xffffe44) # 1c0012dc <printf+0x6c>

1c00149c <putchar>:
putchar():
/home/wwt/work/perf_func/lib/putchar.c:2
1c00149c:	02bfc063 	addi.w	$r3,$r3,-16(0xff0)
1c0014a0:	29803079 	st.w	$r25,$r3,12(0xc)
/home/wwt/work/perf_func/lib/putchar.c:9
1c0014a4:	157f5ff9 	lu12i.w	$r25,-263425(0xbfaff)
1c0014a8:	03bc4339 	ori	$r25,$r25,0xf10
1c0014ac:	29000324 	st.b	$r4,$r25,0
1c0014b0:	03400000 	andi	$r0,$r0,0x0
/home/wwt/work/perf_func/lib/putchar.c:5
1c0014b4:	00150004 	move	$r4,$r0
1c0014b8:	28803079 	ld.w	$r25,$r3,12(0xc)
1c0014bc:	02804063 	addi.w	$r3,$r3,16(0x10)
1c0014c0:	4c000020 	jirl	$r0,$r1,0

1c0014c4 <tgt_putchar>:
tgt_putchar():
/home/wwt/work/perf_func/lib/putchar.c:8
1c0014c4:	02bfc063 	addi.w	$r3,$r3,-16(0xff0)
1c0014c8:	29803079 	st.w	$r25,$r3,12(0xc)
/home/wwt/work/perf_func/lib/putchar.c:9
1c0014cc:	157f5ff9 	lu12i.w	$r25,-263425(0xbfaff)
1c0014d0:	03bc4339 	ori	$r25,$r25,0xf10
1c0014d4:	29000324 	st.b	$r4,$r25,0
1c0014d8:	03400000 	andi	$r0,$r0,0x0
/home/wwt/work/perf_func/lib/putchar.c:16
1c0014dc:	28803079 	ld.w	$r25,$r3,12(0xc)
1c0014e0:	02804063 	addi.w	$r3,$r3,16(0x10)
1c0014e4:	4c000020 	jirl	$r0,$r1,0

1c0014e8 <putstring>:
putstring():
/home/wwt/work/perf_func/lib/puts.c:2
1c0014e8:	02bfc063 	addi.w	$r3,$r3,-16(0xff0)
1c0014ec:	29803061 	st.w	$r1,$r3,12(0xc)
1c0014f0:	29802077 	st.w	$r23,$r3,8(0x8)
1c0014f4:	29801078 	st.w	$r24,$r3,4(0x4)
1c0014f8:	29800079 	st.w	$r25,$r3,0
/home/wwt/work/perf_func/lib/puts.c:4
1c0014fc:	28000097 	ld.b	$r23,$r4,0
1c001500:	580042e0 	beq	$r23,$r0,64(0x40) # 1c001540 <putstring+0x58>
1c001504:	00150098 	move	$r24,$r4
/home/wwt/work/perf_func/lib/puts.c:6
1c001508:	02802819 	addi.w	$r25,$r0,10(0xa)
1c00150c:	50001400 	b	20(0x14) # 1c001520 <putstring+0x38>
/home/wwt/work/perf_func/lib/puts.c:7
1c001510:	001502e4 	move	$r4,$r23
1c001514:	57ff8bff 	bl	-120(0xfffff88) # 1c00149c <putchar>
/home/wwt/work/perf_func/lib/puts.c:4
1c001518:	28000317 	ld.b	$r23,$r24,0
1c00151c:	580026e0 	beq	$r23,$r0,36(0x24) # 1c001540 <putstring+0x58>
/home/wwt/work/perf_func/lib/puts.c:8
1c001520:	02800718 	addi.w	$r24,$r24,1(0x1)
/home/wwt/work/perf_func/lib/puts.c:6
1c001524:	5fffeef9 	bne	$r23,$r25,-20(0x3ffec) # 1c001510 <putstring+0x28>
/home/wwt/work/perf_func/lib/puts.c:6 (discriminator 1)
1c001528:	02803404 	addi.w	$r4,$r0,13(0xd)
1c00152c:	57ff73ff 	bl	-144(0xfffff70) # 1c00149c <putchar>
/home/wwt/work/perf_func/lib/puts.c:7
1c001530:	001502e4 	move	$r4,$r23
1c001534:	57ff6bff 	bl	-152(0xfffff68) # 1c00149c <putchar>
/home/wwt/work/perf_func/lib/puts.c:4
1c001538:	28000317 	ld.b	$r23,$r24,0
1c00153c:	5fffe6e0 	bne	$r23,$r0,-28(0x3ffe4) # 1c001520 <putstring+0x38>
/home/wwt/work/perf_func/lib/puts.c:11
1c001540:	28803061 	ld.w	$r1,$r3,12(0xc)
1c001544:	28802077 	ld.w	$r23,$r3,8(0x8)
1c001548:	28801078 	ld.w	$r24,$r3,4(0x4)
1c00154c:	28800079 	ld.w	$r25,$r3,0
1c001550:	00150004 	move	$r4,$r0
1c001554:	02804063 	addi.w	$r3,$r3,16(0x10)
1c001558:	4c000020 	jirl	$r0,$r1,0

1c00155c <puts>:
puts():
/home/wwt/work/perf_func/lib/puts.c:15
1c00155c:	02bfc063 	addi.w	$r3,$r3,-16(0xff0)
1c001560:	29803061 	st.w	$r1,$r3,12(0xc)
/home/wwt/work/perf_func/lib/puts.c:16
1c001564:	57ff87ff 	bl	-124(0xfffff84) # 1c0014e8 <putstring>
/home/wwt/work/perf_func/lib/puts.c:17
1c001568:	02803404 	addi.w	$r4,$r0,13(0xd)
1c00156c:	57ff33ff 	bl	-208(0xfffff30) # 1c00149c <putchar>
/home/wwt/work/perf_func/lib/puts.c:18
1c001570:	02802804 	addi.w	$r4,$r0,10(0xa)
1c001574:	57ff2bff 	bl	-216(0xfffff28) # 1c00149c <putchar>
/home/wwt/work/perf_func/lib/puts.c:20
1c001578:	28803061 	ld.w	$r1,$r3,12(0xc)
1c00157c:	00150004 	move	$r4,$r0
1c001580:	02804063 	addi.w	$r3,$r3,16(0x10)
1c001584:	4c000020 	jirl	$r0,$r1,0

1c001588 <printbase>:
printbase():
/home/wwt/work/perf_func/lib/printbase.c:2
1c001588:	02be8063 	addi.w	$r3,$r3,-96(0xfa0)
1c00158c:	29816077 	st.w	$r23,$r3,88(0x58)
1c001590:	29817061 	st.w	$r1,$r3,92(0x5c)
1c001594:	29815078 	st.w	$r24,$r3,84(0x54)
1c001598:	29814079 	st.w	$r25,$r3,80(0x50)
1c00159c:	00150097 	move	$r23,$r4
/home/wwt/work/perf_func/lib/printbase.c:7
1c0015a0:	580008e0 	beq	$r7,$r0,8(0x8) # 1c0015a8 <printbase+0x20>
/home/wwt/work/perf_func/lib/printbase.c:7 (discriminator 1)
1c0015a4:	6000a080 	blt	$r4,$r0,160(0xa0) # 1c001644 <printbase+0xbc>
/home/wwt/work/perf_func/lib/printbase.c:14
1c0015a8:	5800bee0 	beq	$r23,$r0,188(0xbc) # 1c001664 <printbase+0xdc>
1c0015ac:	0280406c 	addi.w	$r12,$r3,16(0x10)
1c0015b0:	0280040e 	addi.w	$r14,$r0,1(0x1)
1c0015b4:	001131ce 	sub.w	$r14,$r14,$r12
1c0015b8:	50000800 	b	8(0x8) # 1c0015c0 <printbase+0x38>
/home/wwt/work/perf_func/lib/printbase.c:17
1c0015bc:	001501b7 	move	$r23,$r13
/home/wwt/work/perf_func/lib/printbase.c:16
1c0015c0:	00219aed 	mod.wu	$r13,$r23,$r6
1c0015c4:	5c0008c0 	bne	$r6,$r0,8(0x8) # 1c0015cc <printbase+0x44>
1c0015c8:	002a0007 	break	0x7
1c0015cc:	2900018d 	st.b	$r13,$r12,0
/home/wwt/work/perf_func/lib/printbase.c:17
1c0015d0:	001031d8 	add.w	$r24,$r14,$r12
1c0015d4:	00211aed 	div.wu	$r13,$r23,$r6
1c0015d8:	5c0008c0 	bne	$r6,$r0,8(0x8) # 1c0015e0 <printbase+0x58>
1c0015dc:	002a0007 	break	0x7
1c0015e0:	0280058c 	addi.w	$r12,$r12,1(0x1)
/home/wwt/work/perf_func/lib/printbase.c:14
1c0015e4:	6fffdae6 	bgeu	$r23,$r6,-40(0x3ffd8) # 1c0015bc <printbase+0x34>
/home/wwt/work/perf_func/lib/printbase.c:22
1c0015e8:	600054b8 	blt	$r5,$r24,84(0x54) # 1c00163c <printbase+0xb4>
1c0015ec:	001500b7 	move	$r23,$r5
/home/wwt/work/perf_func/lib/printbase.c:25
1c0015f0:	02802419 	addi.w	$r25,$r0,9(0x9)
/home/wwt/work/perf_func/lib/printbase.c:24
1c0015f4:	0280406c 	addi.w	$r12,$r3,16(0x10)
1c0015f8:	00105d8c 	add.w	$r12,$r12,$r23
1c0015fc:	0280c004 	addi.w	$r4,$r0,48(0x30)
1c001600:	60001717 	blt	$r24,$r23,20(0x14) # 1c001614 <printbase+0x8c>
1c001604:	283ffd8c 	ld.b	$r12,$r12,-1(0xfff)
/home/wwt/work/perf_func/lib/printbase.c:25 (discriminator 1)
1c001608:	02815d84 	addi.w	$r4,$r12,87(0x57)
1c00160c:	60000b2c 	blt	$r25,$r12,8(0x8) # 1c001614 <printbase+0x8c>
1c001610:	0280c184 	addi.w	$r4,$r12,48(0x30)
1c001614:	02bffef7 	addi.w	$r23,$r23,-1(0xfff)
1c001618:	57fe87ff 	bl	-380(0xffffe84) # 1c00149c <putchar>
/home/wwt/work/perf_func/lib/printbase.c:22 (discriminator 4)
1c00161c:	5fffdae0 	bne	$r23,$r0,-40(0x3ffd8) # 1c0015f4 <printbase+0x6c>
/home/wwt/work/perf_func/lib/printbase.c:28
1c001620:	28817061 	ld.w	$r1,$r3,92(0x5c)
1c001624:	28816077 	ld.w	$r23,$r3,88(0x58)
1c001628:	28815078 	ld.w	$r24,$r3,84(0x54)
1c00162c:	28814079 	ld.w	$r25,$r3,80(0x50)
1c001630:	00150004 	move	$r4,$r0
1c001634:	02818063 	addi.w	$r3,$r3,96(0x60)
1c001638:	4c000020 	jirl	$r0,$r1,0
/home/wwt/work/perf_func/lib/printbase.c:22
1c00163c:	00150305 	move	$r5,$r24
1c001640:	53ffafff 	b	-84(0xfffffac) # 1c0015ec <printbase+0x64>
/home/wwt/work/perf_func/lib/printbase.c:10
1c001644:	0280b404 	addi.w	$r4,$r0,45(0x2d)
1c001648:	29803066 	st.w	$r6,$r3,12(0xc)
1c00164c:	29802065 	st.w	$r5,$r3,8(0x8)
1c001650:	57fe4fff 	bl	-436(0xffffe4c) # 1c00149c <putchar>
/home/wwt/work/perf_func/lib/printbase.c:9
1c001654:	00115c17 	sub.w	$r23,$r0,$r23
/home/wwt/work/perf_func/lib/printbase.c:10
1c001658:	28802065 	ld.w	$r5,$r3,8(0x8)
1c00165c:	28803066 	ld.w	$r6,$r3,12(0xc)
1c001660:	53ff4fff 	b	-180(0xfffff4c) # 1c0015ac <printbase+0x24>
/home/wwt/work/perf_func/lib/printbase.c:22
1c001664:	67ffbc05 	bge	$r0,$r5,-68(0x3ffbc) # 1c001620 <printbase+0x98>
1c001668:	00150018 	move	$r24,$r0
1c00166c:	53ff83ff 	b	-128(0xfffff80) # 1c0015ec <printbase+0x64>

1c001670 <strcmp>:
strcmp():
/home/wwt/work/perf_func/lib/strcmp.c:7
1c001670:	50000800 	b	8(0x8) # 1c001678 <strcmp+0x8>
/home/wwt/work/perf_func/lib/strcmp.c:8
1c001674:	58003980 	beq	$r12,$r0,56(0x38) # 1c0016ac <strcmp+0x3c>
/home/wwt/work/perf_func/lib/strcmp.c:7
1c001678:	028004a5 	addi.w	$r5,$r5,1(0x1)
1c00167c:	2800008c 	ld.b	$r12,$r4,0
1c001680:	283ffcad 	ld.b	$r13,$r5,-1(0xfff)
/home/wwt/work/perf_func/lib/strcmp.c:8
1c001684:	02800484 	addi.w	$r4,$r4,1(0x1)
/home/wwt/work/perf_func/lib/strcmp.c:7
1c001688:	5bffed8d 	beq	$r12,$r13,-20(0x3ffec) # 1c001674 <strcmp+0x4>
/home/wwt/work/perf_func/lib/strcmp.c:6
1c00168c:	02bfc063 	addi.w	$r3,$r3,-16(0xff0)
/home/wwt/work/perf_func/lib/strcmp.c:10
1c001690:	2980306c 	st.w	$r12,$r3,12(0xc)
1c001694:	2a00306c 	ld.bu	$r12,$r3,12(0xc)
1c001698:	2980306d 	st.w	$r13,$r3,12(0xc)
1c00169c:	2a003064 	ld.bu	$r4,$r3,12(0xc)
/home/wwt/work/perf_func/lib/strcmp.c:11
1c0016a0:	02804063 	addi.w	$r3,$r3,16(0x10)
/home/wwt/work/perf_func/lib/strcmp.c:10
1c0016a4:	00111184 	sub.w	$r4,$r12,$r4
/home/wwt/work/perf_func/lib/strcmp.c:11
1c0016a8:	4c000020 	jirl	$r0,$r1,0
/home/wwt/work/perf_func/lib/strcmp.c:9
1c0016ac:	00150004 	move	$r4,$r0
/home/wwt/work/perf_func/lib/strcmp.c:11
1c0016b0:	4c000020 	jirl	$r0,$r1,0

1c0016b4 <strlen>:
strlen():
/home/wwt/work/perf_func/lib/string.c:14
1c0016b4:	2800008c 	ld.b	$r12,$r4,0
1c0016b8:	58002180 	beq	$r12,$r0,32(0x20) # 1c0016d8 <strlen+0x24>
/home/wwt/work/perf_func/lib/string.c:13
1c0016bc:	0015000c 	move	$r12,$r0
/home/wwt/work/perf_func/lib/string.c:15
1c0016c0:	0280058c 	addi.w	$r12,$r12,1(0x1)
/home/wwt/work/perf_func/lib/string.c:14
1c0016c4:	0010308d 	add.w	$r13,$r4,$r12
1c0016c8:	280001ad 	ld.b	$r13,$r13,0
1c0016cc:	5ffff5a0 	bne	$r13,$r0,-12(0x3fff4) # 1c0016c0 <strlen+0xc>
/home/wwt/work/perf_func/lib/string.c:18
1c0016d0:	00150184 	move	$r4,$r12
1c0016d4:	4c000020 	jirl	$r0,$r1,0
/home/wwt/work/perf_func/lib/string.c:13
1c0016d8:	0015000c 	move	$r12,$r0
/home/wwt/work/perf_func/lib/string.c:18
1c0016dc:	00150184 	move	$r4,$r12
1c0016e0:	4c000020 	jirl	$r0,$r1,0

1c0016e4 <strnlen>:
strnlen():
/home/wwt/work/perf_func/lib/string.c:36
1c0016e4:	580030a0 	beq	$r5,$r0,48(0x30) # 1c001714 <strnlen+0x30>
1c0016e8:	2800008c 	ld.b	$r12,$r4,0
1c0016ec:	58002980 	beq	$r12,$r0,40(0x28) # 1c001714 <strnlen+0x30>
/home/wwt/work/perf_func/lib/string.c:35
1c0016f0:	0015000c 	move	$r12,$r0
1c0016f4:	50000c00 	b	12(0xc) # 1c001700 <strnlen+0x1c>
/home/wwt/work/perf_func/lib/string.c:36 (discriminator 1)
1c0016f8:	280001ad 	ld.b	$r13,$r13,0
1c0016fc:	580011a0 	beq	$r13,$r0,16(0x10) # 1c00170c <strnlen+0x28>
/home/wwt/work/perf_func/lib/string.c:37
1c001700:	0280058c 	addi.w	$r12,$r12,1(0x1)
/home/wwt/work/perf_func/lib/string.c:36
1c001704:	0010308d 	add.w	$r13,$r4,$r12
1c001708:	5ffff0ac 	bne	$r5,$r12,-16(0x3fff0) # 1c0016f8 <strnlen+0x14>
/home/wwt/work/perf_func/lib/string.c:40
1c00170c:	00150184 	move	$r4,$r12
1c001710:	4c000020 	jirl	$r0,$r1,0
/home/wwt/work/perf_func/lib/string.c:35
1c001714:	0015000c 	move	$r12,$r0
/home/wwt/work/perf_func/lib/string.c:40
1c001718:	00150184 	move	$r4,$r12
1c00171c:	4c000020 	jirl	$r0,$r1,0

1c001720 <strcpy>:
strcpy():
/home/wwt/work/perf_func/lib/string.c:59
1c001720:	0015008c 	move	$r12,$r4
/home/wwt/work/perf_func/lib/string.c:60
1c001724:	028004a5 	addi.w	$r5,$r5,1(0x1)
1c001728:	283ffcad 	ld.b	$r13,$r5,-1(0xfff)
1c00172c:	0280058c 	addi.w	$r12,$r12,1(0x1)
1c001730:	293ffd8d 	st.b	$r13,$r12,-1(0xfff)
1c001734:	5ffff1a0 	bne	$r13,$r0,-16(0x3fff0) # 1c001724 <strcpy+0x4>
/home/wwt/work/perf_func/lib/string.c:64
1c001738:	4c000020 	jirl	$r0,$r1,0

1c00173c <strncpy>:
strncpy():
/home/wwt/work/perf_func/lib/string.c:79
1c00173c:	580024c0 	beq	$r6,$r0,36(0x24) # 1c001760 <strncpy+0x24>
1c001740:	00101886 	add.w	$r6,$r4,$r6
/home/wwt/work/perf_func/lib/string.c:78
1c001744:	0015008d 	move	$r13,$r4
/home/wwt/work/perf_func/lib/string.c:80
1c001748:	280000ac 	ld.b	$r12,$r5,0
/home/wwt/work/perf_func/lib/string.c:83
1c00174c:	028005ad 	addi.w	$r13,$r13,1(0x1)
/home/wwt/work/perf_func/lib/string.c:80
1c001750:	293ffdac 	st.b	$r12,$r13,-1(0xfff)
/home/wwt/work/perf_func/lib/string.c:81
1c001754:	0012b00c 	sltu	$r12,$r0,$r12
1c001758:	001030a5 	add.w	$r5,$r5,$r12
/home/wwt/work/perf_func/lib/string.c:79
1c00175c:	5fffeda6 	bne	$r13,$r6,-20(0x3ffec) # 1c001748 <strncpy+0xc>
/home/wwt/work/perf_func/lib/string.c:86
1c001760:	4c000020 	jirl	$r0,$r1,0

1c001764 <strncmp>:
strncmp():
/home/wwt/work/perf_func/lib/string.c:101
1c001764:	58003cc0 	beq	$r6,$r0,60(0x3c) # 1c0017a0 <strncmp+0x3c>
1c001768:	2800008d 	ld.b	$r13,$r4,0
1c00176c:	280000ae 	ld.b	$r14,$r5,0
1c001770:	58003da0 	beq	$r13,$r0,60(0x3c) # 1c0017ac <strncmp+0x48>
1c001774:	5c0039ae 	bne	$r13,$r14,56(0x38) # 1c0017ac <strncmp+0x48>
1c001778:	001018a6 	add.w	$r6,$r5,$r6
1c00177c:	50001800 	b	24(0x18) # 1c001794 <strncmp+0x30>
/home/wwt/work/perf_func/lib/string.c:101 (discriminator 1)
1c001780:	2800008d 	ld.b	$r13,$r4,0
/home/wwt/work/perf_func/lib/string.c:101
1c001784:	580025a0 	beq	$r13,$r0,36(0x24) # 1c0017a8 <strncmp+0x44>
/home/wwt/work/perf_func/lib/string.c:101 (discriminator 2)
1c001788:	2800018e 	ld.b	$r14,$r12,0
1c00178c:	00150185 	move	$r5,$r12
/home/wwt/work/perf_func/lib/string.c:101
1c001790:	5c001dae 	bne	$r13,$r14,28(0x1c) # 1c0017ac <strncmp+0x48>
/home/wwt/work/perf_func/lib/string.c:102
1c001794:	028004ac 	addi.w	$r12,$r5,1(0x1)
1c001798:	02800484 	addi.w	$r4,$r4,1(0x1)
/home/wwt/work/perf_func/lib/string.c:101
1c00179c:	5fffe586 	bne	$r12,$r6,-28(0x3ffe4) # 1c001780 <strncmp+0x1c>
/home/wwt/work/perf_func/lib/string.c:104
1c0017a0:	00150004 	move	$r4,$r0
/home/wwt/work/perf_func/lib/string.c:105
1c0017a4:	4c000020 	jirl	$r0,$r1,0
1c0017a8:	280004ae 	ld.b	$r14,$r5,1(0x1)
/home/wwt/work/perf_func/lib/string.c:100
1c0017ac:	02bfc063 	addi.w	$r3,$r3,-16(0xff0)
/home/wwt/work/perf_func/lib/string.c:104
1c0017b0:	2980306d 	st.w	$r13,$r3,12(0xc)
1c0017b4:	2a00306d 	ld.bu	$r13,$r3,12(0xc)
1c0017b8:	2980306e 	st.w	$r14,$r3,12(0xc)
1c0017bc:	2a003064 	ld.bu	$r4,$r3,12(0xc)
/home/wwt/work/perf_func/lib/string.c:105
1c0017c0:	02804063 	addi.w	$r3,$r3,16(0x10)
/home/wwt/work/perf_func/lib/string.c:104
1c0017c4:	001111a4 	sub.w	$r4,$r13,$r4
/home/wwt/work/perf_func/lib/string.c:105
1c0017c8:	4c000020 	jirl	$r0,$r1,0

1c0017cc <strchr>:
strchr():
/home/wwt/work/perf_func/lib/string.c:117
1c0017cc:	2800008c 	ld.b	$r12,$r4,0
1c0017d0:	58001d80 	beq	$r12,$r0,28(0x1c) # 1c0017ec <strchr+0x20>
/home/wwt/work/perf_func/lib/string.c:118
1c0017d4:	5c000d85 	bne	$r12,$r5,12(0xc) # 1c0017e0 <strchr+0x14>
1c0017d8:	50001c00 	b	28(0x1c) # 1c0017f4 <strchr+0x28>
1c0017dc:	58001585 	beq	$r12,$r5,20(0x14) # 1c0017f0 <strchr+0x24>
/home/wwt/work/perf_func/lib/string.c:121
1c0017e0:	02800484 	addi.w	$r4,$r4,1(0x1)
/home/wwt/work/perf_func/lib/string.c:117
1c0017e4:	2800008c 	ld.b	$r12,$r4,0
1c0017e8:	5ffff580 	bne	$r12,$r0,-12(0x3fff4) # 1c0017dc <strchr+0x10>
/home/wwt/work/perf_func/lib/string.c:123
1c0017ec:	00150004 	move	$r4,$r0
/home/wwt/work/perf_func/lib/string.c:124
1c0017f0:	4c000020 	jirl	$r0,$r1,0
1c0017f4:	4c000020 	jirl	$r0,$r1,0

1c0017f8 <strfind>:
strfind():
/home/wwt/work/perf_func/lib/string.c:137
1c0017f8:	2800008c 	ld.b	$r12,$r4,0
1c0017fc:	58001d80 	beq	$r12,$r0,28(0x1c) # 1c001818 <strfind+0x20>
/home/wwt/work/perf_func/lib/string.c:138
1c001800:	5c000cac 	bne	$r5,$r12,12(0xc) # 1c00180c <strfind+0x14>
1c001804:	50001800 	b	24(0x18) # 1c00181c <strfind+0x24>
1c001808:	58001185 	beq	$r12,$r5,16(0x10) # 1c001818 <strfind+0x20>
/home/wwt/work/perf_func/lib/string.c:141
1c00180c:	02800484 	addi.w	$r4,$r4,1(0x1)
/home/wwt/work/perf_func/lib/string.c:137
1c001810:	2800008c 	ld.b	$r12,$r4,0
1c001814:	5ffff580 	bne	$r12,$r0,-12(0x3fff4) # 1c001808 <strfind+0x10>
/home/wwt/work/perf_func/lib/string.c:144
1c001818:	4c000020 	jirl	$r0,$r1,0
1c00181c:	4c000020 	jirl	$r0,$r1,0

1c001820 <memset>:
memset():
/home/wwt/work/perf_func/lib/string.c:251
1c001820:	580018c0 	beq	$r6,$r0,24(0x18) # 1c001838 <memset+0x18>
1c001824:	00101886 	add.w	$r6,$r4,$r6
/home/wwt/work/perf_func/lib/string.c:250
1c001828:	0015008c 	move	$r12,$r4
/home/wwt/work/perf_func/lib/string.c:252
1c00182c:	0280058c 	addi.w	$r12,$r12,1(0x1)
1c001830:	293ffd85 	st.b	$r5,$r12,-1(0xfff)
/home/wwt/work/perf_func/lib/string.c:251
1c001834:	5ffff986 	bne	$r12,$r6,-8(0x3fff8) # 1c00182c <memset+0xc>
/home/wwt/work/perf_func/lib/string.c:256
1c001838:	4c000020 	jirl	$r0,$r1,0

1c00183c <memcpy>:
memcpy():
/home/wwt/work/perf_func/lib/string.c:279
1c00183c:	580020c0 	beq	$r6,$r0,32(0x20) # 1c00185c <memcpy+0x20>
1c001840:	001018a6 	add.w	$r6,$r5,$r6
/home/wwt/work/perf_func/lib/string.c:278
1c001844:	0015008c 	move	$r12,$r4
/home/wwt/work/perf_func/lib/string.c:280
1c001848:	028004a5 	addi.w	$r5,$r5,1(0x1)
1c00184c:	283ffcad 	ld.b	$r13,$r5,-1(0xfff)
1c001850:	0280058c 	addi.w	$r12,$r12,1(0x1)
1c001854:	293ffd8d 	st.b	$r13,$r12,-1(0xfff)
/home/wwt/work/perf_func/lib/string.c:279
1c001858:	5ffff0a6 	bne	$r5,$r6,-16(0x3fff0) # 1c001848 <memcpy+0xc>
/home/wwt/work/perf_func/lib/string.c:284
1c00185c:	4c000020 	jirl	$r0,$r1,0

1c001860 <memmove>:
memmove():
/home/wwt/work/perf_func/lib/string.c:302
1c001860:	6c002ca4 	bgeu	$r5,$r4,44(0x2c) # 1c00188c <memmove+0x2c>
/home/wwt/work/perf_func/lib/string.c:302 (discriminator 1)
1c001864:	001018ac 	add.w	$r12,$r5,$r6
/home/wwt/work/perf_func/lib/string.c:302
1c001868:	6c00248c 	bgeu	$r4,$r12,36(0x24) # 1c00188c <memmove+0x2c>
/home/wwt/work/perf_func/lib/string.c:303
1c00186c:	0010188d 	add.w	$r13,$r4,$r6
/home/wwt/work/perf_func/lib/string.c:304
1c001870:	58003cc0 	beq	$r6,$r0,60(0x3c) # 1c0018ac <memmove+0x4c>
/home/wwt/work/perf_func/lib/string.c:305
1c001874:	02bffd8c 	addi.w	$r12,$r12,-1(0xfff)
1c001878:	2800018e 	ld.b	$r14,$r12,0
1c00187c:	02bffdad 	addi.w	$r13,$r13,-1(0xfff)
1c001880:	290001ae 	st.b	$r14,$r13,0
/home/wwt/work/perf_func/lib/string.c:304
1c001884:	5ffff0ac 	bne	$r5,$r12,-16(0x3fff0) # 1c001874 <memmove+0x14>
1c001888:	4c000020 	jirl	$r0,$r1,0
1c00188c:	001018ae 	add.w	$r14,$r5,$r6
/home/wwt/work/perf_func/lib/string.c:308
1c001890:	0015008c 	move	$r12,$r4
1c001894:	58001cc0 	beq	$r6,$r0,28(0x1c) # 1c0018b0 <memmove+0x50>
/home/wwt/work/perf_func/lib/string.c:309
1c001898:	028004a5 	addi.w	$r5,$r5,1(0x1)
1c00189c:	283ffcad 	ld.b	$r13,$r5,-1(0xfff)
1c0018a0:	0280058c 	addi.w	$r12,$r12,1(0x1)
1c0018a4:	293ffd8d 	st.b	$r13,$r12,-1(0xfff)
/home/wwt/work/perf_func/lib/string.c:308
1c0018a8:	5ffff0ae 	bne	$r5,$r14,-16(0x3fff0) # 1c001898 <memmove+0x38>
/home/wwt/work/perf_func/lib/string.c:314
1c0018ac:	4c000020 	jirl	$r0,$r1,0
1c0018b0:	4c000020 	jirl	$r0,$r1,0

1c0018b4 <memcmp>:
memcmp():
/home/wwt/work/perf_func/lib/string.c:334
1c0018b4:	580030c0 	beq	$r6,$r0,48(0x30) # 1c0018e4 <memcmp+0x30>
/home/wwt/work/perf_func/lib/string.c:335
1c0018b8:	2800008c 	ld.b	$r12,$r4,0
1c0018bc:	280000ad 	ld.b	$r13,$r5,0
1c0018c0:	00101886 	add.w	$r6,$r4,$r6
1c0018c4:	580015ac 	beq	$r13,$r12,20(0x14) # 1c0018d8 <memcmp+0x24>
1c0018c8:	50002400 	b	36(0x24) # 1c0018ec <memcmp+0x38>
1c0018cc:	2800008c 	ld.b	$r12,$r4,0
1c0018d0:	280000ad 	ld.b	$r13,$r5,0
1c0018d4:	5c00198d 	bne	$r12,$r13,24(0x18) # 1c0018ec <memcmp+0x38>
/home/wwt/work/perf_func/lib/string.c:338
1c0018d8:	02800484 	addi.w	$r4,$r4,1(0x1)
1c0018dc:	028004a5 	addi.w	$r5,$r5,1(0x1)
/home/wwt/work/perf_func/lib/string.c:334
1c0018e0:	5fffec86 	bne	$r4,$r6,-20(0x3ffec) # 1c0018cc <memcmp+0x18>
/home/wwt/work/perf_func/lib/string.c:340
1c0018e4:	00150004 	move	$r4,$r0
/home/wwt/work/perf_func/lib/string.c:341
1c0018e8:	4c000020 	jirl	$r0,$r1,0
/home/wwt/work/perf_func/lib/string.c:331
1c0018ec:	02bfc063 	addi.w	$r3,$r3,-16(0xff0)
/home/wwt/work/perf_func/lib/string.c:336
1c0018f0:	2980306c 	st.w	$r12,$r3,12(0xc)
1c0018f4:	2a00306c 	ld.bu	$r12,$r3,12(0xc)
1c0018f8:	2980306d 	st.w	$r13,$r3,12(0xc)
1c0018fc:	2a003064 	ld.bu	$r4,$r3,12(0xc)
/home/wwt/work/perf_func/lib/string.c:341
1c001900:	02804063 	addi.w	$r3,$r3,16(0x10)
/home/wwt/work/perf_func/lib/string.c:336
1c001904:	00111184 	sub.w	$r4,$r12,$r4
/home/wwt/work/perf_func/lib/string.c:341
1c001908:	4c000020 	jirl	$r0,$r1,0

1c00190c <bzero>:
memset():
/home/wwt/work/perf_func/lib/string.c:251
1c00190c:	580014a0 	beq	$r5,$r0,20(0x14) # 1c001920 <bzero+0x14>
1c001910:	00101485 	add.w	$r5,$r4,$r5
/home/wwt/work/perf_func/lib/string.c:252
1c001914:	02800484 	addi.w	$r4,$r4,1(0x1)
1c001918:	293ffc80 	st.b	$r0,$r4,-1(0xfff)
/home/wwt/work/perf_func/lib/string.c:251
1c00191c:	5ffff885 	bne	$r4,$r5,-8(0x3fff8) # 1c001914 <bzero+0x8>
bzero():
/home/wwt/work/perf_func/lib/string.c:345
1c001920:	4c000020 	jirl	$r0,$r1,0

1c001924 <get_count>:
get_count():
/home/wwt/work/perf_func/lib/time.c:18
1c001924:	02bfc063 	addi.w	$r3,$r3,-16(0xff0)
1c001928:	29803079 	st.w	$r25,$r3,12(0xc)
/home/wwt/work/perf_func/lib/time.c:7
1c00192c:	157f5fd9 	lu12i.w	$r25,-263426(0xbfafe)
1c001930:	28800324 	ld.w	$r4,$r25,0
/home/wwt/work/perf_func/lib/time.c:20
1c001934:	28803079 	ld.w	$r25,$r3,12(0xc)
1c001938:	02804063 	addi.w	$r3,$r3,16(0x10)
1c00193c:	4c000020 	jirl	$r0,$r1,0

1c001940 <_get_count>:
_get_count():
/home/wwt/work/perf_func/lib/time.c:20
1c001940:	53ffe7ff 	b	-28(0xfffffe4) # 1c001924 <get_count>

1c001944 <get_count_my>:
get_count_my():
/home/wwt/work/perf_func/lib/time.c:25
1c001944:	00006004 	rdtimel.w	$r4,$r0
/home/wwt/work/perf_func/lib/time.c:30
1c001948:	4c000020 	jirl	$r0,$r1,0

1c00194c <clock_gettime>:
clock_gettime():
/home/wwt/work/perf_func/lib/time.c:33
1c00194c:	02bfc063 	addi.w	$r3,$r3,-16(0xff0)
1c001950:	29803079 	st.w	$r25,$r3,12(0xc)
_get_count():
/home/wwt/work/perf_func/lib/time.c:7
1c001954:	157f5fd9 	lu12i.w	$r25,-263426(0xbfafe)
1c001958:	2880032f 	ld.w	$r15,$r25,0
clock_gettime():
/home/wwt/work/perf_func/lib/time.c:36
1c00195c:	0280280d 	addi.w	$r13,$r0,10(0xa)
1c001960:	001c35ed 	mul.w	$r13,$r15,$r13
/home/wwt/work/perf_func/lib/time.c:37
1c001964:	02819010 	addi.w	$r16,$r0,100(0x64)
/home/wwt/work/perf_func/lib/time.c:36
1c001968:	028fa00c 	addi.w	$r12,$r0,1000(0x3e8)
/home/wwt/work/perf_func/lib/time.c:37
1c00196c:	002141ee 	div.wu	$r14,$r15,$r16
1c001970:	5c000a00 	bne	$r16,$r0,8(0x8) # 1c001978 <clock_gettime+0x2c>
1c001974:	002a0007 	break	0x7
1c001978:	0021b1d1 	mod.wu	$r17,$r14,$r12
1c00197c:	5c000980 	bne	$r12,$r0,8(0x8) # 1c001984 <clock_gettime+0x38>
1c001980:	002a0007 	break	0x7
/home/wwt/work/perf_func/lib/time.c:38
1c001984:	1400030e 	lu12i.w	$r14,24(0x18)
1c001988:	039a81ce 	ori	$r14,$r14,0x6a0
1c00198c:	002139f0 	div.wu	$r16,$r15,$r14
1c001990:	5c0009c0 	bne	$r14,$r0,8(0x8) # 1c001998 <clock_gettime+0x4c>
1c001994:	002a0007 	break	0x7
1c001998:	0021b20e 	mod.wu	$r14,$r16,$r12
1c00199c:	5c000980 	bne	$r12,$r0,8(0x8) # 1c0019a4 <clock_gettime+0x58>
1c0019a0:	002a0007 	break	0x7
/home/wwt/work/perf_func/lib/time.c:37
1c0019a4:	298020b1 	st.w	$r17,$r5,8(0x8)
/home/wwt/work/perf_func/lib/time.c:38
1c0019a8:	298030ae 	st.w	$r14,$r5,12(0xc)
/home/wwt/work/perf_func/lib/time.c:39
1c0019ac:	298000a0 	st.w	$r0,$r5,0
/home/wwt/work/perf_func/lib/time.c:42
1c0019b0:	28803079 	ld.w	$r25,$r3,12(0xc)
1c0019b4:	00150004 	move	$r4,$r0
/home/wwt/work/perf_func/lib/time.c:36
1c0019b8:	0021b1ae 	mod.wu	$r14,$r13,$r12
1c0019bc:	5c000980 	bne	$r12,$r0,8(0x8) # 1c0019c4 <clock_gettime+0x78>
1c0019c0:	002a0007 	break	0x7
1c0019c4:	298010ae 	st.w	$r14,$r5,4(0x4)
/home/wwt/work/perf_func/lib/time.c:42
1c0019c8:	02804063 	addi.w	$r3,$r3,16(0x10)
1c0019cc:	4c000020 	jirl	$r0,$r1,0

1c0019d0 <get_clock>:
get_clock():
/home/wwt/work/perf_func/lib/time.c:42
1c0019d0:	53ff57ff 	b	-172(0xfffff54) # 1c001924 <get_count>

1c0019d4 <get_ns>:
get_ns():
/home/wwt/work/perf_func/lib/time.c:52
1c0019d4:	02bfc063 	addi.w	$r3,$r3,-16(0xff0)
1c0019d8:	29803079 	st.w	$r25,$r3,12(0xc)
_get_count():
/home/wwt/work/perf_func/lib/time.c:7
1c0019dc:	157f5fd9 	lu12i.w	$r25,-263426(0xbfafe)
1c0019e0:	28800324 	ld.w	$r4,$r25,0
get_ns():
/home/wwt/work/perf_func/lib/time.c:55
1c0019e4:	0280280c 	addi.w	$r12,$r0,10(0xa)
/home/wwt/work/perf_func/lib/time.c:57
1c0019e8:	28803079 	ld.w	$r25,$r3,12(0xc)
1c0019ec:	001c3084 	mul.w	$r4,$r4,$r12
1c0019f0:	02804063 	addi.w	$r3,$r3,16(0x10)
1c0019f4:	4c000020 	jirl	$r0,$r1,0

1c0019f8 <get_us>:
get_us():
/home/wwt/work/perf_func/lib/time.c:61
1c0019f8:	02bfc063 	addi.w	$r3,$r3,-16(0xff0)
1c0019fc:	29803079 	st.w	$r25,$r3,12(0xc)
_get_count():
/home/wwt/work/perf_func/lib/time.c:7
1c001a00:	157f5fd9 	lu12i.w	$r25,-263426(0xbfafe)
1c001a04:	28800324 	ld.w	$r4,$r25,0
get_us():
/home/wwt/work/perf_func/lib/time.c:64
1c001a08:	0281900c 	addi.w	$r12,$r0,100(0x64)
/home/wwt/work/perf_func/lib/time.c:66
1c001a0c:	28803079 	ld.w	$r25,$r3,12(0xc)
1c001a10:	0021308d 	div.wu	$r13,$r4,$r12
1c001a14:	5c000980 	bne	$r12,$r0,8(0x8) # 1c001a1c <get_us+0x24>
1c001a18:	002a0007 	break	0x7
1c001a1c:	001501a4 	move	$r4,$r13
1c001a20:	02804063 	addi.w	$r3,$r3,16(0x10)
1c001a24:	4c000020 	jirl	$r0,$r1,0

Disassembly of section .data:

1c001a28 <__CTOR_LIST__-0x760>:
1c001a28:	79726864 	0x79726864
1c001a2c:	6e6f7473 	bgeu	$r3,$r19,-102540(0x26f74) # 1bfe89a0 <data_size+0x1bfe81ec>
1c001a30:	65742065 	bge	$r3,$r5,95264(0x17420) # 1c018e50 <_stack+0x6ce8>
1c001a34:	62207473 	blt	$r3,$r19,-122764(0x22074) # 1bfe3aa8 <data_size+0x1bfe32f4>
1c001a38:	6e696765 	bgeu	$r27,$r5,-104092(0x26964) # 1bfe839c <data_size+0x1bfe7be8>
1c001a3c:	0000002e 	0x0000002e
1c001a40:	79726864 	0x79726864
1c001a44:	6e6f7473 	bgeu	$r3,$r19,-102540(0x26f74) # 1bfe89b8 <data_size+0x1bfe8204>
1c001a48:	41502065 	beqz	$r3,1396768(0x155020) # 1c156a68 <_stack+0x144900>
1c001a4c:	00215353 	div.wu	$r19,$r26,$r20
1c001a50:	79726864 	0x79726864
1c001a54:	6e6f7473 	bgeu	$r3,$r19,-102540(0x26f74) # 1bfe89c8 <data_size+0x1bfe8214>
1c001a58:	52452065 	b	26625312(0x1964520) # 1d965f78 <_stack+0x1953e10>
1c001a5c:	21524f52 	sc.w	$r18,$r26,21068(0x524c)
1c001a60:	00002121 	clo.d	$r1,$r9
1c001a64:	79726864 	0x79726864
1c001a68:	6e6f7473 	bgeu	$r3,$r19,-102540(0x26f74) # 1bfe89dc <data_size+0x1bfe8228>
1c001a6c:	54203a65 	bl	-107732936(0x9942038) # 15943aa4 <data_size+0x159432f0>
1c001a70:	6c61746f 	bgeu	$r3,$r15,24948(0x6174) # 1c007be4 <_heap+0x2ae4>
1c001a74:	756f4320 	0x756f4320
1c001a78:	5328746e 	b	29042804(0x1bb2874) # 1dbb42ec <_stack+0x1ba2184>
1c001a7c:	6320436f 	blt	$r27,$r15,-57280(0x32040) # 1bff3abc <data_size+0x1bff3308>
1c001a80:	746e756f 	0x746e756f
1c001a84:	203d2029 	ll.w	$r9,$r1,15648(0x3d20)
1c001a88:	78257830 	0x78257830
1c001a8c:	0000000a 	0x0000000a
1c001a90:	79726864 	0x79726864
1c001a94:	6e6f7473 	bgeu	$r3,$r19,-102540(0x26f74) # 1bfe8a08 <data_size+0x1bfe8254>
1c001a98:	54203a65 	bl	-107732936(0x9942038) # 15943ad0 <data_size+0x1594331c>
1c001a9c:	6c61746f 	bgeu	$r3,$r15,24948(0x6174) # 1c007c10 <_heap+0x2b10>
1c001aa0:	756f4320 	0x756f4320
1c001aa4:	4328746e 	beqz	$r3,3876980(0x3b2874) # 1c3b4318 <_stack+0x3a21b0>
1c001aa8:	63205550 	blt	$r10,$r16,-57260(0x32054) # 1bff3afc <data_size+0x1bff3348>
1c001aac:	746e756f 	0x746e756f
1c001ab0:	203d2029 	ll.w	$r9,$r1,15648(0x3d20)
1c001ab4:	78257830 	0x78257830
1c001ab8:	0000000a 	0x0000000a
1c001abc:	79726844 	0x79726844
1c001ac0:	6e6f7473 	bgeu	$r3,$r19,-102540(0x26f74) # 1bfe8a34 <data_size+0x1bfe8280>
1c001ac4:	65422065 	bge	$r3,$r5,82464(0x14220) # 1c015ce4 <_stack+0x3b7c>
1c001ac8:	6d68636e 	bgeu	$r27,$r14,92256(0x16860) # 1c018328 <_stack+0x61c0>
1c001acc:	2c6b7261 	vst	$vr1,$r19,-1316(0xadc)
1c001ad0:	72655620 	0x72655620
1c001ad4:	6e6f6973 	bgeu	$r11,$r19,-102552(0x26f68) # 1bfe8a3c <data_size+0x1bfe8288>
1c001ad8:	312e3220 	vstelm.w	$vr0,$r17,-464(0x230),0x3
1c001adc:	614c2820 	blt	$r1,$r0,85032(0x14c28) # 1c016704 <_stack+0x459c>
1c001ae0:	6175676e 	blt	$r27,$r14,95588(0x17564) # 1c019044 <_stack+0x6edc>
1c001ae4:	203a6567 	ll.w	$r7,$r11,14948(0x3a64)
1c001ae8:	00002943 	cto.d	$r3,$r10
1c001aec:	59524844 	beq	$r2,$r4,86600(0x15248) # 1c016d34 <_stack+0x4bcc>
1c001af0:	4e4f5453 	jirl	$r19,$r2,-110764(0x24f54)
1c001af4:	52502045 	b	18239520(0x1165020) # 1d166b14 <_stack+0x11549ac>
1c001af8:	4152474f 	beqz	$r26,4018756(0x3d5244) # 1c3d6d3c <_stack+0x3c4bd4>
1c001afc:	53202c4d 	b	20389932(0x137202c) # 1d373b28 <_stack+0x13619c0>
1c001b00:	20454d4f 	ll.w	$r15,$r10,17740(0x454c)
1c001b04:	49525453 	bceqz	$fcc2,-3321260(0x4d5254) # 1bcd6d58 <data_size+0x1bcd65a4>
1c001b08:	0000474e 	revh.d	$r14,$r26
1c001b0c:	59524844 	beq	$r2,$r4,86600(0x15248) # 1c016d54 <_stack+0x4bec>
1c001b10:	4e4f5453 	jirl	$r19,$r2,-110764(0x24f54)
1c001b14:	52502045 	b	18239520(0x1165020) # 1d166b34 <_stack+0x11549cc>
1c001b18:	4152474f 	beqz	$r26,4018756(0x3d5244) # 1c3d6d5c <_stack+0x3c4bf4>
1c001b1c:	31202c4d 	vstelm.w	$vr13,$r2,44(0x2c),0x0
1c001b20:	20545327 	ll.w	$r7,$r25,21584(0x5450)
1c001b24:	49525453 	bceqz	$fcc2,-3321260(0x4d5254) # 1bcd6d78 <data_size+0x1bcd65c4>
1c001b28:	0000474e 	revh.d	$r14,$r26
1c001b2c:	676f7250 	bge	$r18,$r16,-37008(0x36f70) # 1bff8a9c <data_size+0x1bff82e8>
1c001b30:	206d6172 	ll.w	$r18,$r11,28000(0x6d60)
1c001b34:	706d6f63 	0x706d6f63
1c001b38:	64656c69 	bge	$r3,$r9,25964(0x656c) # 1c0080a4 <_heap+0x2fa4>
1c001b3c:	74697720 	xvavgr.w	$xr0,$xr25,$xr29
1c001b40:	72272068 	0x72272068
1c001b44:	73696765 	vssrarni.w.d	$vr5,$vr27,0x19
1c001b48:	27726574 	stptr.d	$r20,$r11,29284(0x7264)
1c001b4c:	74746120 	xvmax.bu	$xr0,$xr9,$xr24
1c001b50:	75626972 	0x75626972
1c001b54:	00006574 	rdtimeh.w	$r20,$r11
1c001b58:	676f7250 	bge	$r18,$r16,-37008(0x36f70) # 1bff8ac8 <data_size+0x1bff8314>
1c001b5c:	206d6172 	ll.w	$r18,$r11,28000(0x6d60)
1c001b60:	706d6f63 	0x706d6f63
1c001b64:	64656c69 	bge	$r3,$r9,25964(0x656c) # 1c0080d0 <_heap+0x2fd0>
1c001b68:	74697720 	xvavgr.w	$xr0,$xr25,$xr29
1c001b6c:	74756f68 	xvmax.wu	$xr8,$xr27,$xr27
1c001b70:	65722720 	bge	$r25,$r0,94756(0x17224) # 1c018d94 <_stack+0x6c2c>
1c001b74:	74736967 	xvmin.w	$xr7,$xr11,$xr26
1c001b78:	20277265 	ll.w	$r5,$r19,10096(0x2770)
1c001b7c:	72747461 	0x72747461
1c001b80:	74756269 	xvmax.wu	$xr9,$xr19,$xr24
1c001b84:	00000065 	0x00000065
1c001b88:	63657845 	blt	$r2,$r5,-39560(0x36578) # 1bff8100 <data_size+0x1bff794c>
1c001b8c:	6f697475 	bgeu	$r3,$r21,-38540(0x36974) # 1bff8500 <data_size+0x1bff7d4c>
1c001b90:	7473206e 	xvmin.w	$xr14,$xr3,$xr8
1c001b94:	73747261 	0x73747261
1c001b98:	6425202c 	bge	$r1,$r12,9504(0x2520) # 1c0040b8 <Arr_2_Glob+0x18d8>
1c001b9c:	6e757220 	bgeu	$r17,$r0,-101008(0x27570) # 1bfe910c <data_size+0x1bfe8958>
1c001ba0:	68742073 	bltu	$r3,$r19,29728(0x7420) # 1c008fc0 <_heap+0x3ec0>
1c001ba4:	67756f72 	bge	$r27,$r18,-35476(0x3756c) # 1bff9110 <data_size+0x1bff895c>
1c001ba8:	68442068 	bltu	$r3,$r8,17440(0x4420) # 1c005fc8 <_heap+0xec8>
1c001bac:	74737972 	xvmin.w	$xr18,$xr11,$xr30
1c001bb0:	0a656e6f 	xvfmsub.d	$xr15,$xr19,$xr27,$xr10
1c001bb4:	00000000 	0x00000000
1c001bb8:	59524844 	beq	$r2,$r4,86600(0x15248) # 1c016e00 <_stack+0x4c98>
1c001bbc:	4e4f5453 	jirl	$r19,$r2,-110764(0x24f54)
1c001bc0:	52502045 	b	18239520(0x1165020) # 1d166be0 <_stack+0x1154a78>
1c001bc4:	4152474f 	beqz	$r26,4018756(0x3d5244) # 1c3d6e08 <_stack+0x3c4ca0>
1c001bc8:	32202c4d 	xvldrepl.w	$xr13,$r2,44(0x2c)
1c001bcc:	20444e27 	ll.w	$r7,$r17,17484(0x444c)
1c001bd0:	49525453 	bceqz	$fcc2,-3321260(0x4d5254) # 1bcd6e24 <data_size+0x1bcd6670>
1c001bd4:	0000474e 	revh.d	$r14,$r26
1c001bd8:	59524844 	beq	$r2,$r4,86600(0x15248) # 1c016e20 <_stack+0x4cb8>
1c001bdc:	4e4f5453 	jirl	$r19,$r2,-110764(0x24f54)
1c001be0:	52502045 	b	18239520(0x1165020) # 1d166c00 <_stack+0x1154a98>
1c001be4:	4152474f 	beqz	$r26,4018756(0x3d5244) # 1c3d6e28 <_stack+0x3c4cc0>
1c001be8:	33202c4d 	xvstelm.w	$xr13,$r2,44(0x2c),0x0
1c001bec:	20445227 	ll.w	$r7,$r17,17488(0x4450)
1c001bf0:	49525453 	bceqz	$fcc2,-3321260(0x4d5254) # 1bcd6e44 <data_size+0x1bcd6690>
1c001bf4:	0000474e 	revh.d	$r14,$r26
1c001bf8:	63657845 	blt	$r2,$r5,-39560(0x36578) # 1bff8170 <data_size+0x1bff79bc>
1c001bfc:	6f697475 	bgeu	$r3,$r21,-38540(0x36974) # 1bff8570 <data_size+0x1bff7dbc>
1c001c00:	6e65206e 	bgeu	$r3,$r14,-105184(0x26520) # 1bfe8120 <data_size+0x1bfe796c>
1c001c04:	00007364 	0x00007364
1c001c08:	616e6946 	blt	$r10,$r6,93800(0x16e68) # 1c018a70 <_stack+0x6908>
1c001c0c:	6176206c 	blt	$r3,$r12,95776(0x17620) # 1c01922c <_stack+0x70c4>
1c001c10:	7365756c 	vssrani.wu.d	$vr12,$vr11,0x1d
1c001c14:	20666f20 	ll.w	$r0,$r25,26220(0x666c)
1c001c18:	20656874 	ll.w	$r20,$r3,25960(0x6568)
1c001c1c:	69726176 	bltu	$r11,$r22,94816(0x17260) # 1c018e7c <_stack+0x6d14>
1c001c20:	656c6261 	bge	$r19,$r1,93280(0x16c60) # 1c018880 <_stack+0x6718>
1c001c24:	73752073 	0x73752073
1c001c28:	69206465 	bltu	$r3,$r5,73828(0x12064) # 1c013c8c <_stack+0x1b24>
1c001c2c:	6874206e 	bltu	$r3,$r14,29728(0x7420) # 1c00904c <_heap+0x3f4c>
1c001c30:	65622065 	bge	$r3,$r5,90656(0x16220) # 1c017e50 <_stack+0x5ce8>
1c001c34:	6d68636e 	bgeu	$r27,$r14,92256(0x16860) # 1c018494 <_stack+0x632c>
1c001c38:	3a6b7261 	0x3a6b7261
1c001c3c:	00000000 	0x00000000
1c001c40:	5f746e49 	bne	$r18,$r9,-35732(0x3746c) # 1bff90ac <data_size+0x1bff88f8>
1c001c44:	626f6c47 	blt	$r2,$r7,-102548(0x26f6c) # 1bfe8bb0 <data_size+0x1bfe83fc>
1c001c48:	2020203a 	ll.w	$r26,$r1,8224(0x2020)
1c001c4c:	20202020 	ll.w	$r0,$r1,8224(0x2020)
1c001c50:	20202020 	ll.w	$r0,$r1,8224(0x2020)
1c001c54:	0a642520 	xvfmsub.d	$xr0,$xr9,$xr9,$xr8
1c001c58:	00000000 	0x00000000
1c001c5c:	20202020 	ll.w	$r0,$r1,8224(0x2020)
1c001c60:	20202020 	ll.w	$r0,$r1,8224(0x2020)
1c001c64:	756f6873 	0x756f6873
1c001c68:	6220646c 	blt	$r3,$r12,-122780(0x22064) # 1bfe3ccc <data_size+0x1bfe3518>
1c001c6c:	20203a65 	ll.w	$r5,$r19,8248(0x2038)
1c001c70:	0a642520 	xvfmsub.d	$xr0,$xr9,$xr9,$xr8
1c001c74:	00000000 	0x00000000
1c001c78:	6c6f6f42 	bgeu	$r26,$r2,28524(0x6f6c) # 1c008be4 <_heap+0x3ae4>
1c001c7c:	6f6c475f 	bgeu	$r26,$r31,-37820(0x36c44) # 1bff88c0 <data_size+0x1bff810c>
1c001c80:	20203a62 	ll.w	$r2,$r19,8248(0x2038)
1c001c84:	20202020 	ll.w	$r0,$r1,8224(0x2020)
1c001c88:	20202020 	ll.w	$r0,$r1,8224(0x2020)
1c001c8c:	0a642520 	xvfmsub.d	$xr0,$xr9,$xr9,$xr8
1c001c90:	00000000 	0x00000000
1c001c94:	315f6843 	vstelm.h	$vr3,$r2,-76(0x1b4),0x7
1c001c98:	6f6c475f 	bgeu	$r26,$r31,-37820(0x36c44) # 1bff88dc <data_size+0x1bff8128>
1c001c9c:	20203a62 	ll.w	$r2,$r19,8248(0x2038)
1c001ca0:	20202020 	ll.w	$r0,$r1,8224(0x2020)
1c001ca4:	20202020 	ll.w	$r0,$r1,8224(0x2020)
1c001ca8:	0a632520 	xvfmsub.d	$xr0,$xr9,$xr9,$xr6
1c001cac:	00000000 	0x00000000
1c001cb0:	20202020 	ll.w	$r0,$r1,8224(0x2020)
1c001cb4:	20202020 	ll.w	$r0,$r1,8224(0x2020)
1c001cb8:	756f6873 	0x756f6873
1c001cbc:	6220646c 	blt	$r3,$r12,-122780(0x22064) # 1bfe3d20 <data_size+0x1bfe356c>
1c001cc0:	20203a65 	ll.w	$r5,$r19,8248(0x2038)
1c001cc4:	0a632520 	xvfmsub.d	$xr0,$xr9,$xr9,$xr6
1c001cc8:	00000000 	0x00000000
1c001ccc:	325f6843 	xvldrepl.h	$xr3,$r2,-76(0xfb4)
1c001cd0:	6f6c475f 	bgeu	$r26,$r31,-37820(0x36c44) # 1bff8914 <data_size+0x1bff8160>
1c001cd4:	20203a62 	ll.w	$r2,$r19,8248(0x2038)
1c001cd8:	20202020 	ll.w	$r0,$r1,8224(0x2020)
1c001cdc:	20202020 	ll.w	$r0,$r1,8224(0x2020)
1c001ce0:	0a632520 	xvfmsub.d	$xr0,$xr9,$xr9,$xr6
1c001ce4:	00000000 	0x00000000
1c001ce8:	5f727241 	bne	$r18,$r1,-36240(0x37270) # 1bff8f58 <data_size+0x1bff87a4>
1c001cec:	6c475f31 	bgeu	$r25,$r17,18268(0x475c) # 1c006448 <_heap+0x1348>
1c001cf0:	385b626f 	0x385b626f
1c001cf4:	20203a5d 	ll.w	$r29,$r18,8248(0x2038)
1c001cf8:	20202020 	ll.w	$r0,$r1,8224(0x2020)
1c001cfc:	0a642520 	xvfmsub.d	$xr0,$xr9,$xr9,$xr8
1c001d00:	00000000 	0x00000000
1c001d04:	5f727241 	bne	$r18,$r1,-36240(0x37270) # 1bff8f74 <data_size+0x1bff87c0>
1c001d08:	6c475f32 	bgeu	$r25,$r18,18268(0x475c) # 1c006464 <_heap+0x1364>
1c001d0c:	385b626f 	0x385b626f
1c001d10:	5d375b5d 	bne	$r26,$r29,79704(0x13758) # 1c015468 <_stack+0x3300>
1c001d14:	2020203a 	ll.w	$r26,$r1,8224(0x2020)
1c001d18:	0a642520 	xvfmsub.d	$xr0,$xr9,$xr9,$xr8
1c001d1c:	00000000 	0x00000000
1c001d20:	5f727450 	bne	$r2,$r16,-36236(0x37274) # 1bff8f94 <data_size+0x1bff87e0>
1c001d24:	626f6c47 	blt	$r2,$r7,-102548(0x26f6c) # 1bfe8c90 <data_size+0x1bfe84dc>
1c001d28:	00003e2d 	revb.d	$r13,$r17
1c001d2c:	74502020 	0x74502020
1c001d30:	6f435f72 	bgeu	$r27,$r18,-48292(0x3435c) # 1bff608c <data_size+0x1bff58d8>
1c001d34:	203a706d 	ll.w	$r13,$r3,14960(0x3a70)
1c001d38:	20202020 	ll.w	$r0,$r1,8224(0x2020)
1c001d3c:	20202020 	ll.w	$r0,$r1,8224(0x2020)
1c001d40:	0a642520 	xvfmsub.d	$xr0,$xr9,$xr9,$xr8
1c001d44:	00000000 	0x00000000
1c001d48:	20202020 	ll.w	$r0,$r1,8224(0x2020)
1c001d4c:	20202020 	ll.w	$r0,$r1,8224(0x2020)
1c001d50:	756f6873 	0x756f6873
1c001d54:	6220646c 	blt	$r3,$r12,-122780(0x22064) # 1bfe3db8 <data_size+0x1bfe3604>
1c001d58:	20203a65 	ll.w	$r5,$r19,8248(0x2038)
1c001d5c:	6d692820 	bgeu	$r1,$r0,92456(0x16928) # 1c018684 <_stack+0x651c>
1c001d60:	6d656c70 	bgeu	$r3,$r16,91500(0x1656c) # 1c0182cc <_stack+0x6164>
1c001d64:	61746e65 	blt	$r19,$r5,95340(0x1746c) # 1c0191d0 <_stack+0x7068>
1c001d68:	6e6f6974 	bgeu	$r11,$r20,-102552(0x26f68) # 1bfe8cd0 <data_size+0x1bfe851c>
1c001d6c:	7065642d 	vavg.w	$vr13,$vr1,$vr25
1c001d70:	65646e65 	bge	$r19,$r5,91244(0x1646c) # 1c0181dc <_stack+0x6074>
1c001d74:	0029746e 	0x0029746e
1c001d78:	69442020 	bltu	$r1,$r0,82976(0x14420) # 1c016198 <_stack+0x4030>
1c001d7c:	3a726373 	0x3a726373
1c001d80:	20202020 	ll.w	$r0,$r1,8224(0x2020)
1c001d84:	20202020 	ll.w	$r0,$r1,8224(0x2020)
1c001d88:	20202020 	ll.w	$r0,$r1,8224(0x2020)
1c001d8c:	0a642520 	xvfmsub.d	$xr0,$xr9,$xr9,$xr8
1c001d90:	00000000 	0x00000000
1c001d94:	6e452020 	bgeu	$r1,$r0,-113376(0x24520) # 1bfe62b4 <data_size+0x1bfe5b00>
1c001d98:	435f6d75 	beqz	$r11,-2662548(0x575f6c) # 1bd77d04 <data_size+0x1bd77550>
1c001d9c:	3a706d6f 	0x3a706d6f
1c001da0:	20202020 	ll.w	$r0,$r1,8224(0x2020)
1c001da4:	20202020 	ll.w	$r0,$r1,8224(0x2020)
1c001da8:	0a642520 	xvfmsub.d	$xr0,$xr9,$xr9,$xr8
1c001dac:	00000000 	0x00000000
1c001db0:	6e492020 	bgeu	$r1,$r0,-112352(0x24920) # 1bfe66d0 <data_size+0x1bfe5f1c>
1c001db4:	6f435f74 	bgeu	$r27,$r20,-48292(0x3435c) # 1bff6110 <data_size+0x1bff595c>
1c001db8:	203a706d 	ll.w	$r13,$r3,14960(0x3a70)
1c001dbc:	20202020 	ll.w	$r0,$r1,8224(0x2020)
1c001dc0:	20202020 	ll.w	$r0,$r1,8224(0x2020)
1c001dc4:	0a642520 	xvfmsub.d	$xr0,$xr9,$xr9,$xr8
1c001dc8:	00000000 	0x00000000
1c001dcc:	74532020 	0x74532020
1c001dd0:	6f435f72 	bgeu	$r27,$r18,-48292(0x3435c) # 1bff612c <data_size+0x1bff5978>
1c001dd4:	203a706d 	ll.w	$r13,$r3,14960(0x3a70)
1c001dd8:	20202020 	ll.w	$r0,$r1,8224(0x2020)
1c001ddc:	20202020 	ll.w	$r0,$r1,8224(0x2020)
1c001de0:	0a732520 	0x0a732520
1c001de4:	00000000 	0x00000000
1c001de8:	20202020 	ll.w	$r0,$r1,8224(0x2020)
1c001dec:	20202020 	ll.w	$r0,$r1,8224(0x2020)
1c001df0:	756f6873 	0x756f6873
1c001df4:	6220646c 	blt	$r3,$r12,-122780(0x22064) # 1bfe3e58 <data_size+0x1bfe36a4>
1c001df8:	20203a65 	ll.w	$r5,$r19,8248(0x2038)
1c001dfc:	52484420 	b	8538180(0x824844) # 1c826640 <_stack+0x8144d8>
1c001e00:	4f545359 	jirl	$r25,$r26,-43952(0x35450)
1c001e04:	5020454e 	b	87564356(0x5382044) # 21383e48 <_stack+0x5371ce0>
1c001e08:	52474f52 	b	-45463732(0xd4a474c) # 194a6554 <data_size+0x194a5da0>
1c001e0c:	202c4d41 	ll.w	$r1,$r10,11340(0x2c4c)
1c001e10:	454d4f53 	bnez	$r26,-3322548(0x4d4d4c) # 1bcd6b5c <data_size+0x1bcd63a8>
1c001e14:	52545320 	b	-58567600(0xc825450) # 18827264 <data_size+0x18826ab0>
1c001e18:	00474e49 	0x00474e49
1c001e1c:	7478654e 	0x7478654e
1c001e20:	7274505f 	0x7274505f
1c001e24:	6f6c475f 	bgeu	$r26,$r31,-37820(0x36c44) # 1bff8a68 <data_size+0x1bff82b4>
1c001e28:	003e2d62 	0x003e2d62
1c001e2c:	20202020 	ll.w	$r0,$r1,8224(0x2020)
1c001e30:	20202020 	ll.w	$r0,$r1,8224(0x2020)
1c001e34:	756f6873 	0x756f6873
1c001e38:	6220646c 	blt	$r3,$r12,-122780(0x22064) # 1bfe3e9c <data_size+0x1bfe36e8>
1c001e3c:	20203a65 	ll.w	$r5,$r19,8248(0x2038)
1c001e40:	6d692820 	bgeu	$r1,$r0,92456(0x16928) # 1c018768 <_stack+0x6600>
1c001e44:	6d656c70 	bgeu	$r3,$r16,91500(0x1656c) # 1c0183b0 <_stack+0x6248>
1c001e48:	61746e65 	blt	$r19,$r5,95340(0x1746c) # 1c0192b4 <_stack+0x714c>
1c001e4c:	6e6f6974 	bgeu	$r11,$r20,-102552(0x26f68) # 1bfe8db4 <data_size+0x1bfe8600>
1c001e50:	7065642d 	vavg.w	$vr13,$vr1,$vr25
1c001e54:	65646e65 	bge	$r19,$r5,91244(0x1646c) # 1c0182c0 <_stack+0x6158>
1c001e58:	2c29746e 	vld	$vr14,$r3,-1443(0xa5d)
1c001e5c:	6d617320 	bgeu	$r25,$r0,90480(0x16170) # 1c017fcc <_stack+0x5e64>
1c001e60:	73612065 	vssrani.w.d	$vr5,$vr3,0x8
1c001e64:	6f626120 	bgeu	$r9,$r0,-40352(0x36260) # 1bff80c4 <data_size+0x1bff7910>
1c001e68:	00006576 	rdtimeh.w	$r22,$r11
1c001e6c:	5f746e49 	bne	$r18,$r9,-35732(0x3746c) # 1bff92d8 <data_size+0x1bff8b24>
1c001e70:	6f4c5f31 	bgeu	$r25,$r17,-45988(0x34c5c) # 1bff6acc <data_size+0x1bff6318>
1c001e74:	20203a63 	ll.w	$r3,$r19,8248(0x2038)
1c001e78:	20202020 	ll.w	$r0,$r1,8224(0x2020)
1c001e7c:	20202020 	ll.w	$r0,$r1,8224(0x2020)
1c001e80:	0a642520 	xvfmsub.d	$xr0,$xr9,$xr9,$xr8
1c001e84:	00000000 	0x00000000
1c001e88:	5f746e49 	bne	$r18,$r9,-35732(0x3746c) # 1bff92f4 <data_size+0x1bff8b40>
1c001e8c:	6f4c5f32 	bgeu	$r25,$r18,-45988(0x34c5c) # 1bff6ae8 <data_size+0x1bff6334>
1c001e90:	20203a63 	ll.w	$r3,$r19,8248(0x2038)
1c001e94:	20202020 	ll.w	$r0,$r1,8224(0x2020)
1c001e98:	20202020 	ll.w	$r0,$r1,8224(0x2020)
1c001e9c:	0a642520 	xvfmsub.d	$xr0,$xr9,$xr9,$xr8
1c001ea0:	00000000 	0x00000000
1c001ea4:	5f746e49 	bne	$r18,$r9,-35732(0x3746c) # 1bff9310 <data_size+0x1bff8b5c>
1c001ea8:	6f4c5f33 	bgeu	$r25,$r19,-45988(0x34c5c) # 1bff6b04 <data_size+0x1bff6350>
1c001eac:	20203a63 	ll.w	$r3,$r19,8248(0x2038)
1c001eb0:	20202020 	ll.w	$r0,$r1,8224(0x2020)
1c001eb4:	20202020 	ll.w	$r0,$r1,8224(0x2020)
1c001eb8:	0a642520 	xvfmsub.d	$xr0,$xr9,$xr9,$xr8
1c001ebc:	00000000 	0x00000000
1c001ec0:	6d756e45 	bgeu	$r18,$r5,95596(0x1756c) # 1c01942c <_stack+0x72c4>
1c001ec4:	636f4c5f 	blt	$r2,$r31,-37044(0x36f4c) # 1bff8e10 <data_size+0x1bff865c>
1c001ec8:	2020203a 	ll.w	$r26,$r1,8224(0x2020)
1c001ecc:	20202020 	ll.w	$r0,$r1,8224(0x2020)
1c001ed0:	20202020 	ll.w	$r0,$r1,8224(0x2020)
1c001ed4:	0a642520 	xvfmsub.d	$xr0,$xr9,$xr9,$xr8
1c001ed8:	00000000 	0x00000000
1c001edc:	5f727453 	bne	$r2,$r19,-36236(0x37274) # 1bff9150 <data_size+0x1bff899c>
1c001ee0:	6f4c5f31 	bgeu	$r25,$r17,-45988(0x34c5c) # 1bff6b3c <data_size+0x1bff6388>
1c001ee4:	20203a63 	ll.w	$r3,$r19,8248(0x2038)
1c001ee8:	20202020 	ll.w	$r0,$r1,8224(0x2020)
1c001eec:	20202020 	ll.w	$r0,$r1,8224(0x2020)
1c001ef0:	0a732520 	0x0a732520
1c001ef4:	00000000 	0x00000000
1c001ef8:	20202020 	ll.w	$r0,$r1,8224(0x2020)
1c001efc:	20202020 	ll.w	$r0,$r1,8224(0x2020)
1c001f00:	756f6873 	0x756f6873
1c001f04:	6220646c 	blt	$r3,$r12,-122780(0x22064) # 1bfe3f68 <data_size+0x1bfe37b4>
1c001f08:	20203a65 	ll.w	$r5,$r19,8248(0x2038)
1c001f0c:	52484420 	b	8538180(0x824844) # 1c826750 <_stack+0x8145e8>
1c001f10:	4f545359 	jirl	$r25,$r26,-43952(0x35450)
1c001f14:	5020454e 	b	87564356(0x5382044) # 21383f58 <_stack+0x5371df0>
1c001f18:	52474f52 	b	-45463732(0xd4a474c) # 194a6664 <data_size+0x194a5eb0>
1c001f1c:	202c4d41 	ll.w	$r1,$r10,11340(0x2c4c)
1c001f20:	54532731 	bl	-54242524(0xcc45324) # 18c47244 <data_size+0x18c46a90>
1c001f24:	52545320 	b	-58567600(0xc825450) # 18827374 <data_size+0x18826bc0>
1c001f28:	00474e49 	0x00474e49
1c001f2c:	5f727453 	bne	$r2,$r19,-36236(0x37274) # 1bff91a0 <data_size+0x1bff89ec>
1c001f30:	6f4c5f32 	bgeu	$r25,$r18,-45988(0x34c5c) # 1bff6b8c <data_size+0x1bff63d8>
1c001f34:	20203a63 	ll.w	$r3,$r19,8248(0x2038)
1c001f38:	20202020 	ll.w	$r0,$r1,8224(0x2020)
1c001f3c:	20202020 	ll.w	$r0,$r1,8224(0x2020)
1c001f40:	0a732520 	0x0a732520
1c001f44:	00000000 	0x00000000
1c001f48:	20202020 	ll.w	$r0,$r1,8224(0x2020)
1c001f4c:	20202020 	ll.w	$r0,$r1,8224(0x2020)
1c001f50:	756f6873 	0x756f6873
1c001f54:	6220646c 	blt	$r3,$r12,-122780(0x22064) # 1bfe3fb8 <data_size+0x1bfe3804>
1c001f58:	20203a65 	ll.w	$r5,$r19,8248(0x2038)
1c001f5c:	52484420 	b	8538180(0x824844) # 1c8267a0 <_stack+0x814638>
1c001f60:	4f545359 	jirl	$r25,$r26,-43952(0x35450)
1c001f64:	5020454e 	b	87564356(0x5382044) # 21383fa8 <_stack+0x5371e40>
1c001f68:	52474f52 	b	-45463732(0xd4a474c) # 194a66b4 <data_size+0x194a5f00>
1c001f6c:	202c4d41 	ll.w	$r1,$r10,11340(0x2c4c)
1c001f70:	444e2732 	bnez	$r25,-3650012(0x484e24) # 1bc86d94 <data_size+0x1bc865e0>
1c001f74:	52545320 	b	-58567600(0xc825450) # 188273c4 <data_size+0x18826c10>
1c001f78:	00474e49 	0x00474e49
1c001f7c:	69676542 	bltu	$r10,$r2,92004(0x16764) # 1c0186e0 <_stack+0x6578>
1c001f80:	736e206e 	vssrarni.du.q	$vr14,$vr3,0x8
1c001f84:	6c25203a 	bgeu	$r1,$r26,9504(0x2520) # 1c0044a4 <Arr_2_Glob+0x1cc4>
1c001f88:	00000a75 	0x00000a75
1c001f8c:	20646e45 	ll.w	$r5,$r18,25708(0x646c)
1c001f90:	203a736e 	ll.w	$r14,$r27,14960(0x3a70)
1c001f94:	0a756c25 	0x0a756c25
1c001f98:	00000000 	0x00000000
1c001f9c:	61746f54 	blt	$r26,$r20,95340(0x1746c) # 1c019408 <_stack+0x72a0>
1c001fa0:	736e206c 	vssrarni.du.q	$vr12,$vr3,0x8
1c001fa4:	6c25203a 	bgeu	$r1,$r26,9504(0x2520) # 1c0044c4 <Arr_2_Glob+0x1ce4>
1c001fa8:	00000a75 	0x00000a75
1c001fac:	7361654d 	vssrani.w.d	$vr13,$vr10,0x19
1c001fb0:	64657275 	bge	$r19,$r21,25968(0x6570) # 1c008520 <_heap+0x3420>
1c001fb4:	6d697420 	bgeu	$r1,$r0,92532(0x16974) # 1c018928 <_stack+0x67c0>
1c001fb8:	6f742065 	bgeu	$r3,$r5,-35808(0x37420) # 1bff93d8 <data_size+0x1bff8c24>
1c001fbc:	6d73206f 	bgeu	$r3,$r15,95008(0x17320) # 1c0192dc <_stack+0x7174>
1c001fc0:	206c6c61 	ll.w	$r1,$r3,27756(0x6c6c)
1c001fc4:	6f206f74 	bgeu	$r27,$r20,-57236(0x3206c) # 1bff4030 <data_size+0x1bff387c>
1c001fc8:	69617462 	bltu	$r3,$r2,90484(0x16174) # 1c01813c <_stack+0x5fd4>
1c001fcc:	656d206e 	bge	$r3,$r14,93472(0x16d20) # 1c018cec <_stack+0x6b84>
1c001fd0:	6e696e61 	bgeu	$r19,$r1,-104084(0x2696c) # 1bfe893c <data_size+0x1bfe8188>
1c001fd4:	6c756667 	bgeu	$r19,$r7,30052(0x7564) # 1c009538 <_heap+0x4438>
1c001fd8:	73657220 	vssrani.wu.d	$vr0,$vr17,0x1c
1c001fdc:	73746c75 	0x73746c75
1c001fe0:	00000000 	0x00000000
1c001fe4:	61656c50 	blt	$r2,$r16,91500(0x1656c) # 1c018550 <_stack+0x63e8>
1c001fe8:	69206573 	bltu	$r11,$r19,73828(0x12064) # 1c01404c <_stack+0x1ee4>
1c001fec:	6572636e 	bge	$r27,$r14,94816(0x17260) # 1c01924c <_stack+0x70e4>
1c001ff0:	20657361 	ll.w	$r1,$r27,25968(0x6570)
1c001ff4:	626d756e 	blt	$r11,$r14,-103052(0x26d74) # 1bfe8d68 <data_size+0x1bfe85b4>
1c001ff8:	6f207265 	bgeu	$r19,$r5,-57232(0x32070) # 1bff4068 <data_size+0x1bff38b4>
1c001ffc:	75722066 	0x75722066
1c002000:	0000736e 	0x0000736e
1c002004:	79726844 	0x79726844
1c002008:	6e6f7473 	bgeu	$r3,$r19,-102540(0x26f74) # 1bfe8f7c <data_size+0x1bfe87c8>
1c00200c:	70207365 	vsubwev.h.b	$vr5,$vr27,$vr28
1c002010:	6d207265 	bgeu	$r19,$r5,73840(0x12070) # 1c014080 <_stack+0x1f18>
1c002014:	20203a73 	ll.w	$r19,$r19,8248(0x2038)
1c002018:	20202020 	ll.w	$r0,$r1,8224(0x2020)
1c00201c:	20202020 	ll.w	$r0,$r1,8224(0x2020)
1c002020:	20202020 	ll.w	$r0,$r1,8224(0x2020)
1c002024:	20202020 	ll.w	$r0,$r1,8224(0x2020)
1c002028:	20202020 	ll.w	$r0,$r1,8224(0x2020)
1c00202c:	00000000 	0x00000000
1c002030:	20753125 	ll.w	$r5,$r9,30000(0x7530)
1c002034:	0000000a 	0x0000000a
1c002038:	1c001480 	pcaddu12i	$r0,164(0xa4)
1c00203c:	1c001490 	pcaddu12i	$r16,164(0xa4)
1c002040:	1c001490 	pcaddu12i	$r16,164(0xa4)
1c002044:	1c001490 	pcaddu12i	$r16,164(0xa4)
1c002048:	1c001490 	pcaddu12i	$r16,164(0xa4)
1c00204c:	1c001490 	pcaddu12i	$r16,164(0xa4)
1c002050:	1c001490 	pcaddu12i	$r16,164(0xa4)
1c002054:	1c001490 	pcaddu12i	$r16,164(0xa4)
1c002058:	1c001490 	pcaddu12i	$r16,164(0xa4)
1c00205c:	1c001490 	pcaddu12i	$r16,164(0xa4)
1c002060:	1c001490 	pcaddu12i	$r16,164(0xa4)
1c002064:	1c001364 	pcaddu12i	$r4,155(0x9b)
1c002068:	1c001370 	pcaddu12i	$r16,155(0x9b)
1c00206c:	1c001370 	pcaddu12i	$r16,155(0x9b)
1c002070:	1c001370 	pcaddu12i	$r16,155(0x9b)
1c002074:	1c001370 	pcaddu12i	$r16,155(0x9b)
1c002078:	1c001370 	pcaddu12i	$r16,155(0x9b)
1c00207c:	1c001370 	pcaddu12i	$r16,155(0x9b)
1c002080:	1c001370 	pcaddu12i	$r16,155(0x9b)
1c002084:	1c001370 	pcaddu12i	$r16,155(0x9b)
1c002088:	1c001370 	pcaddu12i	$r16,155(0x9b)
1c00208c:	1c001490 	pcaddu12i	$r16,164(0xa4)
1c002090:	1c001490 	pcaddu12i	$r16,164(0xa4)
1c002094:	1c001490 	pcaddu12i	$r16,164(0xa4)
1c002098:	1c001490 	pcaddu12i	$r16,164(0xa4)
1c00209c:	1c001490 	pcaddu12i	$r16,164(0xa4)
1c0020a0:	1c001490 	pcaddu12i	$r16,164(0xa4)
1c0020a4:	1c001490 	pcaddu12i	$r16,164(0xa4)
1c0020a8:	1c001490 	pcaddu12i	$r16,164(0xa4)
1c0020ac:	1c001490 	pcaddu12i	$r16,164(0xa4)
1c0020b0:	1c001490 	pcaddu12i	$r16,164(0xa4)
1c0020b4:	1c001490 	pcaddu12i	$r16,164(0xa4)
1c0020b8:	1c001490 	pcaddu12i	$r16,164(0xa4)
1c0020bc:	1c001490 	pcaddu12i	$r16,164(0xa4)
1c0020c0:	1c001490 	pcaddu12i	$r16,164(0xa4)
1c0020c4:	1c001490 	pcaddu12i	$r16,164(0xa4)
1c0020c8:	1c001490 	pcaddu12i	$r16,164(0xa4)
1c0020cc:	1c001490 	pcaddu12i	$r16,164(0xa4)
1c0020d0:	1c001490 	pcaddu12i	$r16,164(0xa4)
1c0020d4:	1c001490 	pcaddu12i	$r16,164(0xa4)
1c0020d8:	1c001490 	pcaddu12i	$r16,164(0xa4)
1c0020dc:	1c001490 	pcaddu12i	$r16,164(0xa4)
1c0020e0:	1c001490 	pcaddu12i	$r16,164(0xa4)
1c0020e4:	1c001490 	pcaddu12i	$r16,164(0xa4)
1c0020e8:	1c001490 	pcaddu12i	$r16,164(0xa4)
1c0020ec:	1c001490 	pcaddu12i	$r16,164(0xa4)
1c0020f0:	1c001490 	pcaddu12i	$r16,164(0xa4)
1c0020f4:	1c001490 	pcaddu12i	$r16,164(0xa4)
1c0020f8:	1c001490 	pcaddu12i	$r16,164(0xa4)
1c0020fc:	1c001490 	pcaddu12i	$r16,164(0xa4)
1c002100:	1c001490 	pcaddu12i	$r16,164(0xa4)
1c002104:	1c001490 	pcaddu12i	$r16,164(0xa4)
1c002108:	1c001490 	pcaddu12i	$r16,164(0xa4)
1c00210c:	1c001490 	pcaddu12i	$r16,164(0xa4)
1c002110:	1c001490 	pcaddu12i	$r16,164(0xa4)
1c002114:	1c001490 	pcaddu12i	$r16,164(0xa4)
1c002118:	1c001490 	pcaddu12i	$r16,164(0xa4)
1c00211c:	1c001490 	pcaddu12i	$r16,164(0xa4)
1c002120:	1c001490 	pcaddu12i	$r16,164(0xa4)
1c002124:	1c001490 	pcaddu12i	$r16,164(0xa4)
1c002128:	1c001490 	pcaddu12i	$r16,164(0xa4)
1c00212c:	1c0013b0 	pcaddu12i	$r16,157(0x9d)
1c002130:	1c0013cc 	pcaddu12i	$r12,158(0x9e)
1c002134:	1c0013e0 	pcaddu12i	$r0,159(0x9f)
1c002138:	1c001490 	pcaddu12i	$r16,164(0xa4)
1c00213c:	1c001490 	pcaddu12i	$r16,164(0xa4)
1c002140:	1c001490 	pcaddu12i	$r16,164(0xa4)
1c002144:	1c001490 	pcaddu12i	$r16,164(0xa4)
1c002148:	1c001490 	pcaddu12i	$r16,164(0xa4)
1c00214c:	1c001490 	pcaddu12i	$r16,164(0xa4)
1c002150:	1c001490 	pcaddu12i	$r16,164(0xa4)
1c002154:	1c0013fc 	pcaddu12i	$r28,159(0x9f)
1c002158:	1c001490 	pcaddu12i	$r16,164(0xa4)
1c00215c:	1c001490 	pcaddu12i	$r16,164(0xa4)
1c002160:	1c001418 	pcaddu12i	$r24,160(0xa0)
1c002164:	1c001434 	pcaddu12i	$r20,161(0xa1)
1c002168:	1c001490 	pcaddu12i	$r16,164(0xa4)
1c00216c:	1c001490 	pcaddu12i	$r16,164(0xa4)
1c002170:	1c001450 	pcaddu12i	$r16,162(0xa2)
1c002174:	1c001490 	pcaddu12i	$r16,164(0xa4)
1c002178:	1c001464 	pcaddu12i	$r4,163(0xa3)
1c00217c:	1c001490 	pcaddu12i	$r16,164(0xa4)
1c002180:	1c001490 	pcaddu12i	$r16,164(0xa4)
1c002184:	1c001434 	pcaddu12i	$r20,161(0xa1)

1c002188 <__CTOR_LIST__>:
	...

1c002190 <__CTOR_END__>:
	...

1c002198 <__DTOR_END__>:
__DTOR_END__():
1c002198:	00000000 	0x00000000
1c00219c:	1c0027d0 	pcaddu12i	$r16,318(0x13e)
1c0021a0:	1c0027d4 	pcaddu12i	$r20,318(0x13e)
1c0021a4:	1c0027d8 	pcaddu12i	$r24,318(0x13e)
1c0021a8:	1c0027dc 	pcaddu12i	$r28,318(0x13e)
1c0021ac:	1c0027e0 	pcaddu12i	$r0,319(0x13f)
1c0021b0:	1c004ef0 	pcaddu12i	$r16,631(0x277)
1c0021b4:	1c004f20 	pcaddu12i	$r0,633(0x279)
1c0021b8:	1c004f24 	pcaddu12i	$r4,633(0x279)
1c0021bc:	1c004f28 	pcaddu12i	$r8,633(0x279)
1c0021c0:	1c004f2c 	pcaddu12i	$r12,633(0x279)
1c0021c4:	1c004f2d 	pcaddu12i	$r13,633(0x279)
1c0021c8:	1c004f30 	pcaddu12i	$r16,633(0x279)
1c0021cc:	1c004f34 	pcaddu12i	$r20,633(0x279)
1c0021d0:	1c004f64 	pcaddu12i	$r4,635(0x27b)
1c0021d4:	1c012168 	pcaddu12i	$r8,2315(0x90b)
1c0021d8:	1c00502c 	pcaddu12i	$r12,641(0x281)

Disassembly of section .eh_frame:

1c0021dc <.eh_frame>:
1c0021dc:	0000000c 	0x0000000c
1c0021e0:	00000000 	0x00000000
1c0021e4:	7c010003 	0x7c010003
1c0021e8:	00030c01 	0x00030c01
1c0021ec:	00000050 	0x00000050
1c0021f0:	00000014 	0x00000014
1c0021f4:	1c0003a0 	pcaddu12i	$r0,29(0x1d)
1c0021f8:	00000168 	0x00000168
1c0021fc:	00000404 	0x00000404
1c002200:	04200e00 	csrxchg	$r0,$r16,0x803
1c002204:	00000018 	0x00000018
1c002208:	04990181 	csrxchg	$r1,$r12,0x2640
1c00220c:	0297059a 	addi.w	$r26,$r12,1473(0x5c1)
1c002210:	c4040398 	0xc4040398
1c002214:	0a000000 	0x0a000000
1c002218:	000404c1 	alsl.w	$r1,$r6,$r1,0x1
1c00221c:	04d70000 	csrrd	$r0,0x35c0
1c002220:	00000004 	0x00000004
1c002224:	000404d8 	alsl.w	$r24,$r6,$r1,0x1
1c002228:	04d90000 	csrrd	$r0,0x3640
1c00222c:	00000008 	0x00000008
1c002230:	000c04da 	bytepick.d	$r26,$r6,$r1,0x0
1c002234:	000e0000 	bytepick.d	$r0,$r0,$r0,0x4
1c002238:	00000404 	0x00000404
1c00223c:	00000b00 	0x00000b00
1c002240:	000000d0 	0x000000d0
1c002244:	00000068 	0x00000068
1c002248:	1c000510 	pcaddu12i	$r16,40(0x28)
1c00224c:	000009fc 	0x000009fc
1c002250:	00000404 	0x00000404
1c002254:	01900e00 	0x01900e00
1c002258:	00003404 	revb.4h	$r4,$r0
1c00225c:	9c018100 	0x9c018100
1c002260:	97029608 	0x97029608
1c002264:	99049803 	0x99049803
1c002268:	9b069a05 	0x9b069a05
1c00226c:	9e099d07 	0x9e099d07
1c002270:	040b9f0a 	csrxchg	$r10,$r24,0x2e7
1c002274:	00000820 	0x00000820
1c002278:	0404c10a 	csrxchg	$r10,$r8,0x130
1c00227c:	d6000000 	0xd6000000
1c002280:	00000804 	0x00000804
1c002284:	0404d700 	csrxchg	$r0,$r24,0x135
1c002288:	d8000000 	0xd8000000
1c00228c:	00000404 	0x00000404
1c002290:	0404d900 	csrxchg	$r0,$r8,0x136
1c002294:	da000000 	0xda000000
1c002298:	00000404 	0x00000404
1c00229c:	0404db00 	csrxchg	$r0,$r24,0x136
1c0022a0:	dc000000 	0xdc000000
1c0022a4:	00000404 	0x00000404
1c0022a8:	0404dd00 	csrxchg	$r0,$r8,0x137
1c0022ac:	de000000 	0xde000000
1c0022b0:	00000404 	0x00000404
1c0022b4:	0404df00 	csrxchg	$r0,$r24,0x137
1c0022b8:	0e000000 	0x0e000000
1c0022bc:	00040400 	alsl.w	$r0,$r0,$r1,0x1
1c0022c0:	040b0000 	csrrd	$r0,0x2c0
1c0022c4:	00000024 	0x00000024
1c0022c8:	0404c10a 	csrxchg	$r10,$r8,0x130
1c0022cc:	d6000000 	0xd6000000
1c0022d0:	00000804 	0x00000804
1c0022d4:	0404d700 	csrxchg	$r0,$r24,0x135
1c0022d8:	d8000000 	0xd8000000
1c0022dc:	00000404 	0x00000404
1c0022e0:	0404d900 	csrxchg	$r0,$r8,0x136
1c0022e4:	da000000 	0xda000000
1c0022e8:	00000404 	0x00000404
1c0022ec:	0404db00 	csrxchg	$r0,$r24,0x136
1c0022f0:	dc000000 	0xdc000000
1c0022f4:	00000404 	0x00000404
1c0022f8:	0404dd00 	csrxchg	$r0,$r8,0x137
1c0022fc:	de000000 	0xde000000
1c002300:	00000404 	0x00000404
1c002304:	0404df00 	csrxchg	$r0,$r24,0x137
1c002308:	0e000000 	0x0e000000
1c00230c:	00040400 	alsl.w	$r0,$r0,$r1,0x1
1c002310:	000b0000 	0x000b0000
1c002314:	00000084 	0x00000084
1c002318:	0000013c 	0x0000013c
1c00231c:	1c000f10 	pcaddu12i	$r16,120(0x78)
1c002320:	000000f0 	0x000000f0
1c002324:	00000404 	0x00000404
1c002328:	04200e00 	csrxchg	$r0,$r16,0x803
1c00232c:	00000004 	0x00000004
1c002330:	10040499 	addu16i.d	$r25,$r4,257(0x101)
1c002334:	97000000 	0x97000000
1c002338:	04059a02 	csrxchg	$r2,$r16,0x166
1c00233c:	00000010 	0x00000010
1c002340:	10040398 	addu16i.d	$r24,$r28,256(0x100)
1c002344:	81000000 	0x81000000
1c002348:	00580401 	0x00580401
1c00234c:	c10a0000 	0xc10a0000
1c002350:	00000404 	0x00000404
1c002354:	0404d700 	csrxchg	$r0,$r24,0x135
1c002358:	d8000000 	0xd8000000
1c00235c:	00000404 	0x00000404
1c002360:	0404d900 	csrxchg	$r0,$r8,0x136
1c002364:	da000000 	0xda000000
1c002368:	00000404 	0x00000404
1c00236c:	04000e00 	csrxchg	$r0,$r16,0x3
1c002370:	00000004 	0x00000004
1c002374:	0020040b 	div.w	$r11,$r0,$r1
1c002378:	04c10000 	csrrd	$r0,0x3040
1c00237c:	00000008 	0x00000008
1c002380:	000404d8 	alsl.w	$r24,$r6,$r1,0x1
1c002384:	04d90000 	csrrd	$r0,0x3640
1c002388:	00000008 	0x00000008
1c00238c:	000804da 	bytepick.w	$r26,$r6,$r1,0x0
1c002390:	04d70000 	csrrd	$r0,0x35c0
1c002394:	00000008 	0x00000008
1c002398:	0000000e 	0x0000000e
1c00239c:	0000000c 	0x0000000c
1c0023a0:	000001c4 	0x000001c4
1c0023a4:	1c001000 	pcaddu12i	$r0,128(0x80)
1c0023a8:	00000038 	0x00000038
1c0023ac:	0000000c 	0x0000000c
1c0023b0:	000001d4 	0x000001d4
1c0023b4:	1c001040 	pcaddu12i	$r0,130(0x82)
1c0023b8:	00000034 	0x00000034
1c0023bc:	0000000c 	0x0000000c
1c0023c0:	000001e4 	0x000001e4
1c0023c4:	1c001080 	pcaddu12i	$r0,132(0x84)
1c0023c8:	0000003c 	0x0000003c
1c0023cc:	0000000c 	0x0000000c
1c0023d0:	000001f4 	0x000001f4
1c0023d4:	1c0010c0 	pcaddu12i	$r0,134(0x86)
1c0023d8:	00000020 	0x00000020
1c0023dc:	0000000c 	0x0000000c
1c0023e0:	00000204 	0x00000204
1c0023e4:	1c0010e0 	pcaddu12i	$r0,135(0x87)
1c0023e8:	0000005c 	0x0000005c
1c0023ec:	0000000c 	0x0000000c
1c0023f0:	00000214 	0x00000214
1c0023f4:	1c001140 	pcaddu12i	$r0,138(0x8a)
1c0023f8:	00000014 	0x00000014
1c0023fc:	0000000c 	0x0000000c
1c002400:	00000224 	0x00000224
1c002404:	1c001160 	pcaddu12i	$r0,139(0x8b)
1c002408:	00000070 	0x00000070
1c00240c:	00000028 	0x00000028
1c002410:	00000234 	0x00000234
1c002414:	1c0011d0 	pcaddu12i	$r16,142(0x8e)
1c002418:	0000003c 	0x0000003c
1c00241c:	00000404 	0x00000404
1c002420:	04100e00 	csrxchg	$r0,$r16,0x403
1c002424:	0000001c 	0x0000001c
1c002428:	04000e0a 	csrxchg	$r10,$r16,0x3
1c00242c:	00000004 	0x00000004
1c002430:	0014040b 	nor	$r11,$r0,$r1
1c002434:	000e0000 	bytepick.d	$r0,$r0,$r0,0x4
1c002438:	00000028 	0x00000028
1c00243c:	00000260 	0x00000260
1c002440:	1c001210 	pcaddu12i	$r16,144(0x90)
1c002444:	00000048 	0x00000048
1c002448:	00001004 	clo.w	$r4,$r0
1c00244c:	04100e00 	csrxchg	$r0,$r16,0x403
1c002450:	00000004 	0x00000004
1c002454:	24040181 	ldptr.w	$r1,$r12,1024(0x400)
1c002458:	c1000000 	0xc1000000
1c00245c:	00000804 	0x00000804
1c002460:	00000e00 	0x00000e00
1c002464:	0000000c 	0x0000000c
1c002468:	0000028c 	0x0000028c
1c00246c:	1c001260 	pcaddu12i	$r0,147(0x93)
1c002470:	0000000c 	0x0000000c
1c002474:	00000060 	0x00000060
1c002478:	0000029c 	0x0000029c
1c00247c:	1c001270 	pcaddu12i	$r16,147(0x93)
1c002480:	0000022c 	0x0000022c
1c002484:	00000404 	0x00000404
1c002488:	04600e00 	csrxchg	$r0,$r16,0x1803
1c00248c:	0000001c 	0x0000001c
1c002490:	09810d9a 	0x09810d9a
1c002494:	0b980a97 	0x0b980a97
1c002498:	0e9b0c99 	0x0e9b0c99
1c00249c:	b0040f9c 	0xb0040f9c
1c0024a0:	0a000000 	0x0a000000
1c0024a4:	000404c1 	alsl.w	$r1,$r6,$r1,0x1
1c0024a8:	04d70000 	csrrd	$r0,0x35c0
1c0024ac:	00000004 	0x00000004
1c0024b0:	000404d8 	alsl.w	$r24,$r6,$r1,0x1
1c0024b4:	04d90000 	csrrd	$r0,0x3640
1c0024b8:	00000004 	0x00000004
1c0024bc:	000404da 	alsl.w	$r26,$r6,$r1,0x1
1c0024c0:	04db0000 	csrrd	$r0,0x36c0
1c0024c4:	00000004 	0x00000004
1c0024c8:	000804dc 	bytepick.w	$r28,$r6,$r1,0x0
1c0024cc:	000e0000 	bytepick.d	$r0,$r0,$r0,0x4
1c0024d0:	00000404 	0x00000404
1c0024d4:	00000b00 	0x00000b00
1c0024d8:	00000028 	0x00000028
1c0024dc:	00000300 	0x00000300
1c0024e0:	1c00149c 	pcaddu12i	$r28,164(0xa4)
1c0024e4:	00000028 	0x00000028
1c0024e8:	00000404 	0x00000404
1c0024ec:	04100e00 	csrxchg	$r0,$r16,0x403
1c0024f0:	00000004 	0x00000004
1c0024f4:	18040199 	pcaddi	$r25,8204(0x200c)
1c0024f8:	d9000000 	0xd9000000
1c0024fc:	00000404 	0x00000404
1c002500:	00000e00 	0x00000e00
1c002504:	00000028 	0x00000028
1c002508:	0000032c 	0x0000032c
1c00250c:	1c0014c4 	pcaddu12i	$r4,166(0xa6)
1c002510:	00000024 	0x00000024
1c002514:	00000404 	0x00000404
1c002518:	04100e00 	csrxchg	$r0,$r16,0x403
1c00251c:	00000004 	0x00000004
1c002520:	14040199 	lu12i.w	$r25,8204(0x200c)
1c002524:	d9000000 	0xd9000000
1c002528:	00000404 	0x00000404
1c00252c:	00000e00 	0x00000e00
1c002530:	00000040 	0x00000040
1c002534:	00000358 	0x00000358
1c002538:	1c0014e8 	pcaddu12i	$r8,167(0xa7)
1c00253c:	00000074 	0x00000074
1c002540:	00000404 	0x00000404
1c002544:	04100e00 	csrxchg	$r0,$r16,0x403
1c002548:	00000010 	0x00000010
1c00254c:	02970181 	addi.w	$r1,$r12,1472(0x5c0)
1c002550:	04990398 	csrxchg	$r24,$r28,0x2640
1c002554:	00004804 	bitrev.4b	$r4,$r0
1c002558:	0404c100 	csrxchg	$r0,$r8,0x130
1c00255c:	d7000000 	0xd7000000
1c002560:	00000404 	0x00000404
1c002564:	0404d800 	csrrd	$r0,0x136
1c002568:	d9000000 	0xd9000000
1c00256c:	00000804 	0x00000804
1c002570:	00000e00 	0x00000e00
1c002574:	00000028 	0x00000028
1c002578:	0000039c 	0x0000039c
1c00257c:	1c00155c 	pcaddu12i	$r28,170(0xaa)
1c002580:	0000002c 	0x0000002c
1c002584:	00000404 	0x00000404
1c002588:	04100e00 	csrxchg	$r0,$r16,0x403
1c00258c:	00000004 	0x00000004
1c002590:	18040181 	pcaddi	$r1,8204(0x200c)
1c002594:	c1000000 	0xc1000000
1c002598:	00000804 	0x00000804
1c00259c:	00000e00 	0x00000e00
1c0025a0:	00000048 	0x00000048
1c0025a4:	000003c8 	0x000003c8
1c0025a8:	1c001588 	pcaddu12i	$r8,172(0xac)
1c0025ac:	000000e8 	0x000000e8
1c0025b0:	00000404 	0x00000404
1c0025b4:	04600e00 	csrxchg	$r0,$r16,0x1803
1c0025b8:	00000010 	0x00000010
1c0025bc:	01810297 	0x01810297
1c0025c0:	04990398 	csrxchg	$r24,$r28,0x2640
1c0025c4:	00008804 	0x00008804
1c0025c8:	04c10a00 	csrxchg	$r0,$r16,0x3042
1c0025cc:	00000004 	0x00000004
1c0025d0:	000404d7 	alsl.w	$r23,$r6,$r1,0x1
1c0025d4:	04d80000 	csrrd	$r0,0x3600
1c0025d8:	00000004 	0x00000004
1c0025dc:	000804d9 	bytepick.w	$r25,$r6,$r1,0x0
1c0025e0:	000e0000 	bytepick.d	$r0,$r0,$r0,0x4
1c0025e4:	00000404 	0x00000404
1c0025e8:	00000b00 	0x00000b00
1c0025ec:	0000001c 	0x0000001c
1c0025f0:	00000414 	0x00000414
1c0025f4:	1c001670 	pcaddu12i	$r16,179(0xb3)
1c0025f8:	00000044 	0x00000044
1c0025fc:	00002004 	clo.d	$r4,$r0
1c002600:	04100e00 	csrxchg	$r0,$r16,0x403
1c002604:	00000014 	0x00000014
1c002608:	0000000e 	0x0000000e
1c00260c:	0000000c 	0x0000000c
1c002610:	00000434 	0x00000434
1c002614:	1c0016b4 	pcaddu12i	$r20,181(0xb5)
1c002618:	00000030 	0x00000030
1c00261c:	0000000c 	0x0000000c
1c002620:	00000444 	0x00000444
1c002624:	1c0016e4 	pcaddu12i	$r4,183(0xb7)
1c002628:	0000003c 	0x0000003c
1c00262c:	0000000c 	0x0000000c
1c002630:	00000454 	0x00000454
1c002634:	1c001720 	pcaddu12i	$r0,185(0xb9)
1c002638:	0000001c 	0x0000001c
1c00263c:	0000000c 	0x0000000c
1c002640:	00000464 	0x00000464
1c002644:	1c00173c 	pcaddu12i	$r28,185(0xb9)
1c002648:	00000028 	0x00000028
1c00264c:	0000001c 	0x0000001c
1c002650:	00000474 	0x00000474
1c002654:	1c001764 	pcaddu12i	$r4,187(0xbb)
1c002658:	00000068 	0x00000068
1c00265c:	00004c04 	bitrev.8b	$r4,$r0
1c002660:	04100e00 	csrxchg	$r0,$r16,0x403
1c002664:	00000014 	0x00000014
1c002668:	0000000e 	0x0000000e
1c00266c:	0000000c 	0x0000000c
1c002670:	00000494 	0x00000494
1c002674:	1c0017cc 	pcaddu12i	$r12,190(0xbe)
1c002678:	0000002c 	0x0000002c
1c00267c:	0000000c 	0x0000000c
1c002680:	000004a4 	0x000004a4
1c002684:	1c0017f8 	pcaddu12i	$r24,191(0xbf)
1c002688:	00000028 	0x00000028
1c00268c:	0000000c 	0x0000000c
1c002690:	000004b4 	0x000004b4
1c002694:	1c001820 	pcaddu12i	$r0,193(0xc1)
1c002698:	0000001c 	0x0000001c
1c00269c:	0000000c 	0x0000000c
1c0026a0:	000004c4 	0x000004c4
1c0026a4:	1c00183c 	pcaddu12i	$r28,193(0xc1)
1c0026a8:	00000024 	0x00000024
1c0026ac:	0000000c 	0x0000000c
1c0026b0:	000004d4 	0x000004d4
1c0026b4:	1c001860 	pcaddu12i	$r0,195(0xc3)
1c0026b8:	00000054 	0x00000054
1c0026bc:	0000001c 	0x0000001c
1c0026c0:	000004e4 	0x000004e4
1c0026c4:	1c0018b4 	pcaddu12i	$r20,197(0xc5)
1c0026c8:	00000058 	0x00000058
1c0026cc:	00003c04 	revb.d	$r4,$r0
1c0026d0:	04100e00 	csrxchg	$r0,$r16,0x403
1c0026d4:	00000014 	0x00000014
1c0026d8:	0000000e 	0x0000000e
1c0026dc:	0000000c 	0x0000000c
1c0026e0:	00000504 	0x00000504
1c0026e4:	1c00190c 	pcaddu12i	$r12,200(0xc8)
1c0026e8:	00000018 	0x00000018
1c0026ec:	00000028 	0x00000028
1c0026f0:	00000514 	0x00000514
1c0026f4:	1c001924 	pcaddu12i	$r4,201(0xc9)
1c0026f8:	0000001c 	0x0000001c
1c0026fc:	00000404 	0x00000404
1c002700:	04100e00 	csrxchg	$r0,$r16,0x403
1c002704:	00000004 	0x00000004
1c002708:	0c040199 	0x0c040199
1c00270c:	d9000000 	0xd9000000
1c002710:	00000404 	0x00000404
1c002714:	00000e00 	0x00000e00
1c002718:	0000000c 	0x0000000c
1c00271c:	00000540 	0x00000540
1c002720:	1c001940 	pcaddu12i	$r0,202(0xca)
1c002724:	00000004 	0x00000004
1c002728:	0000000c 	0x0000000c
1c00272c:	00000550 	0x00000550
1c002730:	1c001944 	pcaddu12i	$r4,202(0xca)
1c002734:	00000008 	0x00000008
1c002738:	00000028 	0x00000028
1c00273c:	00000560 	0x00000560
1c002740:	1c00194c 	pcaddu12i	$r12,202(0xca)
1c002744:	00000084 	0x00000084
1c002748:	00000404 	0x00000404
1c00274c:	04100e00 	csrxchg	$r0,$r16,0x403
1c002750:	00000004 	0x00000004
1c002754:	60040199 	blt	$r12,$r25,1024(0x400) # 1c002b54 <Arr_2_Glob+0x374>
1c002758:	d9000000 	0xd9000000
1c00275c:	00001804 	cto.w	$r4,$r0
1c002760:	00000e00 	0x00000e00
1c002764:	0000000c 	0x0000000c
1c002768:	0000058c 	0x0000058c
1c00276c:	1c0019d0 	pcaddu12i	$r16,206(0xce)
1c002770:	00000004 	0x00000004
1c002774:	00000028 	0x00000028
1c002778:	0000059c 	0x0000059c
1c00277c:	1c0019d4 	pcaddu12i	$r20,206(0xce)
1c002780:	00000024 	0x00000024
1c002784:	00000404 	0x00000404
1c002788:	04100e00 	csrxchg	$r0,$r16,0x403
1c00278c:	00000004 	0x00000004
1c002790:	10040199 	addu16i.d	$r25,$r12,256(0x100)
1c002794:	d9000000 	0xd9000000
1c002798:	00000804 	0x00000804
1c00279c:	00000e00 	0x00000e00
1c0027a0:	00000028 	0x00000028
1c0027a4:	000005c8 	0x000005c8
1c0027a8:	1c0019f8 	pcaddu12i	$r24,207(0xcf)
1c0027ac:	00000030 	0x00000030
1c0027b0:	00000404 	0x00000404
1c0027b4:	04100e00 	csrxchg	$r0,$r16,0x403
1c0027b8:	00000004 	0x00000004
1c0027bc:	10040199 	addu16i.d	$r25,$r12,256(0x100)
1c0027c0:	d9000000 	0xd9000000
1c0027c4:	00001404 	clz.w	$r4,$r0
1c0027c8:	00000e00 	0x00000e00

Disassembly of section .sbss:

1c0027cc <Reg>:
1c0027cc:	00000000 	0x00000000

Disassembly of section .bss:

1c0027d0 <Microseconds>:
1c0027d0:	00000000 	0x00000000

1c0027d4 <Dhrystones_Per_Second>:
1c0027d4:	00000000 	0x00000000

1c0027d8 <User_Time>:
1c0027d8:	00000000 	0x00000000

1c0027dc <Begin_Time>:
1c0027dc:	00000000 	0x00000000

1c0027e0 <Arr_2_Glob>:
	...

1c004ef0 <Next_Rec_Glob>:
	...

1c004f20 <End_Time>:
1c004f20:	00000000 	0x00000000

1c004f24 <Next_Ptr_Glob>:
1c004f24:	00000000 	0x00000000

1c004f28 <Int_Glob>:
1c004f28:	00000000 	0x00000000

1c004f2c <Ch_1_Glob>:
	...

1c004f2d <Ch_2_Glob>:
1c004f2d:	 	0x00000000

1c004f30 <Ptr_Glob>:
1c004f30:	00000000 	0x00000000

1c004f34 <Rec_Glob>:
	...

1c004f64 <Arr_1_Glob>:
	...

1c00502c <Bool_Glob>:
1c00502c:	00000000 	0x00000000

Disassembly of section .debug_aranges:

00000000 <.debug_aranges>:
   0:	0000001c 	0x0000001c
   4:	00000002 	0x00000002
   8:	00040000 	alsl.w	$r0,$r0,$r0,0x1
   c:	00000000 	0x00000000
  10:	1c001270 	pcaddu12i	$r16,147(0x93)
  14:	0000022c 	0x0000022c
	...
  20:	0000001c 	0x0000001c
  24:	03160002 	lu52i.d	$r2,$r0,1408(0x580)
  28:	00040000 	alsl.w	$r0,$r0,$r0,0x1
  2c:	00000000 	0x00000000
  30:	1c00149c 	pcaddu12i	$r28,164(0xa4)
  34:	0000004c 	0x0000004c
	...
  40:	0000001c 	0x0000001c
  44:	04860002 	csrrd	$r2,0x2180
  48:	00040000 	alsl.w	$r0,$r0,$r0,0x1
  4c:	00000000 	0x00000000
  50:	1c0014e8 	pcaddu12i	$r8,167(0xa7)
  54:	000000a0 	0x000000a0
	...
  60:	0000001c 	0x0000001c
  64:	06a00002 	0x06a00002
  68:	00040000 	alsl.w	$r0,$r0,$r0,0x1
  6c:	00000000 	0x00000000
  70:	1c001588 	pcaddu12i	$r8,172(0xac)
  74:	000000e8 	0x000000e8
	...
  80:	0000001c 	0x0000001c
  84:	08ba0002 	0x08ba0002
  88:	00040000 	alsl.w	$r0,$r0,$r0,0x1
  8c:	00000000 	0x00000000
  90:	1c001670 	pcaddu12i	$r16,179(0xb3)
  94:	00000044 	0x00000044
	...
  a0:	0000001c 	0x0000001c
  a4:	09f00002 	0x09f00002
  a8:	00040000 	alsl.w	$r0,$r0,$r0,0x1
  ac:	00000000 	0x00000000
  b0:	1c0016b4 	pcaddu12i	$r20,181(0xb5)
  b4:	00000270 	0x00000270
	...
  c0:	0000001c 	0x0000001c
  c4:	0f130002 	0x0f130002
  c8:	00040000 	alsl.w	$r0,$r0,$r0,0x1
  cc:	00000000 	0x00000000
  d0:	1c001924 	pcaddu12i	$r4,201(0xc9)
  d4:	00000104 	0x00000104
	...

Disassembly of section .comment:

00000000 <.comment>:
   0:	3a434347 	0x3a434347
   4:	4e472820 	jirl	$r0,$r1,-112856(0x24728)
   8:	38202955 	ldx.bu	$r21,$r10,$r10
   c:	302e332e 	vldrepl.w	$vr14,$r25,-464(0xe30)
	...

Disassembly of section .debug_frame:

00000000 <.debug_frame>:
   0:	0000000c 	0x0000000c
   4:	ffffffff 	0xffffffff
   8:	7c010003 	0x7c010003
   c:	00030c01 	0x00030c01
  10:	00000060 	0x00000060
  14:	00000000 	0x00000000
  18:	1c001270 	pcaddu12i	$r16,147(0x93)
  1c:	0000022c 	0x0000022c
  20:	00000404 	0x00000404
  24:	04600e00 	csrxchg	$r0,$r16,0x1803
  28:	0000001c 	0x0000001c
  2c:	09810d9a 	0x09810d9a
  30:	0b980a97 	0x0b980a97
  34:	0e9b0c99 	0x0e9b0c99
  38:	b0040f9c 	0xb0040f9c
  3c:	0a000000 	0x0a000000
  40:	000404c1 	alsl.w	$r1,$r6,$r1,0x1
  44:	04d70000 	csrrd	$r0,0x35c0
  48:	00000004 	0x00000004
  4c:	000404d8 	alsl.w	$r24,$r6,$r1,0x1
  50:	04d90000 	csrrd	$r0,0x3640
  54:	00000004 	0x00000004
  58:	000404da 	alsl.w	$r26,$r6,$r1,0x1
  5c:	04db0000 	csrrd	$r0,0x36c0
  60:	00000004 	0x00000004
  64:	000804dc 	bytepick.w	$r28,$r6,$r1,0x0
  68:	000e0000 	bytepick.d	$r0,$r0,$r0,0x4
  6c:	00000404 	0x00000404
  70:	00000b00 	0x00000b00
  74:	0000000c 	0x0000000c
  78:	ffffffff 	0xffffffff
  7c:	7c010003 	0x7c010003
  80:	00030c01 	0x00030c01
  84:	00000028 	0x00000028
  88:	00000074 	0x00000074
  8c:	1c00149c 	pcaddu12i	$r28,164(0xa4)
  90:	00000028 	0x00000028
  94:	00000404 	0x00000404
  98:	04100e00 	csrxchg	$r0,$r16,0x403
  9c:	00000004 	0x00000004
  a0:	18040199 	pcaddi	$r25,8204(0x200c)
  a4:	d9000000 	0xd9000000
  a8:	00000404 	0x00000404
  ac:	00000e00 	0x00000e00
  b0:	00000028 	0x00000028
  b4:	00000074 	0x00000074
  b8:	1c0014c4 	pcaddu12i	$r4,166(0xa6)
  bc:	00000024 	0x00000024
  c0:	00000404 	0x00000404
  c4:	04100e00 	csrxchg	$r0,$r16,0x403
  c8:	00000004 	0x00000004
  cc:	14040199 	lu12i.w	$r25,8204(0x200c)
  d0:	d9000000 	0xd9000000
  d4:	00000404 	0x00000404
  d8:	00000e00 	0x00000e00
  dc:	0000000c 	0x0000000c
  e0:	ffffffff 	0xffffffff
  e4:	7c010003 	0x7c010003
  e8:	00030c01 	0x00030c01
  ec:	00000040 	0x00000040
  f0:	000000dc 	0x000000dc
  f4:	1c0014e8 	pcaddu12i	$r8,167(0xa7)
  f8:	00000074 	0x00000074
  fc:	00000404 	0x00000404
 100:	04100e00 	csrxchg	$r0,$r16,0x403
 104:	00000010 	0x00000010
 108:	02970181 	addi.w	$r1,$r12,1472(0x5c0)
 10c:	04990398 	csrxchg	$r24,$r28,0x2640
 110:	00004804 	bitrev.4b	$r4,$r0
 114:	0404c100 	csrxchg	$r0,$r8,0x130
 118:	d7000000 	0xd7000000
 11c:	00000404 	0x00000404
 120:	0404d800 	csrrd	$r0,0x136
 124:	d9000000 	0xd9000000
 128:	00000804 	0x00000804
 12c:	00000e00 	0x00000e00
 130:	00000028 	0x00000028
 134:	000000dc 	0x000000dc
 138:	1c00155c 	pcaddu12i	$r28,170(0xaa)
 13c:	0000002c 	0x0000002c
 140:	00000404 	0x00000404
 144:	04100e00 	csrxchg	$r0,$r16,0x403
 148:	00000004 	0x00000004
 14c:	18040181 	pcaddi	$r1,8204(0x200c)
 150:	c1000000 	0xc1000000
 154:	00000804 	0x00000804
 158:	00000e00 	0x00000e00
 15c:	0000000c 	0x0000000c
 160:	ffffffff 	0xffffffff
 164:	7c010003 	0x7c010003
 168:	00030c01 	0x00030c01
 16c:	00000048 	0x00000048
 170:	0000015c 	0x0000015c
 174:	1c001588 	pcaddu12i	$r8,172(0xac)
 178:	000000e8 	0x000000e8
 17c:	00000404 	0x00000404
 180:	04600e00 	csrxchg	$r0,$r16,0x1803
 184:	00000010 	0x00000010
 188:	01810297 	0x01810297
 18c:	04990398 	csrxchg	$r24,$r28,0x2640
 190:	00008804 	0x00008804
 194:	04c10a00 	csrxchg	$r0,$r16,0x3042
 198:	00000004 	0x00000004
 19c:	000404d7 	alsl.w	$r23,$r6,$r1,0x1
 1a0:	04d80000 	csrrd	$r0,0x3600
 1a4:	00000004 	0x00000004
 1a8:	000804d9 	bytepick.w	$r25,$r6,$r1,0x0
 1ac:	000e0000 	bytepick.d	$r0,$r0,$r0,0x4
 1b0:	00000404 	0x00000404
 1b4:	00000b00 	0x00000b00
 1b8:	0000000c 	0x0000000c
 1bc:	ffffffff 	0xffffffff
 1c0:	7c010003 	0x7c010003
 1c4:	00030c01 	0x00030c01
 1c8:	0000001c 	0x0000001c
 1cc:	000001b8 	0x000001b8
 1d0:	1c001670 	pcaddu12i	$r16,179(0xb3)
 1d4:	00000044 	0x00000044
 1d8:	00002004 	clo.d	$r4,$r0
 1dc:	04100e00 	csrxchg	$r0,$r16,0x403
 1e0:	00000014 	0x00000014
 1e4:	0000000e 	0x0000000e
 1e8:	0000000c 	0x0000000c
 1ec:	ffffffff 	0xffffffff
 1f0:	7c010003 	0x7c010003
 1f4:	00030c01 	0x00030c01
 1f8:	0000000c 	0x0000000c
 1fc:	000001e8 	0x000001e8
 200:	1c0016b4 	pcaddu12i	$r20,181(0xb5)
 204:	00000030 	0x00000030
 208:	0000000c 	0x0000000c
 20c:	000001e8 	0x000001e8
 210:	1c0016e4 	pcaddu12i	$r4,183(0xb7)
 214:	0000003c 	0x0000003c
 218:	0000000c 	0x0000000c
 21c:	000001e8 	0x000001e8
 220:	1c001720 	pcaddu12i	$r0,185(0xb9)
 224:	0000001c 	0x0000001c
 228:	0000000c 	0x0000000c
 22c:	000001e8 	0x000001e8
 230:	1c00173c 	pcaddu12i	$r28,185(0xb9)
 234:	00000028 	0x00000028
 238:	0000001c 	0x0000001c
 23c:	000001e8 	0x000001e8
 240:	1c001764 	pcaddu12i	$r4,187(0xbb)
 244:	00000068 	0x00000068
 248:	00004c04 	bitrev.8b	$r4,$r0
 24c:	04100e00 	csrxchg	$r0,$r16,0x403
 250:	00000014 	0x00000014
 254:	0000000e 	0x0000000e
 258:	0000000c 	0x0000000c
 25c:	000001e8 	0x000001e8
 260:	1c0017cc 	pcaddu12i	$r12,190(0xbe)
 264:	0000002c 	0x0000002c
 268:	0000000c 	0x0000000c
 26c:	000001e8 	0x000001e8
 270:	1c0017f8 	pcaddu12i	$r24,191(0xbf)
 274:	00000028 	0x00000028
 278:	0000000c 	0x0000000c
 27c:	000001e8 	0x000001e8
 280:	1c001820 	pcaddu12i	$r0,193(0xc1)
 284:	0000001c 	0x0000001c
 288:	0000000c 	0x0000000c
 28c:	000001e8 	0x000001e8
 290:	1c00183c 	pcaddu12i	$r28,193(0xc1)
 294:	00000024 	0x00000024
 298:	0000000c 	0x0000000c
 29c:	000001e8 	0x000001e8
 2a0:	1c001860 	pcaddu12i	$r0,195(0xc3)
 2a4:	00000054 	0x00000054
 2a8:	0000001c 	0x0000001c
 2ac:	000001e8 	0x000001e8
 2b0:	1c0018b4 	pcaddu12i	$r20,197(0xc5)
 2b4:	00000058 	0x00000058
 2b8:	00003c04 	revb.d	$r4,$r0
 2bc:	04100e00 	csrxchg	$r0,$r16,0x403
 2c0:	00000014 	0x00000014
 2c4:	0000000e 	0x0000000e
 2c8:	0000000c 	0x0000000c
 2cc:	000001e8 	0x000001e8
 2d0:	1c00190c 	pcaddu12i	$r12,200(0xc8)
 2d4:	00000018 	0x00000018
 2d8:	0000000c 	0x0000000c
 2dc:	ffffffff 	0xffffffff
 2e0:	7c010003 	0x7c010003
 2e4:	00030c01 	0x00030c01
 2e8:	00000028 	0x00000028
 2ec:	000002d8 	0x000002d8
 2f0:	1c001924 	pcaddu12i	$r4,201(0xc9)
 2f4:	0000001c 	0x0000001c
 2f8:	00000404 	0x00000404
 2fc:	04100e00 	csrxchg	$r0,$r16,0x403
 300:	00000004 	0x00000004
 304:	0c040199 	0x0c040199
 308:	d9000000 	0xd9000000
 30c:	00000404 	0x00000404
 310:	00000e00 	0x00000e00
 314:	0000000c 	0x0000000c
 318:	000002d8 	0x000002d8
 31c:	1c001940 	pcaddu12i	$r0,202(0xca)
 320:	00000004 	0x00000004
 324:	0000000c 	0x0000000c
 328:	000002d8 	0x000002d8
 32c:	1c001944 	pcaddu12i	$r4,202(0xca)
 330:	00000008 	0x00000008
 334:	00000028 	0x00000028
 338:	000002d8 	0x000002d8
 33c:	1c00194c 	pcaddu12i	$r12,202(0xca)
 340:	00000084 	0x00000084
 344:	00000404 	0x00000404
 348:	04100e00 	csrxchg	$r0,$r16,0x403
 34c:	00000004 	0x00000004
 350:	60040199 	blt	$r12,$r25,1024(0x400) # 750 <data_size-0x64>
 354:	d9000000 	0xd9000000
 358:	00001804 	cto.w	$r4,$r0
 35c:	00000e00 	0x00000e00
 360:	0000000c 	0x0000000c
 364:	000002d8 	0x000002d8
 368:	1c0019d0 	pcaddu12i	$r16,206(0xce)
 36c:	00000004 	0x00000004
 370:	00000028 	0x00000028
 374:	000002d8 	0x000002d8
 378:	1c0019d4 	pcaddu12i	$r20,206(0xce)
 37c:	00000024 	0x00000024
 380:	00000404 	0x00000404
 384:	04100e00 	csrxchg	$r0,$r16,0x403
 388:	00000004 	0x00000004
 38c:	10040199 	addu16i.d	$r25,$r12,256(0x100)
 390:	d9000000 	0xd9000000
 394:	00000804 	0x00000804
 398:	00000e00 	0x00000e00
 39c:	00000028 	0x00000028
 3a0:	000002d8 	0x000002d8
 3a4:	1c0019f8 	pcaddu12i	$r24,207(0xcf)
 3a8:	00000030 	0x00000030
 3ac:	00000404 	0x00000404
 3b0:	04100e00 	csrxchg	$r0,$r16,0x403
 3b4:	00000004 	0x00000004
 3b8:	10040199 	addu16i.d	$r25,$r12,256(0x100)
 3bc:	d9000000 	0xd9000000
 3c0:	00001404 	clz.w	$r4,$r0
 3c4:	00000e00 	0x00000e00

Disassembly of section .debug_info:

00000000 <.debug_info>:
       0:	00000312 	0x00000312
       4:	00000004 	0x00000004
       8:	01040000 	0x01040000
       c:	20554e47 	ll.w	$r7,$r18,21836(0x554c)
      10:	20373143 	ll.w	$r3,$r10,14128(0x3730)
      14:	2e332e38 	0x2e332e38
      18:	6d2d2030 	bgeu	$r1,$r16,77088(0x12d20) # 12d38 <data_size+0x12584>
      1c:	3d696261 	0x3d696261
      20:	33706c69 	xvstelm.h	$xr9,$r3,54(0x36),0xc
      24:	2d207332 	0x2d207332
      28:	6372616d 	blt	$r11,$r13,-36256(0x37260) # ffff7288 <_stack+0xe3fe5120>
      2c:	6f6c3d68 	bgeu	$r11,$r8,-37828(0x36c3c) # ffff6c68 <_stack+0xe3fe4b00>
      30:	61676e6f 	blt	$r19,$r15,92012(0x1676c) # 1679c <data_size+0x15fe8>
      34:	33686372 	xvstelm.h	$xr18,$r27,48(0x30),0xa
      38:	2d207232 	0x2d207232
      3c:	7570666d 	0x7570666d
      40:	6e6f6e3d 	bgeu	$r17,$r29,-102548(0x26f6c) # fffe6fac <_stack+0xe3fd4e44>
      44:	6d2d2065 	bgeu	$r3,$r5,77088(0x12d20) # 12d64 <data_size+0x125b0>
      48:	646f6d63 	bge	$r11,$r3,28524(0x6f6c) # 6fb4 <data_size+0x6800>
      4c:	6e3d6c65 	bgeu	$r3,$r5,-115348(0x23d6c) # fffe3db8 <_stack+0xe3fd1c50>
      50:	616d726f 	blt	$r19,$r15,93552(0x16d70) # 16dc0 <data_size+0x1660c>
      54:	6d2d206c 	bgeu	$r3,$r12,77088(0x12d20) # 12d74 <data_size+0x125c0>
      58:	656e7574 	bge	$r11,$r20,93812(0x16e74) # 16ecc <data_size+0x16718>
      5c:	6f6f6c3d 	bgeu	$r1,$r29,-37012(0x36f6c) # ffff6fc8 <_stack+0xe3fe4e60>
      60:	7261676e 	0x7261676e
      64:	32336863 	0x32336863
      68:	672d2072 	bge	$r3,$r18,-53984(0x32d20) # ffff2d88 <_stack+0xe3fe0c20>
      6c:	324f2d20 	xvldrepl.h	$xr0,$r9,1942(0x796)
      70:	6e662d20 	bgeu	$r9,$r0,-104916(0x2662c) # fffe669c <_stack+0xe3fd4534>
      74:	75622d6f 	0x75622d6f
      78:	69746c69 	bltu	$r3,$r9,95340(0x1746c) # 174e4 <data_size+0x16d30>
      7c:	662d206e 	bge	$r3,$r14,-119520(0x22d20) # fffe2d9c <_stack+0xe3fd0c34>
      80:	702d6f6e 	0x702d6f6e
      84:	0c006369 	0x0c006369
      88:	6e697270 	bgeu	$r19,$r16,-104080(0x26970) # fffe69f8 <_stack+0xe3fd4890>
      8c:	632e6674 	blt	$r19,$r20,-53660(0x32e64) # ffff2ef0 <_stack+0xe3fe0d88>
      90:	6f682f00 	bgeu	$r24,$r0,-38868(0x3682c) # ffff68bc <_stack+0xe3fe4754>
      94:	772f656d 	0x772f656d
      98:	772f7477 	0x772f7477
      9c:	2f6b726f 	0x2f6b726f
      a0:	66726570 	bge	$r11,$r16,-101788(0x27264) # fffe7304 <_stack+0xe3fd519c>
      a4:	6e75665f 	bgeu	$r18,$r31,-101020(0x27564) # fffe7608 <_stack+0xe3fd54a0>
      a8:	696c2f63 	bltu	$r27,$r3,93228(0x16c2c) # 16cd4 <data_size+0x16520>
      ac:	12700062 	addu16i.d	$r2,$r3,-25600(0x9c00)
      b0:	022c1c00 	slti	$r0,$r0,-1273(0xb07)
      b4:	00000000 	0x00000000
      b8:	04020000 	csrrd	$r0,0x80
      bc:	75070403 	xvssran.hu.w	$xr3,$xr0,$xr1
      c0:	6769736e 	bge	$r27,$r14,-38544(0x36970) # ffff6a30 <_stack+0xe3fe48c8>
      c4:	2064656e 	ll.w	$r14,$r11,25700(0x6464)
      c8:	00746e69 	bstrins.w	$r9,$r19,0x14,0x1b
      cc:	6c070403 	bgeu	$r0,$r3,1796(0x704) # 7d0 <data_size+0x1c>
      d0:	20676e6f 	ll.w	$r15,$r19,26476(0x676c)
      d4:	69736e75 	bltu	$r19,$r21,95084(0x1736c) # 17440 <data_size+0x16c8c>
      d8:	64656e67 	bge	$r19,$r7,25964(0x656c) # 6644 <data_size+0x5e90>
      dc:	746e6920 	0x746e6920
      e0:	72700400 	0x72700400
      e4:	66746e69 	bge	$r19,$r9,-101268(0x2746c) # fffe7550 <_stack+0xe3fd53e8>
      e8:	05010100 	0x05010100
      ec:	000002d1 	0x000002d1
      f0:	1c001270 	pcaddu12i	$r16,147(0x93)
      f4:	0000022c 	0x0000022c
      f8:	02d19c01 	addi.d	$r1,$r0,1127(0x467)
      fc:	66050000 	bge	$r0,$r0,-129792(0x20500) # fffe05fc <_stack+0xe3fce494>
     100:	0100746d 	0x0100746d
     104:	02d81801 	addi.d	$r1,$r0,1542(0x606)
     108:	00000000 	0x00000000
     10c:	07060000 	0x07060000
     110:	03010069 	lu52i.d	$r9,$r3,64(0x40)
     114:	0002d105 	0x0002d105
     118:	00003700 	revb.4h	$r0,$r24
     11c:	00630700 	bstrins.w	$r0,$r24,0x3,0x1
     120:	de060401 	0xde060401
     124:	b6000002 	0xb6000002
     128:	07000000 	0x07000000
     12c:	00677261 	bstrins.w	$r1,$r19,0x7,0x1c
     130:	eb080501 	0xeb080501
     134:	df000002 	0xdf000002
     138:	08000000 	0x08000000
     13c:	01007061 	0x01007061
     140:	00ba0706 	bstrins.d	$r6,$r24,0x3a,0x1
     144:	91030000 	0x91030000
     148:	77077fbc 	0x77077fbc
     14c:	05070100 	0x05070100
     150:	000002d1 	0x000002d1
     154:	0000012d 	0x0000012d
     158:	61676109 	blt	$r8,$r9,92000(0x16760) # 168b8 <data_size+0x16104>
     15c:	01006e69 	0x01006e69
     160:	131c0110 	addu16i.d	$r16,$r8,-14592(0xc700)
     164:	180a1c00 	pcaddi	$r0,20704(0x50e0)
     168:	79000000 	0x79000000
     16c:	0b000002 	0x0b000002
     170:	73747570 	0x73747570
     174:	6e697274 	bgeu	$r19,$r20,-104080(0x26970) # fffe6ae4 <_stack+0xe3fd497c>
     178:	14010067 	lu12i.w	$r7,2051(0x803)
     17c:	0002d105 	0x0002d105
     180:	00018700 	asrtgt.d	$r24,$r1
     184:	0c000600 	0x0c000600
     188:	00000000 	0x00000000
     18c:	d1051901 	0xd1051901
     190:	99000002 	0x99000002
     194:	06000001 	cacop	0x1,$r0,0
     198:	72700b00 	0x72700b00
     19c:	62746e69 	blt	$r19,$r9,-101268(0x2746c) # fffe7608 <_stack+0xe3fd54a0>
     1a0:	00657361 	bstrins.w	$r1,$r27,0x5,0x1c
     1a4:	d1051e01 	0xd1051e01
     1a8:	b1000002 	0xb1000002
     1ac:	06000001 	cacop	0x1,$r0,0
     1b0:	13c00d00 	addu16i.d	$r0,$r8,-4093(0xf003)
     1b4:	02f11c00 	addi.d	$r0,$r0,-953(0xc47)
     1b8:	01c90000 	0x01c90000
     1bc:	010e0000 	0x010e0000
     1c0:	0e320156 	0x0e320156
     1c4:	30015701 	0x30015701
     1c8:	13dc0f00 	addu16i.d	$r0,$r24,-2301(0xf703)
     1cc:	02fd1c00 	addi.d	$r0,$r0,-185(0xf47)
     1d0:	f00d0000 	0xf00d0000
     1d4:	f11c0013 	0xf11c0013
     1d8:	ea000002 	0xea000002
     1dc:	0e000001 	0x0e000001
     1e0:	3a015601 	0x3a015601
     1e4:	0157010e 	0x0157010e
     1e8:	0c0d0031 	0x0c0d0031
     1ec:	f11c0014 	0xf11c0014
     1f0:	02000002 	slti	$r2,$r0,0
     1f4:	0e000002 	0x0e000002
     1f8:	3a015601 	0x3a015601
     1fc:	0157010e 	0x0157010e
     200:	280d0030 	ld.b	$r16,$r1,832(0x340)
     204:	f11c0014 	0xf11c0014
     208:	1b000002 	pcalau12i	$r2,-524288(0x80000)
     20c:	0e000002 	0x0e000002
     210:	8b025601 	0x8b025601
     214:	57010e00 	bl	-134020852(0x803010c) # f8030320 <_stack+0xdc01e1b8>
     218:	0d003001 	fsel	$f1,$f0,$f12,$fcc0
     21c:	1c001444 	pcaddu12i	$r4,162(0xa2)
     220:	000002f1 	0x000002f1
     224:	00000233 	0x00000233
     228:	0156010e 	0x0156010e
     22c:	57010e40 	bl	-117243636(0x903010c) # f9030338 <_stack+0xdd01e1d0>
     230:	0f003001 	0x0f003001
     234:	1c001460 	pcaddu12i	$r0,163(0xa3)
     238:	00000309 	0x00000309
     23c:	0014740d 	nor	$r13,$r0,$r29
     240:	0002f11c 	0x0002f11c
     244:	00025400 	0x00025400
     248:	56010e00 	bl	-134086388(0x802010c) # f8020354 <_stack+0xdc00e1ec>
     24c:	010e3a01 	0x010e3a01
     250:	00300157 	0x00300157
     254:	0014880d 	and	$r13,$r0,$r2
     258:	0002fd1c 	0x0002fd1c
     25c:	00026800 	0x00026800
     260:	54010e00 	bl	-134217460(0x800010c) # f800036c <_stack+0xdbfee204>
     264:	00250802 	crc.w.w.w	$r2,$r0,$r2
     268:	00149810 	and	$r16,$r0,$r6
     26c:	0002fd1c 	0x0002fd1c
     270:	54010e00 	bl	-134217460(0x800010c) # f800037c <_stack+0xdbfee214>
     274:	00250802 	crc.w.w.w	$r2,$r0,$r2
     278:	00001100 	clo.w	$r0,$r8
     27c:	000c0000 	bytepick.d	$r0,$r0,$r0,0x0
     280:	01000000 	0x01000000
     284:	02d10519 	addi.d	$r25,$r8,1089(0x441)
     288:	02900000 	addi.w	$r0,$r0,1024(0x400)
     28c:	00060000 	alsl.wu	$r0,$r0,$r0,0x1
     290:	0012fc12 	sltu	$r18,$r0,$r31
     294:	0000141c 	clz.w	$r28,$r0
     298:	0002bf00 	0x0002bf00
     29c:	00000c00 	0x00000c00
     2a0:	19010000 	pcaddi	$r0,-522240(0x80800)
     2a4:	0002d105 	0x0002d105
     2a8:	0002af00 	0x0002af00
     2ac:	10000600 	addu16i.d	$r0,$r16,1(0x1)
     2b0:	1c001304 	pcaddu12i	$r4,152(0x98)
     2b4:	000002fd 	0x000002fd
     2b8:	0154010e 	0x0154010e
     2bc:	1000003d 	addu16i.d	$r29,$r1,0
     2c0:	1c0012dc 	pcaddu12i	$r28,150(0x96)
     2c4:	000002fd 	0x000002fd
     2c8:	0254010e 	sltui	$r14,$r8,1280(0x500)
     2cc:	00000087 	0x00000087
     2d0:	05040300 	0x05040300
     2d4:	00746e69 	bstrins.w	$r9,$r19,0x14,0x1b
     2d8:	02e60413 	addi.d	$r19,$r0,-1663(0x981)
     2dc:	01030000 	fsub.d	$f0,$f0,$f0
     2e0:	61686306 	blt	$r24,$r6,92256(0x16860) # 16b40 <data_size+0x1638c>
     2e4:	de140072 	0xde140072
     2e8:	13000002 	addu16i.d	$r2,$r0,-16384(0xc000)
     2ec:	0000ba04 	0x0000ba04
     2f0:	00121500 	slt	$r0,$r8,$r5
     2f4:	00120000 	slt	$r0,$r0,$r0
     2f8:	1e010000 	pcaddu18i	$r0,2048(0x800)
     2fc:	00001505 	clz.w	$r5,$r8
     300:	00000000 	0x00000000
     304:	19010000 	pcaddi	$r0,-522240(0x80800)
     308:	00081505 	bytepick.w	$r5,$r8,$r5,0x0
     30c:	00080000 	bytepick.w	$r0,$r0,$r0,0x0
     310:	14010000 	lu12i.w	$r0,2048(0x800)
     314:	016c0005 	0x016c0005
     318:	00040000 	alsl.w	$r0,$r0,$r0,0x1
     31c:	00000122 	0x00000122
     320:	4e470104 	jirl	$r4,$r8,-112896(0x24700)
     324:	31432055 	vstelm.h	$vr21,$r2,-112(0x190),0x0
     328:	2e382037 	0x2e382037
     32c:	20302e33 	ll.w	$r19,$r17,12332(0x302c)
     330:	62616d2d 	blt	$r9,$r13,-106132(0x2616c) # fffe649c <_stack+0xe3fd4334>
     334:	6c693d69 	bgeu	$r11,$r9,26940(0x693c) # 6c70 <data_size+0x64bc>
     338:	73323370 	0x73323370
     33c:	616d2d20 	blt	$r9,$r0,93484(0x16d2c) # 17068 <data_size+0x168b4>
     340:	3d686372 	0x3d686372
     344:	6e6f6f6c 	bgeu	$r27,$r12,-102548(0x26f6c) # fffe72b0 <_stack+0xe3fd5148>
     348:	63726167 	blt	$r11,$r7,-36256(0x37260) # ffff75a8 <_stack+0xe3fe5440>
     34c:	72323368 	0x72323368
     350:	666d2d20 	bge	$r9,$r0,-103124(0x26d2c) # fffe707c <_stack+0xe3fd4f14>
     354:	6e3d7570 	bgeu	$r11,$r16,-115340(0x23d74) # fffe40c8 <_stack+0xe3fd1f60>
     358:	20656e6f 	ll.w	$r15,$r19,25964(0x656c)
     35c:	6d636d2d 	bgeu	$r9,$r13,90988(0x1636c) # 166c8 <data_size+0x15f14>
     360:	6c65646f 	bgeu	$r3,$r15,25956(0x6564) # 68c4 <data_size+0x6110>
     364:	726f6e3d 	0x726f6e3d
     368:	206c616d 	ll.w	$r13,$r11,27744(0x6c60)
     36c:	75746d2d 	0x75746d2d
     370:	6c3d656e 	bgeu	$r11,$r14,15716(0x3d64) # 40d4 <data_size+0x3920>
     374:	676e6f6f 	bge	$r27,$r15,-37268(0x36e6c) # ffff71e0 <_stack+0xe3fe5078>
     378:	68637261 	bltu	$r19,$r1,25456(0x6370) # 66e8 <data_size+0x5f34>
     37c:	20723233 	ll.w	$r19,$r17,29232(0x7230)
     380:	2d20672d 	0x2d20672d
     384:	2d20324f 	0x2d20324f
     388:	2d6f6e66 	0x2d6f6e66
     38c:	6c697562 	bgeu	$r11,$r2,26996(0x6974) # 6d00 <data_size+0x654c>
     390:	206e6974 	ll.w	$r20,$r11,28264(0x6e68)
     394:	6f6e662d 	bgeu	$r17,$r13,-37276(0x36e64) # ffff71f8 <_stack+0xe3fe5090>
     398:	6369702d 	blt	$r1,$r13,-38544(0x36970) # ffff6d08 <_stack+0xe3fe4ba0>
     39c:	75700c00 	0x75700c00
     3a0:	61686374 	blt	$r27,$r20,92256(0x16860) # 16c00 <data_size+0x1644c>
     3a4:	00632e72 	bstrins.w	$r18,$r19,0x3,0xb
     3a8:	6d6f682f 	bgeu	$r1,$r15,94056(0x16f68) # 17310 <data_size+0x16b5c>
     3ac:	77772f65 	0x77772f65
     3b0:	6f772f74 	bgeu	$r27,$r20,-35028(0x3772c) # ffff7adc <_stack+0xe3fe5974>
     3b4:	702f6b72 	vaddwev.d.wu	$vr18,$vr27,$vr26
     3b8:	5f667265 	bne	$r19,$r5,-39312(0x36670) # ffff6a28 <_stack+0xe3fe48c0>
     3bc:	636e7566 	blt	$r11,$r6,-37260(0x36e74) # ffff7230 <_stack+0xe3fe50c8>
     3c0:	62696c2f 	blt	$r1,$r15,-104084(0x2696c) # fffe6d2c <_stack+0xe3fd4bc4>
     3c4:	00149c00 	and	$r0,$r0,$r7
     3c8:	00004c1c 	bitrev.8b	$r28,$r0
     3cc:	00047500 	alsl.w	$r0,$r8,$r29,0x1
     3d0:	07040200 	0x07040200
     3d4:	69736e75 	bltu	$r19,$r21,95084(0x1736c) # 17740 <data_size+0x16f8c>
     3d8:	64656e67 	bge	$r19,$r7,25964(0x656c) # 6944 <data_size+0x6190>
     3dc:	746e6920 	0x746e6920
     3e0:	07040200 	0x07040200
     3e4:	676e6f6c 	bge	$r27,$r12,-37268(0x36e6c) # ffff7250 <_stack+0xe3fe50e8>
     3e8:	736e7520 	vssrarni.du.q	$vr0,$vr9,0x1d
     3ec:	656e6769 	bge	$r27,$r9,93796(0x16e64) # 17250 <data_size+0x16a9c>
     3f0:	6e692064 	bgeu	$r3,$r4,-104160(0x26920) # fffe6d10 <_stack+0xe3fd4ba8>
     3f4:	1c030074 	pcaddu12i	$r20,6147(0x1803)
     3f8:	01000000 	0x01000000
     3fc:	f8010607 	0xf8010607
     400:	04000000 	csrrd	$r0,0x0
     404:	07010063 	0x07010063
     408:	0000f806 	0x0000f806
     40c:	04020000 	csrrd	$r0,0x80
     410:	746e6905 	0x746e6905
     414:	75700500 	0x75700500
     418:	61686374 	blt	$r27,$r20,92256(0x16860) # 16c78 <data_size+0x164c4>
     41c:	01010072 	fadd.d	$f18,$f3,$f0
     420:	0000f805 	0x0000f805
     424:	00149c00 	and	$r0,$r0,$r7
     428:	0000281c 	cto.d	$r28,$r0
     42c:	589c0100 	beq	$r8,$r0,39936(0x9c00) # a02c <data_size+0x9878>
     430:	06000001 	cacop	0x1,$r0,0
     434:	01010063 	fadd.d	$f3,$f3,$f0
     438:	0000f811 	0x0000f811
     43c:	0001d000 	asrtgt.d	$r0,$r20
     440:	001c0700 	mul.w	$r0,$r24,$r1
     444:	03010000 	lu52i.d	$r0,$r0,64(0x40)
     448:	0000f801 	0x0000f801
     44c:	00013d00 	asrtle.d	$r8,$r15
     450:	09000800 	0x09000800
     454:	000000e0 	0x000000e0
     458:	1c00149c 	pcaddu12i	$r28,164(0xa4)
     45c:	00000030 	0x00000030
     460:	0a010301 	0x0a010301
     464:	000000ed 	0x000000ed
     468:	000001f1 	0x000001f1
     46c:	e00b0000 	0xe00b0000
     470:	c4000000 	0xc4000000
     474:	241c0014 	ldptr.w	$r20,$r0,7168(0x1c00)
     478:	01000000 	0x01000000
     47c:	00ed0c9c 	bstrpick.d	$r28,$r4,0x2d,0x3
     480:	54010000 	bl	256(0x100) # 580 <data_size-0x234>
     484:	02160000 	slti	$r0,$r0,1408(0x580)
     488:	00040000 	alsl.w	$r0,$r0,$r0,0x1
     48c:	000001df 	0x000001df
     490:	4e470104 	jirl	$r4,$r8,-112896(0x24700)
     494:	31432055 	vstelm.h	$vr21,$r2,-112(0x190),0x0
     498:	2e382037 	0x2e382037
     49c:	20302e33 	ll.w	$r19,$r17,12332(0x302c)
     4a0:	62616d2d 	blt	$r9,$r13,-106132(0x2616c) # fffe660c <_stack+0xe3fd44a4>
     4a4:	6c693d69 	bgeu	$r11,$r9,26940(0x693c) # 6de0 <data_size+0x662c>
     4a8:	73323370 	0x73323370
     4ac:	616d2d20 	blt	$r9,$r0,93484(0x16d2c) # 171d8 <data_size+0x16a24>
     4b0:	3d686372 	0x3d686372
     4b4:	6e6f6f6c 	bgeu	$r27,$r12,-102548(0x26f6c) # fffe7420 <_stack+0xe3fd52b8>
     4b8:	63726167 	blt	$r11,$r7,-36256(0x37260) # ffff7718 <_stack+0xe3fe55b0>
     4bc:	72323368 	0x72323368
     4c0:	666d2d20 	bge	$r9,$r0,-103124(0x26d2c) # fffe71ec <_stack+0xe3fd5084>
     4c4:	6e3d7570 	bgeu	$r11,$r16,-115340(0x23d74) # fffe4238 <_stack+0xe3fd20d0>
     4c8:	20656e6f 	ll.w	$r15,$r19,25964(0x656c)
     4cc:	6d636d2d 	bgeu	$r9,$r13,90988(0x1636c) # 16838 <data_size+0x16084>
     4d0:	6c65646f 	bgeu	$r3,$r15,25956(0x6564) # 6a34 <data_size+0x6280>
     4d4:	726f6e3d 	0x726f6e3d
     4d8:	206c616d 	ll.w	$r13,$r11,27744(0x6c60)
     4dc:	75746d2d 	0x75746d2d
     4e0:	6c3d656e 	bgeu	$r11,$r14,15716(0x3d64) # 4244 <data_size+0x3a90>
     4e4:	676e6f6f 	bge	$r27,$r15,-37268(0x36e6c) # ffff7350 <_stack+0xe3fe51e8>
     4e8:	68637261 	bltu	$r19,$r1,25456(0x6370) # 6858 <data_size+0x60a4>
     4ec:	20723233 	ll.w	$r19,$r17,29232(0x7230)
     4f0:	2d20672d 	0x2d20672d
     4f4:	2d20324f 	0x2d20324f
     4f8:	2d6f6e66 	0x2d6f6e66
     4fc:	6c697562 	bgeu	$r11,$r2,26996(0x6974) # 6e70 <data_size+0x66bc>
     500:	206e6974 	ll.w	$r20,$r11,28264(0x6e68)
     504:	6f6e662d 	bgeu	$r17,$r13,-37276(0x36e64) # ffff7368 <_stack+0xe3fe5200>
     508:	6369702d 	blt	$r1,$r13,-38544(0x36970) # ffff6e78 <_stack+0xe3fe4d10>
     50c:	75700c00 	0x75700c00
     510:	632e7374 	blt	$r27,$r20,-53648(0x32e70) # ffff3380 <_stack+0xe3fe1218>
     514:	6f682f00 	bgeu	$r24,$r0,-38868(0x3682c) # ffff6d40 <_stack+0xe3fe4bd8>
     518:	772f656d 	0x772f656d
     51c:	772f7477 	0x772f7477
     520:	2f6b726f 	0x2f6b726f
     524:	66726570 	bge	$r11,$r16,-101788(0x27264) # fffe7788 <_stack+0xe3fd5620>
     528:	6e75665f 	bgeu	$r18,$r31,-101020(0x27564) # fffe7a8c <_stack+0xe3fd5924>
     52c:	696c2f63 	bltu	$r27,$r3,93228(0x16c2c) # 17158 <data_size+0x169a4>
     530:	14e80062 	lu12i.w	$r2,475139(0x74003)
     534:	00a01c00 	bstrins.d	$r0,$r0,0x20,0x7
     538:	05270000 	0x05270000
     53c:	04020000 	csrrd	$r0,0x80
     540:	736e7507 	vssrarni.du.q	$vr7,$vr8,0x1d
     544:	656e6769 	bge	$r27,$r9,93796(0x16e64) # 173a8 <data_size+0x16bf4>
     548:	6e692064 	bgeu	$r3,$r4,-104160(0x26920) # fffe6e68 <_stack+0xe3fd4d00>
     54c:	04020074 	csrxchg	$r20,$r3,0x80
     550:	6e6f6c07 	bgeu	$r0,$r7,-102548(0x26f6c) # fffe74bc <_stack+0xe3fd5354>
     554:	6e752067 	bgeu	$r3,$r7,-101088(0x27520) # fffe7a74 <_stack+0xe3fd590c>
     558:	6e676973 	bgeu	$r11,$r19,-104600(0x26768) # fffe6cc0 <_stack+0xe3fd4b58>
     55c:	69206465 	bltu	$r3,$r5,73828(0x12064) # 125c0 <data_size+0x11e0c>
     560:	0300746e 	lu52i.d	$r14,$r3,29(0x1d)
     564:	73747570 	0x73747570
     568:	050e0100 	0x050e0100
     56c:	00000150 	0x00000150
     570:	1c00155c 	pcaddu12i	$r28,170(0xaa)
     574:	0000002c 	0x0000002c
     578:	01509c01 	0x01509c01
     57c:	73040000 	0x73040000
     580:	100e0100 	addu16i.d	$r0,$r8,896(0x380)
     584:	00000157 	0x00000157
     588:	00000204 	0x00000204
     58c:	00002805 	cto.d	$r5,$r0
     590:	10060100 	addu16i.d	$r0,$r8,384(0x180)
     594:	00000150 	0x00000150
     598:	00000118 	0x00000118
     59c:	68070006 	bltu	$r0,$r6,1792(0x700) # c9c <data_size+0x4e8>
     5a0:	651c0015 	bge	$r0,$r21,72704(0x11c00) # 121a0 <data_size+0x119ec>
     5a4:	2d000001 	0x2d000001
     5a8:	08000001 	0x08000001
     5ac:	f3035401 	0xf3035401
     5b0:	07005401 	0x07005401
     5b4:	1c001570 	pcaddu12i	$r16,171(0xab)
     5b8:	0000020d 	0x0000020d
     5bc:	00000140 	0x00000140
     5c0:	01540108 	0x01540108
     5c4:	7809003d 	0x7809003d
     5c8:	0d1c0015 	vbitsel.v	$vr21,$vr0,$vr0,$vr24
     5cc:	08000002 	0x08000002
     5d0:	3a015401 	0x3a015401
     5d4:	04020000 	csrrd	$r0,0x80
     5d8:	746e6905 	0x746e6905
     5dc:	5d040a00 	bne	$r16,$r0,66568(0x10408) # 109e4 <data_size+0x10230>
     5e0:	02000001 	slti	$r1,$r0,0
     5e4:	68630601 	bltu	$r16,$r1,25348(0x6304) # 68e8 <data_size+0x6134>
     5e8:	03007261 	lu52i.d	$r1,$r19,28(0x1c)
     5ec:	73747570 	0x73747570
     5f0:	6e697274 	bgeu	$r19,$r20,-104080(0x26970) # fffe6f60 <_stack+0xe3fd4df8>
     5f4:	01010067 	fadd.d	$f7,$f3,$f0
     5f8:	00015005 	0x00015005
     5fc:	0014e800 	and	$r0,$r0,$r26
     600:	0000741c 	0x0000741c
     604:	0d9c0100 	0x0d9c0100
     608:	04000002 	csrrd	$r2,0x0
     60c:	01010073 	fadd.d	$f19,$f3,$f0
     610:	00015715 	0x00015715
     614:	00022500 	0x00022500
     618:	00630b00 	bstrins.w	$r0,$r24,0x3,0x2
     61c:	5d060301 	bne	$r24,$r1,67072(0x10600) # 10c1c <data_size+0x10468>
     620:	68000001 	bltu	$r0,$r1,0 # 620 <data_size-0x194>
     624:	0c000002 	0x0c000002
     628:	00000048 	0x00000048
     62c:	00002805 	cto.d	$r5,$r0
     630:	10060100 	addu16i.d	$r0,$r8,384(0x180)
     634:	00000150 	0x00000150
     638:	000001b8 	0x000001b8
     63c:	280d0006 	ld.b	$r6,$r0,832(0x340)
     640:	081c0015 	fmadd.s	$f21,$f0,$f0,$f24
     644:	e7000000 	0xe7000000
     648:	05000001 	0x05000001
     64c:	00000028 	0x00000028
     650:	50100601 	b	-133951484(0x8041004) # f8041654 <_stack+0xdc02f4ec>
     654:	d7000001 	0xd7000001
     658:	06000001 	cacop	0x1,$r0,0
     65c:	15300900 	lu12i.w	$r0,-425912(0x98048)
     660:	020d1c00 	slti	$r0,$r0,839(0x347)
     664:	01080000 	0x01080000
     668:	003d0154 	0x003d0154
     66c:	15180700 	lu12i.w	$r0,-475080(0x8c038)
     670:	020d1c00 	slti	$r0,$r0,839(0x347)
     674:	01fb0000 	0x01fb0000
     678:	01080000 	0x01080000
     67c:	00870254 	bstrins.d	$r20,$r18,0x7,0x0
     680:	15380900 	lu12i.w	$r0,-409528(0x9c048)
     684:	020d1c00 	slti	$r0,$r0,839(0x347)
     688:	01080000 	0x01080000
     68c:	00870254 	bstrins.d	$r20,$r18,0x7,0x0
     690:	0e000000 	0x0e000000
     694:	00000028 	0x00000028
     698:	00000028 	0x00000028
     69c:	00100601 	add.w	$r1,$r16,$r1
     6a0:	00000216 	0x00000216
     6a4:	02aa0004 	addi.w	$r4,$r0,-1408(0xa80)
     6a8:	01040000 	0x01040000
     6ac:	20554e47 	ll.w	$r7,$r18,21836(0x554c)
     6b0:	20373143 	ll.w	$r3,$r10,14128(0x3730)
     6b4:	2e332e38 	0x2e332e38
     6b8:	6d2d2030 	bgeu	$r1,$r16,77088(0x12d20) # 133d8 <data_size+0x12c24>
     6bc:	3d696261 	0x3d696261
     6c0:	33706c69 	xvstelm.h	$xr9,$r3,54(0x36),0xc
     6c4:	2d207332 	0x2d207332
     6c8:	6372616d 	blt	$r11,$r13,-36256(0x37260) # ffff7928 <_stack+0xe3fe57c0>
     6cc:	6f6c3d68 	bgeu	$r11,$r8,-37828(0x36c3c) # ffff7308 <_stack+0xe3fe51a0>
     6d0:	61676e6f 	blt	$r19,$r15,92012(0x1676c) # 16e3c <data_size+0x16688>
     6d4:	33686372 	xvstelm.h	$xr18,$r27,48(0x30),0xa
     6d8:	2d207232 	0x2d207232
     6dc:	7570666d 	0x7570666d
     6e0:	6e6f6e3d 	bgeu	$r17,$r29,-102548(0x26f6c) # fffe764c <_stack+0xe3fd54e4>
     6e4:	6d2d2065 	bgeu	$r3,$r5,77088(0x12d20) # 13404 <data_size+0x12c50>
     6e8:	646f6d63 	bge	$r11,$r3,28524(0x6f6c) # 7654 <data_size+0x6ea0>
     6ec:	6e3d6c65 	bgeu	$r3,$r5,-115348(0x23d6c) # fffe4458 <_stack+0xe3fd22f0>
     6f0:	616d726f 	blt	$r19,$r15,93552(0x16d70) # 17460 <data_size+0x16cac>
     6f4:	6d2d206c 	bgeu	$r3,$r12,77088(0x12d20) # 13414 <data_size+0x12c60>
     6f8:	656e7574 	bge	$r11,$r20,93812(0x16e74) # 1756c <data_size+0x16db8>
     6fc:	6f6f6c3d 	bgeu	$r1,$r29,-37012(0x36f6c) # ffff7668 <_stack+0xe3fe5500>
     700:	7261676e 	0x7261676e
     704:	32336863 	0x32336863
     708:	672d2072 	bge	$r3,$r18,-53984(0x32d20) # ffff3428 <_stack+0xe3fe12c0>
     70c:	324f2d20 	xvldrepl.h	$xr0,$r9,1942(0x796)
     710:	6e662d20 	bgeu	$r9,$r0,-104916(0x2662c) # fffe6d3c <_stack+0xe3fd4bd4>
     714:	75622d6f 	0x75622d6f
     718:	69746c69 	bltu	$r3,$r9,95340(0x1746c) # 17b84 <data_size+0x173d0>
     71c:	662d206e 	bge	$r3,$r14,-119520(0x22d20) # fffe343c <_stack+0xe3fd12d4>
     720:	702d6f6e 	0x702d6f6e
     724:	0c006369 	0x0c006369
     728:	6e697270 	bgeu	$r19,$r16,-104080(0x26970) # fffe7098 <_stack+0xe3fd4f30>
     72c:	73616274 	vssrani.w.d	$vr20,$vr19,0x18
     730:	00632e65 	bstrins.w	$r5,$r19,0x3,0xb
     734:	6d6f682f 	bgeu	$r1,$r15,94056(0x16f68) # 1769c <data_size+0x16ee8>
     738:	77772f65 	0x77772f65
     73c:	6f772f74 	bgeu	$r27,$r20,-35028(0x3772c) # ffff7e68 <_stack+0xe3fe5d00>
     740:	702f6b72 	vaddwev.d.wu	$vr18,$vr27,$vr26
     744:	5f667265 	bne	$r19,$r5,-39312(0x36670) # ffff6db4 <_stack+0xe3fe4c4c>
     748:	636e7566 	blt	$r11,$r6,-37260(0x36e74) # ffff75bc <_stack+0xe3fe5454>
     74c:	62696c2f 	blt	$r1,$r15,-104084(0x2696c) # fffe70b8 <_stack+0xe3fd4f50>
     750:	00158800 	xor	$r0,$r0,$r2
     754:	0000e81c 	0x0000e81c
     758:	00069000 	alsl.wu	$r0,$r0,$r4,0x2
     75c:	07040200 	0x07040200
     760:	69736e75 	bltu	$r19,$r21,95084(0x1736c) # 17acc <data_size+0x17318>
     764:	64656e67 	bge	$r19,$r7,25964(0x656c) # 6cd0 <data_size+0x651c>
     768:	746e6920 	0x746e6920
     76c:	07040200 	0x07040200
     770:	676e6f6c 	bge	$r27,$r12,-37268(0x36e6c) # ffff75dc <_stack+0xe3fe5474>
     774:	736e7520 	vssrarni.du.q	$vr0,$vr9,0x1d
     778:	656e6769 	bge	$r27,$r9,93796(0x16e64) # 175dc <data_size+0x16e28>
     77c:	6e692064 	bgeu	$r3,$r4,-104160(0x26920) # fffe709c <_stack+0xe3fd4f34>
     780:	70030074 	vsle.w	$vr20,$vr3,$vr0
     784:	746e6972 	0x746e6972
     788:	65736162 	bge	$r11,$r2,95072(0x17360) # 17ae8 <data_size+0x17334>
     78c:	05010100 	0x05010100
     790:	000001e2 	0x000001e2
     794:	1c001588 	pcaddu12i	$r8,172(0xac)
     798:	000000e8 	0x000000e8
     79c:	01e29c01 	0x01e29c01
     7a0:	76040000 	0x76040000
     7a4:	14010100 	lu12i.w	$r0,2056(0x808)
     7a8:	000001e9 	0x000001e9
     7ac:	0000027b 	0x0000027b
     7b0:	01007704 	0x01007704
     7b4:	01e21a01 	0x01e21a01
     7b8:	02cb0000 	addi.d	$r0,$r0,704(0x2c0)
     7bc:	62040000 	blt	$r0,$r0,-130048(0x20400) # fffe0bbc <_stack+0xe3fcea54>
     7c0:	00657361 	bstrins.w	$r1,$r27,0x5,0x1c
     7c4:	e2200101 	0xe2200101
     7c8:	0f000001 	0x0f000001
     7cc:	04000003 	csrrd	$r3,0x0
     7d0:	6e676973 	bgeu	$r11,$r19,-104600(0x26768) # fffe6f38 <_stack+0xe3fd4dd0>
     7d4:	29010100 	st.b	$r0,$r8,64(0x40)
     7d8:	000001e2 	0x000001e2
     7dc:	00000353 	0x00000353
     7e0:	01006905 	0x01006905
     7e4:	01e20603 	0x01e20603
     7e8:	03980000 	ori	$r0,$r0,0x600
     7ec:	6a050000 	bltu	$r0,$r0,-129792(0x20500) # fffe0cec <_stack+0xe3fceb84>
     7f0:	08030100 	0x08030100
     7f4:	000001e2 	0x000001e2
     7f8:	000003eb 	0x000003eb
     7fc:	01006305 	0x01006305
     800:	01e20604 	0x01e20604
     804:	04380000 	csrrd	$r0,0xe00
     808:	62060000 	blt	$r0,$r0,-129536(0x20600) # fffe0e08 <_stack+0xe3fceca0>
     80c:	01006675 	0x01006675
     810:	01f50705 	0x01f50705
     814:	91030000 	0x91030000
     818:	76057fb0 	0x76057fb0
     81c:	65756c61 	bge	$r3,$r1,95596(0x1756c) # 17d88 <data_size+0x175d4>
     820:	10060100 	addu16i.d	$r0,$r8,384(0x180)
     824:	000000cd 	0x000000cd
     828:	0000044b 	0x0000044b
     82c:	00164407 	orn	$r7,$r0,$r17
     830:	0000201c 	clo.d	$r28,$r0
     834:	0001bc00 	asrtgt.d	$r0,$r15
     838:	00300800 	0x00300800
     83c:	0a010000 	0x0a010000
     840:	0001e202 	0x0001e202
     844:	0001ab00 	asrtgt.d	$r24,$r10
     848:	0a000900 	0x0a000900
     84c:	1c001654 	pcaddu12i	$r20,178(0xb2)
     850:	0000020d 	0x0000020d
     854:	0254010b 	sltui	$r11,$r8,1280(0x500)
     858:	00002d08 	ctz.d	$r8,$r8
     85c:	0015f00c 	xor	$r12,$r0,$r28
     860:	00002c1c 	ctz.d	$r28,$r0
     864:	00300800 	0x00300800
     868:	0a010000 	0x0a010000
     86c:	0001e202 	0x0001e202
     870:	0001d700 	asrtgt.d	$r24,$r21
     874:	0d000900 	fsel	$f0,$f8,$f2,$fcc0
     878:	1c00161c 	pcaddu12i	$r28,176(0xb0)
     87c:	0000020d 	0x0000020d
     880:	04020000 	csrrd	$r0,0x80
     884:	746e6905 	0x746e6905
     888:	05040200 	0x05040200
     88c:	676e6f6c 	bge	$r27,$r12,-37268(0x36e6c) # ffff76f8 <_stack+0xe3fe5590>
     890:	746e6920 	0x746e6920
     894:	02050e00 	slti	$r0,$r16,323(0x143)
     898:	02050000 	slti	$r0,$r0,320(0x140)
     89c:	bd0f0000 	0xbd0f0000
     8a0:	3f000000 	0x3f000000
     8a4:	06010200 	cacop	0x0,$r16,64(0x40)
     8a8:	72616863 	0x72616863
     8ac:	00301000 	0x00301000
     8b0:	00300000 	0x00300000
     8b4:	0a010000 	0x0a010000
     8b8:	01320002 	0x01320002
     8bc:	00040000 	alsl.w	$r0,$r0,$r0,0x1
     8c0:	0000038f 	0x0000038f
     8c4:	4e470104 	jirl	$r4,$r8,-112896(0x24700)
     8c8:	31432055 	vstelm.h	$vr21,$r2,-112(0x190),0x0
     8cc:	2e382037 	0x2e382037
     8d0:	20302e33 	ll.w	$r19,$r17,12332(0x302c)
     8d4:	62616d2d 	blt	$r9,$r13,-106132(0x2616c) # fffe6a40 <_stack+0xe3fd48d8>
     8d8:	6c693d69 	bgeu	$r11,$r9,26940(0x693c) # 7214 <data_size+0x6a60>
     8dc:	73323370 	0x73323370
     8e0:	616d2d20 	blt	$r9,$r0,93484(0x16d2c) # 1760c <data_size+0x16e58>
     8e4:	3d686372 	0x3d686372
     8e8:	6e6f6f6c 	bgeu	$r27,$r12,-102548(0x26f6c) # fffe7854 <_stack+0xe3fd56ec>
     8ec:	63726167 	blt	$r11,$r7,-36256(0x37260) # ffff7b4c <_stack+0xe3fe59e4>
     8f0:	72323368 	0x72323368
     8f4:	666d2d20 	bge	$r9,$r0,-103124(0x26d2c) # fffe7620 <_stack+0xe3fd54b8>
     8f8:	6e3d7570 	bgeu	$r11,$r16,-115340(0x23d74) # fffe466c <_stack+0xe3fd2504>
     8fc:	20656e6f 	ll.w	$r15,$r19,25964(0x656c)
     900:	6d636d2d 	bgeu	$r9,$r13,90988(0x1636c) # 16c6c <data_size+0x164b8>
     904:	6c65646f 	bgeu	$r3,$r15,25956(0x6564) # 6e68 <data_size+0x66b4>
     908:	726f6e3d 	0x726f6e3d
     90c:	206c616d 	ll.w	$r13,$r11,27744(0x6c60)
     910:	75746d2d 	0x75746d2d
     914:	6c3d656e 	bgeu	$r11,$r14,15716(0x3d64) # 4678 <data_size+0x3ec4>
     918:	676e6f6f 	bge	$r27,$r15,-37268(0x36e6c) # ffff7784 <_stack+0xe3fe561c>
     91c:	68637261 	bltu	$r19,$r1,25456(0x6370) # 6c8c <data_size+0x64d8>
     920:	20723233 	ll.w	$r19,$r17,29232(0x7230)
     924:	2d20672d 	0x2d20672d
     928:	2d20324f 	0x2d20324f
     92c:	2d6f6e66 	0x2d6f6e66
     930:	6c697562 	bgeu	$r11,$r2,26996(0x6974) # 72a4 <data_size+0x6af0>
     934:	206e6974 	ll.w	$r20,$r11,28264(0x6e68)
     938:	6f6e662d 	bgeu	$r17,$r13,-37276(0x36e64) # ffff779c <_stack+0xe3fe5634>
     93c:	6369702d 	blt	$r1,$r13,-38544(0x36970) # ffff72ac <_stack+0xe3fe5144>
     940:	74730c00 	xvmin.w	$xr0,$xr0,$xr3
     944:	706d6372 	0x706d6372
     948:	2f00632e 	0x2f00632e
     94c:	656d6f68 	bge	$r27,$r8,93548(0x16d6c) # 176b8 <data_size+0x16f04>
     950:	7477772f 	xvmin.wu	$xr15,$xr25,$xr29
     954:	726f772f 	0x726f772f
     958:	65702f6b 	bge	$r27,$r11,94252(0x1702c) # 17984 <data_size+0x171d0>
     95c:	665f6672 	bge	$r19,$r18,-106652(0x25f64) # fffe68c0 <_stack+0xe3fd4758>
     960:	2f636e75 	0x2f636e75
     964:	0062696c 	bstrins.w	$r12,$r11,0x2,0x1a
     968:	1c001670 	pcaddu12i	$r16,179(0xb3)
     96c:	00000044 	0x00000044
     970:	00000853 	0x00000853
     974:	75070402 	xvssran.hu.w	$xr2,$xr0,$xr1
     978:	6769736e 	bge	$r27,$r14,-38544(0x36970) # ffff72e8 <_stack+0xe3fe5180>
     97c:	2064656e 	ll.w	$r14,$r11,25700(0x6464)
     980:	00746e69 	bstrins.w	$r9,$r19,0x14,0x1b
     984:	6c070402 	bgeu	$r0,$r2,1796(0x704) # 1088 <data_size+0x8d4>
     988:	20676e6f 	ll.w	$r15,$r19,26476(0x676c)
     98c:	69736e75 	bltu	$r19,$r21,95084(0x1736c) # 17cf8 <data_size+0x17544>
     990:	64656e67 	bge	$r19,$r7,25964(0x656c) # 6efc <data_size+0x6748>
     994:	746e6920 	0x746e6920
     998:	74730300 	xvmin.w	$xr0,$xr24,$xr0
     99c:	706d6372 	0x706d6372
     9a0:	01050100 	fmul.d	$f0,$f8,$f0
     9a4:	0000011b 	0x0000011b
     9a8:	1c001670 	pcaddu12i	$r16,179(0xb3)
     9ac:	00000044 	0x00000044
     9b0:	011b9c01 	0x011b9c01
     9b4:	73040000 	0x73040000
     9b8:	05010031 	0x05010031
     9bc:	00012214 	0x00012214
     9c0:	0004ab00 	alsl.w	$r0,$r24,$r10,0x2
     9c4:	32730400 	0x32730400
     9c8:	24050100 	ldptr.w	$r0,$r8,1280(0x500)
     9cc:	00000122 	0x00000122
     9d0:	000004d4 	0x000004d4
     9d4:	05040200 	0x05040200
     9d8:	00746e69 	bstrins.w	$r9,$r19,0x14,0x1b
     9dc:	01300405 	0x01300405
     9e0:	01020000 	0x01020000
     9e4:	61686306 	blt	$r24,$r6,92256(0x16860) # 17244 <data_size+0x16a90>
     9e8:	28060072 	ld.b	$r18,$r3,384(0x180)
     9ec:	00000001 	0x00000001
     9f0:	0000051f 	0x0000051f
     9f4:	03ed0004 	xori	$r4,$r0,0xb40
     9f8:	01040000 	0x01040000
     9fc:	20554e47 	ll.w	$r7,$r18,21836(0x554c)
     a00:	20373143 	ll.w	$r3,$r10,14128(0x3730)
     a04:	2e332e38 	0x2e332e38
     a08:	6d2d2030 	bgeu	$r1,$r16,77088(0x12d20) # 13728 <data_size+0x12f74>
     a0c:	3d696261 	0x3d696261
     a10:	33706c69 	xvstelm.h	$xr9,$r3,54(0x36),0xc
     a14:	2d207332 	0x2d207332
     a18:	6372616d 	blt	$r11,$r13,-36256(0x37260) # ffff7c78 <_stack+0xe3fe5b10>
     a1c:	6f6c3d68 	bgeu	$r11,$r8,-37828(0x36c3c) # ffff7658 <_stack+0xe3fe54f0>
     a20:	61676e6f 	blt	$r19,$r15,92012(0x1676c) # 1718c <data_size+0x169d8>
     a24:	33686372 	xvstelm.h	$xr18,$r27,48(0x30),0xa
     a28:	2d207232 	0x2d207232
     a2c:	7570666d 	0x7570666d
     a30:	6e6f6e3d 	bgeu	$r17,$r29,-102548(0x26f6c) # fffe799c <_stack+0xe3fd5834>
     a34:	6d2d2065 	bgeu	$r3,$r5,77088(0x12d20) # 13754 <data_size+0x12fa0>
     a38:	646f6d63 	bge	$r11,$r3,28524(0x6f6c) # 79a4 <data_size+0x71f0>
     a3c:	6e3d6c65 	bgeu	$r3,$r5,-115348(0x23d6c) # fffe47a8 <_stack+0xe3fd2640>
     a40:	616d726f 	blt	$r19,$r15,93552(0x16d70) # 177b0 <data_size+0x16ffc>
     a44:	6d2d206c 	bgeu	$r3,$r12,77088(0x12d20) # 13764 <data_size+0x12fb0>
     a48:	656e7574 	bge	$r11,$r20,93812(0x16e74) # 178bc <data_size+0x17108>
     a4c:	6f6f6c3d 	bgeu	$r1,$r29,-37012(0x36f6c) # ffff79b8 <_stack+0xe3fe5850>
     a50:	7261676e 	0x7261676e
     a54:	32336863 	0x32336863
     a58:	672d2072 	bge	$r3,$r18,-53984(0x32d20) # ffff3778 <_stack+0xe3fe1610>
     a5c:	324f2d20 	xvldrepl.h	$xr0,$r9,1942(0x796)
     a60:	6e662d20 	bgeu	$r9,$r0,-104916(0x2662c) # fffe708c <_stack+0xe3fd4f24>
     a64:	75622d6f 	0x75622d6f
     a68:	69746c69 	bltu	$r3,$r9,95340(0x1746c) # 17ed4 <data_size+0x17720>
     a6c:	662d206e 	bge	$r3,$r14,-119520(0x22d20) # fffe378c <_stack+0xe3fd1624>
     a70:	702d6f6e 	0x702d6f6e
     a74:	0c006369 	0x0c006369
     a78:	69727473 	bltu	$r3,$r19,94836(0x17274) # 17cec <data_size+0x17538>
     a7c:	632e676e 	blt	$r27,$r14,-53660(0x32e64) # ffff38e0 <_stack+0xe3fe1778>
     a80:	6f682f00 	bgeu	$r24,$r0,-38868(0x3682c) # ffff72ac <_stack+0xe3fe5144>
     a84:	772f656d 	0x772f656d
     a88:	772f7477 	0x772f7477
     a8c:	2f6b726f 	0x2f6b726f
     a90:	66726570 	bge	$r11,$r16,-101788(0x27264) # fffe7cf4 <_stack+0xe3fd5b8c>
     a94:	6e75665f 	bgeu	$r18,$r31,-101020(0x27564) # fffe7ff8 <_stack+0xe3fd5e90>
     a98:	696c2f63 	bltu	$r27,$r3,93228(0x16c2c) # 176c4 <data_size+0x16f10>
     a9c:	00600062 	bstrins.w	$r2,$r3,0x0,0x0
     aa0:	00000000 	0x00000000
     aa4:	094a0000 	0x094a0000
     aa8:	04020000 	csrrd	$r0,0x80
     aac:	75070403 	xvssran.hu.w	$xr3,$xr0,$xr1
     ab0:	6769736e 	bge	$r27,$r14,-38544(0x36970) # ffff7420 <_stack+0xe3fe52b8>
     ab4:	2064656e 	ll.w	$r14,$r11,25700(0x6464)
     ab8:	00746e69 	bstrins.w	$r9,$r19,0x14,0x1b
     abc:	6c070403 	bgeu	$r0,$r3,1796(0x704) # 11c0 <data_size+0xa0c>
     ac0:	20676e6f 	ll.w	$r15,$r19,26476(0x676c)
     ac4:	69736e75 	bltu	$r19,$r21,95084(0x1736c) # 17e30 <data_size+0x1767c>
     ac8:	64656e67 	bge	$r19,$r7,25964(0x656c) # 7034 <data_size+0x6880>
     acc:	746e6920 	0x746e6920
     ad0:	69730400 	bltu	$r0,$r0,94980(0x17304) # 17dd4 <data_size+0x17620>
     ad4:	745f657a 	0x745f657a
     ad8:	160f0200 	lu32i.d	$r0,30736(0x7810)
     adc:	000000bc 	0x000000bc
     ae0:	657a6205 	bge	$r16,$r5,96864(0x17a60) # 18540 <data_size+0x17d8c>
     ae4:	01006f72 	0x01006f72
     ae8:	0c060157 	0x0c060157
     aec:	181c0019 	pcaddi	$r25,57344(0xe000)
     af0:	01000000 	0x01000000
     af4:	0001639c 	0x0001639c
     af8:	00730600 	bstrins.w	$r0,$r16,0x13,0x1
     afc:	12015701 	addu16i.d	$r1,$r24,-32683(0x8055)
     b00:	000000ba 	0x000000ba
     b04:	000004e7 	0x000004e7
     b08:	01006e06 	0x01006e06
     b0c:	e11c0157 	0xe11c0157
     b10:	08000000 	0x08000000
     b14:	07000005 	0x07000005
     b18:	000002cd 	0x000002cd
     b1c:	1c00190c 	pcaddu12i	$r12,200(0xc8)
     b20:	00000014 	0x00000014
     b24:	02015801 	slti	$r1,$r0,86(0x56)
     b28:	0002f508 	0x0002f508
     b2c:	00052900 	alsl.w	$r0,$r8,$r10,0x3
     b30:	02eb0900 	addi.d	$r0,$r8,-1342(0xac2)
     b34:	08000000 	0x08000000
     b38:	000002e1 	0x000002e1
     b3c:	0000054e 	0x0000054e
     b40:	00190c0a 	srl.d	$r10,$r0,$r3
     b44:	0000141c 	clz.w	$r28,$r0
     b48:	02ff0b00 	addi.d	$r0,$r24,-62(0xfc2)
     b4c:	54010000 	bl	256(0x100) # c4c <data_size+0x498>
     b50:	0c000000 	0x0c000000
     b54:	636d656d 	blt	$r11,$r13,-37532(0x36d64) # ffff78b8 <_stack+0xe3fe5750>
     b58:	0100706d 	0x0100706d
     b5c:	cf01014b 	0xcf01014b
     b60:	b4000001 	0xb4000001
     b64:	581c0018 	beq	$r0,$r24,7168(0x1c00) # 2764 <data_size+0x1fb0>
     b68:	01000000 	0x01000000
     b6c:	0001cf9c 	0x0001cf9c
     b70:	31760600 	0x31760600
     b74:	014b0100 	0x014b0100
     b78:	0001d614 	0x0001d614
     b7c:	00056f00 	alsl.w	$r0,$r24,$r27,0x3
     b80:	32760600 	0x32760600
     b84:	014b0100 	0x014b0100
     b88:	0001d624 	0x0001d624
     b8c:	00059000 	alsl.w	$r0,$r0,$r4,0x4
     b90:	006e0600 	bstrins.w	$r0,$r16,0xe,0x1
     b94:	2f014b01 	0x2f014b01
     b98:	000000e1 	0x000000e1
     b9c:	000005b1 	0x000005b1
     ba0:	0031730d 	0x0031730d
     ba4:	11014c01 	addu16i.d	$r1,$r0,16467(0x4053)
     ba8:	000001dd 	0x000001dd
     bac:	000005e1 	0x000005e1
     bb0:	0032730e 	0x0032730e
     bb4:	11014d01 	addu16i.d	$r1,$r8,16467(0x4053)
     bb8:	000001dd 	0x000001dd
     bbc:	03005501 	lu52i.d	$r1,$r8,21(0x15)
     bc0:	6e690504 	bgeu	$r8,$r4,-104188(0x26904) # fffe74c4 <_stack+0xe3fd535c>
     bc4:	040f0074 	csrxchg	$r20,$r3,0x3c0
     bc8:	000001dc 	0x000001dc
     bcc:	eb040f10 	0xeb040f10
     bd0:	03000001 	lu52i.d	$r1,$r0,0
     bd4:	68630601 	bltu	$r16,$r1,25348(0x6304) # 6ed8 <data_size+0x6724>
     bd8:	11007261 	addu16i.d	$r1,$r19,16412(0x401c)
     bdc:	000001e3 	0x000001e3
     be0:	6d656d0c 	bgeu	$r8,$r12,91500(0x1656c) # 1714c <data_size+0x16998>
     be4:	65766f6d 	bge	$r27,$r13,95852(0x1766c) # 18250 <data_size+0x17a9c>
     be8:	01280100 	0x01280100
     bec:	0000ba01 	0x0000ba01
     bf0:	00186000 	sra.w	$r0,$r0,$r24
     bf4:	0000541c 	bitrev.d	$r28,$r0
     bf8:	5d9c0100 	bne	$r8,$r0,105472(0x19c00) # 1a7f8 <data_size+0x1a044>
     bfc:	12000002 	addu16i.d	$r2,$r0,-32768(0x8000)
     c00:	00747364 	bstrins.w	$r4,$r27,0x14,0x1c
     c04:	0f012801 	0x0f012801
     c08:	000000ba 	0x000000ba
     c0c:	73065401 	0x73065401
     c10:	01006372 	0x01006372
     c14:	d6200128 	0xd6200128
     c18:	ff000001 	0xff000001
     c1c:	06000005 	cacop	0x5,$r0,0
     c20:	2801006e 	ld.b	$r14,$r3,64(0x40)
     c24:	00e12c01 	bstrpick.d	$r1,$r0,0x21,0xb
     c28:	062b0000 	cacop	0x0,$r0,-1344(0xac0)
     c2c:	730d0000 	vextl.qu.du	$vr0,$vr0
     c30:	012c0100 	0x012c0100
     c34:	0001dd11 	0x0001dd11
     c38:	00065800 	alsl.wu	$r0,$r0,$r22,0x1
     c3c:	00640d00 	bstrins.w	$r0,$r8,0x4,0x3
     c40:	0b012d01 	0x0b012d01
     c44:	0000025d 	0x0000025d
     c48:	0000068c 	0x0000068c
     c4c:	e3040f00 	0xe3040f00
     c50:	0c000001 	0x0c000001
     c54:	636d656d 	blt	$r11,$r13,-37532(0x36d64) # ffff79b8 <_stack+0xe3fe5850>
     c58:	01007970 	0x01007970
     c5c:	ba010111 	0xba010111
     c60:	3c000000 	0x3c000000
     c64:	241c0018 	ldptr.w	$r24,$r0,7168(0x1c00)
     c68:	01000000 	0x01000000
     c6c:	0002cd9c 	0x0002cd9c
     c70:	73641200 	0x73641200
     c74:	11010074 	addu16i.d	$r20,$r3,16448(0x4040)
     c78:	00ba0e01 	bstrins.d	$r1,$r16,0x3a,0x3
     c7c:	54010000 	bl	256(0x100) # d7c <data_size+0x5c8>
     c80:	63727306 	blt	$r24,$r6,-36240(0x37270) # ffff7ef0 <_stack+0xe3fe5d88>
     c84:	01110100 	fscaleb.d	$f0,$f8,$f0
     c88:	0001d61f 	0x0001d61f
     c8c:	0006cb00 	alsl.wu	$r0,$r24,$r18,0x2
     c90:	006e0600 	bstrins.w	$r0,$r16,0xe,0x1
     c94:	2b011101 	fld.s	$f1,$r8,68(0x44)
     c98:	000000e1 	0x000000e1
     c9c:	000006ec 	0x000006ec
     ca0:	0100730e 	0x0100730e
     ca4:	dd110115 	0xdd110115
     ca8:	01000001 	0x01000001
     cac:	00640d55 	bstrins.w	$r21,$r10,0x4,0x3
     cb0:	0b011601 	0x0b011601
     cb4:	0000025d 	0x0000025d
     cb8:	0000071c 	0x0000071c
     cbc:	656d1300 	bge	$r24,$r0,93456(0x16d10) # 179cc <data_size+0x17218>
     cc0:	7465736d 	xvavg.w	$xr13,$xr27,$xr28
     cc4:	01f60100 	0x01f60100
     cc8:	000000ba 	0x000000ba
     ccc:	00030a01 	0x00030a01
     cd0:	00731400 	bstrins.w	$r0,$r0,0x13,0x5
     cd4:	ba0ef601 	0xba0ef601
     cd8:	14000000 	lu12i.w	$r0,0
     cdc:	f6010063 	0xf6010063
     ce0:	0001e316 	0x0001e316
     ce4:	006e1400 	bstrins.w	$r0,$r0,0xe,0x5
     ce8:	e120f601 	0xe120f601
     cec:	15000000 	lu12i.w	$r0,-524288(0x80000)
     cf0:	fa010070 	0xfa010070
     cf4:	00025d0b 	0x00025d0b
     cf8:	73160000 	0x73160000
     cfc:	69667274 	bltu	$r19,$r20,91760(0x16670) # 1736c <data_size+0x16bb8>
     d00:	0100646e 	0x0100646e
     d04:	025d0188 	sltui	$r8,$r12,1856(0x740)
     d08:	17f80000 	lu32i.d	$r0,-16384(0xfc000)
     d0c:	00281c00 	0x00281c00
     d10:	9c010000 	0x9c010000
     d14:	00000343 	0x00000343
     d18:	01007317 	0x01007317
     d1c:	01dd1588 	0x01dd1588
     d20:	073a0000 	0x073a0000
     d24:	63180000 	blt	$r0,$r0,-59392(0x31800) # ffff2524 <_stack+0xe3fe03bc>
     d28:	1d880100 	pcaddu12i	$r0,-245752(0xc4008)
     d2c:	000001e3 	0x000001e3
     d30:	16005501 	lu32i.d	$r1,680(0x2a8)
     d34:	63727473 	blt	$r3,$r19,-36236(0x37274) # ffff7fa8 <_stack+0xe3fe5e40>
     d38:	01007268 	0x01007268
     d3c:	025d0174 	sltui	$r20,$r11,1856(0x740)
     d40:	17cc0000 	lu32i.d	$r0,-106496(0xe6000)
     d44:	002c1c00 	alsl.d	$r0,$r0,$r7,0x1
     d48:	9c010000 	0x9c010000
     d4c:	0000037b 	0x0000037b
     d50:	01007317 	0x01007317
     d54:	01dd1474 	0x01dd1474
     d58:	07580000 	0x07580000
     d5c:	63180000 	blt	$r0,$r0,-59392(0x31800) # ffff255c <_stack+0xe3fe03f4>
     d60:	1c740100 	pcaddu12i	$r0,237576(0x3a008)
     d64:	000001e3 	0x000001e3
     d68:	16005501 	lu32i.d	$r1,680(0x2a8)
     d6c:	6e727473 	bgeu	$r3,$r19,-101772(0x27274) # fffe7fe0 <_stack+0xe3fd5e78>
     d70:	00706d63 	bstrins.w	$r3,$r11,0x10,0x1b
     d74:	cf016401 	0xcf016401
     d78:	64000001 	bge	$r0,$r1,0 # d78 <data_size+0x5c4>
     d7c:	681c0017 	bltu	$r0,$r23,7168(0x1c00) # 297c <data_size+0x21c8>
     d80:	01000000 	0x01000000
     d84:	0003c69c 	0x0003c69c
     d88:	31731700 	0x31731700
     d8c:	15640100 	lu12i.w	$r0,-319480(0xb2008)
     d90:	000001dd 	0x000001dd
     d94:	00000781 	0x00000781
     d98:	00327317 	0x00327317
     d9c:	dd256401 	0xdd256401
     da0:	aa000001 	0xaa000001
     da4:	17000007 	lu32i.d	$r7,-524288(0x80000)
     da8:	6401006e 	bge	$r3,$r14,256(0x100) # ea8 <data_size+0x6f4>
     dac:	0000e130 	0x0000e130
     db0:	0007e900 	alsl.wu	$r0,$r8,$r26,0x4
     db4:	73160000 	0x73160000
     db8:	636e7274 	blt	$r19,$r20,-37264(0x36e70) # ffff7c28 <_stack+0xe3fe5ac0>
     dbc:	01007970 	0x01007970
     dc0:	025d014d 	sltui	$r13,$r10,1856(0x740)
     dc4:	173c0000 	lu32i.d	$r0,-401408(0x9e000)
     dc8:	00281c00 	0x00281c00
     dcc:	9c010000 	0x9c010000
     dd0:	00000421 	0x00000421
     dd4:	74736418 	xvmin.w	$xr24,$xr0,$xr25
     dd8:	0f4d0100 	0x0f4d0100
     ddc:	0000025d 	0x0000025d
     de0:	73175401 	0x73175401
     de4:	01006372 	0x01006372
     de8:	01dd204d 	0x01dd204d
     dec:	082a0000 	fmadd.d	$f0,$f0,$f0,$f20
     df0:	6c170000 	bgeu	$r0,$r0,5888(0x1700) # 24f0 <data_size+0x1d3c>
     df4:	01006e65 	0x01006e65
     df8:	00e12c4d 	bstrpick.d	$r13,$r2,0x21,0xb
     dfc:	08480000 	0x08480000
     e00:	70190000 	0x70190000
     e04:	0b4e0100 	0x0b4e0100
     e08:	0000025d 	0x0000025d
     e0c:	000008a7 	0x000008a7
     e10:	74731600 	xvmin.w	$xr0,$xr16,$xr5
     e14:	79706372 	0x79706372
     e18:	01370100 	0x01370100
     e1c:	0000025d 	0x0000025d
     e20:	1c001720 	pcaddu12i	$r0,185(0xb9)
     e24:	0000001c 	0x0000001c
     e28:	046b9c01 	csrrd	$r1,0x1ae7
     e2c:	64180000 	bge	$r0,$r0,6144(0x1800) # 262c <data_size+0x1e78>
     e30:	01007473 	0x01007473
     e34:	025d0e37 	sltui	$r23,$r17,1859(0x743)
     e38:	54010000 	bl	256(0x100) # f38 <data_size+0x784>
     e3c:	63727317 	blt	$r24,$r23,-36240(0x37270) # ffff80ac <_stack+0xe3fe5f44>
     e40:	1f370100 	pcaddu18i	$r0,-411640(0x9b808)
     e44:	000001dd 	0x000001dd
     e48:	000008dd 	0x000008dd
     e4c:	01007019 	0x01007019
     e50:	025d0b3b 	sltui	$r27,$r25,1858(0x742)
     e54:	08fb0000 	0x08fb0000
     e58:	16000000 	lu32i.d	$r0,0
     e5c:	6e727473 	bgeu	$r3,$r19,-101772(0x27274) # fffe80d0 <_stack+0xe3fd5f68>
     e60:	006e656c 	bstrins.w	$r12,$r11,0xe,0x19
     e64:	e1012201 	0xe1012201
     e68:	e4000000 	0xe4000000
     e6c:	3c1c0016 	0x3c1c0016
     e70:	01000000 	0x01000000
     e74:	0004b69c 	alsl.w	$r28,$r20,$r13,0x2
     e78:	00731700 	bstrins.w	$r0,$r24,0x13,0x5
     e7c:	dd152201 	0xdd152201
     e80:	19000001 	pcaddi	$r1,-524288(0x80000)
     e84:	18000009 	pcaddi	$r9,0
     e88:	006e656c 	bstrins.w	$r12,$r11,0xe,0x19
     e8c:	e11f2201 	0xe11f2201
     e90:	01000000 	0x01000000
     e94:	6e631955 	bgeu	$r10,$r21,-105704(0x26318) # fffe71ac <_stack+0xe3fd5044>
     e98:	23010074 	sc.d	$r20,$r3,256(0x100)
     e9c:	0000e10c 	0x0000e10c
     ea0:	00095e00 	bytepick.w	$r0,$r16,$r23,0x2
     ea4:	73160000 	0x73160000
     ea8:	656c7274 	bge	$r19,$r20,93296(0x16c70) # 17b18 <data_size+0x17364>
     eac:	0c01006e 	0x0c01006e
     eb0:	0000e101 	0x0000e101
     eb4:	0016b400 	andn	$r0,$r0,$r13
     eb8:	0000301c 	revb.2h	$r28,$r0
     ebc:	f29c0100 	0xf29c0100
     ec0:	17000004 	lu32i.d	$r4,-524288(0x80000)
     ec4:	0c010073 	0x0c010073
     ec8:	0001dd14 	0x0001dd14
     ecc:	00098900 	bytepick.w	$r0,$r8,$r2,0x3
     ed0:	6e631900 	bgeu	$r8,$r0,-105704(0x26318) # fffe71e8 <_stack+0xe3fd5080>
     ed4:	0d010074 	fsel	$f20,$f3,$f0,$fcc2
     ed8:	0000e10c 	0x0000e10c
     edc:	0009eb00 	bytepick.w	$r0,$r24,$r26,0x3
     ee0:	cd1a0000 	0xcd1a0000
     ee4:	20000002 	ll.w	$r2,$r0,0
     ee8:	1c1c0018 	pcaddu12i	$r24,57344(0xe000)
     eec:	01000000 	0x01000000
     ef0:	02e11b9c 	addi.d	$r28,$r28,-1978(0x846)
     ef4:	54010000 	bl	256(0x100) # ff4 <data_size+0x840>
     ef8:	0002eb1b 	0x0002eb1b
     efc:	08550100 	fmsub.s	$f0,$f8,$f0,$f10
     f00:	000002f5 	0x000002f5
     f04:	00000a16 	0x00000a16
     f08:	0002ff1c 	0x0002ff1c
     f0c:	000a8400 	0x000a8400
     f10:	ff000000 	0xff000000
     f14:	04000002 	csrrd	$r2,0x0
     f18:	00059200 	alsl.w	$r0,$r16,$r4,0x4
     f1c:	47010400 	bnez	$r0,196868(0x30104) # 31020 <data_size+0x3086c>
     f20:	4320554e 	beqz	$r10,3874900(0x3b2054) # 3b2f74 <data_size+0x3b27c0>
     f24:	38203731 	ldx.bu	$r17,$r25,$r13
     f28:	302e332e 	vldrepl.w	$vr14,$r25,-464(0xe30)
     f2c:	616d2d20 	blt	$r9,$r0,93484(0x16d2c) # 17c58 <data_size+0x174a4>
     f30:	693d6962 	bltu	$r11,$r2,81256(0x13d68) # 14c98 <data_size+0x144e4>
     f34:	3233706c 	0x3233706c
     f38:	6d2d2073 	bgeu	$r3,$r19,77088(0x12d20) # 13c58 <data_size+0x134a4>
     f3c:	68637261 	bltu	$r19,$r1,25456(0x6370) # 72ac <data_size+0x6af8>
     f40:	6f6f6c3d 	bgeu	$r1,$r29,-37012(0x36f6c) # ffff7eac <_stack+0xe3fe5d44>
     f44:	7261676e 	0x7261676e
     f48:	32336863 	0x32336863
     f4c:	6d2d2072 	bgeu	$r3,$r18,77088(0x12d20) # 13c6c <data_size+0x134b8>
     f50:	3d757066 	0x3d757066
     f54:	656e6f6e 	bge	$r27,$r14,93804(0x16e6c) # 17dc0 <data_size+0x1760c>
     f58:	636d2d20 	blt	$r9,$r0,-37588(0x36d2c) # ffff7c84 <_stack+0xe3fe5b1c>
     f5c:	65646f6d 	bge	$r27,$r13,91244(0x1646c) # 173c8 <data_size+0x16c14>
     f60:	6f6e3d6c 	bgeu	$r11,$r12,-37316(0x36e3c) # ffff7d9c <_stack+0xe3fe5c34>
     f64:	6c616d72 	bgeu	$r11,$r18,24940(0x616c) # 70d0 <data_size+0x691c>
     f68:	746d2d20 	0x746d2d20
     f6c:	3d656e75 	0x3d656e75
     f70:	6e6f6f6c 	bgeu	$r27,$r12,-102548(0x26f6c) # fffe7edc <_stack+0xe3fd5d74>
     f74:	63726167 	blt	$r11,$r7,-36256(0x37260) # ffff81d4 <_stack+0xe3fe606c>
     f78:	72323368 	0x72323368
     f7c:	20672d20 	ll.w	$r0,$r9,26412(0x672c)
     f80:	20324f2d 	ll.w	$r13,$r25,12876(0x324c)
     f84:	6f6e662d 	bgeu	$r17,$r13,-37276(0x36e64) # ffff7de8 <_stack+0xe3fe5c80>
     f88:	6975622d 	bltu	$r17,$r13,95584(0x17560) # 184e8 <data_size+0x17d34>
     f8c:	6e69746c 	bgeu	$r3,$r12,-104076(0x26974) # fffe7900 <_stack+0xe3fd5798>
     f90:	6e662d20 	bgeu	$r9,$r0,-104916(0x2662c) # fffe75bc <_stack+0xe3fd5454>
     f94:	69702d6f 	bltu	$r11,$r15,94252(0x1702c) # 17fc0 <data_size+0x1780c>
     f98:	740c0063 	xvsub.b	$xr3,$xr3,$xr0
     f9c:	2e656d69 	0x2e656d69
     fa0:	682f0063 	bltu	$r3,$r3,12032(0x2f00) # 3ea0 <data_size+0x36ec>
     fa4:	2f656d6f 	0x2f656d6f
     fa8:	2f747777 	0x2f747777
     fac:	6b726f77 	bltu	$r27,$r23,-36244(0x3726c) # ffff8218 <_stack+0xe3fe60b0>
     fb0:	7265702f 	0x7265702f
     fb4:	75665f66 	0x75665f66
     fb8:	6c2f636e 	bgeu	$r27,$r14,12128(0x2f60) # 3f18 <data_size+0x3764>
     fbc:	24006269 	ldptr.w	$r9,$r19,96(0x60)
     fc0:	041c0019 	csrrd	$r25,0x700
     fc4:	57000001 	bl	458752(0x70000) # 70fc4 <data_size+0x70810>
     fc8:	02000011 	slti	$r17,$r0,0
     fcc:	6e750704 	bgeu	$r24,$r4,-101116(0x27504) # fffe84d0 <_stack+0xe3fd6368>
     fd0:	6e676973 	bgeu	$r11,$r19,-104600(0x26768) # fffe7738 <_stack+0xe3fd55d0>
     fd4:	69206465 	bltu	$r3,$r5,73828(0x12064) # 13038 <data_size+0x12884>
     fd8:	0200746e 	slti	$r14,$r3,29(0x1d)
     fdc:	6f6c0704 	bgeu	$r24,$r4,-37884(0x36c04) # ffff7be0 <_stack+0xe3fe5a78>
     fe0:	7520676e 	xvpickod.b	$xr14,$xr27,$xr25
     fe4:	6769736e 	bge	$r27,$r14,-38544(0x36970) # ffff7954 <_stack+0xe3fe57ec>
     fe8:	2064656e 	ll.w	$r14,$r11,25700(0x6464)
     fec:	00746e69 	bstrins.w	$r9,$r19,0x14,0x1b
     ff0:	6c635f03 	bgeu	$r24,$r3,25436(0x635c) # 734c <data_size+0x6b98>
     ff4:	5f6b636f 	bne	$r27,$r15,-38048(0x36b60) # ffff7b54 <_stack+0xe3fe59ec>
     ff8:	03020074 	lu52i.d	$r20,$r3,128(0x80)
     ffc:	0000c817 	0x0000c817
    1000:	05040200 	0x05040200
    1004:	00746e69 	bstrins.w	$r9,$r19,0x14,0x1b
    1008:	6d697404 	bgeu	$r0,$r4,92532(0x16974) # 1797c <data_size+0x171c8>
    100c:	65707365 	bge	$r27,$r5,94320(0x17070) # 1807c <data_size+0x178c8>
    1010:	02100063 	slti	$r3,$r3,1024(0x400)
    1014:	014b081f 	0x014b081f
    1018:	74050000 	xvsle.wu	$xr0,$xr0,$xr0
    101c:	65735f76 	bge	$r27,$r22,95068(0x1735c) # 18378 <data_size+0x17bc4>
    1020:	20020063 	ll.w	$r3,$r3,512(0x200)
    1024:	0000dd0b 	0x0000dd0b
    1028:	74050000 	xvsle.wu	$xr0,$xr0,$xr0
    102c:	736e5f76 	vssrarni.du.q	$vr22,$vr27,0x17
    1030:	02006365 	slti	$r5,$r27,24(0x18)
    1034:	00dd0b21 	bstrpick.d	$r1,$r25,0x1d,0x2
    1038:	05040000 	0x05040000
    103c:	755f7674 	0x755f7674
    1040:	00636573 	bstrins.w	$r19,$r11,0x3,0x19
    1044:	dd0b2202 	0xdd0b2202
    1048:	08000000 	0x08000000
    104c:	5f767405 	bne	$r0,$r5,-35212(0x37674) # ffff86c0 <_stack+0xe3fe6558>
    1050:	6365736d 	blt	$r27,$r13,-39568(0x36570) # ffff75c0 <_stack+0xe3fe5458>
    1054:	0b230200 	0x0b230200
    1058:	000000dd 	0x000000dd
    105c:	6706000c 	bge	$r0,$r12,-64000(0x30600) # ffff165c <_stack+0xe3fdf4f4>
    1060:	755f7465 	0x755f7465
    1064:	3c010073 	0x3c010073
    1068:	0000c80f 	0x0000c80f
    106c:	0019f800 	sra.d	$r0,$r0,$r30
    1070:	0000301c 	revb.2h	$r28,$r0
    1074:	939c0100 	0x939c0100
    1078:	07000001 	0x07000001
    107c:	3e01006e 	0x3e01006e
    1080:	0000c813 	0x0000c813
    1084:	000aa200 	0x000aa200
    1088:	02dc0800 	addi.d	$r0,$r0,1794(0x702)
    108c:	19f80000 	pcaddi	$r0,-16384(0xfc000)
    1090:	00b81c00 	bstrins.d	$r0,$r0,0x38,0x7
    1094:	3f010000 	0x3f010000
    1098:	00b80909 	bstrins.d	$r9,$r8,0x38,0x2
    109c:	f00a0000 	0xf00a0000
    10a0:	00000002 	0x00000002
    10a4:	67060000 	bge	$r0,$r0,-64000(0x30600) # ffff16a4 <_stack+0xe3fdf53c>
    10a8:	6e5f7465 	bgeu	$r3,$r5,-106636(0x25f74) # fffe701c <_stack+0xe3fd4eb4>
    10ac:	33010073 	0x33010073
    10b0:	0000c80f 	0x0000c80f
    10b4:	0019d400 	sra.d	$r0,$r0,$r21
    10b8:	0000241c 	clz.d	$r28,$r0
    10bc:	db9c0100 	0xdb9c0100
    10c0:	07000001 	0x07000001
    10c4:	3501006e 	0x3501006e
    10c8:	0000c813 	0x0000c813
    10cc:	000ad900 	0x000ad900
    10d0:	02dc0800 	addi.d	$r0,$r0,1794(0x702)
    10d4:	19d40000 	pcaddi	$r0,-90112(0xea000)
    10d8:	00a01c00 	bstrins.d	$r0,$r0,0x20,0x7
    10dc:	36010000 	0x36010000
    10e0:	00a00909 	bstrins.d	$r9,$r8,0x20,0x2
    10e4:	f00a0000 	0xf00a0000
    10e8:	00000002 	0x00000002
    10ec:	670b0000 	bge	$r0,$r0,-62720(0x30b00) # ffff1bec <_stack+0xe3fdfa84>
    10f0:	635f7465 	blt	$r3,$r5,-41100(0x35f74) # ffff7064 <_stack+0xe3fe4efc>
    10f4:	6b636f6c 	bltu	$r27,$r12,-40084(0x3636c) # ffff7460 <_stack+0xe3fe52f8>
    10f8:	0f2c0100 	0x0f2c0100
    10fc:	000000c8 	0x000000c8
    1100:	000001fc 	0x000001fc
    1104:	01006e0c 	0x01006e0c
    1108:	00c8132e 	bstrpick.d	$r14,$r25,0x8,0x4
    110c:	06000000 	cacop	0x0,$r0,0
    1110:	636f6c63 	blt	$r3,$r3,-37012(0x36f6c) # ffff807c <_stack+0xe3fe5f14>
    1114:	65675f6b 	bge	$r27,$r11,91996(0x1675c) # 17870 <data_size+0x170bc>
    1118:	6d697474 	bgeu	$r3,$r20,92532(0x16974) # 17a8c <data_size+0x172d8>
    111c:	20010065 	ll.w	$r5,$r3,256(0x100)
    1120:	0000c80f 	0x0000c80f
    1124:	00194c00 	srl.d	$r0,$r0,$r19
    1128:	0000841c 	0x0000841c
    112c:	699c0100 	bltu	$r8,$r0,105472(0x19c00) # 1ad2c <data_size+0x1a578>
    1130:	0d000002 	fsel	$f2,$f0,$f0,$fcc0
    1134:	006c6573 	bstrins.w	$r19,$r11,0xc,0x19
    1138:	ee212001 	0xee212001
    113c:	07000000 	0x07000000
    1140:	0e00000b 	0x0e00000b
    1144:	00706d74 	bstrins.w	$r20,$r11,0x10,0x1b
    1148:	69362001 	bltu	$r0,$r1,79392(0x13620) # 14768 <data_size+0x13fb4>
    114c:	01000002 	0x01000002
    1150:	006e0755 	bstrins.w	$r21,$r26,0xe,0x1
    1154:	c8132201 	0xc8132201
    1158:	28000000 	ld.b	$r0,$r0,0
    115c:	0800000b 	0x0800000b
    1160:	000002dc 	0x000002dc
    1164:	1c00194c 	pcaddu12i	$r12,202(0xca)
    1168:	00000088 	0x00000088
    116c:	09092301 	0x09092301
    1170:	00000088 	0x00000088
    1174:	0002f00a 	0x0002f00a
    1178:	00000000 	0x00000000
    117c:	00f5040f 	bstrpick.d	$r15,$r0,0x35,0x1
    1180:	67100000 	bge	$r0,$r0,-61440(0x31000) # ffff2180 <_stack+0xe3fe0018>
    1184:	635f7465 	blt	$r3,$r5,-41100(0x35f74) # ffff70f8 <_stack+0xe3fe4f90>
    1188:	746e756f 	0x746e756f
    118c:	00796d5f 	bstrins.w	$r31,$r10,0x19,0x1b
    1190:	c80f1601 	0xc80f1601
    1194:	44000000 	bnez	$r0,0 # 1194 <data_size+0x9e0>
    1198:	081c0019 	fmadd.s	$f25,$f0,$f0,$f24
    119c:	01000000 	0x01000000
    11a0:	00029f9c 	0x00029f9c
    11a4:	006e1100 	bstrins.w	$r0,$r8,0xe,0x4
    11a8:	c8131801 	0xc8131801
    11ac:	01000000 	0x01000000
    11b0:	67100054 	bge	$r2,$r20,-61440(0x31000) # ffff21b0 <_stack+0xe3fe0048>
    11b4:	635f7465 	blt	$r3,$r5,-41100(0x35f74) # ffff7128 <_stack+0xe3fe4fc0>
    11b8:	746e756f 	0x746e756f
    11bc:	0f110100 	0x0f110100
    11c0:	000000c8 	0x000000c8
    11c4:	1c001924 	pcaddu12i	$r4,201(0xc9)
    11c8:	0000001c 	0x0000001c
    11cc:	02dc9c01 	addi.d	$r1,$r0,1831(0x727)
    11d0:	dc080000 	0xdc080000
    11d4:	24000002 	ldptr.w	$r2,$r0,0
    11d8:	701c0019 	0x701c0019
    11dc:	01000000 	0x01000000
    11e0:	70090d13 	vslt.wu	$vr19,$vr8,$vr3
    11e4:	0a000000 	0x0a000000
    11e8:	000002f0 	0x000002f0
    11ec:	12000000 	addu16i.d	$r0,$r0,-32768(0x8000)
    11f0:	7465675f 	xvavg.w	$xr31,$xr26,$xr25
    11f4:	756f635f 	0x756f635f
    11f8:	0100746e 	0x0100746e
    11fc:	00c80f04 	bstrpick.d	$r4,$r24,0x8,0x3
    1200:	0c010000 	0x0c010000
    1204:	6e6f635f 	bgeu	$r26,$r31,-102560(0x26f60) # fffe8164 <_stack+0xe3fd5ffc>
    1208:	6c617674 	bgeu	$r19,$r20,24948(0x6174) # 737c <data_size+0x6bc8>
    120c:	13060100 	addu16i.d	$r0,$r8,-16000(0xc180)
    1210:	000000c8 	0x000000c8
	...

Disassembly of section .debug_abbrev:

00000000 <.debug_abbrev>:
   0:	25011101 	stptr.w	$r1,$r8,272(0x110)
   4:	030b1308 	lu52i.d	$r8,$r24,708(0x2c4)
   8:	11081b08 	addu16i.d	$r8,$r24,16902(0x4206)
   c:	10061201 	addu16i.d	$r1,$r16,388(0x184)
  10:	02000017 	slti	$r23,$r0,0
  14:	0b0b000f 	0x0b0b000f
  18:	24030000 	ldptr.w	$r0,$r0,768(0x300)
  1c:	3e0b0b00 	0x3e0b0b00
  20:	0008030b 	bytepick.w	$r11,$r24,$r0,0x0
  24:	012e0400 	0x012e0400
  28:	0803193f 	0x0803193f
  2c:	0b3b0b3a 	0x0b3b0b3a
  30:	19270b39 	pcaddi	$r25,-444327(0x93859)
  34:	01111349 	fscaleb.d	$f9,$f26,$f4
  38:	18400612 	pcaddi	$r18,131120(0x20030)
  3c:	01194297 	0x01194297
  40:	05000013 	0x05000013
  44:	08030005 	0x08030005
  48:	0b3b0b3a 	0x0b3b0b3a
  4c:	13490b39 	addu16i.d	$r25,$r25,-11710(0xd242)
  50:	00001702 	clz.w	$r2,$r24
  54:	00001806 	cto.w	$r6,$r0
  58:	00340700 	0x00340700
  5c:	0b3a0803 	0x0b3a0803
  60:	0b390b3b 	0x0b390b3b
  64:	17021349 	lu32i.d	$r9,-520038(0x8109a)
  68:	34080000 	0x34080000
  6c:	3a080300 	0x3a080300
  70:	390b3b0b 	0x390b3b0b
  74:	0213490b 	slti	$r11,$r8,1234(0x4d2)
  78:	09000018 	0x09000018
  7c:	0803000a 	0x0803000a
  80:	0b3b0b3a 	0x0b3b0b3a
  84:	01110b39 	fscaleb.d	$f25,$f25,$f2
  88:	0b0a0000 	0x0b0a0000
  8c:	01175501 	0x01175501
  90:	0b000013 	0x0b000013
  94:	193f012e 	pcaddi	$r14,-395255(0x9f809)
  98:	0b3a0803 	0x0b3a0803
  9c:	0b390b3b 	0x0b390b3b
  a0:	193c1349 	pcaddi	$r9,-401254(0x9e09a)
  a4:	00001301 	clo.w	$r1,$r24
  a8:	3f012e0c 	0x3f012e0c
  ac:	3a0e0319 	0x3a0e0319
  b0:	390b3b0b 	0x390b3b0b
  b4:	3c13490b 	0x3c13490b
  b8:	00130119 	maskeqz	$r25,$r8,$r0
  bc:	82890d00 	0x82890d00
  c0:	01110101 	fscaleb.d	$f1,$f8,$f0
  c4:	13011331 	addu16i.d	$r17,$r25,-16316(0xc044)
  c8:	8a0e0000 	0x8a0e0000
  cc:	02000182 	slti	$r2,$r12,0
  d0:	18429118 	pcaddi	$r24,136328(0x21488)
  d4:	890f0000 	0x890f0000
  d8:	11000182 	addu16i.d	$r2,$r12,16384(0x4000)
  dc:	00133101 	maskeqz	$r1,$r8,$r12
  e0:	82891000 	0x82891000
  e4:	01110101 	fscaleb.d	$f1,$f8,$f0
  e8:	00001331 	clo.w	$r17,$r25
  ec:	55010b11 	bl	-62586616(0xc450108) # fc4501f4 <_stack+0xe043e08c>
  f0:	12000017 	addu16i.d	$r23,$r0,-32768(0x8000)
  f4:	0111010b 	fscaleb.d	$f11,$f8,$f0
  f8:	13010612 	addu16i.d	$r18,$r16,-16319(0xc041)
  fc:	0f130000 	0x0f130000
 100:	490b0b00 	0x490b0b00
 104:	14000013 	lu12i.w	$r19,0
 108:	13490026 	addu16i.d	$r6,$r1,-11712(0xd240)
 10c:	2e150000 	0x2e150000
 110:	3c193f00 	0x3c193f00
 114:	030e6e19 	lu52i.d	$r25,$r16,923(0x39b)
 118:	3b0b3a0e 	0x3b0b3a0e
 11c:	000b390b 	0x000b390b
 120:	11010000 	addu16i.d	$r0,$r0,16448(0x4040)
 124:	13082501 	addu16i.d	$r1,$r8,-15863(0xc209)
 128:	1b08030b 	pcalau12i	$r11,-507880(0x84018)
 12c:	12011108 	addu16i.d	$r8,$r8,-32700(0x8044)
 130:	00171006 	sll.w	$r6,$r0,$r4
 134:	00240200 	crc.w.b.w	$r0,$r16,$r0
 138:	0b3e0b0b 	0x0b3e0b0b
 13c:	00000803 	0x00000803
 140:	3f012e03 	0x3f012e03
 144:	3a0e0319 	0x3a0e0319
 148:	390b3b0b 	0x390b3b0b
 14c:	010b200b 	fmin.d	$f11,$f0,$f8
 150:	04000013 	csrrd	$r19,0x0
 154:	08030005 	0x08030005
 158:	0b3b0b3a 	0x0b3b0b3a
 15c:	13490b39 	addu16i.d	$r25,$r25,-11710(0xd242)
 160:	2e050000 	0x2e050000
 164:	03193f01 	lu52i.d	$r1,$r24,1615(0x64f)
 168:	3b0b3a08 	0x3b0b3a08
 16c:	270b390b 	stptr.d	$r11,$r8,2872(0xb38)
 170:	11134919 	addu16i.d	$r25,$r8,17618(0x44d2)
 174:	40061201 	beqz	$r16,263696(0x40610) # 40784 <data_size+0x3ffd0>
 178:	19429718 	pcaddi	$r24,-387912(0xa14b8)
 17c:	00001301 	clo.w	$r1,$r24
 180:	03000506 	lu52i.d	$r6,$r8,1(0x1)
 184:	3b0b3a08 	0x3b0b3a08
 188:	490b390b 	bcnez	$fcc0,2951992(0x2d0b38) # 2d0cc0 <data_size+0x2d050c>
 18c:	00170213 	sll.w	$r19,$r16,$r0
 190:	012e0700 	0x012e0700
 194:	0e03193f 	0x0e03193f
 198:	0b3b0b3a 	0x0b3b0b3a
 19c:	13490b39 	addu16i.d	$r25,$r25,-11710(0xd242)
 1a0:	1301193c 	addu16i.d	$r28,$r9,-16314(0xc046)
 1a4:	18080000 	pcaddi	$r0,16384(0x4000)
 1a8:	09000000 	0x09000000
 1ac:	1331011d 	addu16i.d	$r29,$r8,-13248(0xcc40)
 1b0:	17550152 	lu32i.d	$r18,-350198(0xaa80a)
 1b4:	0b590b58 	0x0b590b58
 1b8:	00000b57 	0x00000b57
 1bc:	3100050a 	0x3100050a
 1c0:	00170213 	sll.w	$r19,$r16,$r0
 1c4:	012e0b00 	0x012e0b00
 1c8:	01111331 	fscaleb.d	$f17,$f25,$f4
 1cc:	18400612 	pcaddi	$r18,131120(0x20030)
 1d0:	00194297 	srl.d	$r23,$r20,$r16
 1d4:	00050c00 	alsl.w	$r0,$r0,$r3,0x3
 1d8:	18021331 	pcaddi	$r17,4249(0x1099)
 1dc:	01000000 	0x01000000
 1e0:	08250111 	fmadd.d	$f17,$f8,$f0,$f10
 1e4:	08030b13 	0x08030b13
 1e8:	0111081b 	fscaleb.d	$f27,$f0,$f2
 1ec:	17100612 	lu32i.d	$r18,-491472(0x88030)
 1f0:	24020000 	ldptr.w	$r0,$r0,512(0x200)
 1f4:	3e0b0b00 	0x3e0b0b00
 1f8:	0008030b 	bytepick.w	$r11,$r24,$r0,0x0
 1fc:	012e0300 	0x012e0300
 200:	0803193f 	0x0803193f
 204:	0b3b0b3a 	0x0b3b0b3a
 208:	19270b39 	pcaddi	$r25,-444327(0x93859)
 20c:	01111349 	fscaleb.d	$f9,$f26,$f4
 210:	18400612 	pcaddi	$r18,131120(0x20030)
 214:	01194297 	0x01194297
 218:	04000013 	csrrd	$r19,0x0
 21c:	08030005 	0x08030005
 220:	0b3b0b3a 	0x0b3b0b3a
 224:	13490b39 	addu16i.d	$r25,$r25,-11710(0xd242)
 228:	00001702 	clz.w	$r2,$r24
 22c:	3f012e05 	0x3f012e05
 230:	3a0e0319 	0x3a0e0319
 234:	390b3b0b 	0x390b3b0b
 238:	3c13490b 	0x3c13490b
 23c:	00130119 	maskeqz	$r25,$r8,$r0
 240:	00180600 	sra.w	$r0,$r16,$r1
 244:	89070000 	0x89070000
 248:	11010182 	addu16i.d	$r2,$r12,16448(0x4040)
 24c:	01133101 	fcopysign.d	$f1,$f8,$f12
 250:	08000013 	0x08000013
 254:	0001828a 	0x0001828a
 258:	42911802 	beqz	$r0,692504(0xa9118) # a9370 <data_size+0xa8bbc>
 25c:	09000018 	0x09000018
 260:	01018289 	0x01018289
 264:	13310111 	addu16i.d	$r17,$r8,-13248(0xcc40)
 268:	0f0a0000 	0x0f0a0000
 26c:	490b0b00 	0x490b0b00
 270:	0b000013 	0x0b000013
 274:	08030034 	0x08030034
 278:	0b3b0b3a 	0x0b3b0b3a
 27c:	13490b39 	addu16i.d	$r25,$r25,-11710(0xd242)
 280:	00001702 	clz.w	$r2,$r24
 284:	55010b0c 	bl	-63897336(0xc310108) # fc31038c <_stack+0xe02fe224>
 288:	0d000017 	fsel	$f23,$f0,$f0,$fcc0
 28c:	0111010b 	fscaleb.d	$f11,$f8,$f0
 290:	13010612 	addu16i.d	$r18,$r16,-16319(0xc041)
 294:	2e0e0000 	0x2e0e0000
 298:	3c193f00 	0x3c193f00
 29c:	030e6e19 	lu52i.d	$r25,$r16,923(0x39b)
 2a0:	3b0b3a0e 	0x3b0b3a0e
 2a4:	000b390b 	0x000b390b
 2a8:	11010000 	addu16i.d	$r0,$r0,16448(0x4040)
 2ac:	13082501 	addu16i.d	$r1,$r8,-15863(0xc209)
 2b0:	1b08030b 	pcalau12i	$r11,-507880(0x84018)
 2b4:	12011108 	addu16i.d	$r8,$r8,-32700(0x8044)
 2b8:	00171006 	sll.w	$r6,$r0,$r4
 2bc:	00240200 	crc.w.b.w	$r0,$r16,$r0
 2c0:	0b3e0b0b 	0x0b3e0b0b
 2c4:	00000803 	0x00000803
 2c8:	3f012e03 	0x3f012e03
 2cc:	3a080319 	0x3a080319
 2d0:	390b3b0b 	0x390b3b0b
 2d4:	4919270b 	0x4919270b
 2d8:	12011113 	addu16i.d	$r19,$r8,-32700(0x8044)
 2dc:	97184006 	0x97184006
 2e0:	13011942 	addu16i.d	$r2,$r10,-16314(0xc046)
 2e4:	05040000 	0x05040000
 2e8:	3a080300 	0x3a080300
 2ec:	390b3b0b 	0x390b3b0b
 2f0:	0213490b 	slti	$r11,$r8,1234(0x4d2)
 2f4:	05000017 	0x05000017
 2f8:	08030034 	0x08030034
 2fc:	0b3b0b3a 	0x0b3b0b3a
 300:	13490b39 	addu16i.d	$r25,$r25,-11710(0xd242)
 304:	00001702 	clz.w	$r2,$r24
 308:	03003406 	lu52i.d	$r6,$r0,13(0xd)
 30c:	3b0b3a08 	0x3b0b3a08
 310:	490b390b 	bcnez	$fcc0,2951992(0x2d0b38) # 2d0e48 <data_size+0x2d0694>
 314:	00180213 	sra.w	$r19,$r16,$r0
 318:	010b0700 	fmin.d	$f0,$f24,$f1
 31c:	06120111 	cacop	0x11,$r8,1152(0x480)
 320:	00001301 	clo.w	$r1,$r24
 324:	3f012e08 	0x3f012e08
 328:	3a0e0319 	0x3a0e0319
 32c:	390b3b0b 	0x390b3b0b
 330:	3c13490b 	0x3c13490b
 334:	00130119 	maskeqz	$r25,$r8,$r0
 338:	00180900 	sra.w	$r0,$r8,$r2
 33c:	890a0000 	0x890a0000
 340:	11010182 	addu16i.d	$r2,$r12,16448(0x4040)
 344:	00133101 	maskeqz	$r1,$r8,$r12
 348:	828a0b00 	0x828a0b00
 34c:	18020001 	pcaddi	$r1,4096(0x1000)
 350:	00184291 	sra.w	$r17,$r20,$r16
 354:	010b0c00 	fmin.d	$f0,$f0,$f3
 358:	06120111 	cacop	0x11,$r8,1152(0x480)
 35c:	890d0000 	0x890d0000
 360:	11000182 	addu16i.d	$r2,$r12,16384(0x4000)
 364:	00133101 	maskeqz	$r1,$r8,$r12
 368:	01010e00 	fadd.d	$f0,$f16,$f3
 36c:	13011349 	addu16i.d	$r9,$r26,-16316(0xc044)
 370:	210f0000 	sc.w	$r0,$r0,3840(0xf00)
 374:	2f134900 	0x2f134900
 378:	1000000b 	addu16i.d	$r11,$r0,0
 37c:	193f002e 	pcaddi	$r14,-395263(0x9f801)
 380:	0e6e193c 	0x0e6e193c
 384:	0b3a0e03 	0x0b3a0e03
 388:	0b390b3b 	0x0b390b3b
 38c:	01000000 	0x01000000
 390:	08250111 	fmadd.d	$f17,$f8,$f0,$f10
 394:	08030b13 	0x08030b13
 398:	0111081b 	fscaleb.d	$f27,$f0,$f2
 39c:	17100612 	lu32i.d	$r18,-491472(0x88030)
 3a0:	24020000 	ldptr.w	$r0,$r0,512(0x200)
 3a4:	3e0b0b00 	0x3e0b0b00
 3a8:	0008030b 	bytepick.w	$r11,$r24,$r0,0x0
 3ac:	012e0300 	0x012e0300
 3b0:	0803193f 	0x0803193f
 3b4:	0b3b0b3a 	0x0b3b0b3a
 3b8:	19270b39 	pcaddi	$r25,-444327(0x93859)
 3bc:	01111349 	fscaleb.d	$f9,$f26,$f4
 3c0:	18400612 	pcaddi	$r18,131120(0x20030)
 3c4:	01194297 	0x01194297
 3c8:	04000013 	csrrd	$r19,0x0
 3cc:	08030005 	0x08030005
 3d0:	0b3b0b3a 	0x0b3b0b3a
 3d4:	13490b39 	addu16i.d	$r25,$r25,-11710(0xd242)
 3d8:	00001702 	clz.w	$r2,$r24
 3dc:	0b000f05 	0x0b000f05
 3e0:	0013490b 	maskeqz	$r11,$r8,$r18
 3e4:	00260600 	crcc.w.b.w	$r0,$r16,$r1
 3e8:	00001349 	clo.w	$r9,$r26
 3ec:	01110100 	fscaleb.d	$f0,$f8,$f0
 3f0:	0b130825 	0x0b130825
 3f4:	081b0803 	fmadd.s	$f3,$f0,$f2,$f22
 3f8:	01111755 	fscaleb.d	$f21,$f26,$f5
 3fc:	00001710 	clz.w	$r16,$r24
 400:	0b000f02 	0x0b000f02
 404:	0300000b 	lu52i.d	$r11,$r0,0
 408:	0b0b0024 	0x0b0b0024
 40c:	08030b3e 	0x08030b3e
 410:	16040000 	lu32i.d	$r0,8192(0x2000)
 414:	3a080300 	0x3a080300
 418:	390b3b0b 	0x390b3b0b
 41c:	0013490b 	maskeqz	$r11,$r8,$r18
 420:	012e0500 	0x012e0500
 424:	0803193f 	0x0803193f
 428:	053b0b3a 	0x053b0b3a
 42c:	19270b39 	pcaddi	$r25,-444327(0x93859)
 430:	06120111 	cacop	0x11,$r8,1152(0x480)
 434:	42971840 	beqz	$r2,169752(0x29718) # 29b4c <data_size+0x29398>
 438:	00130119 	maskeqz	$r25,$r8,$r0
 43c:	00050600 	alsl.w	$r0,$r16,$r1,0x3
 440:	0b3a0803 	0x0b3a0803
 444:	0b39053b 	0x0b39053b
 448:	17021349 	lu32i.d	$r9,-520038(0x8109a)
 44c:	1d070000 	pcaddu12i	$r0,-509952(0x83800)
 450:	11133101 	addu16i.d	$r1,$r8,17612(0x44cc)
 454:	58061201 	beq	$r16,$r1,1552(0x610) # a64 <data_size+0x2b0>
 458:	5705590b 	bl	70190424(0x42f0558) # 42f09b0 <data_size+0x42f01fc>
 45c:	0800000b 	0x0800000b
 460:	13310005 	addu16i.d	$r5,$r0,-13248(0xcc40)
 464:	00001702 	clz.w	$r2,$r24
 468:	31000509 	0x31000509
 46c:	000b1c13 	0x000b1c13
 470:	010b0a00 	fmin.d	$f0,$f16,$f2
 474:	06120111 	cacop	0x11,$r8,1152(0x480)
 478:	340b0000 	0x340b0000
 47c:	02133100 	slti	$r0,$r8,1228(0x4cc)
 480:	0c000018 	0x0c000018
 484:	193f012e 	pcaddi	$r14,-395255(0x9f809)
 488:	0b3a0803 	0x0b3a0803
 48c:	0b39053b 	0x0b39053b
 490:	13491927 	addu16i.d	$r7,$r9,-11706(0xd246)
 494:	06120111 	cacop	0x11,$r8,1152(0x480)
 498:	42971840 	beqz	$r2,169752(0x29718) # 29bb0 <data_size+0x293fc>
 49c:	00130119 	maskeqz	$r25,$r8,$r0
 4a0:	00340d00 	0x00340d00
 4a4:	0b3a0803 	0x0b3a0803
 4a8:	0b39053b 	0x0b39053b
 4ac:	17021349 	lu32i.d	$r9,-520038(0x8109a)
 4b0:	340e0000 	0x340e0000
 4b4:	3a080300 	0x3a080300
 4b8:	39053b0b 	0x39053b0b
 4bc:	0213490b 	slti	$r11,$r8,1234(0x4d2)
 4c0:	0f000018 	0x0f000018
 4c4:	0b0b000f 	0x0b0b000f
 4c8:	00001349 	clo.w	$r9,$r26
 4cc:	00002610 	clz.d	$r16,$r16
 4d0:	00261100 	crcc.w.b.w	$r0,$r8,$r4
 4d4:	00001349 	clo.w	$r9,$r26
 4d8:	03000512 	lu52i.d	$r18,$r8,1(0x1)
 4dc:	3b0b3a08 	0x3b0b3a08
 4e0:	490b3905 	bcnez	$fcc0,1379128(0x150b38) # 151018 <data_size+0x150864>
 4e4:	00180213 	sra.w	$r19,$r16,$r0
 4e8:	012e1300 	0x012e1300
 4ec:	0803193f 	0x0803193f
 4f0:	0b3b0b3a 	0x0b3b0b3a
 4f4:	19270b39 	pcaddi	$r25,-444327(0x93859)
 4f8:	0b201349 	0x0b201349
 4fc:	00001301 	clo.w	$r1,$r24
 500:	03000514 	lu52i.d	$r20,$r8,1(0x1)
 504:	3b0b3a08 	0x3b0b3a08
 508:	490b390b 	bcnez	$fcc0,2951992(0x2d0b38) # 2d1040 <data_size+0x2d088c>
 50c:	15000013 	lu12i.w	$r19,-524288(0x80000)
 510:	08030034 	0x08030034
 514:	0b3b0b3a 	0x0b3b0b3a
 518:	13490b39 	addu16i.d	$r25,$r25,-11710(0xd242)
 51c:	2e160000 	0x2e160000
 520:	03193f01 	lu52i.d	$r1,$r24,1615(0x64f)
 524:	3b0b3a08 	0x3b0b3a08
 528:	270b390b 	stptr.d	$r11,$r8,2872(0xb38)
 52c:	11134919 	addu16i.d	$r25,$r8,17618(0x44d2)
 530:	40061201 	beqz	$r16,263696(0x40610) # 40b40 <data_size+0x4038c>
 534:	19429718 	pcaddi	$r24,-387912(0xa14b8)
 538:	00001301 	clo.w	$r1,$r24
 53c:	03000517 	lu52i.d	$r23,$r8,1(0x1)
 540:	3b0b3a08 	0x3b0b3a08
 544:	490b390b 	bcnez	$fcc0,2951992(0x2d0b38) # 2d107c <data_size+0x2d08c8>
 548:	00170213 	sll.w	$r19,$r16,$r0
 54c:	00051800 	alsl.w	$r0,$r0,$r6,0x3
 550:	0b3a0803 	0x0b3a0803
 554:	0b390b3b 	0x0b390b3b
 558:	18021349 	pcaddi	$r9,4250(0x109a)
 55c:	34190000 	0x34190000
 560:	3a080300 	0x3a080300
 564:	390b3b0b 	0x390b3b0b
 568:	0213490b 	slti	$r11,$r8,1234(0x4d2)
 56c:	1a000017 	pcalau12i	$r23,0
 570:	1331012e 	addu16i.d	$r14,$r9,-13248(0xcc40)
 574:	06120111 	cacop	0x11,$r8,1152(0x480)
 578:	42971840 	beqz	$r2,169752(0x29718) # 29c90 <data_size+0x294dc>
 57c:	1b000019 	pcalau12i	$r25,-524288(0x80000)
 580:	13310005 	addu16i.d	$r5,$r0,-13248(0xcc40)
 584:	00001802 	cto.w	$r2,$r0
 588:	3100341c 	0x3100341c
 58c:	00170213 	sll.w	$r19,$r16,$r0
 590:	11010000 	addu16i.d	$r0,$r0,16448(0x4040)
 594:	13082501 	addu16i.d	$r1,$r8,-15863(0xc209)
 598:	1b08030b 	pcalau12i	$r11,-507880(0x84018)
 59c:	12011108 	addu16i.d	$r8,$r8,-32700(0x8044)
 5a0:	00171006 	sll.w	$r6,$r0,$r4
 5a4:	00240200 	crc.w.b.w	$r0,$r16,$r0
 5a8:	0b3e0b0b 	0x0b3e0b0b
 5ac:	00000803 	0x00000803
 5b0:	03001603 	lu52i.d	$r3,$r16,5(0x5)
 5b4:	3b0b3a08 	0x3b0b3a08
 5b8:	490b390b 	bcnez	$fcc0,2951992(0x2d0b38) # 2d10f0 <data_size+0x2d093c>
 5bc:	04000013 	csrrd	$r19,0x0
 5c0:	08030113 	0x08030113
 5c4:	0b3a0b0b 	0x0b3a0b0b
 5c8:	0b390b3b 	0x0b390b3b
 5cc:	00001301 	clo.w	$r1,$r24
 5d0:	03000d05 	lu52i.d	$r5,$r8,3(0x3)
 5d4:	3b0b3a08 	0x3b0b3a08
 5d8:	490b390b 	bcnez	$fcc0,2951992(0x2d0b38) # 2d1110 <data_size+0x2d095c>
 5dc:	000b3813 	0x000b3813
 5e0:	012e0600 	0x012e0600
 5e4:	0803193f 	0x0803193f
 5e8:	0b3b0b3a 	0x0b3b0b3a
 5ec:	19270b39 	pcaddi	$r25,-444327(0x93859)
 5f0:	01111349 	fscaleb.d	$f9,$f26,$f4
 5f4:	18400612 	pcaddi	$r18,131120(0x20030)
 5f8:	01194297 	0x01194297
 5fc:	07000013 	0x07000013
 600:	08030034 	0x08030034
 604:	0b3b0b3a 	0x0b3b0b3a
 608:	13490b39 	addu16i.d	$r25,$r25,-11710(0xd242)
 60c:	00001702 	clz.w	$r2,$r24
 610:	31011d08 	0x31011d08
 614:	55015213 	bl	-129171120(0x84d0150) # f84d0764 <_stack+0xdc4be5fc>
 618:	590b5817 	beq	$r0,$r23,68440(0x10b58) # 11170 <data_size+0x109bc>
 61c:	000b570b 	0x000b570b
 620:	010b0900 	fmin.d	$f0,$f8,$f2
 624:	00001755 	clz.w	$r21,$r26
 628:	3100340a 	0x3100340a
 62c:	0b000013 	0x0b000013
 630:	193f012e 	pcaddi	$r14,-395255(0x9f809)
 634:	0b3a0803 	0x0b3a0803
 638:	0b390b3b 	0x0b390b3b
 63c:	13011349 	addu16i.d	$r9,$r26,-16316(0xc044)
 640:	340c0000 	0x340c0000
 644:	3a080300 	0x3a080300
 648:	390b3b0b 	0x390b3b0b
 64c:	0013490b 	maskeqz	$r11,$r8,$r18
 650:	00050d00 	alsl.w	$r0,$r8,$r3,0x3
 654:	0b3a0803 	0x0b3a0803
 658:	0b390b3b 	0x0b390b3b
 65c:	17021349 	lu32i.d	$r9,-520038(0x8109a)
 660:	050e0000 	0x050e0000
 664:	3a080300 	0x3a080300
 668:	390b3b0b 	0x390b3b0b
 66c:	0213490b 	slti	$r11,$r8,1234(0x4d2)
 670:	0f000018 	0x0f000018
 674:	0b0b000f 	0x0b0b000f
 678:	00001349 	clo.w	$r9,$r26
 67c:	3f012e10 	0x3f012e10
 680:	3a080319 	0x3a080319
 684:	390b3b0b 	0x390b3b0b
 688:	1113490b 	addu16i.d	$r11,$r8,17618(0x44d2)
 68c:	40061201 	beqz	$r16,263696(0x40610) # 40c9c <data_size+0x404e8>
 690:	19429718 	pcaddi	$r24,-387912(0xa14b8)
 694:	00001301 	clo.w	$r1,$r24
 698:	03003411 	lu52i.d	$r17,$r0,13(0xd)
 69c:	3b0b3a08 	0x3b0b3a08
 6a0:	490b390b 	bcnez	$fcc0,2951992(0x2d0b38) # 2d11d8 <data_size+0x2d0a24>
 6a4:	00180213 	sra.w	$r19,$r16,$r0
 6a8:	012e1200 	0x012e1200
 6ac:	0803193f 	0x0803193f
 6b0:	0b3b0b3a 	0x0b3b0b3a
 6b4:	13490b39 	addu16i.d	$r25,$r25,-11710(0xd242)
 6b8:	00000b20 	0x00000b20
	...

Disassembly of section .debug_loc:

00000000 <.debug_loc>:
   0:	00000000 	0x00000000
   4:	00000064 	0x00000064
   8:	64540001 	bge	$r0,$r1,21504(0x5400) # 5408 <data_size+0x4c54>
   c:	cc000000 	0xcc000000
  10:	01000000 	0x01000000
  14:	00cc6900 	bstrpick.d	$r0,$r8,0xc,0x1a
  18:	00f40000 	bstrpick.d	$r0,$r0,0x34,0x0
  1c:	00040000 	alsl.w	$r0,$r0,$r0,0x1
  20:	9f5401f3 	0x9f5401f3
  24:	000000f4 	0x000000f4
  28:	0000022c 	0x0000022c
  2c:	00690001 	bstrins.w	$r1,$r0,0x9,0x0
  30:	00000000 	0x00000000
  34:	48000000 	bceqz	$fcc0,0 # 34 <data_size-0x780>
  38:	64000000 	bge	$r0,$r0,0 # 38 <data_size-0x77c>
  3c:	02000000 	slti	$r0,$r0,0
  40:	649f3000 	bge	$r0,$r0,40752(0x9f30) # 9f70 <data_size+0x97bc>
  44:	cc000000 	0xcc000000
  48:	01000000 	0x01000000
  4c:	00f46800 	bstrpick.d	$r0,$r0,0x34,0x1a
  50:	01000000 	0x01000000
  54:	00030000 	0x00030000
  58:	009f0188 	bstrins.d	$r8,$r12,0x1f,0x0
  5c:	1c000001 	pcaddu12i	$r1,0
  60:	01000001 	0x01000001
  64:	011c6800 	0x011c6800
  68:	01380000 	0x01380000
  6c:	00030000 	0x00030000
  70:	389f7f88 	0x389f7f88
  74:	64000001 	bge	$r0,$r1,0 # 74 <data_size-0x740>
  78:	01000001 	0x01000001
  7c:	01646800 	0x01646800
  80:	016c0000 	0x016c0000
  84:	00030000 	0x00030000
  88:	6c9f7f88 	bgeu	$r28,$r8,40828(0x9f7c) # a004 <data_size+0x9850>
  8c:	e8000001 	0xe8000001
  90:	01000001 	0x01000001
  94:	01e86800 	0x01e86800
  98:	01f00000 	0x01f00000
  9c:	00030000 	0x00030000
  a0:	f09f7f88 	0xf09f7f88
  a4:	2c000001 	vld	$vr1,$r0,0
  a8:	01000002 	0x01000002
  ac:	00006800 	rdtime.d	$r0,$r0
  b0:	00000000 	0x00000000
  b4:	00640000 	bstrins.w	$r0,$r0,0x4,0x0
  b8:	00780000 	bstrins.w	$r0,$r0,0x18,0x0
  bc:	00010000 	asrtle.d	$r0,$r0
  c0:	00007c67 	0x00007c67
  c4:	0000cc00 	0x0000cc00
  c8:	67000100 	bge	$r8,$r0,-65536(0x30000) # ffff00c8 <_stack+0xe3fddf60>
  cc:	000000f4 	0x000000f4
  d0:	0000022c 	0x0000022c
  d4:	00670001 	bstrins.w	$r1,$r0,0x7,0x0
  d8:	00000000 	0x00000000
  dc:	48000000 	bceqz	$fcc0,0 # dc <data_size-0x6d8>
  e0:	cc000000 	0xcc000000
  e4:	01000000 	0x01000000
  e8:	00f46a00 	bstrpick.d	$r0,$r16,0x34,0x1a
  ec:	01680000 	0x01680000
  f0:	00010000 	asrtle.d	$r0,$r0
  f4:	0001686a 	0x0001686a
  f8:	00016c00 	asrtle.d	$r0,$r27
  fc:	8a000300 	0x8a000300
 100:	016c9f7c 	0x016c9f7c
 104:	01ec0000 	0x01ec0000
 108:	00010000 	asrtle.d	$r0,$r0
 10c:	0001ec6a 	0x0001ec6a
 110:	0001f000 	asrtgt.d	$r0,$r28
 114:	8a000300 	0x8a000300
 118:	01f09f7c 	0x01f09f7c
 11c:	022c0000 	slti	$r0,$r0,-1280(0xb00)
 120:	00010000 	asrtle.d	$r0,$r0
 124:	0000006a 	0x0000006a
 128:	00000000 	0x00000000
 12c:	0000ac00 	0x0000ac00
 130:	0000cc00 	0x0000cc00
 134:	55000100 	bl	67174400(0x4010000) # 4010134 <data_size+0x400f980>
 138:	000000f4 	0x000000f4
 13c:	00000100 	0x00000100
 140:	00550001 	0x00550001
 144:	14000001 	lu12i.w	$r1,0
 148:	02000001 	slti	$r1,$r0,0
 14c:	149f3000 	lu12i.w	$r0,326016(0x4f980)
 150:	18000001 	pcaddi	$r1,0
 154:	01000001 	0x01000001
 158:	01385500 	0x01385500
 15c:	014f0000 	0x014f0000
 160:	00010000 	asrtle.d	$r0,$r0
 164:	00015c55 	0x00015c55
 168:	00016b00 	asrtle.d	$r24,$r26
 16c:	55000100 	bl	67174400(0x4010000) # 401016c <data_size+0x400f9b8>
 170:	00000170 	0x00000170
 174:	0000017f 	0x0000017f
 178:	8c550001 	0x8c550001
 17c:	9b000001 	0x9b000001
 180:	01000001 	0x01000001
 184:	01a85500 	0x01a85500
 188:	01b70000 	0x01b70000
 18c:	00010000 	asrtle.d	$r0,$r0
 190:	0001c455 	0x0001c455
 194:	0001d300 	asrtgt.d	$r24,$r20
 198:	55000100 	bl	67174400(0x4010000) # 4010198 <data_size+0x400f9e4>
 19c:	000001e0 	0x000001e0
 1a0:	000001ef 	0x000001ef
 1a4:	f4550001 	0xf4550001
 1a8:	03000001 	lu52i.d	$r1,$r0,0
 1ac:	01000002 	0x01000002
 1b0:	02105500 	slti	$r0,$r8,1045(0x415)
 1b4:	02170000 	slti	$r0,$r0,1472(0x5c0)
 1b8:	00010000 	asrtle.d	$r0,$r0
 1bc:	00022055 	0x00022055
 1c0:	00022700 	0x00022700
 1c4:	55000100 	bl	67174400(0x4010000) # 40101c4 <data_size+0x400fa10>
	...
 1d4:	0000001c 	0x0000001c
 1d8:	1c540001 	pcaddu12i	$r1,172032(0x2a000)
 1dc:	28000000 	ld.b	$r0,$r0,0
 1e0:	04000000 	csrrd	$r0,0x0
 1e4:	5401f300 	bl	-67108368(0xc0001f0) # fc0003d4 <_stack+0xdffee26c>
 1e8:	0000009f 	0x0000009f
	...
 1f4:	00001800 	cto.w	$r0,$r0
 1f8:	54000100 	bl	67108864(0x4000000) # 40001f8 <data_size+0x3fffa44>
	...
 204:	00000074 	0x00000074
 208:	0000007f 	0x0000007f
 20c:	7f540001 	0x7f540001
 210:	a0000000 	0xa0000000
 214:	04000000 	csrrd	$r0,0x0
 218:	5401f300 	bl	-67108368(0xc0001f0) # fc000408 <_stack+0xdffee2a0>
 21c:	0000009f 	0x0000009f
	...
 228:	00002800 	cto.d	$r0,$r0
 22c:	54000100 	bl	67108864(0x4000000) # 400022c <data_size+0x3fffa78>
 230:	00000028 	0x00000028
 234:	00000030 	0x00000030
 238:	7f880003 	0x7f880003
 23c:	0000309f 	revb.2h	$r31,$r4
 240:	00003c00 	revb.d	$r0,$r0
 244:	68000100 	bltu	$r8,$r0,0 # 244 <data_size-0x570>
 248:	0000003c 	0x0000003c
 24c:	00000050 	0x00000050
 250:	7f880003 	0x7f880003
 254:	0000509f 	bitrev.w	$r31,$r4
 258:	00005800 	ext.w.h	$r0,$r0
 25c:	68000100 	bltu	$r8,$r0,0 # 25c <data_size-0x558>
	...
 268:	00000018 	0x00000018
 26c:	00000060 	0x00000060
 270:	00670001 	bstrins.w	$r1,$r0,0x7,0x0
	...
 27c:	24000000 	ldptr.w	$r0,$r0,0
 280:	01000000 	0x01000000
 284:	00245400 	crc.w.b.w	$r0,$r0,$r21
 288:	00bc0000 	bstrins.d	$r0,$r0,0x3c,0x0
 28c:	00040000 	alsl.w	$r0,$r0,$r0,0x1
 290:	9f5401f3 	0x9f5401f3
 294:	000000bc 	0x000000bc
 298:	000000c0 	0x000000c0
 29c:	c0540001 	0xc0540001
 2a0:	d0000000 	0xd0000000
 2a4:	01000000 	0x01000000
 2a8:	00d06700 	bstrpick.d	$r0,$r24,0x10,0x19
 2ac:	00dc0000 	bstrpick.d	$r0,$r0,0x1c,0x0
 2b0:	00040000 	alsl.w	$r0,$r0,$r0,0x1
 2b4:	9f1f0087 	0x9f1f0087
 2b8:	000000dc 	0x000000dc
 2bc:	000000e8 	0x000000e8
 2c0:	00540001 	0x00540001
	...
 2cc:	24000000 	ldptr.w	$r0,$r0,0
 2d0:	01000000 	0x01000000
 2d4:	00245500 	crc.w.b.w	$r0,$r8,$r21
 2d8:	00bc0000 	bstrins.d	$r0,$r0,0x3c,0x0
 2dc:	00040000 	alsl.w	$r0,$r0,$r0,0x1
 2e0:	9f5501f3 	0x9f5501f3
 2e4:	000000bc 	0x000000bc
 2e8:	000000cb 	0x000000cb
 2ec:	cb550001 	0xcb550001
 2f0:	dc000000 	0xdc000000
 2f4:	03000000 	lu52i.d	$r0,$r0,0
 2f8:	7fa89100 	0x7fa89100
 2fc:	000000dc 	0x000000dc
 300:	000000e8 	0x000000e8
 304:	00550001 	0x00550001
	...
 310:	24000000 	ldptr.w	$r0,$r0,0
 314:	01000000 	0x01000000
 318:	00245600 	crc.w.b.w	$r0,$r16,$r21
 31c:	00bc0000 	bstrins.d	$r0,$r0,0x3c,0x0
 320:	00040000 	alsl.w	$r0,$r0,$r0,0x1
 324:	9f5601f3 	0x9f5601f3
 328:	000000bc 	0x000000bc
 32c:	000000cb 	0x000000cb
 330:	cb560001 	0xcb560001
 334:	dc000000 	0xdc000000
 338:	03000000 	lu52i.d	$r0,$r0,0
 33c:	7fac9100 	0x7fac9100
 340:	000000dc 	0x000000dc
 344:	000000e8 	0x000000e8
 348:	00560001 	0x00560001
	...
 354:	24000000 	ldptr.w	$r0,$r0,0
 358:	01000000 	0x01000000
 35c:	00245700 	crc.w.b.w	$r0,$r24,$r21
 360:	00bc0000 	bstrins.d	$r0,$r0,0x3c,0x0
 364:	00040000 	alsl.w	$r0,$r0,$r0,0x1
 368:	9f5701f3 	0x9f5701f3
 36c:	000000bc 	0x000000bc
 370:	000000cb 	0x000000cb
 374:	cb570001 	0xcb570001
 378:	dc000000 	0xdc000000
 37c:	04000000 	csrrd	$r0,0x0
 380:	5701f300 	bl	-66911760(0xc0301f0) # fc030570 <_stack+0xe001e408>
 384:	0000dc9f 	0x0000dc9f
 388:	0000e800 	0x0000e800
 38c:	57000100 	bl	67305472(0x4030000) # 403038c <data_size+0x402fbd8>
	...
 398:	00000020 	0x00000020
 39c:	00000034 	0x00000034
 3a0:	9f300002 	0x9f300002
 3a4:	00000034 	0x00000034
 3a8:	00000038 	0x00000038
 3ac:	38680001 	ammin.wu	$r1,$r0,$r0
 3b0:	58000000 	beq	$r0,$r0,0 # 3b0 <data_size-0x404>
 3b4:	08000000 	0x08000000
 3b8:	91007c00 	0x91007c00
 3bc:	50231c00 	b	8988(0x231c) # 26d8 <data_size+0x1f24>
 3c0:	0000589f 	ext.w.h	$r31,$r4
 3c4:	00006400 	rdtimeh.w	$r0,$r0
 3c8:	68000100 	bltu	$r8,$r0,0 # 3c8 <data_size-0x3ec>
 3cc:	000000b4 	0x000000b4
 3d0:	000000bc 	0x000000bc
 3d4:	d0680001 	0xd0680001
 3d8:	e8000000 	0xe8000000
 3dc:	02000000 	slti	$r0,$r0,0
 3e0:	009f3000 	bstrins.d	$r0,$r0,0x1f,0xc
 3e4:	00000000 	0x00000000
 3e8:	6c000000 	bgeu	$r0,$r0,0 # 3e8 <data_size-0x3cc>
 3ec:	90000000 	0x90000000
 3f0:	01000000 	0x01000000
 3f4:	00906700 	bstrins.d	$r0,$r24,0x10,0x19
 3f8:	00940000 	bstrins.d	$r0,$r0,0x14,0x0
 3fc:	00030000 	0x00030000
 400:	949f0187 	0x949f0187
 404:	98000000 	0x98000000
 408:	01000000 	0x01000000
 40c:	00b86700 	bstrins.d	$r0,$r24,0x38,0x19
 410:	00bc0000 	bstrins.d	$r0,$r0,0x3c,0x0
 414:	00010000 	asrtle.d	$r0,$r0
 418:	0000dc55 	0x0000dc55
 41c:	0000e800 	0x0000e800
 420:	75000d00 	0x75000d00
 424:	16301200 	lu32i.d	$r0,98448(0x18090)
 428:	01282b14 	0x01282b14
 42c:	9f131600 	0x9f131600
	...
 438:	00000080 	0x00000080
 43c:	0000008c 	0x0000008c
 440:	005c0001 	0x005c0001
 444:	00000000 	0x00000000
 448:	20000000 	ll.w	$r0,$r0,0
 44c:	24000000 	ldptr.w	$r0,$r0,0
 450:	01000000 	0x01000000
 454:	00245400 	crc.w.b.w	$r0,$r0,$r21
 458:	00340000 	0x00340000
 45c:	00010000 	asrtle.d	$r0,$r0
 460:	00003467 	revb.4h	$r7,$r3
 464:	00003800 	revb.2w	$r0,$r0
 468:	5d000100 	bne	$r8,$r0,65536(0x10000) # 10468 <data_size+0xfcb4>
 46c:	00000038 	0x00000038
 470:	00000058 	0x00000058
 474:	58670001 	beq	$r0,$r1,26368(0x6700) # 6b74 <data_size+0x63c0>
 478:	64000000 	bge	$r0,$r0,0 # 478 <data_size-0x33c>
 47c:	01000000 	0x01000000
 480:	00b45d00 	bstrins.d	$r0,$r8,0x34,0x17
 484:	00bc0000 	bstrins.d	$r0,$r0,0x3c,0x0
 488:	00010000 	asrtle.d	$r0,$r0
 48c:	0000d05d 	0x0000d05d
 490:	0000dc00 	0x0000dc00
 494:	67000100 	bge	$r8,$r0,-65536(0x30000) # ffff0494 <_stack+0xe3fde32c>
 498:	000000dc 	0x000000dc
 49c:	000000e8 	0x000000e8
 4a0:	00540001 	0x00540001
	...
 4ac:	18000000 	pcaddi	$r0,0
 4b0:	01000000 	0x01000000
 4b4:	00185400 	sra.w	$r0,$r0,$r21
 4b8:	00300000 	0x00300000
 4bc:	00010000 	asrtle.d	$r0,$r0
 4c0:	00003c54 	revb.d	$r20,$r2
 4c4:	00004000 	revh.2w	$r0,$r0
 4c8:	54000100 	bl	67108864(0x4000000) # 40004c8 <data_size+0x3fffd14>
	...
 4d8:	00000004 	0x00000004
 4dc:	00550001 	0x00550001
 4e0:	00000000 	0x00000000
 4e4:	0c000000 	0x0c000000
 4e8:	141c0019 	lu12i.w	$r25,57344(0xe000)
 4ec:	011c0019 	0x011c0019
 4f0:	19145400 	pcaddi	$r0,-482656(0x8a2a0)
 4f4:	19241c00 	pcaddi	$r0,-450336(0x920e0)
 4f8:	00041c00 	alsl.w	$r0,$r0,$r7,0x1
 4fc:	9f5401f3 	0x9f5401f3
	...
 508:	1c00190c 	pcaddu12i	$r12,200(0xc8)
 50c:	1c001914 	pcaddu12i	$r20,200(0xc8)
 510:	14550001 	lu12i.w	$r1,174080(0x2a800)
 514:	241c0019 	ldptr.w	$r25,$r0,7168(0x1c00)
 518:	041c0019 	csrrd	$r25,0x700
 51c:	5501f300 	bl	-67042832(0xc0101f0) # fc01070c <_stack+0xdfffe5a4>
 520:	0000009f 	0x0000009f
 524:	00000000 	0x00000000
 528:	00190c00 	srl.d	$r0,$r0,$r3
 52c:	0019141c 	srl.d	$r28,$r0,$r5
 530:	7500031c 	0x7500031c
 534:	19149f7f 	pcaddi	$r31,-482053(0x8a4fb)
 538:	19201c00 	pcaddi	$r0,-458528(0x900e0)
 53c:	00061c00 	alsl.wu	$r0,$r0,$r7,0x1
 540:	315501f3 	vstelm.h	$vr19,$r15,128(0x80),0x5
 544:	00009f1c 	0x00009f1c
 548:	00000000 	0x00000000
 54c:	190c0000 	pcaddi	$r0,-499712(0x86000)
 550:	19141c00 	pcaddi	$r0,-483104(0x8a0e0)
 554:	00011c00 	asrtle.d	$r0,$r7
 558:	00191454 	srl.d	$r20,$r2,$r5
 55c:	0019241c 	srl.d	$r28,$r0,$r9
 560:	f300041c 	0xf300041c
 564:	009f5401 	bstrins.d	$r1,$r0,0x1f,0x15
 568:	00000000 	0x00000000
 56c:	b4000000 	0xb4000000
 570:	cc1c0018 	0xcc1c0018
 574:	011c0018 	0x011c0018
 578:	18cc5400 	pcaddi	$r0,418464(0x662a0)
 57c:	190c1c00 	pcaddi	$r0,-499488(0x860e0)
 580:	00041c00 	alsl.w	$r0,$r0,$r7,0x1
 584:	9f5401f3 	0x9f5401f3
	...
 590:	1c0018b4 	pcaddu12i	$r20,197(0xc5)
 594:	1c0018cc 	pcaddu12i	$r12,198(0xc6)
 598:	cc550001 	0xcc550001
 59c:	0c1c0018 	0x0c1c0018
 5a0:	041c0019 	csrrd	$r25,0x700
 5a4:	5501f300 	bl	-67042832(0xc0101f0) # fc010794 <_stack+0xdfffe62c>
 5a8:	0000009f 	0x0000009f
 5ac:	00000000 	0x00000000
 5b0:	0018b400 	sll.d	$r0,$r0,$r13
 5b4:	0018b41c 	sll.d	$r28,$r0,$r13
 5b8:	5600011c 	bl	74579968(0x4720000) # 47205b8 <data_size+0x471fe04>
 5bc:	1c0018b4 	pcaddu12i	$r20,197(0xc5)
 5c0:	1c0018c4 	pcaddu12i	$r4,198(0xc6)
 5c4:	7f760003 	0x7f760003
 5c8:	0018c49f 	sll.d	$r31,$r4,$r17
 5cc:	0018e41c 	sll.d	$r28,$r0,$r25
 5d0:	f300061c 	0xf300061c
 5d4:	1c315601 	pcaddu12i	$r1,101040(0x18ab0)
 5d8:	0000009f 	0x0000009f
 5dc:	00000000 	0x00000000
 5e0:	0018b400 	sll.d	$r0,$r0,$r13
 5e4:	0018e81c 	sll.d	$r28,$r0,$r26
 5e8:	5400011c 	bl	74448896(0x4700000) # 47005e8 <data_size+0x46ffe34>
 5ec:	1c0018ec 	pcaddu12i	$r12,199(0xc7)
 5f0:	1c001900 	pcaddu12i	$r0,200(0xc8)
 5f4:	00540001 	0x00540001
 5f8:	00000000 	0x00000000
 5fc:	60000000 	blt	$r0,$r0,0 # 5fc <data_size-0x1b8>
 600:	981c0018 	0x981c0018
 604:	011c0018 	0x011c0018
 608:	18985500 	pcaddi	$r0,311976(0x4c2a8)
 60c:	18b01c00 	pcaddi	$r0,360672(0x580e0)
 610:	00041c00 	alsl.w	$r0,$r0,$r7,0x1
 614:	9f5501f3 	0x9f5501f3
 618:	1c0018b0 	pcaddu12i	$r16,197(0xc5)
 61c:	1c0018b4 	pcaddu12i	$r20,197(0xc5)
 620:	00550001 	0x00550001
 624:	00000000 	0x00000000
 628:	60000000 	blt	$r0,$r0,0 # 628 <data_size-0x18c>
 62c:	701c0018 	0x701c0018
 630:	011c0018 	0x011c0018
 634:	18705600 	pcaddi	$r0,230064(0x382b0)
 638:	18ac1c00 	pcaddi	$r0,352480(0x560e0)
 63c:	00031c00 	0x00031c00
 640:	b09f7f76 	0xb09f7f76
 644:	b41c0018 	0xb41c0018
 648:	031c0018 	lu52i.d	$r24,$r0,1792(0x700)
 64c:	9f7f7600 	0x9f7f7600
	...
 658:	1c001860 	pcaddu12i	$r0,195(0xc3)
 65c:	1c00186c 	pcaddu12i	$r12,195(0xc3)
 660:	6c550001 	bgeu	$r0,$r1,21760(0x5500) # 5b60 <data_size+0x53ac>
 664:	8c1c0018 	0x8c1c0018
 668:	011c0018 	0x011c0018
 66c:	188c5c00 	pcaddi	$r0,287456(0x462e0)
 670:	18ac1c00 	pcaddi	$r0,352480(0x560e0)
 674:	00011c00 	asrtle.d	$r0,$r7
 678:	0018b055 	sll.d	$r21,$r2,$r12
 67c:	0018b41c 	sll.d	$r28,$r0,$r13
 680:	5500011c 	bl	74514432(0x4710000) # 4710680 <data_size+0x470fecc>
	...
 68c:	1c001860 	pcaddu12i	$r0,195(0xc3)
 690:	1c001870 	pcaddu12i	$r16,195(0xc3)
 694:	70540001 	vhaddw.h.b	$vr1,$vr0,$vr0
 698:	8c1c0018 	0x8c1c0018
 69c:	011c0018 	0x011c0018
 6a0:	188c5d00 	pcaddi	$r0,287464(0x462e8)
 6a4:	18981c00 	pcaddi	$r0,311520(0x4c0e0)
 6a8:	00011c00 	asrtle.d	$r0,$r7
 6ac:	00189854 	sll.d	$r20,$r2,$r6
 6b0:	0018ac1c 	sll.d	$r28,$r0,$r11
 6b4:	5c00011c 	bne	$r8,$r28,0 # 6b4 <data_size-0x100>
 6b8:	1c0018b0 	pcaddu12i	$r16,197(0xc5)
 6bc:	1c0018b4 	pcaddu12i	$r20,197(0xc5)
 6c0:	00540001 	0x00540001
 6c4:	00000000 	0x00000000
 6c8:	3c000000 	0x3c000000
 6cc:	481c0018 	bceqz	$fcc0,-2089984(0x601c00) # ffe022cc <_stack+0xe3df0164>
 6d0:	011c0018 	0x011c0018
 6d4:	18485500 	pcaddi	$r0,148136(0x242a8)
 6d8:	18601c00 	pcaddi	$r0,196832(0x300e0)
 6dc:	00041c00 	alsl.w	$r0,$r0,$r7,0x1
 6e0:	9f5501f3 	0x9f5501f3
	...
 6ec:	1c00183c 	pcaddu12i	$r28,193(0xc1)
 6f0:	1c00183c 	pcaddu12i	$r28,193(0xc1)
 6f4:	3c560001 	0x3c560001
 6f8:	441c0018 	bnez	$r0,-2089984(0x601c00) # ffe022f8 <_stack+0xe3df0190>
 6fc:	031c0018 	lu52i.d	$r24,$r0,1792(0x700)
 700:	9f7f7600 	0x9f7f7600
 704:	1c001844 	pcaddu12i	$r4,194(0xc2)
 708:	1c00185c 	pcaddu12i	$r28,194(0xc2)
 70c:	01f30006 	0x01f30006
 710:	9f1c3156 	0x9f1c3156
	...
 71c:	1c00183c 	pcaddu12i	$r28,193(0xc1)
 720:	1c001848 	pcaddu12i	$r8,194(0xc2)
 724:	48540001 	bceqz	$fcc0,283648(0x45400) # 45b24 <data_size+0x45370>
 728:	5c1c0018 	bne	$r0,$r24,7168(0x1c00) # 2328 <data_size+0x1b74>
 72c:	011c0018 	0x011c0018
 730:	00005c00 	ext.w.b	$r0,$r0
 734:	00000000 	0x00000000
 738:	17f80000 	lu32i.d	$r0,-16384(0xfc000)
 73c:	18101c00 	pcaddi	$r0,32992(0x80e0)
 740:	00011c00 	asrtle.d	$r0,$r7
 744:	00181054 	sra.w	$r20,$r2,$r4
 748:	0018201c 	sra.w	$r28,$r0,$r8
 74c:	5400011c 	bl	74448896(0x4700000) # 470074c <data_size+0x46fff98>
	...
 758:	1c0017cc 	pcaddu12i	$r12,190(0xbe)
 75c:	1c0017e4 	pcaddu12i	$r4,191(0xbf)
 760:	e4540001 	0xe4540001
 764:	f01c0017 	0xf01c0017
 768:	011c0017 	0x011c0017
 76c:	17f45400 	lu32i.d	$r0,-23904(0xfa2a0)
 770:	17f81c00 	lu32i.d	$r0,-16160(0xfc0e0)
 774:	00011c00 	asrtle.d	$r0,$r7
 778:	00000054 	0x00000054
 77c:	00000000 	0x00000000
 780:	00176400 	sll.w	$r0,$r0,$r25
 784:	00179c1c 	srl.w	$r28,$r0,$r7
 788:	5400011c 	bl	74448896(0x4700000) # 4700788 <data_size+0x46fffd4>
 78c:	1c00179c 	pcaddu12i	$r28,188(0xbc)
 790:	1c0017a4 	pcaddu12i	$r4,189(0xbd)
 794:	a8540001 	0xa8540001
 798:	c01c0017 	0xc01c0017
 79c:	011c0017 	0x011c0017
 7a0:	00005400 	bitrev.d	$r0,$r0
 7a4:	00000000 	0x00000000
 7a8:	17640000 	lu32i.d	$r0,-319488(0xb2000)
 7ac:	17801c00 	lu32i.d	$r0,-261920(0xc00e0)
 7b0:	00011c00 	asrtle.d	$r0,$r7
 7b4:	00178055 	srl.w	$r21,$r2,$r0
 7b8:	0017941c 	srl.w	$r28,$r0,$r5
 7bc:	5c00011c 	bne	$r8,$r28,0 # 7bc <data_size+0x8>
 7c0:	1c001794 	pcaddu12i	$r20,188(0xbc)
 7c4:	1c00179c 	pcaddu12i	$r28,188(0xbc)
 7c8:	9c550001 	0x9c550001
 7cc:	a01c0017 	0xa01c0017
 7d0:	011c0017 	0x011c0017
 7d4:	17a85c00 	lu32i.d	$r0,-179488(0xd42e0)
 7d8:	17ac1c00 	lu32i.d	$r0,-171808(0xd60e0)
 7dc:	00011c00 	asrtle.d	$r0,$r7
 7e0:	0000005c 	0x0000005c
 7e4:	00000000 	0x00000000
 7e8:	00176400 	sll.w	$r0,$r0,$r25
 7ec:	00177c1c 	sll.w	$r28,$r0,$r31
 7f0:	5600011c 	bl	74579968(0x4720000) # 47207f0 <data_size+0x472003c>
 7f4:	1c00177c 	pcaddu12i	$r28,187(0xbb)
 7f8:	1c001780 	pcaddu12i	$r0,188(0xbc)
 7fc:	01f30004 	0x01f30004
 800:	17809f56 	lu32i.d	$r22,-260870(0xc04fa)
 804:	17a01c00 	lu32i.d	$r0,-196384(0xd00e0)
 808:	00061c00 	alsl.wu	$r0,$r0,$r7,0x1
 80c:	315601f3 	vstelm.h	$vr19,$r15,-256(0x100),0x5
 810:	17a89f1c 	lu32i.d	$r28,-178952(0xd44f8)
 814:	17ac1c00 	lu32i.d	$r0,-171808(0xd60e0)
 818:	00061c00 	alsl.wu	$r0,$r0,$r7,0x1
 81c:	315601f3 	vstelm.h	$vr19,$r15,-256(0x100),0x5
 820:	00009f1c 	0x00009f1c
 824:	00000000 	0x00000000
 828:	173c0000 	lu32i.d	$r0,-401408(0x9e000)
 82c:	175c1c00 	lu32i.d	$r0,-335648(0xae0e0)
 830:	00011c00 	asrtle.d	$r0,$r7
 834:	00175c55 	sll.w	$r21,$r2,$r23
 838:	0017641c 	sll.w	$r28,$r0,$r25
 83c:	5500011c 	bl	74514432(0x4710000) # 471083c <data_size+0x4710088>
	...
 848:	1c00173c 	pcaddu12i	$r28,185(0xb9)
 84c:	1c001744 	pcaddu12i	$r4,186(0xba)
 850:	44560001 	bnez	$r0,284160(0x45600) # 45e50 <data_size+0x4569c>
 854:	481c0017 	bceqz	$fcc0,-2352128(0x5c1c00) # ffdc2454 <_stack+0xe3db02ec>
 858:	041c0017 	csrrd	$r23,0x700
 85c:	5601f300 	bl	-66977296(0xc0201f0) # fc020a4c <_stack+0xe000e8e4>
 860:	0017489f 	sll.w	$r31,$r4,$r18
 864:	0017501c 	sll.w	$r28,$r0,$r20
 868:	74000a1c 	xvseq.b	$xr28,$xr16,$xr2
 86c:	1c007d00 	pcaddu12i	$r0,1000(0x3e8)
 870:	225601f3 	ll.d	$r19,$r15,22016(0x5600)
 874:	0017509f 	sll.w	$r31,$r4,$r20
 878:	00175c1c 	sll.w	$r28,$r0,$r23
 87c:	74000c1c 	xvseq.b	$xr28,$xr0,$xr3
 880:	1c007d00 	pcaddu12i	$r0,1000(0x3e8)
 884:	225601f3 	ll.d	$r19,$r15,22016(0x5600)
 888:	5c9f0123 	bne	$r9,$r3,40704(0x9f00) # a788 <data_size+0x9fd4>
 88c:	601c0017 	blt	$r0,$r23,7168(0x1c00) # 248c <data_size+0x1cd8>
 890:	0a1c0017 	xvfmadd.s	$xr23,$xr0,$xr0,$xr24
 894:	7d007400 	0x7d007400
 898:	01f31c00 	0x01f31c00
 89c:	009f2256 	bstrins.d	$r22,$r18,0x1f,0x8
 8a0:	00000000 	0x00000000
 8a4:	3c000000 	0x3c000000
 8a8:	481c0017 	bceqz	$fcc0,-2352128(0x5c1c00) # ffdc24a8 <_stack+0xe3db0340>
 8ac:	011c0017 	0x011c0017
 8b0:	17485400 	lu32i.d	$r0,-376160(0xa42a0)
 8b4:	17501c00 	lu32i.d	$r0,-360224(0xa80e0)
 8b8:	00011c00 	asrtle.d	$r0,$r7
 8bc:	0017505d 	sll.w	$r29,$r2,$r20
 8c0:	00175c1c 	sll.w	$r28,$r0,$r23
 8c4:	7d00031c 	0x7d00031c
 8c8:	175c9f7f 	lu32i.d	$r31,-334597(0xae4fb)
 8cc:	17601c00 	lu32i.d	$r0,-327456(0xb00e0)
 8d0:	00011c00 	asrtle.d	$r0,$r7
 8d4:	0000005d 	0x0000005d
 8d8:	00000000 	0x00000000
 8dc:	00172000 	sll.w	$r0,$r0,$r8
 8e0:	0017281c 	sll.w	$r28,$r0,$r10
 8e4:	5500011c 	bl	74514432(0x4710000) # 47108e4 <data_size+0x4710130>
 8e8:	1c001728 	pcaddu12i	$r8,185(0xb9)
 8ec:	1c00173c 	pcaddu12i	$r28,185(0xb9)
 8f0:	00550001 	0x00550001
 8f4:	00000000 	0x00000000
 8f8:	20000000 	ll.w	$r0,$r0,0
 8fc:	241c0017 	ldptr.w	$r23,$r0,7168(0x1c00)
 900:	011c0017 	0x011c0017
 904:	17245400 	lu32i.d	$r0,-449888(0x922a0)
 908:	173c1c00 	lu32i.d	$r0,-401184(0x9e0e0)
 90c:	00011c00 	asrtle.d	$r0,$r7
 910:	0000005c 	0x0000005c
 914:	00000000 	0x00000000
 918:	0016e400 	andn	$r0,$r0,$r25
 91c:	0016e81c 	andn	$r28,$r0,$r26
 920:	5400011c 	bl	74448896(0x4700000) # 4700920 <data_size+0x470016c>
 924:	1c0016e8 	pcaddu12i	$r8,183(0xb7)
 928:	1c0016f8 	pcaddu12i	$r24,183(0xb7)
 92c:	01740003 	0x01740003
 930:	0016f89f 	andn	$r31,$r4,$r30
 934:	0017101c 	sll.w	$r28,$r0,$r4
 938:	7400081c 	xvseq.b	$xr28,$xr0,$xr2
 93c:	22007c00 	ll.d	$r0,$r0,124(0x7c)
 940:	109f0123 	addu16i.d	$r3,$r9,10176(0x27c0)
 944:	141c0017 	lu12i.w	$r23,57344(0xe000)
 948:	091c0017 	vfmadd.s	$vr23,$vr0,$vr0,$vr24
 94c:	5401f300 	bl	-67108368(0xc0001f0) # fc000b3c <_stack+0xdffee9d4>
 950:	2322007c 	sc.d	$r28,$r3,8704(0x2200)
 954:	00009f01 	0x00009f01
 958:	00000000 	0x00000000
 95c:	16e40000 	lu32i.d	$r0,466944(0x72000)
 960:	16f81c00 	lu32i.d	$r0,508128(0x7c0e0)
 964:	00021c00 	0x00021c00
 968:	16f89f30 	lu32i.d	$r16,509177(0x7c4f9)
 96c:	17141c00 	lu32i.d	$r0,-483104(0x8a0e0)
 970:	00011c00 	asrtle.d	$r0,$r7
 974:	0017145c 	sll.w	$r28,$r2,$r5
 978:	0017201c 	sll.w	$r28,$r0,$r8
 97c:	3000021c 	0x3000021c
 980:	0000009f 	0x0000009f
 984:	00000000 	0x00000000
 988:	0016b400 	andn	$r0,$r0,$r13
 98c:	0016b41c 	andn	$r28,$r0,$r13
 990:	5400011c 	bl	74448896(0x4700000) # 4700990 <data_size+0x47001dc>
 994:	1c0016b4 	pcaddu12i	$r20,181(0xb5)
 998:	1c0016c0 	pcaddu12i	$r0,182(0xb6)
 99c:	01740003 	0x01740003
 9a0:	0016c09f 	andn	$r31,$r4,$r16
 9a4:	0016d41c 	andn	$r28,$r0,$r21
 9a8:	7400081c 	xvseq.b	$xr28,$xr0,$xr2
 9ac:	22007c00 	ll.d	$r0,$r0,124(0x7c)
 9b0:	d49f0123 	0xd49f0123
 9b4:	d81c0016 	0xd81c0016
 9b8:	091c0016 	vfmadd.s	$vr22,$vr0,$vr0,$vr24
 9bc:	5401f300 	bl	-67108368(0xc0001f0) # fc000bac <_stack+0xdffeea44>
 9c0:	2322007c 	sc.d	$r28,$r3,8704(0x2200)
 9c4:	16d89f01 	lu32i.d	$r1,443640(0x6c4f8)
 9c8:	16e01c00 	lu32i.d	$r0,458976(0x700e0)
 9cc:	00031c00 	0x00031c00
 9d0:	e09f0174 	0xe09f0174
 9d4:	e41c0016 	0xe41c0016
 9d8:	061c0016 	cacop	0x16,$r0,1792(0x700)
 9dc:	5401f300 	bl	-67108368(0xc0001f0) # fc000bcc <_stack+0xdffeea64>
 9e0:	009f0123 	bstrins.d	$r3,$r9,0x1f,0x0
 9e4:	00000000 	0x00000000
 9e8:	b4000000 	0xb4000000
 9ec:	c01c0016 	0xc01c0016
 9f0:	021c0016 	slti	$r22,$r0,1792(0x700)
 9f4:	c09f3000 	0xc09f3000
 9f8:	d81c0016 	0xd81c0016
 9fc:	011c0016 	0x011c0016
 a00:	16d85c00 	lu32i.d	$r0,443104(0x6c2e0)
 a04:	16e41c00 	lu32i.d	$r0,467168(0x720e0)
 a08:	00021c00 	0x00021c00
 a0c:	00009f30 	0x00009f30
 a10:	00000000 	0x00000000
 a14:	18200000 	pcaddi	$r0,65536(0x10000)
 a18:	18201c00 	pcaddi	$r0,65760(0x100e0)
 a1c:	00011c00 	asrtle.d	$r0,$r7
 a20:	00182056 	sra.w	$r22,$r2,$r8
 a24:	0018281c 	sra.w	$r28,$r0,$r10
 a28:	7600031c 	0x7600031c
 a2c:	18289f7f 	pcaddi	$r31,83195(0x144fb)
 a30:	182c1c00 	pcaddi	$r0,90336(0x160e0)
 a34:	00061c00 	alsl.wu	$r0,$r0,$r7,0x1
 a38:	315601f3 	vstelm.h	$vr19,$r15,-256(0x100),0x5
 a3c:	182c9f1c 	pcaddi	$r28,91384(0x164f8)
 a40:	18301c00 	pcaddi	$r0,98528(0x180e0)
 a44:	000b1c00 	0x000b1c00
 a48:	f320007c 	0xf320007c
 a4c:	74225601 	xvaddwod.h.b	$xr1,$xr16,$xr21
 a50:	309f2200 	vldrepl.b	$vr0,$r16,1992(0x7c8)
 a54:	341c0018 	0x341c0018
 a58:	0a1c0018 	xvfmadd.s	$xr24,$xr0,$xr0,$xr24
 a5c:	7c007400 	0x7c007400
 a60:	01f31c00 	0x01f31c00
 a64:	349f2256 	0x349f2256
 a68:	381c0018 	stx.d	$r24,$r0,$r0
 a6c:	0b1c0018 	0x0b1c0018
 a70:	20007c00 	ll.w	$r0,$r0,124(0x7c)
 a74:	225601f3 	ll.d	$r19,$r15,22016(0x5600)
 a78:	9f220074 	0x9f220074
	...
 a84:	1c001820 	pcaddu12i	$r0,193(0xc1)
 a88:	1c00182c 	pcaddu12i	$r12,193(0xc1)
 a8c:	2c540001 	vst	$vr1,$r0,1280(0x500)
 a90:	381c0018 	stx.d	$r24,$r0,$r0
 a94:	011c0018 	0x011c0018
 a98:	00005c00 	ext.w.b	$r0,$r0
 a9c:	00000000 	0x00000000
 aa0:	00d40000 	bstrpick.d	$r0,$r0,0x14,0x0
 aa4:	00e40000 	bstrpick.d	$r0,$r0,0x24,0x0
 aa8:	00020000 	0x00020000
 aac:	00e49f30 	bstrpick.d	$r16,$r25,0x24,0x27
 ab0:	00f80000 	bstrpick.d	$r0,$r0,0x38,0x0
 ab4:	000e0000 	bytepick.d	$r0,$r0,$r0,0x4
 ab8:	b8f70074 	0xb8f70074
 abc:	f7640801 	0xf7640801
 ac0:	f71b01b8 	0xf71b01b8
 ac4:	00f89f00 	bstrpick.d	$r0,$r24,0x38,0x27
 ac8:	01040000 	0x01040000
 acc:	00010000 	asrtle.d	$r0,$r0
 ad0:	0000005d 	0x0000005d
 ad4:	00000000 	0x00000000
 ad8:	0000b000 	0x0000b000
 adc:	0000c000 	0x0000c000
 ae0:	30000200 	0x30000200
 ae4:	0000c09f 	0x0000c09f
 ae8:	0000cc00 	0x0000cc00
 aec:	74000500 	xvseq.b	$xr0,$xr8,$xr1
 af0:	9f1e3a00 	0x9f1e3a00
 af4:	000000cc 	0x000000cc
 af8:	000000d4 	0x000000d4
 afc:	00540001 	0x00540001
 b00:	00000000 	0x00000000
 b04:	28000000 	ld.b	$r0,$r0,0
 b08:	94000000 	0x94000000
 b0c:	01000000 	0x01000000
 b10:	00945400 	bstrins.d	$r0,$r0,0x14,0x15
 b14:	00ac0000 	bstrins.d	$r0,$r0,0x2c,0x0
 b18:	00040000 	alsl.w	$r0,$r0,$r0,0x1
 b1c:	9f5401f3 	0x9f5401f3
	...
 b28:	00000028 	0x00000028
 b2c:	00000038 	0x00000038
 b30:	9f300002 	0x9f300002
 b34:	00000038 	0x00000038
 b38:	000000ac 	0x000000ac
 b3c:	005f0001 	0x005f0001
 b40:	00000000 	0x00000000
 b44:	Address 0x0000000000000b44 is out of bounds.


Disassembly of section .debug_ranges:

00000000 <.debug_ranges>:
   0:	00000064 	0x00000064
   4:	0000006c 	0x0000006c
   8:	00000084 	0x00000084
   c:	000000a0 	0x000000a0
	...
  18:	000000a8 	0x000000a8
  1c:	000000ac 	0x000000ac
  20:	000000f4 	0x000000f4
  24:	0000022c 	0x0000022c
	...
  38:	00000008 	0x00000008
  3c:	00000018 	0x00000018
	...
  48:	00000020 	0x00000020
  4c:	00000030 	0x00000030
  50:	00000038 	0x00000038
  54:	00000050 	0x00000050
	...
  60:	1c0016b4 	pcaddu12i	$r20,181(0xb5)
  64:	1c001924 	pcaddu12i	$r4,201(0xc9)
	...
  78:	00000008 	0x00000008
  7c:	00000010 	0x00000010
	...
  88:	00000028 	0x00000028
  8c:	00000028 	0x00000028
  90:	00000030 	0x00000030
  94:	00000038 	0x00000038
	...
  a0:	000000b0 	0x000000b0
  a4:	000000b0 	0x000000b0
  a8:	000000b8 	0x000000b8
  ac:	000000c0 	0x000000c0
	...
  b8:	000000d4 	0x000000d4
  bc:	000000d4 	0x000000d4
  c0:	000000dc 	0x000000dc
  c4:	000000e4 	0x000000e4
	...

Disassembly of section .debug_line:

00000000 <.debug_line>:
       0:	00000471 	0x00000471
       4:	00200004 	div.w	$r4,$r0,$r0
       8:	01010000 	fadd.d	$f0,$f0,$f0
       c:	0df2f601 	0x0df2f601
      10:	01010100 	fadd.d	$f0,$f8,$f0
      14:	00000001 	0x00000001
      18:	01000001 	0x01000001
      1c:	69727000 	bltu	$r0,$r0,94832(0x17270) # 1728c <data_size+0x16ad8>
      20:	2e66746e 	0x2e66746e
      24:	00000063 	0x00000063
      28:	05000000 	0x05000000
      2c:	00127002 	slt	$r2,$r0,$r28
      30:	0105181c 	fmul.d	$f28,$f0,$f6
      34:	70020500 	vsle.b	$vr0,$vr8,$vr1
      38:	181c0012 	pcaddi	$r18,57344(0xe000)
      3c:	05000105 	0x05000105
      40:	00127002 	slt	$r2,$r0,$r28
      44:	0105181c 	fmul.d	$f28,$f0,$f6
      48:	70020500 	vsle.b	$vr0,$vr8,$vr1
      4c:	181c0012 	pcaddi	$r18,57344(0xe000)
      50:	05000105 	0x05000105
      54:	00127002 	slt	$r2,$r0,$r28
      58:	0105181c 	fmul.d	$f28,$f0,$f6
      5c:	70020500 	vsle.b	$vr0,$vr8,$vr1
      60:	181c0012 	pcaddi	$r18,57344(0xe000)
      64:	05000105 	0x05000105
      68:	00127002 	slt	$r2,$r0,$r28
      6c:	0105181c 	fmul.d	$f28,$f0,$f6
      70:	70020500 	vsle.b	$vr0,$vr8,$vr1
      74:	061c0012 	cacop	0x12,$r0,1792(0x700)
      78:	00010511 	0x00010511
      7c:	12900205 	addu16i.d	$r5,$r16,-23552(0xa400)
      80:	051f1c00 	0x051f1c00
      84:	0205000c 	slti	$r12,$r0,320(0x140)
      88:	1c001294 	pcaddu12i	$r20,148(0x94)
      8c:	00010515 	0x00010515
      90:	12980205 	addu16i.d	$r5,$r16,-23040(0xa600)
      94:	05111c00 	0x05111c00
      98:	02050001 	slti	$r1,$r0,320(0x140)
      9c:	1c0012b4 	pcaddu12i	$r20,149(0x95)
      a0:	0001051d 	0x0001051d
      a4:	12b80205 	addu16i.d	$r5,$r16,-20992(0xae00)
      a8:	18061c00 	pcaddi	$r0,12512(0x30e0)
      ac:	05000105 	0x05000105
      b0:	0012b802 	sltu	$r2,$r0,$r14
      b4:	0105181c 	fmul.d	$f28,$f0,$f6
      b8:	d4020500 	0xd4020500
      bc:	5d1c0012 	bne	$r0,$r18,72704(0x11c00) # 11cbc <data_size+0x11508>
      c0:	05000305 	0x05000305
      c4:	0012dc02 	sltu	$r2,$r0,$r23
      c8:	0402001c 	csrrd	$r28,0x80
      cc:	ba030602 	0xba030602
      d0:	1105017f 	addu16i.d	$r31,$r11,16704(0x4140)
      d4:	e0020500 	0xe0020500
      d8:	011c0012 	0x011c0012
      dc:	05000c05 	0x05000c05
      e0:	0012e802 	sltu	$r2,$r0,$r26
      e4:	0105011c 	fmul.d	$f28,$f8,$f0
      e8:	ec020500 	0xec020500
      ec:	001c0012 	mul.w	$r18,$r0,$r0
      f0:	06000402 	cacop	0x2,$r0,1(0x1)
      f4:	00020519 	0x00020519
      f8:	12ec0205 	addu16i.d	$r5,$r16,-17664(0xbb00)
      fc:	05181c00 	0x05181c00
     100:	02050002 	slti	$r2,$r0,320(0x140)
     104:	1c0012ec 	pcaddu12i	$r12,151(0x97)
     108:	04050106 	csrxchg	$r6,$r8,0x140
     10c:	f4020500 	0xf4020500
     110:	061c0012 	cacop	0x12,$r0,1792(0x700)
     114:	00030559 	0x00030559
     118:	12f40205 	addu16i.d	$r5,$r16,-17152(0xbd00)
     11c:	01061c00 	0x01061c00
     120:	05000505 	0x05000505
     124:	0012fc02 	sltu	$r2,$r0,$r31
     128:	0402001c 	csrrd	$r28,0x80
     12c:	05010601 	0x05010601
     130:	0205000f 	slti	$r15,$r0,320(0x140)
     134:	1c001310 	pcaddu12i	$r16,152(0x98)
     138:	00040200 	alsl.w	$r0,$r16,$r0,0x1
     13c:	01400306 	0x01400306
     140:	05000405 	0x05000405
     144:	00131402 	maskeqz	$r2,$r0,$r5
     148:	0305191c 	lu52i.d	$r28,$r8,326(0x146)
     14c:	18020500 	pcaddi	$r0,4136(0x1028)
     150:	4a1c0013 	bceqz	$fcc0,-3269632(0x4e1c00) # ffce1d50 <_stack+0xe3ccfbe8>
     154:	05000905 	0x05000905
     158:	00131c02 	maskeqz	$r2,$r0,$r7
     15c:	4d03061c 	jirl	$r28,$r16,66308(0x10304)
     160:	00030501 	0x00030501
     164:	133c0205 	addu16i.d	$r5,$r16,-12544(0xcf00)
     168:	5a061c00 	beq	$r0,$r0,-129508(0x2061c) # fffe0784 <_stack+0xe3fce61c>
     16c:	05000105 	0x05000105
     170:	00136402 	maskeqz	$r2,$r0,$r25
     174:	6d03061c 	bgeu	$r16,$r28,66308(0x10304) # 10478 <data_size+0xfcc4>
     178:	00050501 	alsl.w	$r1,$r8,$r1,0x3
     17c:	136c0205 	addu16i.d	$r5,$r16,-9472(0xdb00)
     180:	01061c00 	0x01061c00
     184:	05000605 	0x05000605
     188:	00137002 	maskeqz	$r2,$r0,$r28
     18c:	0402001c 	csrrd	$r28,0x80
     190:	1a051901 	pcalau12i	$r1,10440(0x28c8)
     194:	74020500 	xvsle.b	$xr0,$xr8,$xr1
     198:	011c0013 	0x011c0013
     19c:	05000505 	0x05000505
     1a0:	00138402 	masknez	$r2,$r0,$r1
     1a4:	0402001c 	csrrd	$r28,0x80
     1a8:	05180603 	0x05180603
     1ac:	02050006 	slti	$r6,$r0,320(0x140)
     1b0:	1c001384 	pcaddu12i	$r4,156(0x9c)
     1b4:	09050106 	0x09050106
     1b8:	88020500 	0x88020500
     1bc:	161c0013 	lu32i.d	$r19,57344(0xe000)
     1c0:	05002c05 	0x05002c05
     1c4:	00138c02 	masknez	$r2,$r0,$r3
     1c8:	1005011c 	addu16i.d	$r28,$r8,320(0x140)
     1cc:	90020500 	0x90020500
     1d0:	181c0013 	pcaddi	$r19,57344(0xe000)
     1d4:	05001605 	0x05001605
     1d8:	00139402 	masknez	$r2,$r0,$r5
     1dc:	1005161c 	addu16i.d	$r28,$r16,325(0x145)
     1e0:	98020500 	0x98020500
     1e4:	011c0013 	0x011c0013
     1e8:	05001a05 	0x05001a05
     1ec:	00139c02 	masknez	$r2,$r0,$r7
     1f0:	0505011c 	0x0505011c
     1f4:	a4020500 	0xa4020500
     1f8:	181c0013 	pcaddi	$r19,57344(0xe000)
     1fc:	05000705 	0x05000705
     200:	0013a802 	masknez	$r2,$r0,$r10
     204:	0505161c 	0x0505161c
     208:	b0020500 	0xb0020500
     20c:	001c0013 	mul.w	$r19,$r0,$r0
     210:	06000402 	cacop	0x2,$r0,1(0x1)
     214:	05016f03 	0x05016f03
     218:	02050005 	slti	$r5,$r0,320(0x140)
     21c:	1c0013c0 	pcaddu12i	$r0,158(0x9e)
     220:	00050518 	alsl.w	$r24,$r8,$r1,0x3
     224:	13c00205 	addu16i.d	$r5,$r16,-4096(0xf000)
     228:	01061c00 	0x01061c00
     22c:	05000805 	0x05000805
     230:	0013c402 	masknez	$r2,$r0,$r17
     234:	0518061c 	0x0518061c
     238:	02050005 	slti	$r5,$r0,320(0x140)
     23c:	1c0013c4 	pcaddu12i	$r4,158(0x9e)
     240:	06050106 	cacop	0x6,$r8,320(0x140)
     244:	c8020500 	0xc8020500
     248:	061c0013 	cacop	0x13,$r0,1792(0x700)
     24c:	00050518 	alsl.w	$r24,$r8,$r1,0x3
     250:	13cc0205 	addu16i.d	$r5,$r16,-3328(0xf300)
     254:	64031c00 	bge	$r0,$r0,796(0x31c) # 570 <data_size-0x244>
     258:	00050501 	alsl.w	$r1,$r8,$r1,0x3
     25c:	13d00205 	addu16i.d	$r5,$r16,-3072(0xf400)
     260:	19061c00 	pcaddi	$r0,-511776(0x830e0)
     264:	05000605 	0x05000605
     268:	0013d402 	masknez	$r2,$r0,$r21
     26c:	0805161c 	0x0805161c
     270:	d8020500 	0xd8020500
     274:	161c0013 	lu32i.d	$r19,57344(0xe000)
     278:	05000505 	0x05000505
     27c:	0013dc02 	masknez	$r2,$r0,$r23
     280:	0518061c 	0x0518061c
     284:	02050005 	slti	$r5,$r0,320(0x140)
     288:	1c0013dc 	pcaddu12i	$r28,158(0x9e)
     28c:	00050518 	alsl.w	$r24,$r8,$r1,0x3
     290:	13dc0205 	addu16i.d	$r5,$r16,-2304(0xf700)
     294:	05181c00 	0x05181c00
     298:	02050005 	slti	$r5,$r0,320(0x140)
     29c:	1c0013e0 	pcaddu12i	$r0,159(0x9f)
     2a0:	0005051e 	alsl.w	$r30,$r8,$r1,0x3
     2a4:	13f00205 	addu16i.d	$r5,$r16,-1024(0xfc00)
     2a8:	05181c00 	0x05181c00
     2ac:	02050005 	slti	$r5,$r0,320(0x140)
     2b0:	1c0013f0 	pcaddu12i	$r16,159(0x9f)
     2b4:	08050106 	0x08050106
     2b8:	f4020500 	0xf4020500
     2bc:	061c0013 	cacop	0x13,$r0,1792(0x700)
     2c0:	00050518 	alsl.w	$r24,$r8,$r1,0x3
     2c4:	13f40205 	addu16i.d	$r5,$r16,-768(0xfd00)
     2c8:	01061c00 	0x01061c00
     2cc:	05000605 	0x05000605
     2d0:	0013f802 	masknez	$r2,$r0,$r30
     2d4:	0518061c 	0x0518061c
     2d8:	02050005 	slti	$r5,$r0,320(0x140)
     2dc:	1c0013fc 	pcaddu12i	$r28,159(0x9f)
     2e0:	00110519 	sub.w	$r25,$r8,$r1
     2e4:	140c0205 	lu12i.w	$r5,24592(0x6010)
     2e8:	05181c00 	0x05181c00
     2ec:	02050011 	slti	$r17,$r0,320(0x140)
     2f0:	1c00140c 	pcaddu12i	$r12,160(0xa0)
     2f4:	14050106 	lu12i.w	$r6,10248(0x2808)
     2f8:	10020500 	addu16i.d	$r0,$r8,129(0x81)
     2fc:	061c0014 	cacop	0x14,$r0,1792(0x700)
     300:	00110518 	sub.w	$r24,$r8,$r1
     304:	14100205 	lu12i.w	$r5,32784(0x8010)
     308:	01061c00 	0x01061c00
     30c:	05001205 	0x05001205
     310:	00141402 	nor	$r2,$r0,$r5
     314:	0518061c 	0x0518061c
     318:	02050011 	slti	$r17,$r0,320(0x140)
     31c:	1c001418 	pcaddu12i	$r24,160(0xa0)
     320:	00050519 	alsl.w	$r25,$r8,$r1,0x3
     324:	14280205 	lu12i.w	$r5,81936(0x14010)
     328:	05181c00 	0x05181c00
     32c:	02050005 	slti	$r5,$r0,320(0x140)
     330:	1c001428 	pcaddu12i	$r8,161(0xa1)
     334:	08050106 	0x08050106
     338:	2c020500 	vld	$vr0,$r8,129(0x81)
     33c:	061c0014 	cacop	0x14,$r0,1792(0x700)
     340:	00050518 	alsl.w	$r24,$r8,$r1,0x3
     344:	142c0205 	lu12i.w	$r5,90128(0x16010)
     348:	01061c00 	0x01061c00
     34c:	05000605 	0x05000605
     350:	00143002 	nor	$r2,$r0,$r12
     354:	0518061c 	0x0518061c
     358:	02050005 	slti	$r5,$r0,320(0x140)
     35c:	1c001434 	pcaddu12i	$r20,161(0xa1)
     360:	0005051f 	alsl.w	$r31,$r8,$r1,0x3
     364:	14440205 	lu12i.w	$r5,139280(0x22010)
     368:	05181c00 	0x05181c00
     36c:	02050005 	slti	$r5,$r0,320(0x140)
     370:	1c001444 	pcaddu12i	$r4,162(0xa2)
     374:	08050106 	0x08050106
     378:	48020500 	bcnez	$fcc0,516(0x204) # 57c <data_size-0x238>
     37c:	061c0014 	cacop	0x14,$r0,1792(0x700)
     380:	00050518 	alsl.w	$r24,$r8,$r1,0x3
     384:	14480205 	lu12i.w	$r5,147472(0x24010)
     388:	01061c00 	0x01061c00
     38c:	05000605 	0x05000605
     390:	00144c02 	nor	$r2,$r0,$r19
     394:	0518061c 	0x0518061c
     398:	02050005 	slti	$r5,$r0,320(0x140)
     39c:	1c001450 	pcaddu12i	$r16,162(0xa2)
     3a0:	05015903 	0x05015903
     3a4:	02050005 	slti	$r5,$r0,320(0x140)
     3a8:	1c001454 	pcaddu12i	$r20,162(0xa2)
     3ac:	06051906 	cacop	0x6,$r8,326(0x146)
     3b0:	58020500 	beq	$r8,$r0,516(0x204) # 5b4 <data_size-0x200>
     3b4:	161c0014 	lu32i.d	$r20,57344(0xe000)
     3b8:	05000805 	0x05000805
     3bc:	00145c02 	nor	$r2,$r0,$r23
     3c0:	0505161c 	0x0505161c
     3c4:	60020500 	blt	$r8,$r0,516(0x204) # 5c8 <data_size-0x1ec>
     3c8:	061c0014 	cacop	0x14,$r0,1792(0x700)
     3cc:	00050518 	alsl.w	$r24,$r8,$r1,0x3
     3d0:	14600205 	lu12i.w	$r5,196624(0x30010)
     3d4:	05181c00 	0x05181c00
     3d8:	02050005 	slti	$r5,$r0,320(0x140)
     3dc:	1c001460 	pcaddu12i	$r0,163(0xa3)
     3e0:	00050518 	alsl.w	$r24,$r8,$r1,0x3
     3e4:	14640205 	lu12i.w	$r5,204816(0x32010)
     3e8:	051e1c00 	0x051e1c00
     3ec:	02050005 	slti	$r5,$r0,320(0x140)
     3f0:	1c001474 	pcaddu12i	$r20,163(0xa3)
     3f4:	00050518 	alsl.w	$r24,$r8,$r1,0x3
     3f8:	14740205 	lu12i.w	$r5,237584(0x3a010)
     3fc:	01061c00 	0x01061c00
     400:	05000805 	0x05000805
     404:	00147802 	nor	$r2,$r0,$r30
     408:	0518061c 	0x0518061c
     40c:	02050005 	slti	$r5,$r0,320(0x140)
     410:	1c001478 	pcaddu12i	$r24,163(0xa3)
     414:	06050106 	cacop	0x6,$r8,320(0x140)
     418:	7c020500 	0x7c020500
     41c:	061c0014 	cacop	0x14,$r0,1792(0x700)
     420:	00050518 	alsl.w	$r24,$r8,$r1,0x3
     424:	14800205 	lu12i.w	$r5,262160(0x40010)
     428:	05331c00 	0x05331c00
     42c:	02050005 	slti	$r5,$r0,320(0x140)
     430:	1c001488 	pcaddu12i	$r8,164(0xa4)
     434:	00050518 	alsl.w	$r24,$r8,$r1,0x3
     438:	14880205 	lu12i.w	$r5,278544(0x44010)
     43c:	01061c00 	0x01061c00
     440:	05000605 	0x05000605
     444:	00148c02 	and	$r2,$r0,$r3
     448:	0518061c 	0x0518061c
     44c:	02050005 	slti	$r5,$r0,320(0x140)
     450:	1c001490 	pcaddu12i	$r16,164(0xa4)
     454:	0006051e 	alsl.wu	$r30,$r8,$r1,0x1
     458:	14900205 	lu12i.w	$r5,294928(0x48010)
     45c:	051a1c00 	0x051a1c00
     460:	02050005 	slti	$r5,$r0,320(0x140)
     464:	1c001498 	pcaddu12i	$r24,164(0xa4)
     468:	00050518 	alsl.w	$r24,$r8,$r1,0x3
     46c:	149c0205 	lu12i.w	$r5,319504(0x4e010)
     470:	01001c00 	0x01001c00
     474:	0000ae01 	0x0000ae01
     478:	21000400 	sc.w	$r0,$r0,4(0x4)
     47c:	01000000 	0x01000000
     480:	f2f60101 	0xf2f60101
     484:	0101000d 	fadd.d	$f13,$f0,$f0
     488:	00000101 	0x00000101
     48c:	00000100 	0x00000100
     490:	75700001 	0x75700001
     494:	61686374 	blt	$r27,$r20,92256(0x16860) # 16cf4 <data_size+0x16540>
     498:	00632e72 	bstrins.w	$r18,$r19,0x3,0xb
     49c:	00000000 	0x00000000
     4a0:	9c020500 	0x9c020500
     4a4:	181c0014 	pcaddi	$r20,57344(0xe000)
     4a8:	05000105 	0x05000105
     4ac:	00149c02 	and	$r2,$r0,$r7
     4b0:	0105181c 	fmul.d	$f28,$f0,$f6
     4b4:	9c020500 	0x9c020500
     4b8:	1d1c0014 	pcaddu12i	$r20,-466944(0x8e000)
     4bc:	05000505 	0x05000505
     4c0:	00149c02 	and	$r2,$r0,$r7
     4c4:	0510061c 	0x0510061c
     4c8:	02050001 	slti	$r1,$r0,320(0x140)
     4cc:	1c0014a4 	pcaddu12i	$r4,165(0xa5)
     4d0:	0005051e 	alsl.w	$r30,$r8,$r1,0x3
     4d4:	14b40205 	lu12i.w	$r5,368656(0x5a010)
     4d8:	12061c00 	addu16i.d	$r0,$r0,-32377(0x8187)
     4dc:	05000105 	0x05000105
     4e0:	0014b402 	and	$r2,$r0,$r13
     4e4:	0518061c 	0x0518061c
     4e8:	02050001 	slti	$r1,$r0,320(0x140)
     4ec:	1c0014c4 	pcaddu12i	$r4,166(0xa6)
     4f0:	01051a06 	fmul.d	$f6,$f16,$f6
     4f4:	c4020500 	0xc4020500
     4f8:	181c0014 	pcaddi	$r20,57344(0xe000)
     4fc:	05000505 	0x05000505
     500:	0014c402 	and	$r2,$r0,$r17
     504:	0516061c 	0x0516061c
     508:	02050001 	slti	$r1,$r0,320(0x140)
     50c:	1c0014cc 	pcaddu12i	$r12,166(0xa6)
     510:	00050518 	alsl.w	$r24,$r8,$r1,0x3
     514:	14dc0205 	lu12i.w	$r5,450576(0x6e010)
     518:	051e1c00 	0x051e1c00
     51c:	02050001 	slti	$r1,$r0,320(0x140)
     520:	1c0014e8 	pcaddu12i	$r8,167(0xa7)
     524:	65010100 	bge	$r8,$r0,65792(0x10100) # 10624 <data_size+0xfe70>
     528:	04000001 	csrrd	$r1,0x0
     52c:	00001e00 	ctz.w	$r0,$r16
     530:	01010100 	fadd.d	$f0,$f8,$f0
     534:	000df2f6 	bytepick.d	$r22,$r23,$r28,0x3
     538:	01010101 	fadd.d	$f1,$f8,$f0
     53c:	01000000 	0x01000000
     540:	00010000 	asrtle.d	$r0,$r0
     544:	73747570 	0x73747570
     548:	0000632e 	rdtimel.w	$r14,$r25
     54c:	00000000 	0x00000000
     550:	14e80205 	lu12i.w	$r5,475152(0x74010)
     554:	05181c00 	0x05181c00
     558:	02050001 	slti	$r1,$r0,320(0x140)
     55c:	1c0014e8 	pcaddu12i	$r8,167(0xa7)
     560:	00010518 	0x00010518
     564:	14e80205 	lu12i.w	$r5,475152(0x74010)
     568:	05181c00 	0x05181c00
     56c:	02050001 	slti	$r1,$r0,320(0x140)
     570:	1c0014e8 	pcaddu12i	$r8,167(0xa7)
     574:	01051506 	fmul.d	$f6,$f8,$f5
     578:	fc020500 	0xfc020500
     57c:	191c0014 	pcaddi	$r20,-466944(0x8e000)
     580:	05000905 	0x05000905
     584:	00150002 	move	$r2,$r0
     588:	0605011c 	cacop	0x1c,$r8,320(0x140)
     58c:	08020500 	0x08020500
     590:	191c0015 	pcaddi	$r21,-466944(0x8e000)
     594:	05000405 	0x05000405
     598:	00151002 	or	$r2,$r0,$r4
     59c:	0518061c 	0x0518061c
     5a0:	02050002 	slti	$r2,$r0,320(0x140)
     5a4:	1c001518 	pcaddu12i	$r24,168(0xa8)
     5a8:	00020518 	0x00020518
     5ac:	15180205 	lu12i.w	$r5,-475120(0x8c010)
     5b0:	13061c00 	addu16i.d	$r0,$r0,-15993(0xc187)
     5b4:	05000905 	0x05000905
     5b8:	00151c02 	or	$r2,$r0,$r7
     5bc:	0605011c 	cacop	0x1c,$r8,320(0x140)
     5c0:	20020500 	ll.w	$r0,$r8,516(0x204)
     5c4:	061c0015 	cacop	0x15,$r0,1792(0x700)
     5c8:	00020519 	0x00020519
     5cc:	15200205 	lu12i.w	$r5,-458736(0x90010)
     5d0:	19061c00 	pcaddi	$r0,-511776(0x830e0)
     5d4:	05000305 	0x05000305
     5d8:	00152402 	or	$r2,$r0,$r9
     5dc:	0405151c 	csrxchg	$r28,$r8,0x145
     5e0:	28020500 	ld.b	$r0,$r8,129(0x81)
     5e4:	001c0015 	mul.w	$r21,$r0,$r0
     5e8:	06010402 	cacop	0x2,$r0,65(0x41)
     5ec:	00100501 	add.w	$r1,$r8,$r1
     5f0:	15300205 	lu12i.w	$r5,-425968(0x98010)
     5f4:	05181c00 	0x05181c00
     5f8:	02050002 	slti	$r2,$r0,320(0x140)
     5fc:	1c001538 	pcaddu12i	$r24,169(0xa9)
     600:	00020518 	0x00020518
     604:	15380205 	lu12i.w	$r5,-409584(0x9c010)
     608:	13061c00 	addu16i.d	$r0,$r0,-15993(0xc187)
     60c:	05000905 	0x05000905
     610:	00153c02 	or	$r2,$r0,$r15
     614:	0605011c 	cacop	0x1c,$r8,320(0x140)
     618:	40020500 	beqz	$r8,516(0x204) # 81c <data_size+0x68>
     61c:	001c0015 	mul.w	$r21,$r0,$r0
     620:	06000402 	cacop	0x2,$r0,1(0x1)
     624:	0001051d 	0x0001051d
     628:	15400205 	lu12i.w	$r5,-393200(0xa0010)
     62c:	18061c00 	pcaddi	$r0,12512(0x30e0)
     630:	05000105 	0x05000105
     634:	00155c02 	or	$r2,$r0,$r23
     638:	051b061c 	0x051b061c
     63c:	02050001 	slti	$r1,$r0,320(0x140)
     640:	1c00155c 	pcaddu12i	$r28,170(0xaa)
     644:	00010518 	0x00010518
     648:	155c0205 	lu12i.w	$r5,-335856(0xae010)
     64c:	16061c00 	lu32i.d	$r0,12512(0x30e0)
     650:	05000105 	0x05000105
     654:	00156402 	or	$r2,$r0,$r25
     658:	0105181c 	fmul.d	$f28,$f0,$f6
     65c:	68020500 	bltu	$r8,$r0,516(0x204) # 860 <data_size+0xac>
     660:	061c0015 	cacop	0x15,$r0,1792(0x700)
     664:	00010518 	0x00010518
     668:	15700205 	lu12i.w	$r5,-294896(0xb8010)
     66c:	05181c00 	0x05181c00
     670:	02050001 	slti	$r1,$r0,320(0x140)
     674:	1c001578 	pcaddu12i	$r24,171(0xab)
     678:	00010518 	0x00010518
     67c:	15780205 	lu12i.w	$r5,-278512(0xbc010)
     680:	18061c00 	pcaddi	$r0,12512(0x30e0)
     684:	05000105 	0x05000105
     688:	00158802 	xor	$r2,$r0,$r2
     68c:	0101001c 	fadd.d	$f28,$f0,$f0
     690:	000001bf 	0x000001bf
     694:	00230004 	div.du	$r4,$r0,$r0
     698:	01010000 	fadd.d	$f0,$f0,$f0
     69c:	0df2f601 	0x0df2f601
     6a0:	01010100 	fadd.d	$f0,$f8,$f0
     6a4:	00000001 	0x00000001
     6a8:	01000001 	0x01000001
     6ac:	69727000 	bltu	$r0,$r0,94832(0x17270) # 1791c <data_size+0x17168>
     6b0:	6162746e 	blt	$r3,$r14,90740(0x16274) # 16924 <data_size+0x16170>
     6b4:	632e6573 	blt	$r11,$r19,-53660(0x32e64) # ffff3518 <_stack+0xe3fe13b0>
     6b8:	00000000 	0x00000000
     6bc:	02050000 	slti	$r0,$r0,320(0x140)
     6c0:	1c001588 	pcaddu12i	$r8,172(0xac)
     6c4:	00010518 	0x00010518
     6c8:	15880205 	lu12i.w	$r5,-245744(0xc4010)
     6cc:	05181c00 	0x05181c00
     6d0:	02050002 	slti	$r2,$r0,320(0x140)
     6d4:	1c001588 	pcaddu12i	$r8,172(0xac)
     6d8:	00020518 	0x00020518
     6dc:	15880205 	lu12i.w	$r5,-245744(0xc4010)
     6e0:	05181c00 	0x05181c00
     6e4:	02050002 	slti	$r2,$r0,320(0x140)
     6e8:	1c001588 	pcaddu12i	$r8,172(0xac)
     6ec:	00020518 	0x00020518
     6f0:	15880205 	lu12i.w	$r5,-245744(0xc4010)
     6f4:	05181c00 	0x05181c00
     6f8:	02050002 	slti	$r2,$r0,320(0x140)
     6fc:	1c001588 	pcaddu12i	$r8,172(0xac)
     700:	01051206 	fmul.d	$f6,$f16,$f4
     704:	9c020500 	0x9c020500
     708:	011c0015 	0x011c0015
     70c:	05000105 	0x05000105
     710:	0015a002 	xor	$r2,$r0,$r8
     714:	04051c1c 	csrrd	$r28,0x147
     718:	a4020500 	0xa4020500
     71c:	001c0015 	mul.w	$r21,$r0,$r0
     720:	01010402 	fadd.d	$f2,$f0,$f1
     724:	05000a05 	0x05000a05
     728:	0015a802 	xor	$r2,$r0,$r10
     72c:	0402001c 	csrrd	$r28,0x80
     730:	051c0600 	0x051c0600
     734:	02050007 	slti	$r7,$r0,320(0x140)
     738:	1c0015a8 	pcaddu12i	$r8,173(0xad)
     73c:	02051906 	slti	$r6,$r8,326(0x146)
     740:	bc020500 	0xbc020500
     744:	1a1c0015 	pcalau12i	$r21,57344(0xe000)
     748:	05000705 	0x05000705
     74c:	0015c002 	xor	$r2,$r0,$r16
     750:	0402001c 	csrrd	$r28,0x80
     754:	05160603 	0x05160603
     758:	02050002 	slti	$r2,$r0,320(0x140)
     75c:	1c0015c0 	pcaddu12i	$r0,174(0xae)
     760:	0e050106 	0x0e050106
     764:	cc020500 	0xcc020500
     768:	011c0015 	0x011c0015
     76c:	05000805 	0x05000805
     770:	0015d002 	xor	$r2,$r0,$r20
     774:	0518061c 	0x0518061c
     778:	02050002 	slti	$r2,$r0,320(0x140)
     77c:	1c0015d4 	pcaddu12i	$r20,174(0xae)
     780:	07050106 	0x07050106
     784:	e4020500 	0xe4020500
     788:	141c0015 	lu12i.w	$r21,57344(0xe000)
     78c:	05000205 	0x05000205
     790:	0015e802 	xor	$r2,$r0,$r26
     794:	0402001c 	csrrd	$r28,0x80
     798:	051f0600 	0x051f0600
     79c:	02050002 	slti	$r2,$r0,320(0x140)
     7a0:	1c0015e8 	pcaddu12i	$r8,175(0xaf)
     7a4:	07050106 	0x07050106
     7a8:	f0020500 	0xf0020500
     7ac:	1a1c0015 	pcalau12i	$r21,57344(0xe000)
     7b0:	05000305 	0x05000305
     7b4:	0015f402 	xor	$r2,$r0,$r29
     7b8:	0516061c 	0x0516061c
     7bc:	02050003 	slti	$r3,$r0,320(0x140)
     7c0:	1c0015f4 	pcaddu12i	$r20,175(0xaf)
     7c4:	0e050106 	0x0e050106
     7c8:	00020500 	0x00020500
     7cc:	011c0016 	0x011c0016
     7d0:	05000a05 	0x05000a05
     7d4:	00160802 	orn	$r2,$r0,$r2
     7d8:	0402001c 	csrrd	$r28,0x80
     7dc:	05180601 	0x05180601
     7e0:	02050003 	slti	$r3,$r0,320(0x140)
     7e4:	1c00161c 	pcaddu12i	$r28,176(0xb0)
     7e8:	04040200 	csrxchg	$r0,$r16,0x100
     7ec:	02051406 	slti	$r6,$r0,325(0x145)
     7f0:	20020500 	ll.w	$r0,$r8,516(0x204)
     7f4:	001c0016 	mul.w	$r22,$r0,$r0
     7f8:	1d000402 	pcaddu12i	$r2,-524256(0x80020)
     7fc:	05000105 	0x05000105
     800:	00163c02 	orn	$r2,$r0,$r15
     804:	0705111c 	0x0705111c
     808:	44020500 	bnez	$r8,516(0x204) # a0c <data_size+0x258>
     80c:	031c0016 	lu52i.d	$r22,$r0,1792(0x700)
     810:	02050174 	slti	$r20,$r11,320(0x140)
     814:	50020500 	b	67109380(0x4000204) # 4000a18 <data_size+0x4000264>
     818:	061c0016 	cacop	0x16,$r0,1792(0x700)
     81c:	00020516 	0x00020516
     820:	16500205 	lu32i.d	$r5,163856(0x28010)
     824:	18061c00 	pcaddi	$r0,12512(0x30e0)
     828:	05000205 	0x05000205
     82c:	00165402 	orn	$r2,$r0,$r21
     830:	0a05161c 	0x0a05161c
     834:	58020500 	beq	$r8,$r0,516(0x204) # a38 <data_size+0x284>
     838:	061c0016 	cacop	0x16,$r0,1792(0x700)
     83c:	00020518 	0x00020518
     840:	16640205 	lu32i.d	$r5,204816(0x32010)
     844:	05231c00 	0x05231c00
     848:	02050002 	slti	$r2,$r0,320(0x140)
     84c:	1c001670 	pcaddu12i	$r16,179(0xb3)
     850:	f3010100 	0xf3010100
     854:	04000000 	csrrd	$r0,0x0
     858:	00002000 	clo.d	$r0,$r0
     85c:	01010100 	fadd.d	$f0,$f8,$f0
     860:	000df2f6 	bytepick.d	$r22,$r23,$r28,0x3
     864:	01010101 	fadd.d	$f1,$f8,$f0
     868:	01000000 	0x01000000
     86c:	00010000 	asrtle.d	$r0,$r0
     870:	63727473 	blt	$r3,$r19,-36236(0x37274) # ffff7ae4 <_stack+0xe3fe597c>
     874:	632e706d 	blt	$r3,$r13,-53648(0x32e70) # ffff36e4 <_stack+0xe3fe157c>
     878:	00000000 	0x00000000
     87c:	02050000 	slti	$r0,$r0,320(0x140)
     880:	1c001670 	pcaddu12i	$r16,179(0xb3)
     884:	0001051c 	0x0001051c
     888:	16700205 	lu32i.d	$r5,229392(0x38010)
     88c:	05181c00 	0x05181c00
     890:	02050002 	slti	$r2,$r0,320(0x140)
     894:	1c001670 	pcaddu12i	$r16,179(0xb3)
     898:	08050106 	0x08050106
     89c:	74020500 	xvsle.b	$xr0,$xr8,$xr1
     8a0:	181c0016 	pcaddi	$r22,57344(0xe000)
     8a4:	05000605 	0x05000605
     8a8:	00167802 	orn	$r2,$r0,$r30
     8ac:	0501061c 	0x0501061c
     8b0:	02050003 	slti	$r3,$r0,320(0x140)
     8b4:	1c001678 	pcaddu12i	$r24,179(0xb3)
     8b8:	13051606 	addu16i.d	$r6,$r16,-16059(0xc145)
     8bc:	7c020500 	0x7c020500
     8c0:	011c0016 	0x011c0016
     8c4:	05000905 	0x05000905
     8c8:	00168002 	andn	$r2,$r0,$r0
     8cc:	1005011c 	addu16i.d	$r28,$r8,320(0x140)
     8d0:	84020500 	0x84020500
     8d4:	181c0016 	pcaddi	$r22,57344(0xe000)
     8d8:	05000a05 	0x05000a05
     8dc:	00168802 	andn	$r2,$r0,$r2
     8e0:	0805161c 	0x0805161c
     8e4:	8c020500 	0x8c020500
     8e8:	061c0016 	cacop	0x16,$r0,1792(0x700)
     8ec:	0002051a 	0x0002051a
     8f0:	168c0205 	lu32i.d	$r5,286736(0x46010)
     8f4:	13061c00 	addu16i.d	$r0,$r0,-15993(0xc187)
     8f8:	05000105 	0x05000105
     8fc:	00169002 	andn	$r2,$r0,$r4
     900:	0a051b1c 	0x0a051b1c
     904:	98020500 	0x98020500
     908:	011c0016 	0x011c0016
     90c:	05002705 	0x05002705
     910:	0016a002 	andn	$r2,$r0,$r8
     914:	0105181c 	fmul.d	$f28,$f0,$f6
     918:	a4020500 	0xa4020500
     91c:	161c0016 	lu32i.d	$r22,57344(0xe000)
     920:	05002505 	0x05002505
     924:	0016a802 	andn	$r2,$r0,$r10
     928:	0105181c 	fmul.d	$f28,$f0,$f6
     92c:	ac020500 	0xac020500
     930:	151c0016 	lu12i.w	$r22,-466944(0x8e000)
     934:	05000b05 	0x05000b05
     938:	0016b002 	andn	$r2,$r0,$r12
     93c:	0105191c 	fmul.d	$f28,$f8,$f6
     940:	b4020500 	0xb4020500
     944:	001c0016 	mul.w	$r22,$r0,$r0
     948:	08090101 	0x08090101
     94c:	00040000 	alsl.w	$r0,$r0,$r0,0x1
     950:	00000037 	0x00000037
     954:	f6010101 	0xf6010101
     958:	01000df2 	0x01000df2
     95c:	00010101 	0x00010101
     960:	00010000 	asrtle.d	$r0,$r0
     964:	2e2e0100 	0x2e2e0100
     968:	636e692f 	blt	$r9,$r15,-37272(0x36e68) # ffff77d0 <_stack+0xe3fe5668>
     96c:	6564756c 	bge	$r11,$r12,91252(0x16474) # 16de0 <data_size+0x1662c>
     970:	74730000 	xvmin.w	$xr0,$xr0,$xr0
     974:	676e6972 	bge	$r11,$r18,-37272(0x36e68) # ffff77dc <_stack+0xe3fe5674>
     978:	0000632e 	rdtimel.w	$r14,$r25
     97c:	6f630000 	bgeu	$r0,$r0,-40192(0x36300) # ffff6c7c <_stack+0xe3fe4b14>
     980:	6e6f6d6d 	bgeu	$r11,$r13,-102548(0x26f6c) # fffe78ec <_stack+0xe3fd5784>
     984:	0100682e 	0x0100682e
     988:	00000000 	0x00000000
     98c:	16b40205 	lu32i.d	$r5,368656(0x5a010)
     990:	05221c00 	0x05221c00
     994:	02050017 	slti	$r23,$r0,320(0x140)
     998:	1c0016b4 	pcaddu12i	$r20,181(0xb5)
     99c:	00050518 	alsl.w	$r24,$r8,$r1,0x3
     9a0:	16b40205 	lu32i.d	$r5,368656(0x5a010)
     9a4:	05181c00 	0x05181c00
     9a8:	02050005 	slti	$r5,$r0,320(0x140)
     9ac:	1c0016b4 	pcaddu12i	$r20,181(0xb5)
     9b0:	0b050106 	0x0b050106
     9b4:	bc020500 	0xbc020500
     9b8:	161c0016 	lu32i.d	$r22,57344(0xe000)
     9bc:	05000c05 	0x05000c05
     9c0:	0016c002 	andn	$r2,$r0,$r16
     9c4:	0519061c 	0x0519061c
     9c8:	02050009 	slti	$r9,$r0,320(0x140)
     9cc:	1c0016c0 	pcaddu12i	$r0,182(0xb6)
     9d0:	0d050106 	0x0d050106
     9d4:	c4020500 	0xc4020500
     9d8:	161c0016 	lu32i.d	$r22,57344(0xe000)
     9dc:	05000c05 	0x05000c05
     9e0:	0016c802 	andn	$r2,$r0,$r18
     9e4:	0b05011c 	0x0b05011c
     9e8:	d0020500 	0xd0020500
     9ec:	1b1c0016 	pcalau12i	$r22,-466944(0x8e000)
     9f0:	05000105 	0x05000105
     9f4:	0016d802 	andn	$r2,$r0,$r22
     9f8:	0c05121c 	0x0c05121c
     9fc:	dc020500 	0xdc020500
     a00:	061c0016 	cacop	0x16,$r0,1792(0x700)
     a04:	0005051b 	alsl.w	$r27,$r8,$r1,0x3
     a08:	16dc0205 	lu32i.d	$r5,450576(0x6e010)
     a0c:	18061c00 	pcaddi	$r0,12512(0x30e0)
     a10:	05000105 	0x05000105
     a14:	0016e402 	andn	$r2,$r0,$r25
     a18:	0527061c 	0x0527061c
     a1c:	02050024 	slti	$r4,$r1,320(0x140)
     a20:	1c0016e4 	pcaddu12i	$r4,183(0xb7)
     a24:	00050518 	alsl.w	$r24,$r8,$r1,0x3
     a28:	16e40205 	lu32i.d	$r5,466960(0x72010)
     a2c:	05181c00 	0x05181c00
     a30:	02050005 	slti	$r5,$r0,320(0x140)
     a34:	1c0016e4 	pcaddu12i	$r4,183(0xb7)
     a38:	0b050106 	0x0b050106
     a3c:	e8020500 	0xe8020500
     a40:	011c0016 	0x011c0016
     a44:	05001605 	0x05001605
     a48:	0016f002 	andn	$r2,$r0,$r28
     a4c:	0c05161c 	0x0c05161c
     a50:	f8020500 	0xf8020500
     a54:	001c0016 	mul.w	$r22,$r0,$r0
     a58:	18010402 	pcaddi	$r2,2080(0x820)
     a5c:	05001605 	0x05001605
     a60:	00170002 	sll.w	$r2,$r0,$r0
     a64:	0402001c 	csrrd	$r28,0x80
     a68:	05180600 	0x05180600
     a6c:	02050009 	slti	$r9,$r0,320(0x140)
     a70:	1c001700 	pcaddu12i	$r0,184(0xb8)
     a74:	0d050106 	0x0d050106
     a78:	04020500 	csrxchg	$r0,$r8,0x81
     a7c:	161c0017 	lu32i.d	$r23,57344(0xe000)
     a80:	05001905 	0x05001905
     a84:	00170802 	sll.w	$r2,$r0,$r2
     a88:	0b05011c 	0x0b05011c
     a8c:	0c020500 	0x0c020500
     a90:	1b1c0017 	pcalau12i	$r23,-466944(0x8e000)
     a94:	05000105 	0x05000105
     a98:	00171402 	sll.w	$r2,$r0,$r5
     a9c:	0c05121c 	0x0c05121c
     aa0:	18020500 	pcaddi	$r0,4136(0x1028)
     aa4:	061c0017 	cacop	0x17,$r0,1792(0x700)
     aa8:	0005051b 	alsl.w	$r27,$r8,$r1,0x3
     aac:	17180205 	lu32i.d	$r5,-475120(0x8c010)
     ab0:	18061c00 	pcaddi	$r0,12512(0x30e0)
     ab4:	05000105 	0x05000105
     ab8:	00172002 	sll.w	$r2,$r0,$r8
     abc:	0526061c 	0x0526061c
     ac0:	02050024 	slti	$r4,$r1,320(0x140)
     ac4:	1c001720 	pcaddu12i	$r0,185(0xb9)
     ac8:	0005051b 	alsl.w	$r27,$r8,$r1,0x3
     acc:	17200205 	lu32i.d	$r5,-458736(0x90010)
     ad0:	05181c00 	0x05181c00
     ad4:	02050005 	slti	$r5,$r0,320(0x140)
     ad8:	1c001720 	pcaddu12i	$r0,185(0xb9)
     adc:	0b051606 	0x0b051606
     ae0:	24020500 	ldptr.w	$r0,$r8,516(0x204)
     ae4:	001c0017 	mul.w	$r23,$r0,$r0
     ae8:	06010402 	cacop	0x2,$r0,65(0x41)
     aec:	00160519 	orn	$r25,$r8,$r1
     af0:	17240205 	lu32i.d	$r5,-450544(0x92010)
     af4:	16061c00 	lu32i.d	$r0,12512(0x30e0)
     af8:	05001a05 	0x05001a05
     afc:	00172802 	sll.w	$r2,$r0,$r10
     b00:	1505011c 	lu12i.w	$r28,-514040(0x82808)
     b04:	2c020500 	vld	$vr0,$r8,129(0x81)
     b08:	011c0017 	0x011c0017
     b0c:	05001005 	0x05001005
     b10:	00173002 	sll.w	$r2,$r0,$r12
     b14:	1305011c 	addu16i.d	$r28,$r8,-16064(0xc140)
     b18:	34020500 	0x34020500
     b1c:	011c0017 	0x011c0017
     b20:	05000b05 	0x05000b05
     b24:	00173802 	sll.w	$r2,$r0,$r14
     b28:	0402001c 	csrrd	$r28,0x80
     b2c:	01051b00 	fmul.d	$f0,$f24,$f6
     b30:	3c020500 	0x3c020500
     b34:	061c0017 	cacop	0x17,$r0,1792(0x700)
     b38:	00310524 	0x00310524
     b3c:	173c0205 	lu32i.d	$r5,-401392(0x9e010)
     b40:	05181c00 	0x05181c00
     b44:	02050005 	slti	$r5,$r0,320(0x140)
     b48:	1c00173c 	pcaddu12i	$r28,185(0xb9)
     b4c:	00050518 	alsl.w	$r24,$r8,$r1,0x3
     b50:	173c0205 	lu32i.d	$r5,-401392(0x9e010)
     b54:	01061c00 	0x01061c00
     b58:	05000b05 	0x05000b05
     b5c:	00174402 	sll.w	$r2,$r0,$r17
     b60:	0b05161c 	0x0b05161c
     b64:	48020500 	bcnez	$fcc0,516(0x204) # d68 <data_size+0x5b4>
     b68:	061c0017 	cacop	0x17,$r0,1792(0x700)
     b6c:	00090519 	bytepick.w	$r25,$r8,$r1,0x2
     b70:	17480205 	lu32i.d	$r5,-376816(0xa4010)
     b74:	01061c00 	0x01061c00
     b78:	05001305 	0x05001305
     b7c:	00174c02 	sll.w	$r2,$r0,$r19
     b80:	0b051a1c 	0x0b051a1c
     b84:	50020500 	b	67109380(0x4000204) # 4000d88 <data_size+0x40005d4>
     b88:	141c0017 	lu12i.w	$r23,57344(0xe000)
     b8c:	05001105 	0x05001105
     b90:	00175402 	sll.w	$r2,$r0,$r21
     b94:	1105181c 	addu16i.d	$r28,$r0,16710(0x4146)
     b98:	5c020500 	bne	$r8,$r0,516(0x204) # d9c <data_size+0x5e8>
     b9c:	061c0017 	cacop	0x17,$r0,1792(0x700)
     ba0:	00090519 	bytepick.w	$r25,$r8,$r1,0x2
     ba4:	175c0205 	lu32i.d	$r5,-335856(0xae010)
     ba8:	13061c00 	addu16i.d	$r0,$r0,-15993(0xc187)
     bac:	05000b05 	0x05000b05
     bb0:	00176002 	sll.w	$r2,$r0,$r24
     bb4:	051d061c 	0x051d061c
     bb8:	02050005 	slti	$r5,$r0,320(0x140)
     bbc:	1c001760 	pcaddu12i	$r0,187(0xbb)
     bc0:	01051806 	fmul.d	$f6,$f0,$f6
     bc4:	64020500 	bge	$r8,$r0,516(0x204) # dc8 <data_size+0x614>
     bc8:	061c0017 	cacop	0x17,$r0,1792(0x700)
     bcc:	00330525 	0x00330525
     bd0:	17640205 	lu32i.d	$r5,-319472(0xb2010)
     bd4:	05181c00 	0x05181c00
     bd8:	02050005 	slti	$r5,$r0,320(0x140)
     bdc:	1c001764 	pcaddu12i	$r4,187(0xbb)
     be0:	0b050106 	0x0b050106
     be4:	68020500 	bltu	$r8,$r0,516(0x204) # de8 <data_size+0x634>
     be8:	011c0017 	0x011c0017
     bec:	05001505 	0x05001505
     bf0:	00177002 	sll.w	$r2,$r0,$r28
     bf4:	1205011c 	addu16i.d	$r28,$r8,-32448(0x8140)
     bf8:	74020500 	xvsle.b	$xr0,$xr8,$xr1
     bfc:	011c0017 	0x011c0017
     c00:	05002105 	0x05002105
     c04:	00178002 	srl.w	$r2,$r0,$r0
     c08:	0402001c 	csrrd	$r28,0x80
     c0c:	15050101 	lu12i.w	$r1,-514040(0x82808)
     c10:	84020500 	0x84020500
     c14:	011c0017 	0x011c0017
     c18:	05001205 	0x05001205
     c1c:	00178802 	srl.w	$r2,$r0,$r2
     c20:	0402001c 	csrrd	$r28,0x80
     c24:	2b050102 	fld.s	$f2,$r8,320(0x140)
     c28:	90020500 	0x90020500
     c2c:	011c0017 	0x011c0017
     c30:	05002105 	0x05002105
     c34:	00179402 	srl.w	$r2,$r0,$r5
     c38:	0402001c 	csrrd	$r28,0x80
     c3c:	05180600 	0x05180600
     c40:	02050009 	slti	$r9,$r0,320(0x140)
     c44:	1c001794 	pcaddu12i	$r20,188(0xbc)
     c48:	19050106 	pcaddi	$r6,-514040(0x82808)
     c4c:	98020500 	0x98020500
     c50:	011c0017 	0x011c0017
     c54:	05001205 	0x05001205
     c58:	00179c02 	srl.w	$r2,$r0,$r7
     c5c:	0b05161c 	0x0b05161c
     c60:	a0020500 	0xa0020500
     c64:	1a1c0017 	pcalau12i	$r23,57344(0xe000)
     c68:	05001905 	0x05001905
     c6c:	0017a402 	srl.w	$r2,$r0,$r9
     c70:	0105181c 	fmul.d	$f28,$f0,$f6
     c74:	ac020500 	0xac020500
     c78:	061c0017 	cacop	0x17,$r0,1792(0x700)
     c7c:	00050516 	alsl.w	$r22,$r8,$r1,0x3
     c80:	17ac0205 	lu32i.d	$r5,-172016(0xd6010)
     c84:	13061c00 	addu16i.d	$r0,$r0,-15993(0xc187)
     c88:	05003305 	0x05003305
     c8c:	0017b002 	srl.w	$r2,$r0,$r12
     c90:	21051b1c 	sc.w	$r28,$r24,1304(0x518)
     c94:	b8020500 	0xb8020500
     c98:	011c0017 	0x011c0017
     c9c:	05003605 	0x05003605
     ca0:	0017c002 	srl.w	$r2,$r0,$r16
     ca4:	0105181c 	fmul.d	$f28,$f0,$f6
     ca8:	c4020500 	0xc4020500
     cac:	161c0017 	lu32i.d	$r23,57344(0xe000)
     cb0:	05001905 	0x05001905
     cb4:	0017c802 	srl.w	$r2,$r0,$r18
     cb8:	0105181c 	fmul.d	$f28,$f0,$f6
     cbc:	cc020500 	0xcc020500
     cc0:	061c0017 	cacop	0x17,$r0,1792(0x700)
     cc4:	001f0522 	mulw.d.w	$r2,$r9,$r1
     cc8:	17cc0205 	lu32i.d	$r5,-106480(0xe6010)
     ccc:	05181c00 	0x05181c00
     cd0:	02050005 	slti	$r5,$r0,320(0x140)
     cd4:	1c0017cc 	pcaddu12i	$r12,190(0xbe)
     cd8:	0c050106 	0x0c050106
     cdc:	d0020500 	0xd0020500
     ce0:	011c0017 	0x011c0017
     ce4:	05000b05 	0x05000b05
     ce8:	0017d402 	srl.w	$r2,$r0,$r21
     cec:	0518061c 	0x0518061c
     cf0:	02050009 	slti	$r9,$r0,320(0x140)
     cf4:	1c0017d4 	pcaddu12i	$r20,190(0xbe)
     cf8:	0c050106 	0x0c050106
     cfc:	e0020500 	0xe0020500
     d00:	061c0017 	cacop	0x17,$r0,1792(0x700)
     d04:	00090501 	bytepick.w	$r1,$r8,$r1,0x2
     d08:	17e00205 	lu32i.d	$r5,-65520(0xf0010)
     d0c:	051a1c00 	0x051a1c00
     d10:	02050009 	slti	$r9,$r0,320(0x140)
     d14:	1c0017e0 	pcaddu12i	$r0,191(0xbf)
     d18:	0b050106 	0x0b050106
     d1c:	e4020500 	0xe4020500
     d20:	131c0017 	addu16i.d	$r23,$r0,-14592(0xc700)
     d24:	05000c05 	0x05000c05
     d28:	0017e802 	srl.w	$r2,$r0,$r26
     d2c:	0b05011c 	0x0b05011c
     d30:	ec020500 	0xec020500
     d34:	1d1c0017 	pcaddu12i	$r23,-466944(0x8e000)
     d38:	05000c05 	0x05000c05
     d3c:	0017f002 	srl.w	$r2,$r0,$r28
     d40:	0105181c 	fmul.d	$f28,$f0,$f6
     d44:	f8020500 	0xf8020500
     d48:	061c0017 	cacop	0x17,$r0,1792(0x700)
     d4c:	00200523 	div.w	$r3,$r9,$r1
     d50:	17f80205 	lu32i.d	$r5,-16368(0xfc010)
     d54:	05181c00 	0x05181c00
     d58:	02050005 	slti	$r5,$r0,320(0x140)
     d5c:	1c0017f8 	pcaddu12i	$r24,191(0xbf)
     d60:	0c050106 	0x0c050106
     d64:	fc020500 	0xfc020500
     d68:	011c0017 	0x011c0017
     d6c:	05000b05 	0x05000b05
     d70:	00180002 	sra.w	$r2,$r0,$r0
     d74:	0518061c 	0x0518061c
     d78:	02050009 	slti	$r9,$r0,320(0x140)
     d7c:	1c001800 	pcaddu12i	$r0,192(0xc0)
     d80:	0c050106 	0x0c050106
     d84:	0c020500 	0x0c020500
     d88:	061c0018 	cacop	0x18,$r0,1792(0x700)
     d8c:	00090501 	bytepick.w	$r1,$r8,$r1,0x2
     d90:	180c0205 	pcaddi	$r5,24592(0x6010)
     d94:	051a1c00 	0x051a1c00
     d98:	02050009 	slti	$r9,$r0,320(0x140)
     d9c:	1c00180c 	pcaddu12i	$r12,192(0xc0)
     da0:	0b050106 	0x0b050106
     da4:	10020500 	addu16i.d	$r0,$r8,129(0x81)
     da8:	131c0018 	addu16i.d	$r24,$r0,-14592(0xc700)
     dac:	05000c05 	0x05000c05
     db0:	00181402 	sra.w	$r2,$r0,$r5
     db4:	0b05011c 	0x0b05011c
     db8:	18020500 	pcaddi	$r0,4136(0x1028)
     dbc:	061c0018 	cacop	0x18,$r0,1792(0x700)
     dc0:	0005051d 	alsl.w	$r29,$r8,$r1,0x3
     dc4:	18180205 	pcaddi	$r5,49168(0xc010)
     dc8:	18061c00 	pcaddi	$r0,12512(0x30e0)
     dcc:	05000105 	0x05000105
     dd0:	00182002 	sra.w	$r2,$r0,$r8
     dd4:	057d061c 	0x057d061c
     dd8:	02050023 	slti	$r3,$r1,320(0x140)
     ddc:	1c001820 	pcaddu12i	$r0,193(0xc1)
     de0:	0005051b 	alsl.w	$r27,$r8,$r1,0x3
     de4:	18200205 	pcaddi	$r5,65552(0x10010)
     de8:	05181c00 	0x05181c00
     dec:	02050005 	slti	$r5,$r0,320(0x140)
     df0:	1c001820 	pcaddu12i	$r0,193(0xc1)
     df4:	0b050106 	0x0b050106
     df8:	28020500 	ld.b	$r0,$r8,129(0x81)
     dfc:	161c0018 	lu32i.d	$r24,57344(0xe000)
     e00:	05000b05 	0x05000b05
     e04:	00182c02 	sra.w	$r2,$r0,$r11
     e08:	0519061c 	0x0519061c
     e0c:	02050009 	slti	$r9,$r0,320(0x140)
     e10:	1c00182c 	pcaddu12i	$r12,193(0xc1)
     e14:	0c050106 	0x0c050106
     e18:	30020500 	0x30020500
     e1c:	011c0018 	0x011c0018
     e20:	05000f05 	0x05000f05
     e24:	00183402 	sra.w	$r2,$r0,$r13
     e28:	0b05161c 	0x0b05161c
     e2c:	38020500 	0x38020500
     e30:	061c0018 	cacop	0x18,$r0,1792(0x700)
     e34:	0005051a 	alsl.w	$r26,$r8,$r1,0x3
     e38:	18380205 	pcaddi	$r5,114704(0x1c010)
     e3c:	19061c00 	pcaddi	$r0,-511776(0x830e0)
     e40:	05000105 	0x05000105
     e44:	00183c02 	sra.w	$r2,$r0,$r15
     e48:	0528061c 	0x0528061c
     e4c:	0205002e 	slti	$r14,$r1,320(0x140)
     e50:	1c00183c 	pcaddu12i	$r28,193(0xc1)
     e54:	0005051b 	alsl.w	$r27,$r8,$r1,0x3
     e58:	183c0205 	pcaddi	$r5,122896(0x1e010)
     e5c:	05181c00 	0x05181c00
     e60:	02050005 	slti	$r5,$r0,320(0x140)
     e64:	1c00183c 	pcaddu12i	$r28,193(0xc1)
     e68:	00050518 	alsl.w	$r24,$r8,$r1,0x3
     e6c:	183c0205 	pcaddi	$r5,122896(0x1e010)
     e70:	01061c00 	0x01061c00
     e74:	05000b05 	0x05000b05
     e78:	00184402 	sra.w	$r2,$r0,$r17
     e7c:	0b05161c 	0x0b05161c
     e80:	48020500 	bcnez	$fcc0,516(0x204) # 1084 <data_size+0x8d0>
     e84:	061c0018 	cacop	0x18,$r0,1792(0x700)
     e88:	00090519 	bytepick.w	$r25,$r8,$r1,0x2
     e8c:	18480205 	pcaddi	$r5,147472(0x24010)
     e90:	01061c00 	0x01061c00
     e94:	05001405 	0x05001405
     e98:	00184c02 	sra.w	$r2,$r0,$r19
     e9c:	1105011c 	addu16i.d	$r28,$r8,16704(0x4140)
     ea0:	50020500 	b	67109380(0x4000204) # 40010a4 <data_size+0x40008f0>
     ea4:	011c0018 	0x011c0018
     ea8:	05000c05 	0x05000c05
     eac:	00185402 	sra.w	$r2,$r0,$r21
     eb0:	0f05011c 	0x0f05011c
     eb4:	58020500 	beq	$r8,$r0,516(0x204) # 10b8 <data_size+0x904>
     eb8:	161c0018 	lu32i.d	$r24,57344(0xe000)
     ebc:	05000b05 	0x05000b05
     ec0:	00185c02 	sra.w	$r2,$r0,$r23
     ec4:	051a061c 	0x051a061c
     ec8:	02050005 	slti	$r5,$r0,320(0x140)
     ecc:	1c00185c 	pcaddu12i	$r28,194(0xc2)
     ed0:	01051906 	fmul.d	$f6,$f8,$f6
     ed4:	60020500 	blt	$r8,$r0,516(0x204) # 10d8 <data_size+0x924>
     ed8:	061c0018 	cacop	0x18,$r0,1792(0x700)
     edc:	002f0523 	0x002f0523
     ee0:	18600205 	pcaddi	$r5,196624(0x30010)
     ee4:	051b1c00 	0x051b1c00
     ee8:	02050005 	slti	$r5,$r0,320(0x140)
     eec:	1c001860 	pcaddu12i	$r0,195(0xc3)
     ef0:	00050518 	alsl.w	$r24,$r8,$r1,0x3
     ef4:	18600205 	pcaddi	$r5,196624(0x30010)
     ef8:	05181c00 	0x05181c00
     efc:	02050005 	slti	$r5,$r0,320(0x140)
     f00:	1c001860 	pcaddu12i	$r0,195(0xc3)
     f04:	08050106 	0x08050106
     f08:	64020500 	bge	$r8,$r0,516(0x204) # 110c <data_size+0x958>
     f0c:	001c0018 	mul.w	$r24,$r0,$r0
     f10:	01010402 	fadd.d	$f2,$f0,$f1
     f14:	05001405 	0x05001405
     f18:	00186802 	sra.w	$r2,$r0,$r26
     f1c:	0f05011c 	0x0f05011c
     f20:	6c020500 	bgeu	$r8,$r0,516(0x204) # 1124 <data_size+0x970>
     f24:	001c0018 	mul.w	$r24,$r0,$r0
     f28:	06000402 	cacop	0x2,$r0,1(0x1)
     f2c:	00090518 	bytepick.w	$r24,$r8,$r1,0x2
     f30:	186c0205 	pcaddi	$r5,221200(0x36010)
     f34:	01061c00 	0x01061c00
     f38:	05001305 	0x05001305
     f3c:	00187002 	sra.w	$r2,$r0,$r28
     f40:	0518061c 	0x0518061c
     f44:	02050009 	slti	$r9,$r0,320(0x140)
     f48:	1c001870 	pcaddu12i	$r16,195(0xc3)
     f4c:	0f050106 	0x0f050106
     f50:	74020500 	xvsle.b	$xr0,$xr8,$xr1
     f54:	061c0018 	cacop	0x18,$r0,1792(0x700)
     f58:	000d0518 	bytepick.d	$r24,$r8,$r1,0x2
     f5c:	18740205 	pcaddi	$r5,237584(0x3a010)
     f60:	01061c00 	0x01061c00
     f64:	05001305 	0x05001305
     f68:	00187802 	sra.w	$r2,$r0,$r30
     f6c:	1505011c 	lu12i.w	$r28,-514040(0x82808)
     f70:	7c020500 	0x7c020500
     f74:	011c0018 	0x011c0018
     f78:	05001305 	0x05001305
     f7c:	00188402 	sll.d	$r2,$r0,$r1
     f80:	0f05161c 	0x0f05161c
     f84:	90020500 	0x90020500
     f88:	1b1c0018 	pcalau12i	$r24,-466944(0x8e000)
     f8c:	05000f05 	0x05000f05
     f90:	00189802 	sll.d	$r2,$r0,$r6
     f94:	0518061c 	0x0518061c
     f98:	0205000d 	slti	$r13,$r0,320(0x140)
     f9c:	1c001898 	pcaddu12i	$r24,196(0xc4)
     fa0:	18050106 	pcaddi	$r6,10248(0x2808)
     fa4:	9c020500 	0x9c020500
     fa8:	011c0018 	0x011c0018
     fac:	05001505 	0x05001505
     fb0:	0018a002 	sll.d	$r2,$r0,$r8
     fb4:	1005011c 	addu16i.d	$r28,$r8,320(0x140)
     fb8:	a4020500 	0xa4020500
     fbc:	011c0018 	0x011c0018
     fc0:	05001305 	0x05001305
     fc4:	0018a802 	sll.d	$r2,$r0,$r10
     fc8:	0f05161c 	0x0f05161c
     fcc:	ac020500 	0xac020500
     fd0:	1d1c0018 	pcaddu12i	$r24,-466944(0x8e000)
     fd4:	05000105 	0x05000105
     fd8:	0018b402 	sll.d	$r2,$r0,$r13
     fdc:	0528061c 	0x0528061c
     fe0:	02050032 	slti	$r18,$r1,320(0x140)
     fe4:	1c0018b4 	pcaddu12i	$r20,197(0xc5)
     fe8:	00050518 	alsl.w	$r24,$r8,$r1,0x3
     fec:	18b40205 	pcaddi	$r5,368656(0x5a010)
     ff0:	05181c00 	0x05181c00
     ff4:	02050005 	slti	$r5,$r0,320(0x140)
     ff8:	1c0018b4 	pcaddu12i	$r20,197(0xc5)
     ffc:	00050518 	alsl.w	$r24,$r8,$r1,0x3
    1000:	18b40205 	pcaddi	$r5,368656(0x5a010)
    1004:	01061c00 	0x01061c00
    1008:	05000b05 	0x05000b05
    100c:	0018b802 	sll.d	$r2,$r0,$r14
    1010:	0518061c 	0x0518061c
    1014:	02050009 	slti	$r9,$r0,320(0x140)
    1018:	1c0018b8 	pcaddu12i	$r24,197(0xc5)
    101c:	0d050106 	0x0d050106
    1020:	bc020500 	0xbc020500
    1024:	011c0018 	0x011c0018
    1028:	05001405 	0x05001405
    102c:	0018c402 	sll.d	$r2,$r0,$r17
    1030:	0c05011c 	0x0c05011c
    1034:	cc020500 	0xcc020500
    1038:	011c0018 	0x011c0018
    103c:	05000d05 	0x05000d05
    1040:	0018d002 	sll.d	$r2,$r0,$r20
    1044:	1405011c 	lu12i.w	$r28,10248(0x2808)
    1048:	d4020500 	0xd4020500
    104c:	011c0018 	0x011c0018
    1050:	05000c05 	0x05000c05
    1054:	0018d802 	sll.d	$r2,$r0,$r22
    1058:	0501061c 	0x0501061c
    105c:	02050009 	slti	$r9,$r0,320(0x140)
    1060:	1c0018d8 	pcaddu12i	$r24,198(0xc6)
    1064:	0009051a 	bytepick.w	$r26,$r8,$r1,0x2
    1068:	18d80205 	pcaddi	$r5,442384(0x6c010)
    106c:	01061c00 	0x01061c00
    1070:	05000c05 	0x05000c05
    1074:	0018dc02 	sll.d	$r2,$r0,$r23
    1078:	1305011c 	addu16i.d	$r28,$r8,-16064(0xc140)
    107c:	e0020500 	0xe0020500
    1080:	131c0018 	addu16i.d	$r24,$r0,-14592(0xc700)
    1084:	05000b05 	0x05000b05
    1088:	0018e402 	sll.d	$r2,$r0,$r25
    108c:	0c051d1c 	0x0c051d1c
    1090:	e8020500 	0xe8020500
    1094:	181c0018 	pcaddi	$r24,57344(0xe000)
    1098:	05000105 	0x05000105
    109c:	0018ec02 	sll.d	$r2,$r0,$r27
    10a0:	0512061c 	0x0512061c
    10a4:	0205000d 	slti	$r13,$r0,320(0x140)
    10a8:	1c0018ec 	pcaddu12i	$r12,199(0xc7)
    10ac:	32051206 	0x32051206
    10b0:	f0020500 	0xf0020500
    10b4:	1c1c0018 	pcaddu12i	$r24,57344(0xe000)
    10b8:	05001a05 	0x05001a05
    10bc:	0018f802 	sll.d	$r2,$r0,$r30
    10c0:	2f05011c 	0x2f05011c
    10c4:	00020500 	0x00020500
    10c8:	1c1c0019 	pcaddu12i	$r25,57344(0xe000)
    10cc:	05000105 	0x05000105
    10d0:	00190402 	srl.d	$r2,$r0,$r1
    10d4:	1405121c 	lu12i.w	$r28,10384(0x2890)
    10d8:	08020500 	0x08020500
    10dc:	1c1c0019 	pcaddu12i	$r25,57344(0xe000)
    10e0:	05000105 	0x05000105
    10e4:	00190c02 	srl.d	$r2,$r0,$r3
    10e8:	0519061c 	0x0519061c
    10ec:	0205001e 	slti	$r30,$r0,320(0x140)
    10f0:	1c00190c 	pcaddu12i	$r12,200(0xc8)
    10f4:	00020518 	0x00020518
    10f8:	190c0205 	pcaddi	$r5,-499696(0x86010)
    10fc:	a2031c00 	0xa2031c00
    1100:	0505017f 	0x0505017f
    1104:	0c020500 	0x0c020500
    1108:	181c0019 	pcaddi	$r25,57344(0xe000)
    110c:	05000505 	0x05000505
    1110:	00190c02 	srl.d	$r2,$r0,$r3
    1114:	0501061c 	0x0501061c
    1118:	0205000b 	slti	$r11,$r0,320(0x140)
    111c:	1c001914 	pcaddu12i	$r20,200(0xc8)
    1120:	09051806 	0x09051806
    1124:	14020500 	lu12i.w	$r0,4136(0x1028)
    1128:	061c0019 	cacop	0x19,$r0,1792(0x700)
    112c:	000c0501 	bytepick.d	$r1,$r8,$r1,0x0
    1130:	19180205 	pcaddi	$r5,-475120(0x8c010)
    1134:	05011c00 	0x05011c00
    1138:	0205000f 	slti	$r15,$r0,320(0x140)
    113c:	1c00191c 	pcaddu12i	$r28,200(0xc8)
    1140:	000b0516 	0x000b0516
    1144:	19200205 	pcaddi	$r5,-458736(0x90010)
    1148:	05751c00 	0x05751c00
    114c:	02050001 	slti	$r1,$r0,320(0x140)
    1150:	1c001924 	pcaddu12i	$r4,201(0xc9)
    1154:	e6010100 	0xe6010100
    1158:	04000002 	csrrd	$r2,0x0
    115c:	00003300 	revb.2h	$r0,$r24
    1160:	01010100 	fadd.d	$f0,$f8,$f0
    1164:	000df2f6 	bytepick.d	$r22,$r23,$r28,0x3
    1168:	01010101 	fadd.d	$f1,$f8,$f0
    116c:	01000000 	0x01000000
    1170:	2e010000 	0x2e010000
    1174:	6e692f2e 	bgeu	$r25,$r14,-104148(0x2692c) # fffe7aa0 <_stack+0xe3fd5938>
    1178:	64756c63 	bge	$r3,$r3,30060(0x756c) # 86e4 <data_size+0x7f30>
    117c:	74000065 	xvseq.b	$xr5,$xr3,$xr0
    1180:	2e656d69 	0x2e656d69
    1184:	00000063 	0x00000063
    1188:	6d697400 	bgeu	$r0,$r0,92532(0x16974) # 17afc <data_size+0x17348>
    118c:	00682e65 	bstrins.w	$r5,$r19,0x8,0xb
    1190:	00000001 	0x00000001
    1194:	24020500 	ldptr.w	$r0,$r8,516(0x204)
    1198:	281c0019 	ld.b	$r25,$r0,1792(0x700)
    119c:	05000105 	0x05000105
    11a0:	00192402 	srl.d	$r2,$r0,$r9
    11a4:	0505181c 	0x0505181c
    11a8:	24020500 	ldptr.w	$r0,$r8,516(0x204)
    11ac:	031c0019 	lu52i.d	$r25,$r0,1792(0x700)
    11b0:	05050173 	0x05050173
    11b4:	24020500 	ldptr.w	$r0,$r8,516(0x204)
    11b8:	181c0019 	pcaddi	$r25,57344(0xe000)
    11bc:	05000505 	0x05000505
    11c0:	00192402 	srl.d	$r2,$r0,$r9
    11c4:	0522061c 	0x0522061c
    11c8:	02050001 	slti	$r1,$r0,320(0x140)
    11cc:	1c00192c 	pcaddu12i	$r12,201(0xc9)
    11d0:	05017503 	0x05017503
    11d4:	02050005 	slti	$r5,$r0,320(0x140)
    11d8:	1c001934 	pcaddu12i	$r20,201(0xc9)
    11dc:	05051e06 	0x05051e06
    11e0:	34020500 	0x34020500
    11e4:	061c0019 	cacop	0x19,$r0,1792(0x700)
    11e8:	0001051d 	0x0001051d
    11ec:	19440205 	pcaddi	$r5,-385008(0xa2010)
    11f0:	1a061c00 	pcalau12i	$r0,12512(0x30e0)
    11f4:	05000105 	0x05000105
    11f8:	00194402 	srl.d	$r2,$r0,$r17
    11fc:	0505181c 	0x0505181c
    1200:	44020500 	bnez	$r8,516(0x204) # 1404 <data_size+0xc50>
    1204:	181c0019 	pcaddi	$r25,57344(0xe000)
    1208:	05000505 	0x05000505
    120c:	00194802 	srl.d	$r2,$r0,$r18
    1210:	05051b1c 	0x05051b1c
    1214:	48020500 	bcnez	$fcc0,516(0x204) # 1418 <data_size+0xc64>
    1218:	061c0019 	cacop	0x19,$r0,1792(0x700)
    121c:	00010518 	0x00010518
    1220:	194c0205 	pcaddi	$r5,-368624(0xa6010)
    1224:	1a061c00 	pcalau12i	$r0,12512(0x30e0)
    1228:	05000105 	0x05000105
    122c:	00194c02 	srl.d	$r2,$r0,$r19
    1230:	0505181c 	0x0505181c
    1234:	4c020500 	jirl	$r0,$r8,516(0x204)
    1238:	181c0019 	pcaddi	$r25,57344(0xe000)
    123c:	05000505 	0x05000505
    1240:	00194c02 	srl.d	$r2,$r0,$r19
    1244:	0163031c 	0x0163031c
    1248:	05000505 	0x05000505
    124c:	00194c02 	srl.d	$r2,$r0,$r19
    1250:	0505181c 	0x0505181c
    1254:	4c020500 	jirl	$r0,$r8,516(0x204)
    1258:	061c0019 	cacop	0x19,$r0,1792(0x700)
    125c:	00010531 	0x00010531
    1260:	19540205 	pcaddi	$r5,-352240(0xaa010)
    1264:	66031c00 	bge	$r0,$r0,-130276(0x2031c) # fffe1580 <_stack+0xe3fcf418>
    1268:	00050501 	alsl.w	$r1,$r8,$r1,0x3
    126c:	195c0205 	pcaddi	$r5,-335856(0xae010)
    1270:	1e061c00 	pcaddu18i	$r0,12512(0x30e0)
    1274:	05000505 	0x05000505
    1278:	00195c02 	srl.d	$r2,$r0,$r23
    127c:	05052d1c 	0x05052d1c
    1280:	5c020500 	bne	$r8,$r0,516(0x204) # 1484 <data_size+0xcd0>
    1284:	061c0019 	cacop	0x19,$r0,1792(0x700)
    1288:	00150501 	or	$r1,$r8,$r1
    128c:	19640205 	pcaddi	$r5,-319472(0xb2010)
    1290:	05181c00 	0x05181c00
    1294:	02050016 	slti	$r22,$r0,320(0x140)
    1298:	1c001968 	pcaddu12i	$r8,203(0xcb)
    129c:	00360516 	0x00360516
    12a0:	196c0205 	pcaddi	$r5,-303088(0xb6010)
    12a4:	05181c00 	0x05181c00
    12a8:	02050016 	slti	$r22,$r0,320(0x140)
    12ac:	1c001978 	pcaddu12i	$r24,203(0xcb)
    12b0:	00280501 	0x00280501
    12b4:	19840205 	pcaddi	$r5,-253936(0xc2010)
    12b8:	05181c00 	0x05181c00
    12bc:	02050027 	slti	$r7,$r1,320(0x140)
    12c0:	1c001998 	pcaddu12i	$r24,204(0xcc)
    12c4:	00360501 	0x00360501
    12c8:	19a40205 	pcaddi	$r5,-188400(0xd2010)
    12cc:	05161c00 	0x05161c00
    12d0:	02050012 	slti	$r18,$r0,320(0x140)
    12d4:	1c0019a8 	pcaddu12i	$r8,205(0xcd)
    12d8:	00120518 	slt	$r24,$r8,$r1
    12dc:	19ac0205 	pcaddi	$r5,-172016(0xd6010)
    12e0:	05181c00 	0x05181c00
    12e4:	02050012 	slti	$r18,$r0,320(0x140)
    12e8:	1c0019b0 	pcaddu12i	$r16,205(0xcd)
    12ec:	0001051a 	0x0001051a
    12f0:	19b80205 	pcaddi	$r5,-147440(0xdc010)
    12f4:	05111c00 	0x05111c00
    12f8:	02050036 	slti	$r22,$r1,320(0x140)
    12fc:	1c0019c4 	pcaddu12i	$r4,206(0xce)
    1300:	00120501 	slt	$r1,$r8,$r1
    1304:	19c80205 	pcaddi	$r5,-114672(0xe4010)
    1308:	18061c00 	pcaddi	$r0,12512(0x30e0)
    130c:	05000505 	0x05000505
    1310:	0019c802 	sra.d	$r2,$r0,$r18
    1314:	0505181c 	0x0505181c
    1318:	c8020500 	0xc8020500
    131c:	181c0019 	pcaddi	$r25,57344(0xe000)
    1320:	05000505 	0x05000505
    1324:	0019c802 	sra.d	$r2,$r0,$r18
    1328:	0505191c 	0x0505191c
    132c:	c8020500 	0xc8020500
    1330:	061c0019 	cacop	0x19,$r0,1792(0x700)
    1334:	00010518 	0x00010518
    1338:	19d40205 	pcaddi	$r5,-90096(0xea010)
    133c:	21061c00 	sc.w	$r0,$r0,1564(0x61c)
    1340:	05000105 	0x05000105
    1344:	0019d402 	sra.d	$r2,$r0,$r21
    1348:	0505181c 	0x0505181c
    134c:	d4020500 	0xd4020500
    1350:	181c0019 	pcaddi	$r25,57344(0xe000)
    1354:	05000505 	0x05000505
    1358:	0019d402 	sra.d	$r2,$r0,$r21
    135c:	0150031c 	0x0150031c
    1360:	05000505 	0x05000505
    1364:	0019d402 	sra.d	$r2,$r0,$r21
    1368:	0505181c 	0x0505181c
    136c:	d4020500 	0xd4020500
    1370:	061c0019 	cacop	0x19,$r0,1792(0x700)
    1374:	00010544 	0x00010544
    1378:	19dc0205 	pcaddi	$r5,-73712(0xee010)
    137c:	53031c00 	b	197404(0x3031c) # 31698 <data_size+0x30ee4>
    1380:	00050501 	alsl.w	$r1,$r8,$r1,0x3
    1384:	19e40205 	pcaddi	$r5,-57328(0xf2010)
    1388:	1e061c00 	pcaddu18i	$r0,12512(0x30e0)
    138c:	05000505 	0x05000505
    1390:	0019e402 	sra.d	$r2,$r0,$r25
    1394:	0505401c 	0x0505401c
    1398:	e4020500 	0xe4020500
    139c:	181c0019 	pcaddi	$r25,57344(0xe000)
    13a0:	05000505 	0x05000505
    13a4:	0019e402 	sra.d	$r2,$r0,$r25
    13a8:	0516061c 	0x0516061c
    13ac:	02050006 	slti	$r6,$r0,320(0x140)
    13b0:	1c0019e8 	pcaddu12i	$r8,207(0xcf)
    13b4:	00010519 	0x00010519
    13b8:	19f80205 	pcaddi	$r5,-16368(0xfc010)
    13bc:	1b061c00 	pcalau12i	$r0,-511776(0x830e0)
    13c0:	05000105 	0x05000105
    13c4:	0019f802 	sra.d	$r2,$r0,$r30
    13c8:	0505181c 	0x0505181c
    13cc:	f8020500 	0xf8020500
    13d0:	181c0019 	pcaddi	$r25,57344(0xe000)
    13d4:	05000505 	0x05000505
    13d8:	0019f802 	sra.d	$r2,$r0,$r30
    13dc:	0147031c 	0x0147031c
    13e0:	05000505 	0x05000505
    13e4:	0019f802 	sra.d	$r2,$r0,$r30
    13e8:	0505181c 	0x0505181c
    13ec:	f8020500 	0xf8020500
    13f0:	061c0019 	cacop	0x19,$r0,1792(0x700)
    13f4:	0001054d 	0x0001054d
    13f8:	1a000205 	pcalau12i	$r5,16(0x10)
    13fc:	4a031c00 	bceqz	$fcc0,131868(0x2031c) # 21718 <data_size+0x20f64>
    1400:	00050501 	alsl.w	$r1,$r8,$r1,0x3
    1404:	1a080205 	pcalau12i	$r5,16400(0x4010)
    1408:	1e061c00 	pcaddu18i	$r0,12512(0x30e0)
    140c:	05000505 	0x05000505
    1410:	001a0802 	0x001a0802
    1414:	0505491c 	0x0505491c
    1418:	08020500 	0x08020500
    141c:	181c001a 	pcaddi	$r26,57344(0xe000)
    1420:	05000505 	0x05000505
    1424:	001a0802 	0x001a0802
    1428:	0516061c 	0x0516061c
    142c:	02050006 	slti	$r6,$r0,320(0x140)
    1430:	1c001a0c 	pcaddu12i	$r12,208(0xd0)
    1434:	00010519 	0x00010519
    1438:	1a280205 	pcalau12i	$r5,81936(0x14010)
    143c:	01001c00 	0x01001c00
    1440:	Address 0x0000000000001440 is out of bounds.


Disassembly of section .debug_str:

00000000 <.debug_str>:
   0:	63747570 	blt	$r11,$r16,-35724(0x37474) # ffff7474 <_stack+0xe3fe530c>
   4:	00726168 	bstrins.w	$r8,$r11,0x12,0x18
   8:	73747570 	0x73747570
   c:	6e697274 	bgeu	$r19,$r20,-104080(0x26970) # fffe697c <_stack+0xe3fd4814>
  10:	72700067 	0x72700067
  14:	62746e69 	blt	$r19,$r9,-101268(0x2746c) # fffe7480 <_stack+0xe3fd5318>
  18:	00657361 	bstrins.w	$r1,$r27,0x5,0x1c
  1c:	5f746774 	bne	$r27,$r20,-35740(0x37464) # ffff7480 <_stack+0xe3fe5318>
  20:	63747570 	blt	$r11,$r16,-35724(0x37474) # ffff7494 <_stack+0xe3fe532c>
  24:	00726168 	bstrins.w	$r8,$r11,0x12,0x18
  28:	63747570 	blt	$r11,$r16,-35724(0x37474) # ffff749c <_stack+0xe3fe5334>
  2c:	00726168 	bstrins.w	$r8,$r11,0x12,0x18
  30:	63747570 	blt	$r11,$r16,-35724(0x37474) # ffff74a4 <_stack+0xe3fe533c>
  34:	00726168 	bstrins.w	$r8,$r11,0x12,0x18
